ARM GAS  /tmp/cck78C9z.s 			page 1


   1              		.cpu cortex-m0
   2              		.fpu softvfp
   3              		.eabi_attribute 20, 1
   4              		.eabi_attribute 21, 1
   5              		.eabi_attribute 23, 3
   6              		.eabi_attribute 24, 1
   7              		.eabi_attribute 25, 1
   8              		.eabi_attribute 26, 1
   9              		.eabi_attribute 30, 2
  10              		.eabi_attribute 34, 0
  11              		.eabi_attribute 18, 4
  12              		.code	16
  13              		.file	"chcore_v6m.c"
  14              		.text
  15              	.Ltext0:
  16              		.cfi_sections	.debug_frame
  17              		.section	.text._port_switch_from_isr,"ax",%progbits
  18              		.align	2
  19              		.p2align 4,,15
  20              		.global	_port_switch_from_isr
  21              		.code	16
  22              		.thumb_func
  23              		.type	_port_switch_from_isr, %function
  24              	_port_switch_from_isr:
  25              	.LFB10:
  26              		.file 1 "/home/matt/arm_cortex/ChibiOS/os/ports/GCC/ARMCMx/chcore_v6m.c"
  27              		.loc 1 141 0
  28              		.cfi_startproc
  29              		.loc 1 144 0
  30 0000 FFF7FEFF 		bl	chSchDoReschedule
  31              	.LVL0:
  32              		.loc 1 146 0
  33              	@ 146 "/home/matt/arm_cortex/ChibiOS/os/ports/GCC/ARMCMx/chcore_v6m.c" 1
  34              		_port_exit_from_isr:
  35              	@ 0 "" 2
  36              		.loc 1 151 0
  37              		.code	16
  38 0004 8022     		mov	r2, #128
  39 0006 024B     		ldr	r3, .L4
  40 0008 1006     		lsl	r0, r2, #24
  41 000a 5860     		str	r0, [r3, #4]
  42              	.L2:
  43 000c FEE7     		b	.L2
  44              	.L5:
  45 000e C046     		.align	2
  46              	.L4:
  47 0010 00ED00E0 		.word	-536810240
  48              		.cfi_endproc
  49              	.LFE10:
  50              		.size	_port_switch_from_isr, .-_port_switch_from_isr
  51 0014 C046C046 		.section	.text.NMIVector,"ax",%progbits
  51      C046C046 
  51      C046C046 
  52              		.align	2
  53              		.p2align 4,,15
  54              		.global	NMIVector
  55              		.code	16
ARM GAS  /tmp/cck78C9z.s 			page 2


  56              		.thumb_func
  57              		.type	NMIVector, %function
  58              	NMIVector:
  59              	.LFB8:
  60              		.loc 1 64 0
  61              		.cfi_startproc
  62              		.loc 1 69 0
  63              	@ 69 "/home/matt/arm_cortex/ChibiOS/os/ports/GCC/ARMCMx/chcore_v6m.c" 1
  64 0000 EFF30983 		mrs     r3, PSP
  65              	@ 0 "" 2
  66              	.LVL1:
  67              		.loc 1 70 0
  68              		.code	16
  69 0004 2033     		add	r3, r3, #32
  70              	.LVL2:
  71              		.loc 1 71 0
  72              	@ 71 "/home/matt/arm_cortex/ChibiOS/os/ports/GCC/ARMCMx/chcore_v6m.c" 1
  73 0006 83F30988 		msr     PSP, r3
  74              	@ 0 "" 2
  75              		.loc 1 72 0
  76              	@ 72 "/home/matt/arm_cortex/ChibiOS/os/ports/GCC/ARMCMx/chcore_v6m.c" 1
  77 000a 62B6     		cpsie   i
  78              	@ 0 "" 2
  79              		.loc 1 73 0
  80              		.code	16
  81              		@ sp needed for prologue
  82 000c 7047     		bx	lr
  83              		.cfi_endproc
  84              	.LFE8:
  85              		.size	NMIVector, .-NMIVector
  86 000e C046     		.section	.text._port_irq_epilogue,"ax",%progbits
  87              		.align	2
  88              		.p2align 4,,15
  89              		.global	_port_irq_epilogue
  90              		.code	16
  91              		.thumb_func
  92              		.type	_port_irq_epilogue, %function
  93              	_port_irq_epilogue:
  94              	.LFB9:
  95              		.loc 1 102 0
  96              		.cfi_startproc
  97              	.LVL3:
  98              		.loc 1 104 0
  99 0000 0F30     		add	r0, r0, #15
 100 0002 17D0     		beq	.L7
 101              	.LVL4:
 102              	.LBB2:
 103              		.loc 1 107 0
 104              	@ 107 "/home/matt/arm_cortex/ChibiOS/os/ports/GCC/ARMCMx/chcore_v6m.c" 1
 105 0004 72B6     		cpsid   i
 106              	@ 0 "" 2
 107              		.loc 1 110 0
 108              	@ 110 "/home/matt/arm_cortex/ChibiOS/os/ports/GCC/ARMCMx/chcore_v6m.c" 1
 109 0006 EFF30983 		mrs     r3, PSP
 110              	@ 0 "" 2
 111              	.LVL5:
 112              		.loc 1 111 0
ARM GAS  /tmp/cck78C9z.s 			page 3


 113              		.code	16
 114 000a 203B     		sub	r3, r3, #32
 115              	.LVL6:
 116              		.loc 1 112 0
 117              	@ 112 "/home/matt/arm_cortex/ChibiOS/os/ports/GCC/ARMCMx/chcore_v6m.c" 1
 118 000c 83F30988 		msr     PSP, r3
 119              	@ 0 "" 2
 120              		.loc 1 113 0
 121              		.code	16
 122 0010 8022     		mov	r2, #128
 123 0012 5004     		lsl	r0, r2, #17
 124 0014 D861     		str	r0, [r3, #28]
 125              		.loc 1 117 0
 126 0016 0D48     		ldr	r0, .L17
 127 0018 8169     		ldr	r1, [r0, #24]
 128 001a CA7F     		ldrb	r2, [r1, #31]
 129 001c 002A     		cmp	r2, #0
 130 001e 0AD1     		bne	.L15
 131              		.loc 1 117 0 is_stmt 0 discriminator 2
 132 0020 0068     		ldr	r0, [r0]
 133 0022 8968     		ldr	r1, [r1, #8]
 134 0024 8068     		ldr	r0, [r0, #8]
 135 0026 8842     		cmp	r0, r1
 136 0028 5241     		adc	r2, r2, r2
 137 002a D2B2     		uxtb	r2, r2
 138 002c 002A     		cmp	r2, #0
 139 002e 0AD1     		bne	.L16
 140              	.L11:
 141              		.loc 1 124 0 is_stmt 1
 142 0030 074A     		ldr	r2, .L17+4
 143 0032 9A61     		str	r2, [r3, #24]
 144              	.LVL7:
 145              	.L7:
 146              	.LBE2:
 147              		.loc 1 130 0
 148              		@ sp needed for prologue
 149 0034 7047     		bx	lr
 150              	.LVL8:
 151              	.L15:
 152              	.LBB3:
 153              		.loc 1 117 0 discriminator 1
 154 0036 0068     		ldr	r0, [r0]
 155 0038 8968     		ldr	r1, [r1, #8]
 156 003a 8268     		ldr	r2, [r0, #8]
 157 003c 9142     		cmp	r1, r2
 158 003e 8041     		sbc	r0, r0, r0
 159 0040 4242     		neg	r2, r0
 160 0042 002A     		cmp	r2, #0
 161 0044 F4D0     		beq	.L11
 162              	.L16:
 163              		.loc 1 119 0
 164 0046 0349     		ldr	r1, .L17+8
 165 0048 9961     		str	r1, [r3, #24]
 166 004a F3E7     		b	.L7
 167              	.L18:
 168              		.align	2
 169              	.L17:
ARM GAS  /tmp/cck78C9z.s 			page 4


 170 004c 00000000 		.word	rlist
 171 0050 04000000 		.word	_port_exit_from_isr
 172 0054 00000000 		.word	_port_switch_from_isr
 173              	.LBE3:
 174              		.cfi_endproc
 175              	.LFE9:
 176              		.size	_port_irq_epilogue, .-_port_irq_epilogue
 177 0058 C046C046 		.section	.text.SysTickVector,"ax",%progbits
 177      C046C046 
 178              		.align	2
 179              		.p2align 4,,15
 180              		.global	SysTickVector
 181              		.code	16
 182              		.thumb_func
 183              		.type	SysTickVector, %function
 184              	SysTickVector:
 185              	.LFB7:
 186              		.loc 1 47 0
 187              		.cfi_startproc
 188 0000 10B5     		push	{r4, lr}
 189              	.LCFI0:
 190              		.cfi_def_cfa_offset 8
 191              		.cfi_offset 4, -8
 192              		.cfi_offset 14, -4
 193              		.loc 1 49 0
 194              	@ 49 "/home/matt/arm_cortex/ChibiOS/os/ports/GCC/ARMCMx/chcore_v6m.c" 1
 195 0002 7446     		mov     r4, lr
 196              	@ 0 "" 2
 197              	.LVL9:
 198              		.loc 1 51 0
 199              	@ 51 "/home/matt/arm_cortex/ChibiOS/os/ports/GCC/ARMCMx/chcore_v6m.c" 1
 200 0004 72B6     		cpsid   i
 201              	@ 0 "" 2
 202              		.loc 1 52 0
 203              		.code	16
 204 0006 FFF7FEFF 		bl	chSysTimerHandlerI
 205              	.LVL10:
 206              		.loc 1 53 0
 207              	@ 53 "/home/matt/arm_cortex/ChibiOS/os/ports/GCC/ARMCMx/chcore_v6m.c" 1
 208 000a 62B6     		cpsie   i
 209              	@ 0 "" 2
 210              		.loc 1 55 0
 211              		.code	16
 212 000c 201C     		mov	r0, r4
 213 000e FFF7FEFF 		bl	_port_irq_epilogue
 214              	.LVL11:
 215              		.loc 1 56 0
 216              		@ sp needed for prologue
 217              	.LVL12:
 218 0012 10BD     		pop	{r4, pc}
 219              		.cfi_endproc
 220              	.LFE7:
 221              		.size	SysTickVector, .-SysTickVector
 222 0014 C046C046 		.section	.text._port_switch,"ax",%progbits
 222      C046C046 
 222      C046C046 
 223              		.align	2
ARM GAS  /tmp/cck78C9z.s 			page 5


 224              		.p2align 4,,15
 225              		.global	_port_switch
 226              		.code	16
 227              		.thumb_func
 228              		.type	_port_switch, %function
 229              	_port_switch:
 230              	.LFB11:
 231              		.loc 1 172 0
 232              		.cfi_startproc
 233              	.LVL13:
 234              		.loc 1 175 0
 235              	@ 175 "/home/matt/arm_cortex/ChibiOS/os/ports/GCC/ARMCMx/chcore_v6m.c" 1
 236 0000 F0B5     		push    {r4, r5, r6, r7, lr}                   
 237 0002 4446     		mov     r4, r8                                 
 238 0004 4D46     		mov     r5, r9                                 
 239 0006 5646     		mov     r6, r10                                
 240 0008 5F46     		mov     r7, r11                                
 241 000a F0B4     		push    {r4, r5, r6, r7}
 242              	@ 0 "" 2
 243              		.loc 1 182 0
 244              		.code	16
 245 000c 6B46     		mov	r3, sp
 246 000e CB60     		str	r3, [r1, #12]
 247              		.loc 1 183 0
 248 0010 C368     		ldr	r3, [r0, #12]
 249 0012 9D46     		mov	sp, r3
 250              	.LVL14:
 251              		.loc 1 185 0
 252              	@ 185 "/home/matt/arm_cortex/ChibiOS/os/ports/GCC/ARMCMx/chcore_v6m.c" 1
 253 0014 F0BC     		pop     {r4, r5, r6, r7}                       
 254 0016 A046     		mov     r8, r4                                 
 255 0018 A946     		mov     r9, r5                                 
 256 001a B246     		mov     r10, r6                                
 257 001c BB46     		mov     r11, r7                                
 258 001e F0BD     		pop     {r4, r5, r6, r7, pc}
 259              	@ 0 "" 2
 260              		.loc 1 191 0
 261              		.code	16
 262              		.cfi_endproc
 263              	.LFE11:
 264              		.size	_port_switch, .-_port_switch
 265              		.section	.text._port_thread_start,"ax",%progbits
 266              		.align	2
 267              		.p2align 4,,15
 268              		.global	_port_thread_start
 269              		.code	16
 270              		.thumb_func
 271              		.type	_port_thread_start, %function
 272              	_port_thread_start:
 273              	.LFB12:
 274              		.loc 1 198 0
 275              		.cfi_startproc
 276              		.loc 1 200 0
 277              	@ 200 "/home/matt/arm_cortex/ChibiOS/os/ports/GCC/ARMCMx/chcore_v6m.c" 1
 278 0000 62B6     		cpsie   i
 279              	@ 0 "" 2
 280              		.loc 1 201 0
ARM GAS  /tmp/cck78C9z.s 			page 6


 281              	@ 201 "/home/matt/arm_cortex/ChibiOS/os/ports/GCC/ARMCMx/chcore_v6m.c" 1
 282 0002 281C     		mov     r0, r5                                 
 283 0004 A047     		blx     r4                                     
 284 0006 FFF7FEFF 		bl      chThdExit
 285              	@ 0 "" 2
 286              		.loc 1 204 0
 287              		.code	16
 288              		@ sp needed for prologue
 289 000a 7047     		bx	lr
 290              		.cfi_endproc
 291              	.LFE12:
 292              		.size	_port_thread_start, .-_port_thread_start
 293 000c C046C046 		.text
 294              	.Letext0:
 295              		.file 2 "/home/matt/arm_cortex/gcc-arm-none-eabi/bin/../lib/gcc/arm-none-eabi/4.7.4/../../../../ar
 296              		.file 3 "/home/matt/arm_cortex/ChibiOS/os/ports/GCC/ARMCMx/chtypes.h"
 297              		.file 4 "/home/matt/arm_cortex/ChibiOS/os/kernel/include/chlists.h"
 298              		.file 5 "/home/matt/arm_cortex/ChibiOS/os/kernel/include/chthreads.h"
 299              		.file 6 "/home/matt/arm_cortex/ChibiOS/os/ports/GCC/ARMCMx/chcore_v6m.h"
 300              		.file 7 "/home/matt/arm_cortex/ChibiOS/os/ports/common/ARMCMx/nvic.h"
 301              		.file 8 "/home/matt/arm_cortex/ChibiOS/os/kernel/include/chschd.h"
 302              		.file 9 "/home/matt/arm_cortex/ChibiOS/os/kernel/include/chmtx.h"
 303              		.file 10 "/home/matt/arm_cortex/ChibiOS/os/kernel/include/chsys.h"
 304              		.section	.debug_info,"",%progbits
 305              	.Ldebug_info0:
 306 0000 8E070000 		.4byte	0x78e
 307 0004 0200     		.2byte	0x2
 308 0006 00000000 		.4byte	.Ldebug_abbrev0
 309 000a 04       		.byte	0x4
 310 000b 01       		.uleb128 0x1
 311 000c 21030000 		.4byte	.LASF92
 312 0010 01       		.byte	0x1
 313 0011 51030000 		.4byte	.LASF93
 314 0015 18000000 		.4byte	.Ldebug_ranges0+0x18
 315 0019 00000000 		.4byte	0
 316 001d 00000000 		.4byte	0
 317 0021 00000000 		.4byte	.Ldebug_line0
 318 0025 02       		.uleb128 0x2
 319 0026 04       		.byte	0x4
 320 0027 05       		.byte	0x5
 321 0028 696E7400 		.ascii	"int\000"
 322 002c 03       		.uleb128 0x3
 323 002d 04       		.byte	0x4
 324 002e 07       		.byte	0x7
 325 002f F6000000 		.4byte	.LASF0
 326 0033 03       		.uleb128 0x3
 327 0034 01       		.byte	0x1
 328 0035 06       		.byte	0x6
 329 0036 7B000000 		.4byte	.LASF1
 330 003a 04       		.uleb128 0x4
 331 003b 19030000 		.4byte	.LASF5
 332 003f 02       		.byte	0x2
 333 0040 2A       		.byte	0x2a
 334 0041 45000000 		.4byte	0x45
 335 0045 03       		.uleb128 0x3
 336 0046 01       		.byte	0x1
 337 0047 08       		.byte	0x8
ARM GAS  /tmp/cck78C9z.s 			page 7


 338 0048 2A020000 		.4byte	.LASF2
 339 004c 03       		.uleb128 0x3
 340 004d 02       		.byte	0x2
 341 004e 05       		.byte	0x5
 342 004f 48020000 		.4byte	.LASF3
 343 0053 03       		.uleb128 0x3
 344 0054 02       		.byte	0x2
 345 0055 07       		.byte	0x7
 346 0056 53010000 		.4byte	.LASF4
 347 005a 04       		.uleb128 0x4
 348 005b 22020000 		.4byte	.LASF6
 349 005f 02       		.byte	0x2
 350 0060 4F       		.byte	0x4f
 351 0061 65000000 		.4byte	0x65
 352 0065 03       		.uleb128 0x3
 353 0066 04       		.byte	0x4
 354 0067 05       		.byte	0x5
 355 0068 A1000000 		.4byte	.LASF7
 356 006c 04       		.uleb128 0x4
 357 006d 98020000 		.4byte	.LASF8
 358 0071 02       		.byte	0x2
 359 0072 50       		.byte	0x50
 360 0073 77000000 		.4byte	0x77
 361 0077 03       		.uleb128 0x3
 362 0078 04       		.byte	0x4
 363 0079 07       		.byte	0x7
 364 007a 1E010000 		.4byte	.LASF9
 365 007e 03       		.uleb128 0x3
 366 007f 08       		.byte	0x8
 367 0080 05       		.byte	0x5
 368 0081 6D000000 		.4byte	.LASF10
 369 0085 03       		.uleb128 0x3
 370 0086 08       		.byte	0x8
 371 0087 07       		.byte	0x7
 372 0088 36000000 		.4byte	.LASF11
 373 008c 03       		.uleb128 0x3
 374 008d 01       		.byte	0x1
 375 008e 02       		.byte	0x2
 376 008f 1C020000 		.4byte	.LASF12
 377 0093 04       		.uleb128 0x4
 378 0094 95010000 		.4byte	.LASF13
 379 0098 03       		.byte	0x3
 380 0099 2C       		.byte	0x2c
 381 009a 3A000000 		.4byte	0x3a
 382 009e 04       		.uleb128 0x4
 383 009f AA000000 		.4byte	.LASF14
 384 00a3 03       		.byte	0x3
 385 00a4 2D       		.byte	0x2d
 386 00a5 3A000000 		.4byte	0x3a
 387 00a9 04       		.uleb128 0x4
 388 00aa 00020000 		.4byte	.LASF15
 389 00ae 03       		.byte	0x3
 390 00af 2E       		.byte	0x2e
 391 00b0 3A000000 		.4byte	0x3a
 392 00b4 04       		.uleb128 0x4
 393 00b5 97000000 		.4byte	.LASF16
 394 00b9 03       		.byte	0x3
ARM GAS  /tmp/cck78C9z.s 			page 8


 395 00ba 2F       		.byte	0x2f
 396 00bb 3A000000 		.4byte	0x3a
 397 00bf 04       		.uleb128 0x4
 398 00c0 14020000 		.4byte	.LASF17
 399 00c4 03       		.byte	0x3
 400 00c5 30       		.byte	0x30
 401 00c6 6C000000 		.4byte	0x6c
 402 00ca 04       		.uleb128 0x4
 403 00cb 6B010000 		.4byte	.LASF18
 404 00cf 03       		.byte	0x3
 405 00d0 31       		.byte	0x31
 406 00d1 5A000000 		.4byte	0x5a
 407 00d5 04       		.uleb128 0x4
 408 00d6 A9010000 		.4byte	.LASF19
 409 00da 03       		.byte	0x3
 410 00db 33       		.byte	0x33
 411 00dc 6C000000 		.4byte	0x6c
 412 00e0 04       		.uleb128 0x4
 413 00e1 CA020000 		.4byte	.LASF20
 414 00e5 03       		.byte	0x3
 415 00e6 35       		.byte	0x35
 416 00e7 6C000000 		.4byte	0x6c
 417 00eb 04       		.uleb128 0x4
 418 00ec 86020000 		.4byte	.LASF21
 419 00f0 04       		.byte	0x4
 420 00f1 2A       		.byte	0x2a
 421 00f2 F6000000 		.4byte	0xf6
 422 00f6 05       		.uleb128 0x5
 423 00f7 86020000 		.4byte	.LASF21
 424 00fb 48       		.byte	0x48
 425 00fc 05       		.byte	0x5
 426 00fd 5E       		.byte	0x5e
 427 00fe 1B020000 		.4byte	0x21b
 428 0102 06       		.uleb128 0x6
 429 0103 77020000 		.4byte	.LASF22
 430 0107 05       		.byte	0x5
 431 0108 5F       		.byte	0x5f
 432 0109 40020000 		.4byte	0x240
 433 010d 02       		.byte	0x2
 434 010e 23       		.byte	0x23
 435 010f 00       		.uleb128 0
 436 0110 06       		.uleb128 0x6
 437 0111 0D020000 		.4byte	.LASF23
 438 0115 05       		.byte	0x5
 439 0116 61       		.byte	0x61
 440 0117 40020000 		.4byte	0x240
 441 011b 02       		.byte	0x2
 442 011c 23       		.byte	0x23
 443 011d 04       		.uleb128 0x4
 444 011e 06       		.uleb128 0x6
 445 011f 5C000000 		.4byte	.LASF24
 446 0123 05       		.byte	0x5
 447 0124 63       		.byte	0x63
 448 0125 BF000000 		.4byte	0xbf
 449 0129 02       		.byte	0x2
 450 012a 23       		.byte	0x23
 451 012b 08       		.uleb128 0x8
ARM GAS  /tmp/cck78C9z.s 			page 9


 452 012c 06       		.uleb128 0x6
 453 012d A3030000 		.4byte	.LASF25
 454 0131 05       		.byte	0x5
 455 0132 64       		.byte	0x64
 456 0133 7C030000 		.4byte	0x37c
 457 0137 02       		.byte	0x2
 458 0138 23       		.byte	0x23
 459 0139 0C       		.uleb128 0xc
 460 013a 06       		.uleb128 0x6
 461 013b C6000000 		.4byte	.LASF26
 462 013f 05       		.byte	0x5
 463 0140 66       		.byte	0x66
 464 0141 40020000 		.4byte	0x240
 465 0145 02       		.byte	0x2
 466 0146 23       		.byte	0x23
 467 0147 10       		.uleb128 0x10
 468 0148 06       		.uleb128 0x6
 469 0149 C9010000 		.4byte	.LASF27
 470 014d 05       		.byte	0x5
 471 014e 67       		.byte	0x67
 472 014f 40020000 		.4byte	0x240
 473 0153 02       		.byte	0x2
 474 0154 23       		.byte	0x23
 475 0155 14       		.uleb128 0x14
 476 0156 06       		.uleb128 0x6
 477 0157 4A030000 		.4byte	.LASF28
 478 015b 05       		.byte	0x5
 479 015c 6E       		.byte	0x6e
 480 015d 32060000 		.4byte	0x632
 481 0161 02       		.byte	0x2
 482 0162 23       		.byte	0x23
 483 0163 18       		.uleb128 0x18
 484 0164 06       		.uleb128 0x6
 485 0165 52020000 		.4byte	.LASF29
 486 0169 05       		.byte	0x5
 487 016a 79       		.byte	0x79
 488 016b 9E000000 		.4byte	0x9e
 489 016f 02       		.byte	0x2
 490 0170 23       		.byte	0x23
 491 0171 1C       		.uleb128 0x1c
 492 0172 06       		.uleb128 0x6
 493 0173 7E020000 		.4byte	.LASF30
 494 0177 05       		.byte	0x5
 495 0178 7D       		.byte	0x7d
 496 0179 93000000 		.4byte	0x93
 497 017d 02       		.byte	0x2
 498 017e 23       		.byte	0x23
 499 017f 1D       		.uleb128 0x1d
 500 0180 06       		.uleb128 0x6
 501 0181 FD020000 		.4byte	.LASF31
 502 0185 05       		.byte	0x5
 503 0186 82       		.byte	0x82
 504 0187 A9000000 		.4byte	0xa9
 505 018b 02       		.byte	0x2
 506 018c 23       		.byte	0x23
 507 018d 1E       		.uleb128 0x1e
 508 018e 06       		.uleb128 0x6
ARM GAS  /tmp/cck78C9z.s 			page 10


 509 018f 5A020000 		.4byte	.LASF32
 510 0193 05       		.byte	0x5
 511 0194 88       		.byte	0x88
 512 0195 B4000000 		.4byte	0xb4
 513 0199 02       		.byte	0x2
 514 019a 23       		.byte	0x23
 515 019b 1F       		.uleb128 0x1f
 516 019c 06       		.uleb128 0x6
 517 019d DF020000 		.4byte	.LASF33
 518 01a1 05       		.byte	0x5
 519 01a2 8F       		.byte	0x8f
 520 01a3 48050000 		.4byte	0x548
 521 01a7 02       		.byte	0x2
 522 01a8 23       		.byte	0x23
 523 01a9 20       		.uleb128 0x20
 524 01aa 07       		.uleb128 0x7
 525 01ab 705F7500 		.ascii	"p_u\000"
 526 01af 05       		.byte	0x5
 527 01b0 B4       		.byte	0xb4
 528 01b1 FD050000 		.4byte	0x5fd
 529 01b5 02       		.byte	0x2
 530 01b6 23       		.byte	0x23
 531 01b7 24       		.uleb128 0x24
 532 01b8 06       		.uleb128 0x6
 533 01b9 A9030000 		.4byte	.LASF34
 534 01bd 05       		.byte	0x5
 535 01be B9       		.byte	0xb9
 536 01bf 68020000 		.4byte	0x268
 537 01c3 02       		.byte	0x2
 538 01c4 23       		.byte	0x23
 539 01c5 28       		.uleb128 0x28
 540 01c6 06       		.uleb128 0x6
 541 01c7 F2020000 		.4byte	.LASF35
 542 01cb 05       		.byte	0x5
 543 01cc BF       		.byte	0xbf
 544 01cd 46020000 		.4byte	0x246
 545 01d1 02       		.byte	0x2
 546 01d2 23       		.byte	0x23
 547 01d3 2C       		.uleb128 0x2c
 548 01d4 06       		.uleb128 0x6
 549 01d5 00000000 		.4byte	.LASF36
 550 01d9 05       		.byte	0x5
 551 01da C3       		.byte	0xc3
 552 01db CA000000 		.4byte	0xca
 553 01df 02       		.byte	0x2
 554 01e0 23       		.byte	0x23
 555 01e1 34       		.uleb128 0x34
 556 01e2 06       		.uleb128 0x6
 557 01e3 8D020000 		.4byte	.LASF37
 558 01e7 05       		.byte	0x5
 559 01e8 C9       		.byte	0xc9
 560 01e9 D5000000 		.4byte	0xd5
 561 01ed 02       		.byte	0x2
 562 01ee 23       		.byte	0x23
 563 01ef 38       		.uleb128 0x38
 564 01f0 06       		.uleb128 0x6
 565 01f1 3E020000 		.4byte	.LASF38
ARM GAS  /tmp/cck78C9z.s 			page 11


 566 01f5 05       		.byte	0x5
 567 01f6 D0       		.byte	0xd0
 568 01f7 44060000 		.4byte	0x644
 569 01fb 02       		.byte	0x2
 570 01fc 23       		.byte	0x23
 571 01fd 3C       		.uleb128 0x3c
 572 01fe 06       		.uleb128 0x6
 573 01ff D4020000 		.4byte	.LASF39
 574 0203 05       		.byte	0x5
 575 0204 D4       		.byte	0xd4
 576 0205 BF000000 		.4byte	0xbf
 577 0209 02       		.byte	0x2
 578 020a 23       		.byte	0x23
 579 020b 40       		.uleb128 0x40
 580 020c 06       		.uleb128 0x6
 581 020d 87000000 		.4byte	.LASF40
 582 0211 05       		.byte	0x5
 583 0212 DA       		.byte	0xda
 584 0213 7E020000 		.4byte	0x27e
 585 0217 02       		.byte	0x2
 586 0218 23       		.byte	0x23
 587 0219 44       		.uleb128 0x44
 588 021a 00       		.byte	0
 589 021b 08       		.uleb128 0x8
 590 021c 08       		.byte	0x8
 591 021d 04       		.byte	0x4
 592 021e 61       		.byte	0x61
 593 021f 40020000 		.4byte	0x240
 594 0223 06       		.uleb128 0x6
 595 0224 77020000 		.4byte	.LASF22
 596 0228 04       		.byte	0x4
 597 0229 62       		.byte	0x62
 598 022a 40020000 		.4byte	0x240
 599 022e 02       		.byte	0x2
 600 022f 23       		.byte	0x23
 601 0230 00       		.uleb128 0
 602 0231 06       		.uleb128 0x6
 603 0232 0D020000 		.4byte	.LASF23
 604 0236 04       		.byte	0x4
 605 0237 64       		.byte	0x64
 606 0238 40020000 		.4byte	0x240
 607 023c 02       		.byte	0x2
 608 023d 23       		.byte	0x23
 609 023e 04       		.uleb128 0x4
 610 023f 00       		.byte	0
 611 0240 09       		.uleb128 0x9
 612 0241 04       		.byte	0x4
 613 0242 EB000000 		.4byte	0xeb
 614 0246 04       		.uleb128 0x4
 615 0247 D7010000 		.4byte	.LASF41
 616 024b 04       		.byte	0x4
 617 024c 66       		.byte	0x66
 618 024d 1B020000 		.4byte	0x21b
 619 0251 08       		.uleb128 0x8
 620 0252 04       		.byte	0x4
 621 0253 04       		.byte	0x4
 622 0254 6B       		.byte	0x6b
ARM GAS  /tmp/cck78C9z.s 			page 12


 623 0255 68020000 		.4byte	0x268
 624 0259 06       		.uleb128 0x6
 625 025a 77020000 		.4byte	.LASF22
 626 025e 04       		.byte	0x4
 627 025f 6D       		.byte	0x6d
 628 0260 40020000 		.4byte	0x240
 629 0264 02       		.byte	0x2
 630 0265 23       		.byte	0x23
 631 0266 00       		.uleb128 0
 632 0267 00       		.byte	0
 633 0268 04       		.uleb128 0x4
 634 0269 9D010000 		.4byte	.LASF42
 635 026d 04       		.byte	0x4
 636 026e 70       		.byte	0x70
 637 026f 51020000 		.4byte	0x251
 638 0273 04       		.uleb128 0x4
 639 0274 DB000000 		.4byte	.LASF43
 640 0278 06       		.byte	0x6
 641 0279 A7       		.byte	0xa7
 642 027a 7E020000 		.4byte	0x27e
 643 027e 0A       		.uleb128 0xa
 644 027f 04       		.byte	0x4
 645 0280 05       		.uleb128 0x5
 646 0281 0A010000 		.4byte	.LASF44
 647 0285 20       		.byte	0x20
 648 0286 06       		.byte	0x6
 649 0287 AF       		.byte	0xaf
 650 0288 F8020000 		.4byte	0x2f8
 651 028c 07       		.uleb128 0x7
 652 028d 723000   		.ascii	"r0\000"
 653 0290 06       		.byte	0x6
 654 0291 B0       		.byte	0xb0
 655 0292 73020000 		.4byte	0x273
 656 0296 02       		.byte	0x2
 657 0297 23       		.byte	0x23
 658 0298 00       		.uleb128 0
 659 0299 07       		.uleb128 0x7
 660 029a 723100   		.ascii	"r1\000"
 661 029d 06       		.byte	0x6
 662 029e B1       		.byte	0xb1
 663 029f 73020000 		.4byte	0x273
 664 02a3 02       		.byte	0x2
 665 02a4 23       		.byte	0x23
 666 02a5 04       		.uleb128 0x4
 667 02a6 07       		.uleb128 0x7
 668 02a7 723200   		.ascii	"r2\000"
 669 02aa 06       		.byte	0x6
 670 02ab B2       		.byte	0xb2
 671 02ac 73020000 		.4byte	0x273
 672 02b0 02       		.byte	0x2
 673 02b1 23       		.byte	0x23
 674 02b2 08       		.uleb128 0x8
 675 02b3 07       		.uleb128 0x7
 676 02b4 723300   		.ascii	"r3\000"
 677 02b7 06       		.byte	0x6
 678 02b8 B3       		.byte	0xb3
 679 02b9 73020000 		.4byte	0x273
ARM GAS  /tmp/cck78C9z.s 			page 13


 680 02bd 02       		.byte	0x2
 681 02be 23       		.byte	0x23
 682 02bf 0C       		.uleb128 0xc
 683 02c0 07       		.uleb128 0x7
 684 02c1 72313200 		.ascii	"r12\000"
 685 02c5 06       		.byte	0x6
 686 02c6 B4       		.byte	0xb4
 687 02c7 73020000 		.4byte	0x273
 688 02cb 02       		.byte	0x2
 689 02cc 23       		.byte	0x23
 690 02cd 10       		.uleb128 0x10
 691 02ce 06       		.uleb128 0x6
 692 02cf 03010000 		.4byte	.LASF45
 693 02d3 06       		.byte	0x6
 694 02d4 B5       		.byte	0xb5
 695 02d5 73020000 		.4byte	0x273
 696 02d9 02       		.byte	0x2
 697 02da 23       		.byte	0x23
 698 02db 14       		.uleb128 0x14
 699 02dc 07       		.uleb128 0x7
 700 02dd 706300   		.ascii	"pc\000"
 701 02e0 06       		.byte	0x6
 702 02e1 B6       		.byte	0xb6
 703 02e2 73020000 		.4byte	0x273
 704 02e6 02       		.byte	0x2
 705 02e7 23       		.byte	0x23
 706 02e8 18       		.uleb128 0x18
 707 02e9 06       		.uleb128 0x6
 708 02ea 64020000 		.4byte	.LASF46
 709 02ee 06       		.byte	0x6
 710 02ef B7       		.byte	0xb7
 711 02f0 73020000 		.4byte	0x273
 712 02f4 02       		.byte	0x2
 713 02f5 23       		.byte	0x23
 714 02f6 1C       		.uleb128 0x1c
 715 02f7 00       		.byte	0
 716 02f8 05       		.uleb128 0x5
 717 02f9 EB020000 		.4byte	.LASF47
 718 02fd 24       		.byte	0x24
 719 02fe 06       		.byte	0x6
 720 02ff BA       		.byte	0xba
 721 0300 7C030000 		.4byte	0x37c
 722 0304 07       		.uleb128 0x7
 723 0305 723800   		.ascii	"r8\000"
 724 0308 06       		.byte	0x6
 725 0309 BB       		.byte	0xbb
 726 030a 73020000 		.4byte	0x273
 727 030e 02       		.byte	0x2
 728 030f 23       		.byte	0x23
 729 0310 00       		.uleb128 0
 730 0311 07       		.uleb128 0x7
 731 0312 723900   		.ascii	"r9\000"
 732 0315 06       		.byte	0x6
 733 0316 BC       		.byte	0xbc
 734 0317 73020000 		.4byte	0x273
 735 031b 02       		.byte	0x2
 736 031c 23       		.byte	0x23
ARM GAS  /tmp/cck78C9z.s 			page 14


 737 031d 04       		.uleb128 0x4
 738 031e 07       		.uleb128 0x7
 739 031f 72313000 		.ascii	"r10\000"
 740 0323 06       		.byte	0x6
 741 0324 BD       		.byte	0xbd
 742 0325 73020000 		.4byte	0x273
 743 0329 02       		.byte	0x2
 744 032a 23       		.byte	0x23
 745 032b 08       		.uleb128 0x8
 746 032c 07       		.uleb128 0x7
 747 032d 72313100 		.ascii	"r11\000"
 748 0331 06       		.byte	0x6
 749 0332 BE       		.byte	0xbe
 750 0333 73020000 		.4byte	0x273
 751 0337 02       		.byte	0x2
 752 0338 23       		.byte	0x23
 753 0339 0C       		.uleb128 0xc
 754 033a 07       		.uleb128 0x7
 755 033b 723400   		.ascii	"r4\000"
 756 033e 06       		.byte	0x6
 757 033f BF       		.byte	0xbf
 758 0340 73020000 		.4byte	0x273
 759 0344 02       		.byte	0x2
 760 0345 23       		.byte	0x23
 761 0346 10       		.uleb128 0x10
 762 0347 07       		.uleb128 0x7
 763 0348 723500   		.ascii	"r5\000"
 764 034b 06       		.byte	0x6
 765 034c C0       		.byte	0xc0
 766 034d 73020000 		.4byte	0x273
 767 0351 02       		.byte	0x2
 768 0352 23       		.byte	0x23
 769 0353 14       		.uleb128 0x14
 770 0354 07       		.uleb128 0x7
 771 0355 723600   		.ascii	"r6\000"
 772 0358 06       		.byte	0x6
 773 0359 C1       		.byte	0xc1
 774 035a 73020000 		.4byte	0x273
 775 035e 02       		.byte	0x2
 776 035f 23       		.byte	0x23
 777 0360 18       		.uleb128 0x18
 778 0361 07       		.uleb128 0x7
 779 0362 723700   		.ascii	"r7\000"
 780 0365 06       		.byte	0x6
 781 0366 C2       		.byte	0xc2
 782 0367 73020000 		.4byte	0x273
 783 036b 02       		.byte	0x2
 784 036c 23       		.byte	0x23
 785 036d 1C       		.uleb128 0x1c
 786 036e 07       		.uleb128 0x7
 787 036f 6C7200   		.ascii	"lr\000"
 788 0372 06       		.byte	0x6
 789 0373 C3       		.byte	0xc3
 790 0374 73020000 		.4byte	0x273
 791 0378 02       		.byte	0x2
 792 0379 23       		.byte	0x23
 793 037a 20       		.uleb128 0x20
ARM GAS  /tmp/cck78C9z.s 			page 15


 794 037b 00       		.byte	0
 795 037c 05       		.uleb128 0x5
 796 037d 4B010000 		.4byte	.LASF48
 797 0381 04       		.byte	0x4
 798 0382 06       		.byte	0x6
 799 0383 CD       		.byte	0xcd
 800 0384 97030000 		.4byte	0x397
 801 0388 07       		.uleb128 0x7
 802 0389 72313300 		.ascii	"r13\000"
 803 038d 06       		.byte	0x6
 804 038e CE       		.byte	0xce
 805 038f 97030000 		.4byte	0x397
 806 0393 02       		.byte	0x2
 807 0394 23       		.byte	0x23
 808 0395 00       		.uleb128 0
 809 0396 00       		.byte	0
 810 0397 09       		.uleb128 0x9
 811 0398 04       		.byte	0x4
 812 0399 F8020000 		.4byte	0x2f8
 813 039d 04       		.uleb128 0x4
 814 039e BB020000 		.4byte	.LASF49
 815 03a2 07       		.byte	0x7
 816 03a3 3A       		.byte	0x3a
 817 03a4 A8030000 		.4byte	0x3a8
 818 03a8 0B       		.uleb128 0xb
 819 03a9 6C000000 		.4byte	0x6c
 820 03ad 03       		.uleb128 0x3
 821 03ae 04       		.byte	0x4
 822 03af 07       		.byte	0x7
 823 03b0 BB010000 		.4byte	.LASF50
 824 03b4 08       		.uleb128 0x8
 825 03b5 8C       		.byte	0x8c
 826 03b6 07       		.byte	0x7
 827 03b7 89       		.byte	0x89
 828 03b8 E4040000 		.4byte	0x4e4
 829 03bc 06       		.uleb128 0x6
 830 03bd 56000000 		.4byte	.LASF51
 831 03c1 07       		.byte	0x7
 832 03c2 8A       		.byte	0x8a
 833 03c3 9D030000 		.4byte	0x39d
 834 03c7 02       		.byte	0x2
 835 03c8 23       		.byte	0x23
 836 03c9 00       		.uleb128 0
 837 03ca 06       		.uleb128 0x6
 838 03cb 66010000 		.4byte	.LASF52
 839 03cf 07       		.byte	0x7
 840 03d0 8B       		.byte	0x8b
 841 03d1 9D030000 		.4byte	0x39d
 842 03d5 02       		.byte	0x2
 843 03d6 23       		.byte	0x23
 844 03d7 04       		.uleb128 0x4
 845 03d8 06       		.uleb128 0x6
 846 03d9 30010000 		.4byte	.LASF53
 847 03dd 07       		.byte	0x7
 848 03de 8C       		.byte	0x8c
 849 03df 9D030000 		.4byte	0x39d
 850 03e3 02       		.byte	0x2
ARM GAS  /tmp/cck78C9z.s 			page 16


 851 03e4 23       		.byte	0x23
 852 03e5 08       		.uleb128 0x8
 853 03e6 06       		.uleb128 0x6
 854 03e7 71010000 		.4byte	.LASF54
 855 03eb 07       		.byte	0x7
 856 03ec 8D       		.byte	0x8d
 857 03ed 9D030000 		.4byte	0x39d
 858 03f1 02       		.byte	0x2
 859 03f2 23       		.byte	0x23
 860 03f3 0C       		.uleb128 0xc
 861 03f4 07       		.uleb128 0x7
 862 03f5 53435200 		.ascii	"SCR\000"
 863 03f9 07       		.byte	0x7
 864 03fa 8E       		.byte	0x8e
 865 03fb 9D030000 		.4byte	0x39d
 866 03ff 02       		.byte	0x2
 867 0400 23       		.byte	0x23
 868 0401 10       		.uleb128 0x10
 869 0402 07       		.uleb128 0x7
 870 0403 43435200 		.ascii	"CCR\000"
 871 0407 07       		.byte	0x7
 872 0408 8F       		.byte	0x8f
 873 0409 9D030000 		.4byte	0x39d
 874 040d 02       		.byte	0x2
 875 040e 23       		.byte	0x23
 876 040f 14       		.uleb128 0x14
 877 0410 06       		.uleb128 0x6
 878 0411 E6020000 		.4byte	.LASF55
 879 0415 07       		.byte	0x7
 880 0416 90       		.byte	0x90
 881 0417 F4040000 		.4byte	0x4f4
 882 041b 02       		.byte	0x2
 883 041c 23       		.byte	0x23
 884 041d 18       		.uleb128 0x18
 885 041e 06       		.uleb128 0x6
 886 041f 38020000 		.4byte	.LASF56
 887 0423 07       		.byte	0x7
 888 0424 91       		.byte	0x91
 889 0425 9D030000 		.4byte	0x39d
 890 0429 02       		.byte	0x2
 891 042a 23       		.byte	0x23
 892 042b 24       		.uleb128 0x24
 893 042c 06       		.uleb128 0x6
 894 042d C4010000 		.4byte	.LASF57
 895 0431 07       		.byte	0x7
 896 0432 92       		.byte	0x92
 897 0433 9D030000 		.4byte	0x39d
 898 0437 02       		.byte	0x2
 899 0438 23       		.byte	0x23
 900 0439 28       		.uleb128 0x28
 901 043a 06       		.uleb128 0x6
 902 043b 96030000 		.4byte	.LASF58
 903 043f 07       		.byte	0x7
 904 0440 93       		.byte	0x93
 905 0441 9D030000 		.4byte	0x39d
 906 0445 02       		.byte	0x2
 907 0446 23       		.byte	0x23
ARM GAS  /tmp/cck78C9z.s 			page 17


 908 0447 2C       		.uleb128 0x2c
 909 0448 06       		.uleb128 0x6
 910 0449 77010000 		.4byte	.LASF59
 911 044d 07       		.byte	0x7
 912 044e 94       		.byte	0x94
 913 044f 9D030000 		.4byte	0x39d
 914 0453 02       		.byte	0x2
 915 0454 23       		.byte	0x23
 916 0455 30       		.uleb128 0x30
 917 0456 06       		.uleb128 0x6
 918 0457 7C010000 		.4byte	.LASF60
 919 045b 07       		.byte	0x7
 920 045c 95       		.byte	0x95
 921 045d 9D030000 		.4byte	0x39d
 922 0461 02       		.byte	0x2
 923 0462 23       		.byte	0x23
 924 0463 34       		.uleb128 0x34
 925 0464 06       		.uleb128 0x6
 926 0465 CE000000 		.4byte	.LASF61
 927 0469 07       		.byte	0x7
 928 046a 96       		.byte	0x96
 929 046b 9D030000 		.4byte	0x39d
 930 046f 02       		.byte	0x2
 931 0470 23       		.byte	0x23
 932 0471 38       		.uleb128 0x38
 933 0472 06       		.uleb128 0x6
 934 0473 A9020000 		.4byte	.LASF62
 935 0477 07       		.byte	0x7
 936 0478 97       		.byte	0x97
 937 0479 9D030000 		.4byte	0x39d
 938 047d 02       		.byte	0x2
 939 047e 23       		.byte	0x23
 940 047f 3C       		.uleb128 0x3c
 941 0480 07       		.uleb128 0x7
 942 0481 50465200 		.ascii	"PFR\000"
 943 0485 07       		.byte	0x7
 944 0486 98       		.byte	0x98
 945 0487 09050000 		.4byte	0x509
 946 048b 02       		.byte	0x2
 947 048c 23       		.byte	0x23
 948 048d 40       		.uleb128 0x40
 949 048e 07       		.uleb128 0x7
 950 048f 44465200 		.ascii	"DFR\000"
 951 0493 07       		.byte	0x7
 952 0494 99       		.byte	0x99
 953 0495 9D030000 		.4byte	0x39d
 954 0499 02       		.byte	0x2
 955 049a 23       		.byte	0x23
 956 049b 48       		.uleb128 0x48
 957 049c 07       		.uleb128 0x7
 958 049d 41445200 		.ascii	"ADR\000"
 959 04a1 07       		.byte	0x7
 960 04a2 9A       		.byte	0x9a
 961 04a3 9D030000 		.4byte	0x39d
 962 04a7 02       		.byte	0x2
 963 04a8 23       		.byte	0x23
 964 04a9 4C       		.uleb128 0x4c
ARM GAS  /tmp/cck78C9z.s 			page 18


 965 04aa 06       		.uleb128 0x6
 966 04ab 0E030000 		.4byte	.LASF63
 967 04af 07       		.byte	0x7
 968 04b0 9B       		.byte	0x9b
 969 04b1 1E050000 		.4byte	0x51e
 970 04b5 02       		.byte	0x2
 971 04b6 23       		.byte	0x23
 972 04b7 50       		.uleb128 0x50
 973 04b8 07       		.uleb128 0x7
 974 04b9 53415200 		.ascii	"SAR\000"
 975 04bd 07       		.byte	0x7
 976 04be 9C       		.byte	0x9c
 977 04bf 33050000 		.4byte	0x533
 978 04c3 02       		.byte	0x2
 979 04c4 23       		.byte	0x23
 980 04c5 60       		.uleb128 0x60
 981 04c6 06       		.uleb128 0x6
 982 04c7 AE020000 		.4byte	.LASF64
 983 04cb 07       		.byte	0x7
 984 04cc 9D       		.byte	0x9d
 985 04cd 38050000 		.4byte	0x538
 986 04d1 02       		.byte	0x2
 987 04d2 23       		.byte	0x23
 988 04d3 74       		.uleb128 0x74
 989 04d4 06       		.uleb128 0x6
 990 04d5 90030000 		.4byte	.LASF65
 991 04d9 07       		.byte	0x7
 992 04da 9E       		.byte	0x9e
 993 04db 9D030000 		.4byte	0x39d
 994 04df 03       		.byte	0x3
 995 04e0 23       		.byte	0x23
 996 04e1 8801     		.uleb128 0x88
 997 04e3 00       		.byte	0
 998 04e4 0C       		.uleb128 0xc
 999 04e5 9D030000 		.4byte	0x39d
 1000 04e9 F4040000 		.4byte	0x4f4
 1001 04ed 0D       		.uleb128 0xd
 1002 04ee AD030000 		.4byte	0x3ad
 1003 04f2 02       		.byte	0x2
 1004 04f3 00       		.byte	0
 1005 04f4 0B       		.uleb128 0xb
 1006 04f5 E4040000 		.4byte	0x4e4
 1007 04f9 0C       		.uleb128 0xc
 1008 04fa 9D030000 		.4byte	0x39d
 1009 04fe 09050000 		.4byte	0x509
 1010 0502 0D       		.uleb128 0xd
 1011 0503 AD030000 		.4byte	0x3ad
 1012 0507 01       		.byte	0x1
 1013 0508 00       		.byte	0
 1014 0509 0B       		.uleb128 0xb
 1015 050a F9040000 		.4byte	0x4f9
 1016 050e 0C       		.uleb128 0xc
 1017 050f 9D030000 		.4byte	0x39d
 1018 0513 1E050000 		.4byte	0x51e
 1019 0517 0D       		.uleb128 0xd
 1020 0518 AD030000 		.4byte	0x3ad
 1021 051c 03       		.byte	0x3
ARM GAS  /tmp/cck78C9z.s 			page 19


 1022 051d 00       		.byte	0
 1023 051e 0B       		.uleb128 0xb
 1024 051f 0E050000 		.4byte	0x50e
 1025 0523 0C       		.uleb128 0xc
 1026 0524 9D030000 		.4byte	0x39d
 1027 0528 33050000 		.4byte	0x533
 1028 052c 0D       		.uleb128 0xd
 1029 052d AD030000 		.4byte	0x3ad
 1030 0531 04       		.byte	0x4
 1031 0532 00       		.byte	0
 1032 0533 0B       		.uleb128 0xb
 1033 0534 23050000 		.4byte	0x523
 1034 0538 0B       		.uleb128 0xb
 1035 0539 23050000 		.4byte	0x523
 1036 053d 04       		.uleb128 0x4
 1037 053e 0D000000 		.4byte	.LASF66
 1038 0542 07       		.byte	0x7
 1039 0543 9F       		.byte	0x9f
 1040 0544 B4030000 		.4byte	0x3b4
 1041 0548 0B       		.uleb128 0xb
 1042 0549 E0000000 		.4byte	0xe0
 1043 054d 08       		.uleb128 0x8
 1044 054e 1C       		.byte	0x1c
 1045 054f 08       		.byte	0x8
 1046 0550 5E       		.byte	0x5e
 1047 0551 AA050000 		.4byte	0x5aa
 1048 0555 06       		.uleb128 0x6
 1049 0556 A1020000 		.4byte	.LASF67
 1050 055a 08       		.byte	0x8
 1051 055b 5F       		.byte	0x5f
 1052 055c 46020000 		.4byte	0x246
 1053 0560 02       		.byte	0x2
 1054 0561 23       		.byte	0x23
 1055 0562 00       		.uleb128 0
 1056 0563 06       		.uleb128 0x6
 1057 0564 69020000 		.4byte	.LASF68
 1058 0568 08       		.byte	0x8
 1059 0569 60       		.byte	0x60
 1060 056a BF000000 		.4byte	0xbf
 1061 056e 02       		.byte	0x2
 1062 056f 23       		.byte	0x23
 1063 0570 08       		.uleb128 0x8
 1064 0571 06       		.uleb128 0x6
 1065 0572 D1010000 		.4byte	.LASF69
 1066 0576 08       		.byte	0x8
 1067 0577 62       		.byte	0x62
 1068 0578 7C030000 		.4byte	0x37c
 1069 057c 02       		.byte	0x2
 1070 057d 23       		.byte	0x23
 1071 057e 0C       		.uleb128 0xc
 1072 057f 06       		.uleb128 0x6
 1073 0580 D3000000 		.4byte	.LASF70
 1074 0584 08       		.byte	0x8
 1075 0585 65       		.byte	0x65
 1076 0586 40020000 		.4byte	0x240
 1077 058a 02       		.byte	0x2
 1078 058b 23       		.byte	0x23
ARM GAS  /tmp/cck78C9z.s 			page 20


 1079 058c 10       		.uleb128 0x10
 1080 058d 06       		.uleb128 0x6
 1081 058e F8010000 		.4byte	.LASF71
 1082 0592 08       		.byte	0x8
 1083 0593 66       		.byte	0x66
 1084 0594 40020000 		.4byte	0x240
 1085 0598 02       		.byte	0x2
 1086 0599 23       		.byte	0x23
 1087 059a 14       		.uleb128 0x14
 1088 059b 06       		.uleb128 0x6
 1089 059c EE010000 		.4byte	.LASF72
 1090 05a0 08       		.byte	0x8
 1091 05a1 69       		.byte	0x69
 1092 05a2 40020000 		.4byte	0x240
 1093 05a6 02       		.byte	0x2
 1094 05a7 23       		.byte	0x23
 1095 05a8 18       		.uleb128 0x18
 1096 05a9 00       		.byte	0
 1097 05aa 04       		.uleb128 0x4
 1098 05ab 04030000 		.4byte	.LASF73
 1099 05af 08       		.byte	0x8
 1100 05b0 6B       		.byte	0x6b
 1101 05b1 4D050000 		.4byte	0x54d
 1102 05b5 05       		.uleb128 0x5
 1103 05b6 B5010000 		.4byte	.LASF74
 1104 05ba 10       		.byte	0x10
 1105 05bb 09       		.byte	0x9
 1106 05bc 2C       		.byte	0x2c
 1107 05bd EC050000 		.4byte	0x5ec
 1108 05c1 06       		.uleb128 0x6
 1109 05c2 8F000000 		.4byte	.LASF75
 1110 05c6 09       		.byte	0x9
 1111 05c7 2D       		.byte	0x2d
 1112 05c8 46020000 		.4byte	0x246
 1113 05cc 02       		.byte	0x2
 1114 05cd 23       		.byte	0x23
 1115 05ce 00       		.uleb128 0
 1116 05cf 06       		.uleb128 0x6
 1117 05d0 9B030000 		.4byte	.LASF76
 1118 05d4 09       		.byte	0x9
 1119 05d5 2F       		.byte	0x2f
 1120 05d6 40020000 		.4byte	0x240
 1121 05da 02       		.byte	0x2
 1122 05db 23       		.byte	0x23
 1123 05dc 08       		.uleb128 0x8
 1124 05dd 06       		.uleb128 0x6
 1125 05de C3020000 		.4byte	.LASF77
 1126 05e2 09       		.byte	0x9
 1127 05e3 31       		.byte	0x31
 1128 05e4 EC050000 		.4byte	0x5ec
 1129 05e8 02       		.byte	0x2
 1130 05e9 23       		.byte	0x23
 1131 05ea 0C       		.uleb128 0xc
 1132 05eb 00       		.byte	0
 1133 05ec 09       		.uleb128 0x9
 1134 05ed 04       		.byte	0x4
 1135 05ee B5050000 		.4byte	0x5b5
ARM GAS  /tmp/cck78C9z.s 			page 21


 1136 05f2 04       		.uleb128 0x4
 1137 05f3 B5010000 		.4byte	.LASF74
 1138 05f7 09       		.byte	0x9
 1139 05f8 33       		.byte	0x33
 1140 05f9 B5050000 		.4byte	0x5b5
 1141 05fd 0E       		.uleb128 0xe
 1142 05fe 04       		.byte	0x4
 1143 05ff 05       		.byte	0x5
 1144 0600 96       		.byte	0x96
 1145 0601 32060000 		.4byte	0x632
 1146 0605 0F       		.uleb128 0xf
 1147 0606 06000000 		.4byte	.LASF78
 1148 060a 05       		.byte	0x5
 1149 060b 9D       		.byte	0x9d
 1150 060c CA000000 		.4byte	0xca
 1151 0610 0F       		.uleb128 0xf
 1152 0611 4D000000 		.4byte	.LASF79
 1153 0615 05       		.byte	0x5
 1154 0616 A4       		.byte	0xa4
 1155 0617 CA000000 		.4byte	0xca
 1156 061b 0F       		.uleb128 0xf
 1157 061c 43030000 		.4byte	.LASF80
 1158 0620 05       		.byte	0x5
 1159 0621 AB       		.byte	0xab
 1160 0622 7E020000 		.4byte	0x27e
 1161 0626 0F       		.uleb128 0xf
 1162 0627 70020000 		.4byte	.LASF81
 1163 062b 05       		.byte	0x5
 1164 062c B2       		.byte	0xb2
 1165 062d D5000000 		.4byte	0xd5
 1166 0631 00       		.byte	0
 1167 0632 09       		.uleb128 0x9
 1168 0633 04       		.byte	0x4
 1169 0634 38060000 		.4byte	0x638
 1170 0638 10       		.uleb128 0x10
 1171 0639 3D060000 		.4byte	0x63d
 1172 063d 03       		.uleb128 0x3
 1173 063e 01       		.byte	0x1
 1174 063f 08       		.byte	0x8
 1175 0640 B6020000 		.4byte	.LASF82
 1176 0644 09       		.uleb128 0x9
 1177 0645 04       		.byte	0x4
 1178 0646 F2050000 		.4byte	0x5f2
 1179 064a 11       		.uleb128 0x11
 1180 064b 01       		.byte	0x1
 1181 064c 35010000 		.4byte	.LASF83
 1182 0650 01       		.byte	0x1
 1183 0651 8D       		.byte	0x8d
 1184 0652 01       		.byte	0x1
 1185 0653 00000000 		.4byte	.LFB10
 1186 0657 14000000 		.4byte	.LFE10
 1187 065b 02       		.byte	0x2
 1188 065c 7D       		.byte	0x7d
 1189 065d 00       		.sleb128 0
 1190 065e 01       		.byte	0x1
 1191 065f 6D060000 		.4byte	0x66d
 1192 0663 12       		.uleb128 0x12
ARM GAS  /tmp/cck78C9z.s 			page 22


 1193 0664 04000000 		.4byte	.LVL0
 1194 0668 7D070000 		.4byte	0x77d
 1195 066c 00       		.byte	0
 1196 066d 11       		.uleb128 0x11
 1197 066e 01       		.byte	0x1
 1198 066f 63000000 		.4byte	.LASF84
 1199 0673 01       		.byte	0x1
 1200 0674 40       		.byte	0x40
 1201 0675 01       		.byte	0x1
 1202 0676 00000000 		.4byte	.LFB8
 1203 067a 0E000000 		.4byte	.LFE8
 1204 067e 02       		.byte	0x2
 1205 067f 7D       		.byte	0x7d
 1206 0680 00       		.sleb128 0
 1207 0681 01       		.byte	0x1
 1208 0682 96060000 		.4byte	0x696
 1209 0686 13       		.uleb128 0x13
 1210 0687 08020000 		.4byte	.LASF86
 1211 068b 01       		.byte	0x1
 1212 068c 41       		.byte	0x41
 1213 068d 96060000 		.4byte	0x696
 1214 0691 00000000 		.4byte	.LLST0
 1215 0695 00       		.byte	0
 1216 0696 09       		.uleb128 0x9
 1217 0697 04       		.byte	0x4
 1218 0698 80020000 		.4byte	0x280
 1219 069c 11       		.uleb128 0x11
 1220 069d 01       		.byte	0x1
 1221 069e 82010000 		.4byte	.LASF85
 1222 06a2 01       		.byte	0x1
 1223 06a3 66       		.byte	0x66
 1224 06a4 01       		.byte	0x1
 1225 06a5 00000000 		.4byte	.LFB9
 1226 06a9 58000000 		.4byte	.LFE9
 1227 06ad 02       		.byte	0x2
 1228 06ae 7D       		.byte	0x7d
 1229 06af 00       		.sleb128 0
 1230 06b0 01       		.byte	0x1
 1231 06b1 D9060000 		.4byte	0x6d9
 1232 06b5 14       		.uleb128 0x14
 1233 06b6 6C7200   		.ascii	"lr\000"
 1234 06b9 01       		.byte	0x1
 1235 06ba 66       		.byte	0x66
 1236 06bb 73020000 		.4byte	0x273
 1237 06bf 20000000 		.4byte	.LLST1
 1238 06c3 15       		.uleb128 0x15
 1239 06c4 00000000 		.4byte	.Ldebug_ranges0+0
 1240 06c8 13       		.uleb128 0x13
 1241 06c9 08020000 		.4byte	.LASF86
 1242 06cd 01       		.byte	0x1
 1243 06ce 69       		.byte	0x69
 1244 06cf 96060000 		.4byte	0x696
 1245 06d3 33000000 		.4byte	.LLST2
 1246 06d7 00       		.byte	0
 1247 06d8 00       		.byte	0
 1248 06d9 16       		.uleb128 0x16
 1249 06da 01       		.byte	0x1
ARM GAS  /tmp/cck78C9z.s 			page 23


 1250 06db 28000000 		.4byte	.LASF87
 1251 06df 01       		.byte	0x1
 1252 06e0 2F       		.byte	0x2f
 1253 06e1 01       		.byte	0x1
 1254 06e2 00000000 		.4byte	.LFB7
 1255 06e6 14000000 		.4byte	.LFE7
 1256 06ea 5E000000 		.4byte	.LLST3
 1257 06ee 01       		.byte	0x1
 1258 06ef 1C070000 		.4byte	0x71c
 1259 06f3 13       		.uleb128 0x13
 1260 06f4 E4010000 		.4byte	.LASF88
 1261 06f8 01       		.byte	0x1
 1262 06f9 31       		.byte	0x31
 1263 06fa 73020000 		.4byte	0x273
 1264 06fe 7E000000 		.4byte	.LLST4
 1265 0702 12       		.uleb128 0x12
 1266 0703 0A000000 		.4byte	.LVL10
 1267 0707 87070000 		.4byte	0x787
 1268 070b 17       		.uleb128 0x17
 1269 070c 12000000 		.4byte	.LVL11
 1270 0710 9C060000 		.4byte	0x69c
 1271 0714 18       		.uleb128 0x18
 1272 0715 01       		.byte	0x1
 1273 0716 50       		.byte	0x50
 1274 0717 02       		.byte	0x2
 1275 0718 74       		.byte	0x74
 1276 0719 00       		.sleb128 0
 1277 071a 00       		.byte	0
 1278 071b 00       		.byte	0
 1279 071c 11       		.uleb128 0x11
 1280 071d 01       		.byte	0x1
 1281 071e 11010000 		.4byte	.LASF89
 1282 0722 01       		.byte	0x1
 1283 0723 AC       		.byte	0xac
 1284 0724 01       		.byte	0x1
 1285 0725 00000000 		.4byte	.LFB11
 1286 0729 20000000 		.4byte	.LFE11
 1287 072d 02       		.byte	0x2
 1288 072e 7D       		.byte	0x7d
 1289 072f 00       		.sleb128 0
 1290 0730 01       		.byte	0x1
 1291 0731 5B070000 		.4byte	0x75b
 1292 0735 19       		.uleb128 0x19
 1293 0736 6E747000 		.ascii	"ntp\000"
 1294 073a 01       		.byte	0x1
 1295 073b AC       		.byte	0xac
 1296 073c 40020000 		.4byte	0x240
 1297 0740 01       		.byte	0x1
 1298 0741 50       		.byte	0x50
 1299 0742 19       		.uleb128 0x19
 1300 0743 6F747000 		.ascii	"otp\000"
 1301 0747 01       		.byte	0x1
 1302 0748 AC       		.byte	0xac
 1303 0749 40020000 		.4byte	0x240
 1304 074d 01       		.byte	0x1
 1305 074e 51       		.byte	0x51
 1306 074f 1A       		.uleb128 0x1a
ARM GAS  /tmp/cck78C9z.s 			page 24


 1307 0750 72313300 		.ascii	"r13\000"
 1308 0754 01       		.byte	0x1
 1309 0755 AD       		.byte	0xad
 1310 0756 97030000 		.4byte	0x397
 1311 075a 00       		.byte	0
 1312 075b 1B       		.uleb128 0x1b
 1313 075c 01       		.byte	0x1
 1314 075d B3000000 		.4byte	.LASF94
 1315 0761 01       		.byte	0x1
 1316 0762 C6       		.byte	0xc6
 1317 0763 01       		.byte	0x1
 1318 0764 00000000 		.4byte	.LFB12
 1319 0768 0C000000 		.4byte	.LFE12
 1320 076c 02       		.byte	0x2
 1321 076d 7D       		.byte	0x7d
 1322 076e 00       		.sleb128 0
 1323 076f 01       		.byte	0x1
 1324 0770 1C       		.uleb128 0x1c
 1325 0771 13030000 		.4byte	.LASF95
 1326 0775 08       		.byte	0x8
 1327 0776 6F       		.byte	0x6f
 1328 0777 AA050000 		.4byte	0x5aa
 1329 077b 01       		.byte	0x1
 1330 077c 01       		.byte	0x1
 1331 077d 1D       		.uleb128 0x1d
 1332 077e 01       		.byte	0x1
 1333 077f E4000000 		.4byte	.LASF90
 1334 0783 08       		.byte	0x8
 1335 0784 A8       		.byte	0xa8
 1336 0785 01       		.byte	0x1
 1337 0786 01       		.byte	0x1
 1338 0787 1D       		.uleb128 0x1d
 1339 0788 01       		.byte	0x1
 1340 0789 15000000 		.4byte	.LASF91
 1341 078d 0A       		.byte	0xa
 1342 078e F7       		.byte	0xf7
 1343 078f 01       		.byte	0x1
 1344 0790 01       		.byte	0x1
 1345 0791 00       		.byte	0
 1346              		.section	.debug_abbrev,"",%progbits
 1347              	.Ldebug_abbrev0:
 1348 0000 01       		.uleb128 0x1
 1349 0001 11       		.uleb128 0x11
 1350 0002 01       		.byte	0x1
 1351 0003 25       		.uleb128 0x25
 1352 0004 0E       		.uleb128 0xe
 1353 0005 13       		.uleb128 0x13
 1354 0006 0B       		.uleb128 0xb
 1355 0007 03       		.uleb128 0x3
 1356 0008 0E       		.uleb128 0xe
 1357 0009 55       		.uleb128 0x55
 1358 000a 06       		.uleb128 0x6
 1359 000b 11       		.uleb128 0x11
 1360 000c 01       		.uleb128 0x1
 1361 000d 52       		.uleb128 0x52
 1362 000e 01       		.uleb128 0x1
 1363 000f 10       		.uleb128 0x10
ARM GAS  /tmp/cck78C9z.s 			page 25


 1364 0010 06       		.uleb128 0x6
 1365 0011 00       		.byte	0
 1366 0012 00       		.byte	0
 1367 0013 02       		.uleb128 0x2
 1368 0014 24       		.uleb128 0x24
 1369 0015 00       		.byte	0
 1370 0016 0B       		.uleb128 0xb
 1371 0017 0B       		.uleb128 0xb
 1372 0018 3E       		.uleb128 0x3e
 1373 0019 0B       		.uleb128 0xb
 1374 001a 03       		.uleb128 0x3
 1375 001b 08       		.uleb128 0x8
 1376 001c 00       		.byte	0
 1377 001d 00       		.byte	0
 1378 001e 03       		.uleb128 0x3
 1379 001f 24       		.uleb128 0x24
 1380 0020 00       		.byte	0
 1381 0021 0B       		.uleb128 0xb
 1382 0022 0B       		.uleb128 0xb
 1383 0023 3E       		.uleb128 0x3e
 1384 0024 0B       		.uleb128 0xb
 1385 0025 03       		.uleb128 0x3
 1386 0026 0E       		.uleb128 0xe
 1387 0027 00       		.byte	0
 1388 0028 00       		.byte	0
 1389 0029 04       		.uleb128 0x4
 1390 002a 16       		.uleb128 0x16
 1391 002b 00       		.byte	0
 1392 002c 03       		.uleb128 0x3
 1393 002d 0E       		.uleb128 0xe
 1394 002e 3A       		.uleb128 0x3a
 1395 002f 0B       		.uleb128 0xb
 1396 0030 3B       		.uleb128 0x3b
 1397 0031 0B       		.uleb128 0xb
 1398 0032 49       		.uleb128 0x49
 1399 0033 13       		.uleb128 0x13
 1400 0034 00       		.byte	0
 1401 0035 00       		.byte	0
 1402 0036 05       		.uleb128 0x5
 1403 0037 13       		.uleb128 0x13
 1404 0038 01       		.byte	0x1
 1405 0039 03       		.uleb128 0x3
 1406 003a 0E       		.uleb128 0xe
 1407 003b 0B       		.uleb128 0xb
 1408 003c 0B       		.uleb128 0xb
 1409 003d 3A       		.uleb128 0x3a
 1410 003e 0B       		.uleb128 0xb
 1411 003f 3B       		.uleb128 0x3b
 1412 0040 0B       		.uleb128 0xb
 1413 0041 01       		.uleb128 0x1
 1414 0042 13       		.uleb128 0x13
 1415 0043 00       		.byte	0
 1416 0044 00       		.byte	0
 1417 0045 06       		.uleb128 0x6
 1418 0046 0D       		.uleb128 0xd
 1419 0047 00       		.byte	0
 1420 0048 03       		.uleb128 0x3
ARM GAS  /tmp/cck78C9z.s 			page 26


 1421 0049 0E       		.uleb128 0xe
 1422 004a 3A       		.uleb128 0x3a
 1423 004b 0B       		.uleb128 0xb
 1424 004c 3B       		.uleb128 0x3b
 1425 004d 0B       		.uleb128 0xb
 1426 004e 49       		.uleb128 0x49
 1427 004f 13       		.uleb128 0x13
 1428 0050 38       		.uleb128 0x38
 1429 0051 0A       		.uleb128 0xa
 1430 0052 00       		.byte	0
 1431 0053 00       		.byte	0
 1432 0054 07       		.uleb128 0x7
 1433 0055 0D       		.uleb128 0xd
 1434 0056 00       		.byte	0
 1435 0057 03       		.uleb128 0x3
 1436 0058 08       		.uleb128 0x8
 1437 0059 3A       		.uleb128 0x3a
 1438 005a 0B       		.uleb128 0xb
 1439 005b 3B       		.uleb128 0x3b
 1440 005c 0B       		.uleb128 0xb
 1441 005d 49       		.uleb128 0x49
 1442 005e 13       		.uleb128 0x13
 1443 005f 38       		.uleb128 0x38
 1444 0060 0A       		.uleb128 0xa
 1445 0061 00       		.byte	0
 1446 0062 00       		.byte	0
 1447 0063 08       		.uleb128 0x8
 1448 0064 13       		.uleb128 0x13
 1449 0065 01       		.byte	0x1
 1450 0066 0B       		.uleb128 0xb
 1451 0067 0B       		.uleb128 0xb
 1452 0068 3A       		.uleb128 0x3a
 1453 0069 0B       		.uleb128 0xb
 1454 006a 3B       		.uleb128 0x3b
 1455 006b 0B       		.uleb128 0xb
 1456 006c 01       		.uleb128 0x1
 1457 006d 13       		.uleb128 0x13
 1458 006e 00       		.byte	0
 1459 006f 00       		.byte	0
 1460 0070 09       		.uleb128 0x9
 1461 0071 0F       		.uleb128 0xf
 1462 0072 00       		.byte	0
 1463 0073 0B       		.uleb128 0xb
 1464 0074 0B       		.uleb128 0xb
 1465 0075 49       		.uleb128 0x49
 1466 0076 13       		.uleb128 0x13
 1467 0077 00       		.byte	0
 1468 0078 00       		.byte	0
 1469 0079 0A       		.uleb128 0xa
 1470 007a 0F       		.uleb128 0xf
 1471 007b 00       		.byte	0
 1472 007c 0B       		.uleb128 0xb
 1473 007d 0B       		.uleb128 0xb
 1474 007e 00       		.byte	0
 1475 007f 00       		.byte	0
 1476 0080 0B       		.uleb128 0xb
 1477 0081 35       		.uleb128 0x35
ARM GAS  /tmp/cck78C9z.s 			page 27


 1478 0082 00       		.byte	0
 1479 0083 49       		.uleb128 0x49
 1480 0084 13       		.uleb128 0x13
 1481 0085 00       		.byte	0
 1482 0086 00       		.byte	0
 1483 0087 0C       		.uleb128 0xc
 1484 0088 01       		.uleb128 0x1
 1485 0089 01       		.byte	0x1
 1486 008a 49       		.uleb128 0x49
 1487 008b 13       		.uleb128 0x13
 1488 008c 01       		.uleb128 0x1
 1489 008d 13       		.uleb128 0x13
 1490 008e 00       		.byte	0
 1491 008f 00       		.byte	0
 1492 0090 0D       		.uleb128 0xd
 1493 0091 21       		.uleb128 0x21
 1494 0092 00       		.byte	0
 1495 0093 49       		.uleb128 0x49
 1496 0094 13       		.uleb128 0x13
 1497 0095 2F       		.uleb128 0x2f
 1498 0096 0B       		.uleb128 0xb
 1499 0097 00       		.byte	0
 1500 0098 00       		.byte	0
 1501 0099 0E       		.uleb128 0xe
 1502 009a 17       		.uleb128 0x17
 1503 009b 01       		.byte	0x1
 1504 009c 0B       		.uleb128 0xb
 1505 009d 0B       		.uleb128 0xb
 1506 009e 3A       		.uleb128 0x3a
 1507 009f 0B       		.uleb128 0xb
 1508 00a0 3B       		.uleb128 0x3b
 1509 00a1 0B       		.uleb128 0xb
 1510 00a2 01       		.uleb128 0x1
 1511 00a3 13       		.uleb128 0x13
 1512 00a4 00       		.byte	0
 1513 00a5 00       		.byte	0
 1514 00a6 0F       		.uleb128 0xf
 1515 00a7 0D       		.uleb128 0xd
 1516 00a8 00       		.byte	0
 1517 00a9 03       		.uleb128 0x3
 1518 00aa 0E       		.uleb128 0xe
 1519 00ab 3A       		.uleb128 0x3a
 1520 00ac 0B       		.uleb128 0xb
 1521 00ad 3B       		.uleb128 0x3b
 1522 00ae 0B       		.uleb128 0xb
 1523 00af 49       		.uleb128 0x49
 1524 00b0 13       		.uleb128 0x13
 1525 00b1 00       		.byte	0
 1526 00b2 00       		.byte	0
 1527 00b3 10       		.uleb128 0x10
 1528 00b4 26       		.uleb128 0x26
 1529 00b5 00       		.byte	0
 1530 00b6 49       		.uleb128 0x49
 1531 00b7 13       		.uleb128 0x13
 1532 00b8 00       		.byte	0
 1533 00b9 00       		.byte	0
 1534 00ba 11       		.uleb128 0x11
ARM GAS  /tmp/cck78C9z.s 			page 28


 1535 00bb 2E       		.uleb128 0x2e
 1536 00bc 01       		.byte	0x1
 1537 00bd 3F       		.uleb128 0x3f
 1538 00be 0C       		.uleb128 0xc
 1539 00bf 03       		.uleb128 0x3
 1540 00c0 0E       		.uleb128 0xe
 1541 00c1 3A       		.uleb128 0x3a
 1542 00c2 0B       		.uleb128 0xb
 1543 00c3 3B       		.uleb128 0x3b
 1544 00c4 0B       		.uleb128 0xb
 1545 00c5 27       		.uleb128 0x27
 1546 00c6 0C       		.uleb128 0xc
 1547 00c7 11       		.uleb128 0x11
 1548 00c8 01       		.uleb128 0x1
 1549 00c9 12       		.uleb128 0x12
 1550 00ca 01       		.uleb128 0x1
 1551 00cb 40       		.uleb128 0x40
 1552 00cc 0A       		.uleb128 0xa
 1553 00cd 9742     		.uleb128 0x2117
 1554 00cf 0C       		.uleb128 0xc
 1555 00d0 01       		.uleb128 0x1
 1556 00d1 13       		.uleb128 0x13
 1557 00d2 00       		.byte	0
 1558 00d3 00       		.byte	0
 1559 00d4 12       		.uleb128 0x12
 1560 00d5 898201   		.uleb128 0x4109
 1561 00d8 00       		.byte	0
 1562 00d9 11       		.uleb128 0x11
 1563 00da 01       		.uleb128 0x1
 1564 00db 31       		.uleb128 0x31
 1565 00dc 13       		.uleb128 0x13
 1566 00dd 00       		.byte	0
 1567 00de 00       		.byte	0
 1568 00df 13       		.uleb128 0x13
 1569 00e0 34       		.uleb128 0x34
 1570 00e1 00       		.byte	0
 1571 00e2 03       		.uleb128 0x3
 1572 00e3 0E       		.uleb128 0xe
 1573 00e4 3A       		.uleb128 0x3a
 1574 00e5 0B       		.uleb128 0xb
 1575 00e6 3B       		.uleb128 0x3b
 1576 00e7 0B       		.uleb128 0xb
 1577 00e8 49       		.uleb128 0x49
 1578 00e9 13       		.uleb128 0x13
 1579 00ea 02       		.uleb128 0x2
 1580 00eb 06       		.uleb128 0x6
 1581 00ec 00       		.byte	0
 1582 00ed 00       		.byte	0
 1583 00ee 14       		.uleb128 0x14
 1584 00ef 05       		.uleb128 0x5
 1585 00f0 00       		.byte	0
 1586 00f1 03       		.uleb128 0x3
 1587 00f2 08       		.uleb128 0x8
 1588 00f3 3A       		.uleb128 0x3a
 1589 00f4 0B       		.uleb128 0xb
 1590 00f5 3B       		.uleb128 0x3b
 1591 00f6 0B       		.uleb128 0xb
ARM GAS  /tmp/cck78C9z.s 			page 29


 1592 00f7 49       		.uleb128 0x49
 1593 00f8 13       		.uleb128 0x13
 1594 00f9 02       		.uleb128 0x2
 1595 00fa 06       		.uleb128 0x6
 1596 00fb 00       		.byte	0
 1597 00fc 00       		.byte	0
 1598 00fd 15       		.uleb128 0x15
 1599 00fe 0B       		.uleb128 0xb
 1600 00ff 01       		.byte	0x1
 1601 0100 55       		.uleb128 0x55
 1602 0101 06       		.uleb128 0x6
 1603 0102 00       		.byte	0
 1604 0103 00       		.byte	0
 1605 0104 16       		.uleb128 0x16
 1606 0105 2E       		.uleb128 0x2e
 1607 0106 01       		.byte	0x1
 1608 0107 3F       		.uleb128 0x3f
 1609 0108 0C       		.uleb128 0xc
 1610 0109 03       		.uleb128 0x3
 1611 010a 0E       		.uleb128 0xe
 1612 010b 3A       		.uleb128 0x3a
 1613 010c 0B       		.uleb128 0xb
 1614 010d 3B       		.uleb128 0x3b
 1615 010e 0B       		.uleb128 0xb
 1616 010f 27       		.uleb128 0x27
 1617 0110 0C       		.uleb128 0xc
 1618 0111 11       		.uleb128 0x11
 1619 0112 01       		.uleb128 0x1
 1620 0113 12       		.uleb128 0x12
 1621 0114 01       		.uleb128 0x1
 1622 0115 40       		.uleb128 0x40
 1623 0116 06       		.uleb128 0x6
 1624 0117 9742     		.uleb128 0x2117
 1625 0119 0C       		.uleb128 0xc
 1626 011a 01       		.uleb128 0x1
 1627 011b 13       		.uleb128 0x13
 1628 011c 00       		.byte	0
 1629 011d 00       		.byte	0
 1630 011e 17       		.uleb128 0x17
 1631 011f 898201   		.uleb128 0x4109
 1632 0122 01       		.byte	0x1
 1633 0123 11       		.uleb128 0x11
 1634 0124 01       		.uleb128 0x1
 1635 0125 31       		.uleb128 0x31
 1636 0126 13       		.uleb128 0x13
 1637 0127 00       		.byte	0
 1638 0128 00       		.byte	0
 1639 0129 18       		.uleb128 0x18
 1640 012a 8A8201   		.uleb128 0x410a
 1641 012d 00       		.byte	0
 1642 012e 02       		.uleb128 0x2
 1643 012f 0A       		.uleb128 0xa
 1644 0130 9142     		.uleb128 0x2111
 1645 0132 0A       		.uleb128 0xa
 1646 0133 00       		.byte	0
 1647 0134 00       		.byte	0
 1648 0135 19       		.uleb128 0x19
ARM GAS  /tmp/cck78C9z.s 			page 30


 1649 0136 05       		.uleb128 0x5
 1650 0137 00       		.byte	0
 1651 0138 03       		.uleb128 0x3
 1652 0139 08       		.uleb128 0x8
 1653 013a 3A       		.uleb128 0x3a
 1654 013b 0B       		.uleb128 0xb
 1655 013c 3B       		.uleb128 0x3b
 1656 013d 0B       		.uleb128 0xb
 1657 013e 49       		.uleb128 0x49
 1658 013f 13       		.uleb128 0x13
 1659 0140 02       		.uleb128 0x2
 1660 0141 0A       		.uleb128 0xa
 1661 0142 00       		.byte	0
 1662 0143 00       		.byte	0
 1663 0144 1A       		.uleb128 0x1a
 1664 0145 34       		.uleb128 0x34
 1665 0146 00       		.byte	0
 1666 0147 03       		.uleb128 0x3
 1667 0148 08       		.uleb128 0x8
 1668 0149 3A       		.uleb128 0x3a
 1669 014a 0B       		.uleb128 0xb
 1670 014b 3B       		.uleb128 0x3b
 1671 014c 0B       		.uleb128 0xb
 1672 014d 49       		.uleb128 0x49
 1673 014e 13       		.uleb128 0x13
 1674 014f 00       		.byte	0
 1675 0150 00       		.byte	0
 1676 0151 1B       		.uleb128 0x1b
 1677 0152 2E       		.uleb128 0x2e
 1678 0153 00       		.byte	0
 1679 0154 3F       		.uleb128 0x3f
 1680 0155 0C       		.uleb128 0xc
 1681 0156 03       		.uleb128 0x3
 1682 0157 0E       		.uleb128 0xe
 1683 0158 3A       		.uleb128 0x3a
 1684 0159 0B       		.uleb128 0xb
 1685 015a 3B       		.uleb128 0x3b
 1686 015b 0B       		.uleb128 0xb
 1687 015c 27       		.uleb128 0x27
 1688 015d 0C       		.uleb128 0xc
 1689 015e 11       		.uleb128 0x11
 1690 015f 01       		.uleb128 0x1
 1691 0160 12       		.uleb128 0x12
 1692 0161 01       		.uleb128 0x1
 1693 0162 40       		.uleb128 0x40
 1694 0163 0A       		.uleb128 0xa
 1695 0164 9742     		.uleb128 0x2117
 1696 0166 0C       		.uleb128 0xc
 1697 0167 00       		.byte	0
 1698 0168 00       		.byte	0
 1699 0169 1C       		.uleb128 0x1c
 1700 016a 34       		.uleb128 0x34
 1701 016b 00       		.byte	0
 1702 016c 03       		.uleb128 0x3
 1703 016d 0E       		.uleb128 0xe
 1704 016e 3A       		.uleb128 0x3a
 1705 016f 0B       		.uleb128 0xb
ARM GAS  /tmp/cck78C9z.s 			page 31


 1706 0170 3B       		.uleb128 0x3b
 1707 0171 0B       		.uleb128 0xb
 1708 0172 49       		.uleb128 0x49
 1709 0173 13       		.uleb128 0x13
 1710 0174 3F       		.uleb128 0x3f
 1711 0175 0C       		.uleb128 0xc
 1712 0176 3C       		.uleb128 0x3c
 1713 0177 0C       		.uleb128 0xc
 1714 0178 00       		.byte	0
 1715 0179 00       		.byte	0
 1716 017a 1D       		.uleb128 0x1d
 1717 017b 2E       		.uleb128 0x2e
 1718 017c 00       		.byte	0
 1719 017d 3F       		.uleb128 0x3f
 1720 017e 0C       		.uleb128 0xc
 1721 017f 03       		.uleb128 0x3
 1722 0180 0E       		.uleb128 0xe
 1723 0181 3A       		.uleb128 0x3a
 1724 0182 0B       		.uleb128 0xb
 1725 0183 3B       		.uleb128 0x3b
 1726 0184 0B       		.uleb128 0xb
 1727 0185 27       		.uleb128 0x27
 1728 0186 0C       		.uleb128 0xc
 1729 0187 3C       		.uleb128 0x3c
 1730 0188 0C       		.uleb128 0xc
 1731 0189 00       		.byte	0
 1732 018a 00       		.byte	0
 1733 018b 00       		.byte	0
 1734              		.section	.debug_loc,"",%progbits
 1735              	.Ldebug_loc0:
 1736              	.LLST0:
 1737 0000 04000000 		.4byte	.LVL1
 1738 0004 06000000 		.4byte	.LVL2
 1739 0008 0300     		.2byte	0x3
 1740 000a 73       		.byte	0x73
 1741 000b 20       		.sleb128 32
 1742 000c 9F       		.byte	0x9f
 1743 000d 06000000 		.4byte	.LVL2
 1744 0011 0E000000 		.4byte	.LFE8
 1745 0015 0100     		.2byte	0x1
 1746 0017 53       		.byte	0x53
 1747 0018 00000000 		.4byte	0
 1748 001c 00000000 		.4byte	0
 1749              	.LLST1:
 1750 0020 00000000 		.4byte	.LVL3
 1751 0024 04000000 		.4byte	.LVL4
 1752 0028 0100     		.2byte	0x1
 1753 002a 50       		.byte	0x50
 1754 002b 00000000 		.4byte	0
 1755 002f 00000000 		.4byte	0
 1756              	.LLST2:
 1757 0033 0A000000 		.4byte	.LVL5
 1758 0037 0C000000 		.4byte	.LVL6
 1759 003b 0300     		.2byte	0x3
 1760 003d 73       		.byte	0x73
 1761 003e 60       		.sleb128 -32
 1762 003f 9F       		.byte	0x9f
ARM GAS  /tmp/cck78C9z.s 			page 32


 1763 0040 0C000000 		.4byte	.LVL6
 1764 0044 34000000 		.4byte	.LVL7
 1765 0048 0100     		.2byte	0x1
 1766 004a 53       		.byte	0x53
 1767 004b 36000000 		.4byte	.LVL8
 1768 004f 58000000 		.4byte	.LFE9
 1769 0053 0100     		.2byte	0x1
 1770 0055 53       		.byte	0x53
 1771 0056 00000000 		.4byte	0
 1772 005a 00000000 		.4byte	0
 1773              	.LLST3:
 1774 005e 00000000 		.4byte	.LFB7
 1775 0062 02000000 		.4byte	.LCFI0
 1776 0066 0200     		.2byte	0x2
 1777 0068 7D       		.byte	0x7d
 1778 0069 00       		.sleb128 0
 1779 006a 02000000 		.4byte	.LCFI0
 1780 006e 14000000 		.4byte	.LFE7
 1781 0072 0200     		.2byte	0x2
 1782 0074 7D       		.byte	0x7d
 1783 0075 08       		.sleb128 8
 1784 0076 00000000 		.4byte	0
 1785 007a 00000000 		.4byte	0
 1786              	.LLST4:
 1787 007e 04000000 		.4byte	.LVL9
 1788 0082 12000000 		.4byte	.LVL12
 1789 0086 0100     		.2byte	0x1
 1790 0088 54       		.byte	0x54
 1791 0089 00000000 		.4byte	0
 1792 008d 00000000 		.4byte	0
 1793              		.section	.debug_aranges,"",%progbits
 1794 0000 44000000 		.4byte	0x44
 1795 0004 0200     		.2byte	0x2
 1796 0006 00000000 		.4byte	.Ldebug_info0
 1797 000a 04       		.byte	0x4
 1798 000b 00       		.byte	0
 1799 000c 0000     		.2byte	0
 1800 000e 0000     		.2byte	0
 1801 0010 00000000 		.4byte	.LFB10
 1802 0014 14000000 		.4byte	.LFE10-.LFB10
 1803 0018 00000000 		.4byte	.LFB8
 1804 001c 0E000000 		.4byte	.LFE8-.LFB8
 1805 0020 00000000 		.4byte	.LFB9
 1806 0024 58000000 		.4byte	.LFE9-.LFB9
 1807 0028 00000000 		.4byte	.LFB7
 1808 002c 14000000 		.4byte	.LFE7-.LFB7
 1809 0030 00000000 		.4byte	.LFB11
 1810 0034 20000000 		.4byte	.LFE11-.LFB11
 1811 0038 00000000 		.4byte	.LFB12
 1812 003c 0C000000 		.4byte	.LFE12-.LFB12
 1813 0040 00000000 		.4byte	0
 1814 0044 00000000 		.4byte	0
 1815              		.section	.debug_ranges,"",%progbits
 1816              	.Ldebug_ranges0:
 1817 0000 04000000 		.4byte	.LBB2
 1818 0004 34000000 		.4byte	.LBE2
 1819 0008 36000000 		.4byte	.LBB3
ARM GAS  /tmp/cck78C9z.s 			page 33


 1820 000c 58000000 		.4byte	.LBE3
 1821 0010 00000000 		.4byte	0
 1822 0014 00000000 		.4byte	0
 1823 0018 00000000 		.4byte	.LFB10
 1824 001c 14000000 		.4byte	.LFE10
 1825 0020 00000000 		.4byte	.LFB8
 1826 0024 0E000000 		.4byte	.LFE8
 1827 0028 00000000 		.4byte	.LFB9
 1828 002c 58000000 		.4byte	.LFE9
 1829 0030 00000000 		.4byte	.LFB7
 1830 0034 14000000 		.4byte	.LFE7
 1831 0038 00000000 		.4byte	.LFB11
 1832 003c 20000000 		.4byte	.LFE11
 1833 0040 00000000 		.4byte	.LFB12
 1834 0044 0C000000 		.4byte	.LFE12
 1835 0048 00000000 		.4byte	0
 1836 004c 00000000 		.4byte	0
 1837              		.section	.debug_line,"",%progbits
 1838              	.Ldebug_line0:
 1839 0000 2A020000 		.section	.debug_str,"MS",%progbits,1
 1839      02009801 
 1839      00000201 
 1839      FB0E0D00 
 1839      01010101 
 1840              	.LASF36:
 1841 0000 705F6D73 		.ascii	"p_msg\000"
 1841      6700
 1842              	.LASF78:
 1843 0006 7264796D 		.ascii	"rdymsg\000"
 1843      736700
 1844              	.LASF66:
 1845 000d 434D785F 		.ascii	"CMx_SCB\000"
 1845      53434200 
 1846              	.LASF91:
 1847 0015 63685379 		.ascii	"chSysTimerHandlerI\000"
 1847      7354696D 
 1847      65724861 
 1847      6E646C65 
 1847      724900
 1848              	.LASF87:
 1849 0028 53797354 		.ascii	"SysTickVector\000"
 1849      69636B56 
 1849      6563746F 
 1849      7200
 1850              	.LASF11:
 1851 0036 6C6F6E67 		.ascii	"long long unsigned int\000"
 1851      206C6F6E 
 1851      6720756E 
 1851      7369676E 
 1851      65642069 
 1852              	.LASF79:
 1853 004d 65786974 		.ascii	"exitcode\000"
 1853      636F6465 
 1853      00
 1854              	.LASF51:
 1855 0056 43505549 		.ascii	"CPUID\000"
 1855      4400
ARM GAS  /tmp/cck78C9z.s 			page 34


 1856              	.LASF24:
 1857 005c 705F7072 		.ascii	"p_prio\000"
 1857      696F00
 1858              	.LASF84:
 1859 0063 4E4D4956 		.ascii	"NMIVector\000"
 1859      6563746F 
 1859      7200
 1860              	.LASF10:
 1861 006d 6C6F6E67 		.ascii	"long long int\000"
 1861      206C6F6E 
 1861      6720696E 
 1861      7400
 1862              	.LASF1:
 1863 007b 7369676E 		.ascii	"signed char\000"
 1863      65642063 
 1863      68617200 
 1864              	.LASF40:
 1865 0087 705F6D70 		.ascii	"p_mpool\000"
 1865      6F6F6C00 
 1866              	.LASF75:
 1867 008f 6D5F7175 		.ascii	"m_queue\000"
 1867      65756500 
 1868              	.LASF16:
 1869 0097 74736C69 		.ascii	"tslices_t\000"
 1869      6365735F 
 1869      7400
 1870              	.LASF7:
 1871 00a1 6C6F6E67 		.ascii	"long int\000"
 1871      20696E74 
 1871      00
 1872              	.LASF14:
 1873 00aa 74737461 		.ascii	"tstate_t\000"
 1873      74655F74 
 1873      00
 1874              	.LASF94:
 1875 00b3 5F706F72 		.ascii	"_port_thread_start\000"
 1875      745F7468 
 1875      72656164 
 1875      5F737461 
 1875      727400
 1876              	.LASF26:
 1877 00c6 705F6E65 		.ascii	"p_newer\000"
 1877      77657200 
 1878              	.LASF61:
 1879 00ce 42464152 		.ascii	"BFAR\000"
 1879      00
 1880              	.LASF70:
 1881 00d3 725F6E65 		.ascii	"r_newer\000"
 1881      77657200 
 1882              	.LASF43:
 1883 00db 72656761 		.ascii	"regarm_t\000"
 1883      726D5F74 
 1883      00
 1884              	.LASF90:
 1885 00e4 63685363 		.ascii	"chSchDoReschedule\000"
 1885      68446F52 
 1885      65736368 
ARM GAS  /tmp/cck78C9z.s 			page 35


 1885      6564756C 
 1885      6500
 1886              	.LASF0:
 1887 00f6 756E7369 		.ascii	"unsigned int\000"
 1887      676E6564 
 1887      20696E74 
 1887      00
 1888              	.LASF45:
 1889 0103 6C725F74 		.ascii	"lr_thd\000"
 1889      686400
 1890              	.LASF44:
 1891 010a 65787463 		.ascii	"extctx\000"
 1891      747800
 1892              	.LASF89:
 1893 0111 5F706F72 		.ascii	"_port_switch\000"
 1893      745F7377 
 1893      69746368 
 1893      00
 1894              	.LASF9:
 1895 011e 6C6F6E67 		.ascii	"long unsigned int\000"
 1895      20756E73 
 1895      69676E65 
 1895      6420696E 
 1895      7400
 1896              	.LASF53:
 1897 0130 56544F52 		.ascii	"VTOR\000"
 1897      00
 1898              	.LASF83:
 1899 0135 5F706F72 		.ascii	"_port_switch_from_isr\000"
 1899      745F7377 
 1899      69746368 
 1899      5F66726F 
 1899      6D5F6973 
 1900              	.LASF48:
 1901 014b 636F6E74 		.ascii	"context\000"
 1901      65787400 
 1902              	.LASF4:
 1903 0153 73686F72 		.ascii	"short unsigned int\000"
 1903      7420756E 
 1903      7369676E 
 1903      65642069 
 1903      6E7400
 1904              	.LASF52:
 1905 0166 49435352 		.ascii	"ICSR\000"
 1905      00
 1906              	.LASF18:
 1907 016b 6D73675F 		.ascii	"msg_t\000"
 1907      7400
 1908              	.LASF54:
 1909 0171 41495243 		.ascii	"AIRCR\000"
 1909      5200
 1910              	.LASF59:
 1911 0177 44465352 		.ascii	"DFSR\000"
 1911      00
 1912              	.LASF60:
 1913 017c 4D4D4641 		.ascii	"MMFAR\000"
 1913      5200
ARM GAS  /tmp/cck78C9z.s 			page 36


 1914              	.LASF85:
 1915 0182 5F706F72 		.ascii	"_port_irq_epilogue\000"
 1915      745F6972 
 1915      715F6570 
 1915      696C6F67 
 1915      756500
 1916              	.LASF13:
 1917 0195 746D6F64 		.ascii	"tmode_t\000"
 1917      655F7400 
 1918              	.LASF42:
 1919 019d 54687265 		.ascii	"ThreadsList\000"
 1919      6164734C 
 1919      69737400 
 1920              	.LASF19:
 1921 01a9 6576656E 		.ascii	"eventmask_t\000"
 1921      746D6173 
 1921      6B5F7400 
 1922              	.LASF74:
 1923 01b5 4D757465 		.ascii	"Mutex\000"
 1923      7800
 1924              	.LASF50:
 1925 01bb 73697A65 		.ascii	"sizetype\000"
 1925      74797065 
 1925      00
 1926              	.LASF57:
 1927 01c4 43465352 		.ascii	"CFSR\000"
 1927      00
 1928              	.LASF27:
 1929 01c9 705F6F6C 		.ascii	"p_older\000"
 1929      64657200 
 1930              	.LASF69:
 1931 01d1 725F6374 		.ascii	"r_ctx\000"
 1931      7800
 1932              	.LASF41:
 1933 01d7 54687265 		.ascii	"ThreadsQueue\000"
 1933      61647351 
 1933      75657565 
 1933      00
 1934              	.LASF88:
 1935 01e4 5F736176 		.ascii	"_saved_lr\000"
 1935      65645F6C 
 1935      7200
 1936              	.LASF72:
 1937 01ee 725F6375 		.ascii	"r_current\000"
 1937      7272656E 
 1937      7400
 1938              	.LASF71:
 1939 01f8 725F6F6C 		.ascii	"r_older\000"
 1939      64657200 
 1940              	.LASF15:
 1941 0200 74726566 		.ascii	"trefs_t\000"
 1941      735F7400 
 1942              	.LASF86:
 1943 0208 63747870 		.ascii	"ctxp\000"
 1943      00
 1944              	.LASF23:
 1945 020d 705F7072 		.ascii	"p_prev\000"
ARM GAS  /tmp/cck78C9z.s 			page 37


 1945      657600
 1946              	.LASF17:
 1947 0214 74707269 		.ascii	"tprio_t\000"
 1947      6F5F7400 
 1948              	.LASF12:
 1949 021c 5F426F6F 		.ascii	"_Bool\000"
 1949      6C00
 1950              	.LASF6:
 1951 0222 696E7433 		.ascii	"int32_t\000"
 1951      325F7400 
 1952              	.LASF2:
 1953 022a 756E7369 		.ascii	"unsigned char\000"
 1953      676E6564 
 1953      20636861 
 1953      7200
 1954              	.LASF56:
 1955 0238 53484353 		.ascii	"SHCSR\000"
 1955      5200
 1956              	.LASF38:
 1957 023e 705F6D74 		.ascii	"p_mtxlist\000"
 1957      786C6973 
 1957      7400
 1958              	.LASF3:
 1959 0248 73686F72 		.ascii	"short int\000"
 1959      7420696E 
 1959      7400
 1960              	.LASF29:
 1961 0252 705F7374 		.ascii	"p_state\000"
 1961      61746500 
 1962              	.LASF32:
 1963 025a 705F7072 		.ascii	"p_preempt\000"
 1963      65656D70 
 1963      7400
 1964              	.LASF46:
 1965 0264 78707372 		.ascii	"xpsr\000"
 1965      00
 1966              	.LASF68:
 1967 0269 725F7072 		.ascii	"r_prio\000"
 1967      696F00
 1968              	.LASF81:
 1969 0270 65776D61 		.ascii	"ewmask\000"
 1969      736B00
 1970              	.LASF22:
 1971 0277 705F6E65 		.ascii	"p_next\000"
 1971      787400
 1972              	.LASF30:
 1973 027e 705F666C 		.ascii	"p_flags\000"
 1973      61677300 
 1974              	.LASF21:
 1975 0286 54687265 		.ascii	"Thread\000"
 1975      616400
 1976              	.LASF37:
 1977 028d 705F6570 		.ascii	"p_epending\000"
 1977      656E6469 
 1977      6E6700
 1978              	.LASF8:
 1979 0298 75696E74 		.ascii	"uint32_t\000"
ARM GAS  /tmp/cck78C9z.s 			page 38


 1979      33325F74 
 1979      00
 1980              	.LASF67:
 1981 02a1 725F7175 		.ascii	"r_queue\000"
 1981      65756500 
 1982              	.LASF62:
 1983 02a9 41465352 		.ascii	"AFSR\000"
 1983      00
 1984              	.LASF64:
 1985 02ae 756E7573 		.ascii	"unused1\000"
 1985      65643100 
 1986              	.LASF82:
 1987 02b6 63686172 		.ascii	"char\000"
 1987      00
 1988              	.LASF49:
 1989 02bb 494F5245 		.ascii	"IOREG32\000"
 1989      47333200 
 1990              	.LASF77:
 1991 02c3 6D5F6E65 		.ascii	"m_next\000"
 1991      787400
 1992              	.LASF20:
 1993 02ca 73797374 		.ascii	"systime_t\000"
 1993      696D655F 
 1993      7400
 1994              	.LASF39:
 1995 02d4 705F7265 		.ascii	"p_realprio\000"
 1995      616C7072 
 1995      696F00
 1996              	.LASF33:
 1997 02df 705F7469 		.ascii	"p_time\000"
 1997      6D6500
 1998              	.LASF55:
 1999 02e6 53485052 		.ascii	"SHPR\000"
 1999      00
 2000              	.LASF47:
 2001 02eb 696E7463 		.ascii	"intctx\000"
 2001      747800
 2002              	.LASF35:
 2003 02f2 705F6D73 		.ascii	"p_msgqueue\000"
 2003      67717565 
 2003      756500
 2004              	.LASF31:
 2005 02fd 705F7265 		.ascii	"p_refs\000"
 2005      667300
 2006              	.LASF73:
 2007 0304 52656164 		.ascii	"ReadyList\000"
 2007      794C6973 
 2007      7400
 2008              	.LASF63:
 2009 030e 4D4D4652 		.ascii	"MMFR\000"
 2009      00
 2010              	.LASF95:
 2011 0313 726C6973 		.ascii	"rlist\000"
 2011      7400
 2012              	.LASF5:
 2013 0319 75696E74 		.ascii	"uint8_t\000"
 2013      385F7400 
ARM GAS  /tmp/cck78C9z.s 			page 39


 2014              	.LASF92:
 2015 0321 474E5520 		.ascii	"GNU C 4.7.4 20130913 (prerelease)\000"
 2015      4320342E 
 2015      372E3420 
 2015      32303133 
 2015      30393133 
 2016              	.LASF80:
 2017 0343 77746F62 		.ascii	"wtobjp\000"
 2017      6A7000
 2018              	.LASF28:
 2019 034a 705F6E61 		.ascii	"p_name\000"
 2019      6D6500
 2020              	.LASF93:
 2021 0351 2F686F6D 		.ascii	"/home/matt/arm_cortex/ChibiOS/os/ports/GCC/ARMCMx/c"
 2021      652F6D61 
 2021      74742F61 
 2021      726D5F63 
 2021      6F727465 
 2022 0384 68636F72 		.ascii	"hcore_v6m.c\000"
 2022      655F7636 
 2022      6D2E6300 
 2023              	.LASF65:
 2024 0390 43504143 		.ascii	"CPACR\000"
 2024      5200
 2025              	.LASF58:
 2026 0396 48465352 		.ascii	"HFSR\000"
 2026      00
 2027              	.LASF76:
 2028 039b 6D5F6F77 		.ascii	"m_owner\000"
 2028      6E657200 
 2029              	.LASF25:
 2030 03a3 705F6374 		.ascii	"p_ctx\000"
 2030      7800
 2031              	.LASF34:
 2032 03a9 705F7761 		.ascii	"p_waiting\000"
 2032      6974696E 
 2032      6700
 2033              		.ident	"GCC: (GNU Tools for ARM Embedded Processors / bleeding-edge-toolchain-131005) 4.7.4 201309
ARM GAS  /tmp/cck78C9z.s 			page 40


DEFINED SYMBOLS
                            *ABS*:0000000000000000 chcore_v6m.c
     /tmp/cck78C9z.s:18     .text._port_switch_from_isr:0000000000000000 $t
     /tmp/cck78C9z.s:24     .text._port_switch_from_isr:0000000000000000 _port_switch_from_isr
     /tmp/cck78C9z.s:34     .text._port_switch_from_isr:0000000000000004 _port_exit_from_isr
     /tmp/cck78C9z.s:47     .text._port_switch_from_isr:0000000000000010 $d
     /tmp/cck78C9z.s:52     .text.NMIVector:0000000000000000 $t
     /tmp/cck78C9z.s:58     .text.NMIVector:0000000000000000 NMIVector
     /tmp/cck78C9z.s:87     .text._port_irq_epilogue:0000000000000000 $t
     /tmp/cck78C9z.s:93     .text._port_irq_epilogue:0000000000000000 _port_irq_epilogue
     /tmp/cck78C9z.s:170    .text._port_irq_epilogue:000000000000004c $d
     /tmp/cck78C9z.s:178    .text.SysTickVector:0000000000000000 $t
     /tmp/cck78C9z.s:184    .text.SysTickVector:0000000000000000 SysTickVector
     /tmp/cck78C9z.s:223    .text._port_switch:0000000000000000 $t
     /tmp/cck78C9z.s:229    .text._port_switch:0000000000000000 _port_switch
     /tmp/cck78C9z.s:266    .text._port_thread_start:0000000000000000 $t
     /tmp/cck78C9z.s:272    .text._port_thread_start:0000000000000000 _port_thread_start
                     .debug_frame:0000000000000010 $d
     /tmp/cck78C9z.s:51     .text._port_switch_from_isr:0000000000000014 $t
     /tmp/cck78C9z.s:177    .text._port_irq_epilogue:0000000000000058 $t

UNDEFINED SYMBOLS
chSchDoReschedule
rlist
chSysTimerHandlerI
chThdExit
