ARM GAS  /tmp/ccDLOxCz.s 			page 1


   1              		.cpu cortex-m0
   2              		.fpu softvfp
   3              		.eabi_attribute 20, 1
   4              		.eabi_attribute 21, 1
   5              		.eabi_attribute 23, 3
   6              		.eabi_attribute 24, 1
   7              		.eabi_attribute 25, 1
   8              		.eabi_attribute 26, 1
   9              		.eabi_attribute 30, 2
  10              		.eabi_attribute 34, 0
  11              		.eabi_attribute 18, 4
  12              		.code	16
  13              		.file	"chevents.c"
  14              		.text
  15              	.Ltext0:
  16              		.cfi_sections	.debug_frame
  17              		.section	.text.chEvtRegisterMask,"ax",%progbits
  18              		.align	2
  19              		.p2align 4,,15
  20              		.global	chEvtRegisterMask
  21              		.code	16
  22              		.thumb_func
  23              		.type	chEvtRegisterMask, %function
  24              	chEvtRegisterMask:
  25              	.LFB7:
  26              		.file 1 "/home/matt/arm_cortex/ChibiOS/os/kernel/src/chevents.c"
  27              		.loc 1 85 0
  28              		.cfi_startproc
  29              	.LVL0:
  30              		.loc 1 89 0
  31              	@ 89 "/home/matt/arm_cortex/ChibiOS/os/kernel/src/chevents.c" 1
  32 0000 72B6     		cpsid   i
  33              	@ 0 "" 2
  34              		.loc 1 90 0
  35              		.code	16
  36 0002 0368     		ldr	r3, [r0]
  37 0004 0B60     		str	r3, [r1]
  38              		.loc 1 91 0
  39 0006 0160     		str	r1, [r0]
  40              		.loc 1 92 0
  41 0008 0348     		ldr	r0, .L2
  42              	.LVL1:
  43 000a 8369     		ldr	r3, [r0, #24]
  44              		.loc 1 93 0
  45 000c 8A60     		str	r2, [r1, #8]
  46              		.loc 1 94 0
  47 000e 0022     		mov	r2, #0
  48              	.LVL2:
  49              		.loc 1 92 0
  50 0010 4B60     		str	r3, [r1, #4]
  51              		.loc 1 94 0
  52 0012 CA60     		str	r2, [r1, #12]
  53              		.loc 1 95 0
  54              	@ 95 "/home/matt/arm_cortex/ChibiOS/os/kernel/src/chevents.c" 1
  55 0014 62B6     		cpsie   i
  56              	@ 0 "" 2
  57              		.loc 1 96 0
ARM GAS  /tmp/ccDLOxCz.s 			page 2


  58              		.code	16
  59              		@ sp needed for prologue
  60 0016 7047     		bx	lr
  61              	.L3:
  62              		.align	2
  63              	.L2:
  64 0018 00000000 		.word	rlist
  65              		.cfi_endproc
  66              	.LFE7:
  67              		.size	chEvtRegisterMask, .-chEvtRegisterMask
  68 001c C046C046 		.section	.text.chEvtUnregister,"ax",%progbits
  69              		.align	2
  70              		.p2align 4,,15
  71              		.global	chEvtUnregister
  72              		.code	16
  73              		.thumb_func
  74              		.type	chEvtUnregister, %function
  75              	chEvtUnregister:
  76              	.LFB8:
  77              		.loc 1 111 0
  78              		.cfi_startproc
  79              	.LVL3:
  80              		.loc 1 117 0
  81              	@ 117 "/home/matt/arm_cortex/ChibiOS/os/kernel/src/chevents.c" 1
  82 0000 72B6     		cpsid   i
  83              	@ 0 "" 2
  84              		.loc 1 116 0
  85              		.code	16
  86 0002 021C     		mov	r2, r0
  87              		.loc 1 118 0
  88 0004 00E0     		b	.L5
  89              	.LVL4:
  90              	.L8:
  91              		.loc 1 119 0
  92 0006 1A1C     		mov	r2, r3
  93              	.LVL5:
  94              	.L5:
  95              		.loc 1 118 0 discriminator 1
  96 0008 1368     		ldr	r3, [r2]
  97 000a 8342     		cmp	r3, r0
  98 000c 03D0     		beq	.L6
  99              		.loc 1 119 0
 100 000e 9942     		cmp	r1, r3
 101 0010 F9D1     		bne	.L8
 102              		.loc 1 120 0
 103 0012 0968     		ldr	r1, [r1]
 104              	.LVL6:
 105 0014 1160     		str	r1, [r2]
 106              	.L6:
 107              		.loc 1 125 0
 108              	@ 125 "/home/matt/arm_cortex/ChibiOS/os/kernel/src/chevents.c" 1
 109 0016 62B6     		cpsie   i
 110              	@ 0 "" 2
 111              		.loc 1 126 0
 112              		.code	16
 113              		@ sp needed for prologue
 114 0018 7047     		bx	lr
ARM GAS  /tmp/ccDLOxCz.s 			page 3


 115              		.cfi_endproc
 116              	.LFE8:
 117              		.size	chEvtUnregister, .-chEvtUnregister
 118              		.section	.text.chEvtGetAndClearEvents,"ax",%progbits
 119              		.align	2
 120              		.p2align 4,,15
 121              		.global	chEvtGetAndClearEvents
 122              		.code	16
 123              		.thumb_func
 124              		.type	chEvtGetAndClearEvents, %function
 125              	chEvtGetAndClearEvents:
 126              	.LFB9:
 127              		.loc 1 136 0
 128              		.cfi_startproc
 129              	.LVL7:
 130              		.loc 1 139 0
 131              	@ 139 "/home/matt/arm_cortex/ChibiOS/os/kernel/src/chevents.c" 1
 132 0000 72B6     		cpsid   i
 133              	@ 0 "" 2
 134              		.loc 1 141 0
 135              		.code	16
 136 0002 044B     		ldr	r3, .L11
 137 0004 9A69     		ldr	r2, [r3, #24]
 138 0006 936B     		ldr	r3, [r2, #56]
 139              	.LVL8:
 140              		.loc 1 142 0
 141 0008 191C     		mov	r1, r3
 142 000a 8143     		bic	r1, r0
 143 000c 9163     		str	r1, [r2, #56]
 144              		.loc 1 144 0
 145              	@ 144 "/home/matt/arm_cortex/ChibiOS/os/kernel/src/chevents.c" 1
 146 000e 62B6     		cpsie   i
 147              	@ 0 "" 2
 148              		.loc 1 141 0
 149              		.code	16
 150 0010 1840     		and	r0, r3
 151              	.LVL9:
 152              		.loc 1 146 0
 153              		@ sp needed for prologue
 154 0012 7047     		bx	lr
 155              	.L12:
 156              		.align	2
 157              	.L11:
 158 0014 00000000 		.word	rlist
 159              		.cfi_endproc
 160              	.LFE9:
 161              		.size	chEvtGetAndClearEvents, .-chEvtGetAndClearEvents
 162 0018 C046C046 		.section	.text.chEvtAddEvents,"ax",%progbits
 162      C046C046 
 163              		.align	2
 164              		.p2align 4,,15
 165              		.global	chEvtAddEvents
 166              		.code	16
 167              		.thumb_func
 168              		.type	chEvtAddEvents, %function
 169              	chEvtAddEvents:
 170              	.LFB10:
ARM GAS  /tmp/ccDLOxCz.s 			page 4


 171              		.loc 1 157 0
 172              		.cfi_startproc
 173              	.LVL10:
 174              		.loc 1 159 0
 175              	@ 159 "/home/matt/arm_cortex/ChibiOS/os/kernel/src/chevents.c" 1
 176 0000 72B6     		cpsid   i
 177              	@ 0 "" 2
 178              		.loc 1 161 0
 179              		.code	16
 180 0002 034B     		ldr	r3, .L14
 181 0004 9969     		ldr	r1, [r3, #24]
 182 0006 8A6B     		ldr	r2, [r1, #56]
 183 0008 1043     		orr	r0, r2
 184              	.LVL11:
 185 000a 8863     		str	r0, [r1, #56]
 186              	.LVL12:
 187              		.loc 1 163 0
 188              	@ 163 "/home/matt/arm_cortex/ChibiOS/os/kernel/src/chevents.c" 1
 189 000c 62B6     		cpsie   i
 190              	@ 0 "" 2
 191              		.loc 1 165 0
 192              		.code	16
 193              		@ sp needed for prologue
 194 000e 7047     		bx	lr
 195              	.L15:
 196              		.align	2
 197              	.L14:
 198 0010 00000000 		.word	rlist
 199              		.cfi_endproc
 200              	.LFE10:
 201              		.size	chEvtAddEvents, .-chEvtAddEvents
 202 0014 C046C046 		.section	.text.chEvtGetAndClearFlags,"ax",%progbits
 202      C046C046 
 202      C046C046 
 203              		.align	2
 204              		.p2align 4,,15
 205              		.global	chEvtGetAndClearFlags
 206              		.code	16
 207              		.thumb_func
 208              		.type	chEvtGetAndClearFlags, %function
 209              	chEvtGetAndClearFlags:
 210              	.LFB12:
 211              		.loc 1 209 0
 212              		.cfi_startproc
 213              	.LVL13:
 214              		.loc 1 209 0
 215 0000 031C     		mov	r3, r0
 216              		.loc 1 212 0
 217              	@ 212 "/home/matt/arm_cortex/ChibiOS/os/kernel/src/chevents.c" 1
 218 0002 72B6     		cpsid   i
 219              	@ 0 "" 2
 220              		.loc 1 215 0
 221              		.code	16
 222 0004 0022     		mov	r2, #0
 223              		.loc 1 214 0
 224 0006 C068     		ldr	r0, [r0, #12]
 225              	.LVL14:
ARM GAS  /tmp/ccDLOxCz.s 			page 5


 226              		.loc 1 215 0
 227 0008 DA60     		str	r2, [r3, #12]
 228              		.loc 1 217 0
 229              	@ 217 "/home/matt/arm_cortex/ChibiOS/os/kernel/src/chevents.c" 1
 230 000a 62B6     		cpsie   i
 231              	@ 0 "" 2
 232              		.loc 1 219 0
 233              		.code	16
 234              		@ sp needed for prologue
 235 000c 7047     		bx	lr
 236              		.cfi_endproc
 237              	.LFE12:
 238              		.size	chEvtGetAndClearFlags, .-chEvtGetAndClearFlags
 239 000e C046     		.section	.text.chEvtSignalI,"ax",%progbits
 240              		.align	2
 241              		.p2align 4,,15
 242              		.global	chEvtSignalI
 243              		.code	16
 244              		.thumb_func
 245              		.type	chEvtSignalI, %function
 246              	chEvtSignalI:
 247              	.LFB14:
 248              		.loc 1 251 0
 249              		.cfi_startproc
 250              	.LVL15:
 251 0000 08B5     		push	{r3, lr}
 252              	.LCFI0:
 253              		.cfi_def_cfa_offset 8
 254              		.cfi_offset 3, -8
 255              		.cfi_offset 14, -4
 256              		.loc 1 256 0
 257 0002 836B     		ldr	r3, [r0, #56]
 258              		.loc 1 258 0
 259 0004 027F     		ldrb	r2, [r0, #28]
 260              		.loc 1 256 0
 261 0006 1943     		orr	r1, r3
 262              	.LVL16:
 263 0008 8163     		str	r1, [r0, #56]
 264              		.loc 1 258 0
 265 000a 082A     		cmp	r2, #8
 266 000c 0BD0     		beq	.L22
 267              		.loc 1 259 0
 268 000e 092A     		cmp	r2, #9
 269 0010 00D0     		beq	.L23
 270              	.LVL17:
 271              	.L17:
 272              		.loc 1 263 0
 273              		@ sp needed for prologue
 274 0012 08BD     		pop	{r3, pc}
 275              	.LVL18:
 276              	.L23:
 277              		.loc 1 261 0
 278 0014 436A     		ldr	r3, [r0, #36]
 279 0016 1940     		and	r1, r3
 280              		.loc 1 260 0
 281 0018 8B42     		cmp	r3, r1
 282 001a FAD1     		bne	.L17
ARM GAS  /tmp/ccDLOxCz.s 			page 6


 283              	.LVL19:
 284              	.LBB4:
 285              	.LBB5:
 286              		.loc 1 262 0
 287 001c FFF7FEFF 		bl	chSchReadyI
 288              	.LVL20:
 289 0020 0021     		mov	r1, #0
 290 0022 4162     		str	r1, [r0, #36]
 291 0024 F5E7     		b	.L17
 292              	.LVL21:
 293              	.L22:
 294              	.LBE5:
 295              	.LBE4:
 296              		.loc 1 258 0 discriminator 1
 297 0026 426A     		ldr	r2, [r0, #36]
 298 0028 0A42     		tst	r2, r1
 299 002a F2D0     		beq	.L17
 300              	.LVL22:
 301              	.LBB7:
 302              	.LBB6:
 303              		.loc 1 262 0
 304 002c FFF7FEFF 		bl	chSchReadyI
 305              	.LVL23:
 306 0030 0021     		mov	r1, #0
 307 0032 4162     		str	r1, [r0, #36]
 308 0034 EDE7     		b	.L17
 309              	.LBE6:
 310              	.LBE7:
 311              		.cfi_endproc
 312              	.LFE14:
 313              		.size	chEvtSignalI, .-chEvtSignalI
 314 0036 C046C046 		.section	.text.chEvtSignal,"ax",%progbits
 314      C046C046 
 314      C046
 315              		.align	2
 316              		.p2align 4,,15
 317              		.global	chEvtSignal
 318              		.code	16
 319              		.thumb_func
 320              		.type	chEvtSignal, %function
 321              	chEvtSignal:
 322              	.LFB13:
 323              		.loc 1 229 0
 324              		.cfi_startproc
 325              	.LVL24:
 326 0000 08B5     		push	{r3, lr}
 327              	.LCFI1:
 328              		.cfi_def_cfa_offset 8
 329              		.cfi_offset 3, -8
 330              		.cfi_offset 14, -4
 331              		.loc 1 233 0
 332              	@ 233 "/home/matt/arm_cortex/ChibiOS/os/kernel/src/chevents.c" 1
 333 0002 72B6     		cpsid   i
 334              	@ 0 "" 2
 335              		.loc 1 234 0
 336              		.code	16
 337 0004 FFF7FEFF 		bl	chEvtSignalI
ARM GAS  /tmp/ccDLOxCz.s 			page 7


 338              	.LVL25:
 339              		.loc 1 235 0
 340 0008 FFF7FEFF 		bl	chSchRescheduleS
 341              	.LVL26:
 342              		.loc 1 236 0
 343              	@ 236 "/home/matt/arm_cortex/ChibiOS/os/kernel/src/chevents.c" 1
 344 000c 62B6     		cpsie   i
 345              	@ 0 "" 2
 346              		.loc 1 237 0
 347              		.code	16
 348              		@ sp needed for prologue
 349 000e 08BD     		pop	{r3, pc}
 350              		.cfi_endproc
 351              	.LFE13:
 352              		.size	chEvtSignal, .-chEvtSignal
 353              		.section	.text.chEvtBroadcastFlagsI,"ax",%progbits
 354              		.align	2
 355              		.p2align 4,,15
 356              		.global	chEvtBroadcastFlagsI
 357              		.code	16
 358              		.thumb_func
 359              		.type	chEvtBroadcastFlagsI, %function
 360              	chEvtBroadcastFlagsI:
 361              	.LFB11:
 362              		.loc 1 184 0
 363              		.cfi_startproc
 364              	.LVL27:
 365 0000 70B5     		push	{r4, r5, r6, lr}
 366              	.LCFI2:
 367              		.cfi_def_cfa_offset 16
 368              		.cfi_offset 4, -16
 369              		.cfi_offset 5, -12
 370              		.cfi_offset 6, -8
 371              		.cfi_offset 14, -4
 372              		.loc 1 190 0
 373 0002 0468     		ldr	r4, [r0]
 374              	.LVL28:
 375              		.loc 1 184 0
 376 0004 051C     		mov	r5, r0
 377 0006 0E1C     		mov	r6, r1
 378              		.loc 1 191 0
 379 0008 A042     		cmp	r0, r4
 380 000a 09D0     		beq	.L25
 381              	.LVL29:
 382              	.L29:
 383              		.loc 1 192 0
 384 000c E368     		ldr	r3, [r4, #12]
 385              		.loc 1 193 0
 386 000e 6068     		ldr	r0, [r4, #4]
 387              		.loc 1 192 0
 388 0010 3343     		orr	r3, r6
 389 0012 E360     		str	r3, [r4, #12]
 390              		.loc 1 193 0
 391 0014 A168     		ldr	r1, [r4, #8]
 392 0016 FFF7FEFF 		bl	chEvtSignalI
 393              	.LVL30:
 394              		.loc 1 194 0
ARM GAS  /tmp/ccDLOxCz.s 			page 8


 395 001a 2468     		ldr	r4, [r4]
 396              	.LVL31:
 397              		.loc 1 191 0
 398 001c A542     		cmp	r5, r4
 399 001e F5D1     		bne	.L29
 400              	.L25:
 401              		.loc 1 196 0
 402              		@ sp needed for prologue
 403              	.LVL32:
 404              	.LVL33:
 405              	.LVL34:
 406 0020 70BD     		pop	{r4, r5, r6, pc}
 407              		.cfi_endproc
 408              	.LFE11:
 409              		.size	chEvtBroadcastFlagsI, .-chEvtBroadcastFlagsI
 410 0022 C046C046 		.section	.text.chEvtBroadcastFlags,"ax",%progbits
 410      C046C046 
 410      C046C046 
 410      C046
 411              		.align	2
 412              		.p2align 4,,15
 413              		.global	chEvtBroadcastFlags
 414              		.code	16
 415              		.thumb_func
 416              		.type	chEvtBroadcastFlags, %function
 417              	chEvtBroadcastFlags:
 418              	.LFB15:
 419              		.loc 1 278 0
 420              		.cfi_startproc
 421              	.LVL35:
 422 0000 08B5     		push	{r3, lr}
 423              	.LCFI3:
 424              		.cfi_def_cfa_offset 8
 425              		.cfi_offset 3, -8
 426              		.cfi_offset 14, -4
 427              		.loc 1 280 0
 428              	@ 280 "/home/matt/arm_cortex/ChibiOS/os/kernel/src/chevents.c" 1
 429 0002 72B6     		cpsid   i
 430              	@ 0 "" 2
 431              		.loc 1 281 0
 432              		.code	16
 433 0004 FFF7FEFF 		bl	chEvtBroadcastFlagsI
 434              	.LVL36:
 435              		.loc 1 282 0
 436 0008 FFF7FEFF 		bl	chSchRescheduleS
 437              	.LVL37:
 438              		.loc 1 283 0
 439              	@ 283 "/home/matt/arm_cortex/ChibiOS/os/kernel/src/chevents.c" 1
 440 000c 62B6     		cpsie   i
 441              	@ 0 "" 2
 442              		.loc 1 284 0
 443              		.code	16
 444              		@ sp needed for prologue
 445 000e 08BD     		pop	{r3, pc}
 446              		.cfi_endproc
 447              	.LFE15:
 448              		.size	chEvtBroadcastFlags, .-chEvtBroadcastFlags
ARM GAS  /tmp/ccDLOxCz.s 			page 9


 449              		.section	.text.chEvtGetAndClearFlagsI,"ax",%progbits
 450              		.align	2
 451              		.p2align 4,,15
 452              		.global	chEvtGetAndClearFlagsI
 453              		.code	16
 454              		.thumb_func
 455              		.type	chEvtGetAndClearFlagsI, %function
 456              	chEvtGetAndClearFlagsI:
 457              	.LFB16:
 458              		.loc 1 297 0
 459              		.cfi_startproc
 460              	.LVL38:
 461              		.loc 1 297 0
 462 0000 031C     		mov	r3, r0
 463              		.loc 1 301 0
 464 0002 0022     		mov	r2, #0
 465              		.loc 1 300 0
 466 0004 C068     		ldr	r0, [r0, #12]
 467              	.LVL39:
 468              		.loc 1 304 0
 469              		@ sp needed for prologue
 470              		.loc 1 301 0
 471 0006 DA60     		str	r2, [r3, #12]
 472              		.loc 1 304 0
 473 0008 7047     		bx	lr
 474              		.cfi_endproc
 475              	.LFE16:
 476              		.size	chEvtGetAndClearFlagsI, .-chEvtGetAndClearFlagsI
 477 000a C046C046 		.section	.text.chEvtDispatch,"ax",%progbits
 477      C046
 478              		.align	2
 479              		.p2align 4,,15
 480              		.global	chEvtDispatch
 481              		.code	16
 482              		.thumb_func
 483              		.type	chEvtDispatch, %function
 484              	chEvtDispatch:
 485              	.LFB17:
 486              		.loc 1 315 0
 487              		.cfi_startproc
 488              	.LVL40:
 489 0000 F8B5     		push	{r3, r4, r5, r6, r7, lr}
 490              	.LCFI4:
 491              		.cfi_def_cfa_offset 24
 492              		.cfi_offset 3, -24
 493              		.cfi_offset 4, -20
 494              		.cfi_offset 5, -16
 495              		.cfi_offset 6, -12
 496              		.cfi_offset 7, -8
 497              		.cfi_offset 14, -4
 498              		.loc 1 315 0
 499 0002 0D1C     		mov	r5, r1
 500 0004 061C     		mov	r6, r0
 501              		.loc 1 320 0
 502 0006 0024     		mov	r4, #0
 503              		.loc 1 322 0
 504 0008 0127     		mov	r7, #1
ARM GAS  /tmp/ccDLOxCz.s 			page 10


 505              		.loc 1 321 0
 506 000a 0029     		cmp	r1, #0
 507 000c 04D1     		bne	.L40
 508 000e 0FE0     		b	.L33
 509              	.LVL41:
 510              	.L35:
 511              		.loc 1 329 0
 512 0010 0134     		add	r4, r4, #1
 513              	.LVL42:
 514 0012 0436     		add	r6, r6, #4
 515              		.loc 1 321 0
 516 0014 002D     		cmp	r5, #0
 517 0016 0BD0     		beq	.L33
 518              	.LVL43:
 519              	.L40:
 520              		.loc 1 322 0
 521 0018 3B1C     		mov	r3, r7
 522 001a A340     		lsl	r3, r3, r4
 523 001c 1D42     		tst	r5, r3
 524 001e F7D0     		beq	.L35
 525              		.loc 1 327 0
 526 0020 201C     		mov	r0, r4
 527 0022 3168     		ldr	r1, [r6]
 528              		.loc 1 326 0
 529 0024 9D43     		bic	r5, r3
 530              	.LVL44:
 531              		.loc 1 329 0
 532 0026 0134     		add	r4, r4, #1
 533              		.loc 1 327 0
 534 0028 8847     		blx	r1
 535              	.LVL45:
 536 002a 0436     		add	r6, r6, #4
 537              		.loc 1 321 0
 538 002c 002D     		cmp	r5, #0
 539 002e F3D1     		bne	.L40
 540              	.LVL46:
 541              	.L33:
 542              		.loc 1 331 0
 543              		@ sp needed for prologue
 544              	.LVL47:
 545 0030 F8BD     		pop	{r3, r4, r5, r6, r7, pc}
 546              		.cfi_endproc
 547              	.LFE17:
 548              		.size	chEvtDispatch, .-chEvtDispatch
 549 0032 C046C046 		.section	.text.chEvtWaitOne,"ax",%progbits
 549      C046C046 
 549      C046C046 
 549      C046
 550              		.align	2
 551              		.p2align 4,,15
 552              		.global	chEvtWaitOne
 553              		.code	16
 554              		.thumb_func
 555              		.type	chEvtWaitOne, %function
 556              	chEvtWaitOne:
 557              	.LFB18:
 558              		.loc 1 350 0
ARM GAS  /tmp/ccDLOxCz.s 			page 11


 559              		.cfi_startproc
 560              	.LVL48:
 561 0000 38B5     		push	{r3, r4, r5, lr}
 562              	.LCFI5:
 563              		.cfi_def_cfa_offset 16
 564              		.cfi_offset 3, -16
 565              		.cfi_offset 4, -12
 566              		.cfi_offset 5, -8
 567              		.cfi_offset 14, -4
 568              		.loc 1 351 0
 569 0002 0A4B     		ldr	r3, .L45
 570              		.loc 1 350 0
 571 0004 051C     		mov	r5, r0
 572              		.loc 1 351 0
 573 0006 9C69     		ldr	r4, [r3, #24]
 574              	.LVL49:
 575              		.loc 1 354 0
 576              	@ 354 "/home/matt/arm_cortex/ChibiOS/os/kernel/src/chevents.c" 1
 577 0008 72B6     		cpsid   i
 578              	@ 0 "" 2
 579              		.loc 1 356 0
 580              		.code	16
 581 000a A26B     		ldr	r2, [r4, #56]
 582 000c 111C     		mov	r1, r2
 583 000e 0140     		and	r1, r0
 584              	.LVL50:
 585 0010 06D1     		bne	.L44
 586              		.loc 1 357 0
 587 0012 6062     		str	r0, [r4, #36]
 588              		.loc 1 358 0
 589 0014 0820     		mov	r0, #8
 590              	.LVL51:
 591 0016 FFF7FEFF 		bl	chSchGoSleepS
 592              	.LVL52:
 593              		.loc 1 359 0
 594 001a A26B     		ldr	r2, [r4, #56]
 595 001c 111C     		mov	r1, r2
 596 001e 2940     		and	r1, r5
 597              	.LVL53:
 598              	.L44:
 599              		.loc 1 361 0
 600 0020 4842     		neg	r0, r1
 601 0022 0840     		and	r0, r1
 602              	.LVL54:
 603              		.loc 1 362 0
 604 0024 8243     		bic	r2, r0
 605 0026 A263     		str	r2, [r4, #56]
 606              		.loc 1 364 0
 607              	@ 364 "/home/matt/arm_cortex/ChibiOS/os/kernel/src/chevents.c" 1
 608 0028 62B6     		cpsie   i
 609              	@ 0 "" 2
 610              		.loc 1 366 0
 611              		.code	16
 612              		@ sp needed for prologue
 613              	.LVL55:
 614              	.LVL56:
 615 002a 38BD     		pop	{r3, r4, r5, pc}
ARM GAS  /tmp/ccDLOxCz.s 			page 12


 616              	.L46:
 617              		.align	2
 618              	.L45:
 619 002c 00000000 		.word	rlist
 620              		.cfi_endproc
 621              	.LFE18:
 622              		.size	chEvtWaitOne, .-chEvtWaitOne
 623              		.section	.text.chEvtWaitAny,"ax",%progbits
 624              		.align	2
 625              		.p2align 4,,15
 626              		.global	chEvtWaitAny
 627              		.code	16
 628              		.thumb_func
 629              		.type	chEvtWaitAny, %function
 630              	chEvtWaitAny:
 631              	.LFB19:
 632              		.loc 1 379 0
 633              		.cfi_startproc
 634              	.LVL57:
 635 0000 38B5     		push	{r3, r4, r5, lr}
 636              	.LCFI6:
 637              		.cfi_def_cfa_offset 16
 638              		.cfi_offset 3, -16
 639              		.cfi_offset 4, -12
 640              		.cfi_offset 5, -8
 641              		.cfi_offset 14, -4
 642              		.loc 1 380 0
 643 0002 094B     		ldr	r3, .L49
 644              		.loc 1 379 0
 645 0004 051C     		mov	r5, r0
 646              		.loc 1 380 0
 647 0006 9C69     		ldr	r4, [r3, #24]
 648              	.LVL58:
 649              		.loc 1 383 0
 650              	@ 383 "/home/matt/arm_cortex/ChibiOS/os/kernel/src/chevents.c" 1
 651 0008 72B6     		cpsid   i
 652              	@ 0 "" 2
 653              		.loc 1 385 0
 654              		.code	16
 655 000a A26B     		ldr	r2, [r4, #56]
 656 000c 101C     		mov	r0, r2
 657              	.LVL59:
 658 000e 2840     		and	r0, r5
 659              	.LVL60:
 660 0010 06D1     		bne	.L48
 661              		.loc 1 387 0
 662 0012 0820     		mov	r0, #8
 663              	.LVL61:
 664              		.loc 1 386 0
 665 0014 6562     		str	r5, [r4, #36]
 666              		.loc 1 387 0
 667 0016 FFF7FEFF 		bl	chSchGoSleepS
 668              	.LVL62:
 669              		.loc 1 388 0
 670 001a A26B     		ldr	r2, [r4, #56]
 671 001c 101C     		mov	r0, r2
 672 001e 2840     		and	r0, r5
ARM GAS  /tmp/ccDLOxCz.s 			page 13


 673              	.LVL63:
 674              	.L48:
 675              		.loc 1 390 0
 676 0020 8243     		bic	r2, r0
 677 0022 A263     		str	r2, [r4, #56]
 678              		.loc 1 392 0
 679              	@ 392 "/home/matt/arm_cortex/ChibiOS/os/kernel/src/chevents.c" 1
 680 0024 62B6     		cpsie   i
 681              	@ 0 "" 2
 682              		.loc 1 394 0
 683              		.code	16
 684              		@ sp needed for prologue
 685              	.LVL64:
 686              	.LVL65:
 687 0026 38BD     		pop	{r3, r4, r5, pc}
 688              	.L50:
 689              		.align	2
 690              	.L49:
 691 0028 00000000 		.word	rlist
 692              		.cfi_endproc
 693              	.LFE19:
 694              		.size	chEvtWaitAny, .-chEvtWaitAny
 695 002c C046C046 		.section	.text.chEvtWaitAll,"ax",%progbits
 696              		.align	2
 697              		.p2align 4,,15
 698              		.global	chEvtWaitAll
 699              		.code	16
 700              		.thumb_func
 701              		.type	chEvtWaitAll, %function
 702              	chEvtWaitAll:
 703              	.LFB20:
 704              		.loc 1 407 0
 705              		.cfi_startproc
 706              	.LVL66:
 707 0000 38B5     		push	{r3, r4, r5, lr}
 708              	.LCFI7:
 709              		.cfi_def_cfa_offset 16
 710              		.cfi_offset 3, -16
 711              		.cfi_offset 4, -12
 712              		.cfi_offset 5, -8
 713              		.cfi_offset 14, -4
 714              		.loc 1 408 0
 715 0002 094B     		ldr	r3, .L53
 716              		.loc 1 407 0
 717 0004 041C     		mov	r4, r0
 718              		.loc 1 408 0
 719 0006 9D69     		ldr	r5, [r3, #24]
 720              	.LVL67:
 721              		.loc 1 410 0
 722              	@ 410 "/home/matt/arm_cortex/ChibiOS/os/kernel/src/chevents.c" 1
 723 0008 72B6     		cpsid   i
 724              	@ 0 "" 2
 725              		.loc 1 412 0
 726              		.code	16
 727 000a A86B     		ldr	r0, [r5, #56]
 728              	.LVL68:
 729 000c 021C     		mov	r2, r0
ARM GAS  /tmp/ccDLOxCz.s 			page 14


 730 000e 2240     		and	r2, r4
 731 0010 A242     		cmp	r2, r4
 732 0012 04D0     		beq	.L52
 733              		.loc 1 414 0
 734 0014 0920     		mov	r0, #9
 735              		.loc 1 413 0
 736 0016 6C62     		str	r4, [r5, #36]
 737              		.loc 1 414 0
 738 0018 FFF7FEFF 		bl	chSchGoSleepS
 739              	.LVL69:
 740 001c A86B     		ldr	r0, [r5, #56]
 741              	.L52:
 742              		.loc 1 416 0
 743 001e A043     		bic	r0, r4
 744 0020 A863     		str	r0, [r5, #56]
 745              		.loc 1 418 0
 746              	@ 418 "/home/matt/arm_cortex/ChibiOS/os/kernel/src/chevents.c" 1
 747 0022 62B6     		cpsie   i
 748              	@ 0 "" 2
 749              		.loc 1 420 0
 750              		.code	16
 751 0024 201C     		mov	r0, r4
 752              		@ sp needed for prologue
 753              	.LVL70:
 754              	.LVL71:
 755 0026 38BD     		pop	{r3, r4, r5, pc}
 756              	.L54:
 757              		.align	2
 758              	.L53:
 759 0028 00000000 		.word	rlist
 760              		.cfi_endproc
 761              	.LFE20:
 762              		.size	chEvtWaitAll, .-chEvtWaitAll
 763 002c C046C046 		.section	.text.chEvtWaitOneTimeout,"ax",%progbits
 764              		.align	2
 765              		.p2align 4,,15
 766              		.global	chEvtWaitOneTimeout
 767              		.code	16
 768              		.thumb_func
 769              		.type	chEvtWaitOneTimeout, %function
 770              	chEvtWaitOneTimeout:
 771              	.LFB21:
 772              		.loc 1 446 0
 773              		.cfi_startproc
 774              	.LVL72:
 775              		.loc 1 447 0
 776 0000 0D4B     		ldr	r3, .L61
 777              		.loc 1 446 0
 778 0002 70B5     		push	{r4, r5, r6, lr}
 779              	.LCFI8:
 780              		.cfi_def_cfa_offset 16
 781              		.cfi_offset 4, -16
 782              		.cfi_offset 5, -12
 783              		.cfi_offset 6, -8
 784              		.cfi_offset 14, -4
 785              		.loc 1 446 0
 786 0004 061C     		mov	r6, r0
ARM GAS  /tmp/ccDLOxCz.s 			page 15


 787              		.loc 1 447 0
 788 0006 9D69     		ldr	r5, [r3, #24]
 789              	.LVL73:
 790              		.loc 1 450 0
 791              	@ 450 "/home/matt/arm_cortex/ChibiOS/os/kernel/src/chevents.c" 1
 792 0008 72B6     		cpsid   i
 793              	@ 0 "" 2
 794              		.loc 1 452 0
 795              		.code	16
 796 000a A86B     		ldr	r0, [r5, #56]
 797              	.LVL74:
 798 000c 041C     		mov	r4, r0
 799 000e 3440     		and	r4, r6
 800              	.LVL75:
 801 0010 0DD1     		bne	.L56
 802              		.loc 1 453 0
 803 0012 0029     		cmp	r1, #0
 804 0014 02D1     		bne	.L57
 805              	.LVL76:
 806              	.L60:
 807              		.loc 1 467 0
 808              	@ 467 "/home/matt/arm_cortex/ChibiOS/os/kernel/src/chevents.c" 1
 809 0016 62B6     		cpsie   i
 810              	@ 0 "" 2
 811              		.loc 1 469 0
 812              		.code	16
 813 0018 201C     		mov	r0, r4
 814              		@ sp needed for prologue
 815              	.LVL77:
 816              	.LVL78:
 817              	.LVL79:
 818 001a 70BD     		pop	{r4, r5, r6, pc}
 819              	.LVL80:
 820              	.L57:
 821              		.loc 1 457 0
 822 001c 6E62     		str	r6, [r5, #36]
 823              		.loc 1 458 0
 824 001e 0820     		mov	r0, #8
 825 0020 FFF7FEFF 		bl	chSchGoSleepTimeoutS
 826              	.LVL81:
 827 0024 0028     		cmp	r0, #0
 828 0026 F6DB     		blt	.L60
 829              		.loc 1 462 0
 830 0028 A86B     		ldr	r0, [r5, #56]
 831 002a 041C     		mov	r4, r0
 832              	.LVL82:
 833 002c 3440     		and	r4, r6
 834              	.LVL83:
 835              	.L56:
 836              		.loc 1 464 0
 837 002e 6242     		neg	r2, r4
 838 0030 1440     		and	r4, r2
 839              	.LVL84:
 840              		.loc 1 465 0
 841 0032 A043     		bic	r0, r4
 842 0034 A863     		str	r0, [r5, #56]
 843 0036 EEE7     		b	.L60
ARM GAS  /tmp/ccDLOxCz.s 			page 16


 844              	.L62:
 845              		.align	2
 846              	.L61:
 847 0038 00000000 		.word	rlist
 848              		.cfi_endproc
 849              	.LFE21:
 850              		.size	chEvtWaitOneTimeout, .-chEvtWaitOneTimeout
 851 003c C046C046 		.section	.text.chEvtWaitAnyTimeout,"ax",%progbits
 852              		.align	2
 853              		.p2align 4,,15
 854              		.global	chEvtWaitAnyTimeout
 855              		.code	16
 856              		.thumb_func
 857              		.type	chEvtWaitAnyTimeout, %function
 858              	chEvtWaitAnyTimeout:
 859              	.LFB22:
 860              		.loc 1 489 0
 861              		.cfi_startproc
 862              	.LVL85:
 863              		.loc 1 490 0
 864 0000 0C4B     		ldr	r3, .L69
 865              		.loc 1 489 0
 866 0002 70B5     		push	{r4, r5, r6, lr}
 867              	.LCFI9:
 868              		.cfi_def_cfa_offset 16
 869              		.cfi_offset 4, -16
 870              		.cfi_offset 5, -12
 871              		.cfi_offset 6, -8
 872              		.cfi_offset 14, -4
 873              		.loc 1 489 0
 874 0004 061C     		mov	r6, r0
 875              		.loc 1 490 0
 876 0006 9D69     		ldr	r5, [r3, #24]
 877              	.LVL86:
 878              		.loc 1 493 0
 879              	@ 493 "/home/matt/arm_cortex/ChibiOS/os/kernel/src/chevents.c" 1
 880 0008 72B6     		cpsid   i
 881              	@ 0 "" 2
 882              		.loc 1 495 0
 883              		.code	16
 884 000a A86B     		ldr	r0, [r5, #56]
 885              	.LVL87:
 886 000c 041C     		mov	r4, r0
 887 000e 3440     		and	r4, r6
 888              	.LVL88:
 889 0010 0DD1     		bne	.L64
 890              		.loc 1 496 0
 891 0012 0029     		cmp	r1, #0
 892 0014 02D1     		bne	.L65
 893              	.LVL89:
 894              	.L68:
 895              		.loc 1 509 0
 896              	@ 509 "/home/matt/arm_cortex/ChibiOS/os/kernel/src/chevents.c" 1
 897 0016 62B6     		cpsie   i
 898              	@ 0 "" 2
 899              		.loc 1 511 0
 900              		.code	16
ARM GAS  /tmp/ccDLOxCz.s 			page 17


 901 0018 201C     		mov	r0, r4
 902              		@ sp needed for prologue
 903              	.LVL90:
 904              	.LVL91:
 905              	.LVL92:
 906 001a 70BD     		pop	{r4, r5, r6, pc}
 907              	.LVL93:
 908              	.L65:
 909              		.loc 1 500 0
 910 001c 6E62     		str	r6, [r5, #36]
 911              		.loc 1 501 0
 912 001e 0820     		mov	r0, #8
 913 0020 FFF7FEFF 		bl	chSchGoSleepTimeoutS
 914              	.LVL94:
 915 0024 0028     		cmp	r0, #0
 916 0026 F6DB     		blt	.L68
 917              		.loc 1 505 0
 918 0028 A86B     		ldr	r0, [r5, #56]
 919 002a 041C     		mov	r4, r0
 920              	.LVL95:
 921 002c 3440     		and	r4, r6
 922              	.LVL96:
 923              	.L64:
 924              		.loc 1 507 0
 925 002e A043     		bic	r0, r4
 926 0030 A863     		str	r0, [r5, #56]
 927 0032 F0E7     		b	.L68
 928              	.L70:
 929              		.align	2
 930              	.L69:
 931 0034 00000000 		.word	rlist
 932              		.cfi_endproc
 933              	.LFE22:
 934              		.size	chEvtWaitAnyTimeout, .-chEvtWaitAnyTimeout
 935 0038 C046C046 		.section	.text.chEvtWaitAllTimeout,"ax",%progbits
 935      C046C046 
 936              		.align	2
 937              		.p2align 4,,15
 938              		.global	chEvtWaitAllTimeout
 939              		.code	16
 940              		.thumb_func
 941              		.type	chEvtWaitAllTimeout, %function
 942              	chEvtWaitAllTimeout:
 943              	.LFB23:
 944              		.loc 1 530 0
 945              		.cfi_startproc
 946              	.LVL97:
 947 0000 38B5     		push	{r3, r4, r5, lr}
 948              	.LCFI10:
 949              		.cfi_def_cfa_offset 16
 950              		.cfi_offset 3, -16
 951              		.cfi_offset 4, -12
 952              		.cfi_offset 5, -8
 953              		.cfi_offset 14, -4
 954              		.loc 1 531 0
 955 0002 0D4B     		ldr	r3, .L76
 956              		.loc 1 530 0
ARM GAS  /tmp/ccDLOxCz.s 			page 18


 957 0004 041C     		mov	r4, r0
 958              		.loc 1 531 0
 959 0006 9D69     		ldr	r5, [r3, #24]
 960              	.LVL98:
 961              		.loc 1 533 0
 962              	@ 533 "/home/matt/arm_cortex/ChibiOS/os/kernel/src/chevents.c" 1
 963 0008 72B6     		cpsid   i
 964              	@ 0 "" 2
 965              		.loc 1 535 0
 966              		.code	16
 967 000a A86B     		ldr	r0, [r5, #56]
 968              	.LVL99:
 969 000c 021C     		mov	r2, r0
 970 000e 2240     		and	r2, r4
 971 0010 A242     		cmp	r2, r4
 972 0012 0BD0     		beq	.L72
 973              		.loc 1 536 0
 974 0014 0029     		cmp	r1, #0
 975 0016 02D1     		bne	.L73
 976              	.LVL100:
 977              	.L75:
 978              		.loc 1 542 0
 979              	@ 542 "/home/matt/arm_cortex/ChibiOS/os/kernel/src/chevents.c" 1
 980 0018 62B6     		cpsie   i
 981              	@ 0 "" 2
 982              		.loc 1 543 0
 983              		.code	16
 984 001a 0024     		mov	r4, #0
 985              	.LVL101:
 986 001c 09E0     		b	.L74
 987              	.LVL102:
 988              	.L73:
 989              		.loc 1 540 0
 990 001e 6C62     		str	r4, [r5, #36]
 991              		.loc 1 541 0
 992 0020 0920     		mov	r0, #9
 993 0022 FFF7FEFF 		bl	chSchGoSleepTimeoutS
 994              	.LVL103:
 995 0026 0028     		cmp	r0, #0
 996 0028 F6DB     		blt	.L75
 997 002a A86B     		ldr	r0, [r5, #56]
 998              	.L72:
 999              		.loc 1 546 0
 1000 002c A043     		bic	r0, r4
 1001 002e A863     		str	r0, [r5, #56]
 1002              		.loc 1 548 0
 1003              	@ 548 "/home/matt/arm_cortex/ChibiOS/os/kernel/src/chevents.c" 1
 1004 0030 62B6     		cpsie   i
 1005              	@ 0 "" 2
 1006              	.LVL104:
 1007              		.code	16
 1008              	.L74:
 1009              		.loc 1 550 0
 1010 0032 201C     		mov	r0, r4
 1011              		@ sp needed for prologue
 1012              	.LVL105:
 1013 0034 38BD     		pop	{r3, r4, r5, pc}
ARM GAS  /tmp/ccDLOxCz.s 			page 19


 1014              	.L77:
 1015 0036 C046     		.align	2
 1016              	.L76:
 1017 0038 00000000 		.word	rlist
 1018              		.cfi_endproc
 1019              	.LFE23:
 1020              		.size	chEvtWaitAllTimeout, .-chEvtWaitAllTimeout
 1021 003c C046C046 		.text
 1022              	.Letext0:
 1023              		.file 2 "/home/matt/arm_cortex/gcc-arm-none-eabi/bin/../lib/gcc/arm-none-eabi/4.7.4/../../../../ar
 1024              		.file 3 "/home/matt/arm_cortex/ChibiOS/os/ports/GCC/ARMCMx/chtypes.h"
 1025              		.file 4 "/home/matt/arm_cortex/ChibiOS/os/kernel/include/chlists.h"
 1026              		.file 5 "/home/matt/arm_cortex/ChibiOS/os/kernel/include/chthreads.h"
 1027              		.file 6 "/home/matt/arm_cortex/ChibiOS/os/ports/GCC/ARMCMx/chcore_v6m.h"
 1028              		.file 7 "/home/matt/arm_cortex/ChibiOS/os/kernel/include/chschd.h"
 1029              		.file 8 "/home/matt/arm_cortex/ChibiOS/os/kernel/include/chmtx.h"
 1030              		.file 9 "/home/matt/arm_cortex/ChibiOS/os/kernel/include/chevents.h"