ARM GAS  /tmp/ccZjcVcD.s 			page 1


   1              		.cpu cortex-m0
   2              		.fpu softvfp
   3              		.eabi_attribute 20, 1
   4              		.eabi_attribute 21, 1
   5              		.eabi_attribute 23, 3
   6              		.eabi_attribute 24, 1
   7              		.eabi_attribute 25, 1
   8              		.eabi_attribute 26, 1
   9              		.eabi_attribute 30, 2
  10              		.eabi_attribute 34, 0
  11              		.eabi_attribute 18, 4
  12              		.code	16
  13              		.file	"chibios.c"
  14              		.text
  15              	.Ltext0:
  16              		.cfi_sections	.debug_frame
  17              		.section	.text._gosInit,"ax",%progbits
  18              		.align	2
  19              		.p2align 4,,15
  20              		.global	_gosInit
  21              		.code	16
  22              		.thumb_func
  23              		.type	_gosInit, %function
  24              	_gosInit:
  25              	.LFB40:
  26              		.file 1 "/home/matt/arm_cortex/ChibiOS/ext/ugfx/src/gos/chibios.c"
  27              		.loc 1 26 0
  28              		.cfi_startproc
  29 0000 08B5     		push	{r3, lr}
  30              	.LCFI0:
  31              		.cfi_def_cfa_offset 8
  32              		.cfi_offset 3, -8
  33              		.cfi_offset 14, -4
  34              		.loc 1 28 0
  35 0002 054B     		ldr	r3, .L5
  36 0004 9869     		ldr	r0, [r3, #24]
  37 0006 0028     		cmp	r0, #0
  38 0008 00D0     		beq	.L4
  39              	.L1:
  40              		.loc 1 32 0
  41              		@ sp needed for prologue
  42 000a 08BD     		pop	{r3, pc}
  43              	.L4:
  44              		.loc 1 29 0
  45 000c FFF7FEFF 		bl	halInit
  46              	.LVL0:
  47              		.loc 1 30 0
  48 0010 FFF7FEFF 		bl	chSysInit
  49              	.LVL1:
  50 0014 F9E7     		b	.L1
  51              	.L6:
  52 0016 C046     		.align	2
  53              	.L5:
  54 0018 00000000 		.word	rlist
  55              		.cfi_endproc
  56              	.LFE40:
  57              		.size	_gosInit, .-_gosInit
ARM GAS  /tmp/ccZjcVcD.s 			page 2


  58 001c C046C046 		.section	.text.gfxRealloc,"ax",%progbits
  59              		.align	2
  60              		.p2align 4,,15
  61              		.global	gfxRealloc
  62              		.code	16
  63              		.thumb_func
  64              		.type	gfxRealloc, %function
  65              	gfxRealloc:
  66              	.LFB41:
  67              		.loc 1 34 0
  68              		.cfi_startproc
  69              	.LVL2:
  70 0000 70B5     		push	{r4, r5, r6, lr}
  71              	.LCFI1:
  72              		.cfi_def_cfa_offset 16
  73              		.cfi_offset 4, -16
  74              		.cfi_offset 5, -12
  75              		.cfi_offset 6, -8
  76              		.cfi_offset 14, -4
  77              		.loc 1 34 0
  78 0002 041C     		mov	r4, r0
  79 0004 0D1C     		mov	r5, r1
  80              		.loc 1 37 0
  81 0006 8A42     		cmp	r2, r1
  82 0008 01D8     		bhi	.L11
  83              	.LVL3:
  84              	.L8:
  85              		.loc 1 48 0
  86 000a 201C     		mov	r0, r4
  87              		@ sp needed for prologue
  88              	.LVL4:
  89 000c 70BD     		pop	{r4, r5, r6, pc}
  90              	.LVL5:
  91              	.L11:
  92              		.loc 1 40 0
  93 000e 0020     		mov	r0, #0
  94              	.LVL6:
  95 0010 111C     		mov	r1, r2
  96              	.LVL7:
  97 0012 FFF7FEFF 		bl	chHeapAlloc
  98              	.LVL8:
  99 0016 061E     		sub	r6, r0, #0
 100              	.LVL9:
 101              		.loc 1 41 0
 102 0018 09D0     		beq	.L9
 103              		.loc 1 44 0
 104 001a 002D     		cmp	r5, #0
 105 001c 01D1     		bne	.L12
 106 001e 041C     		mov	r4, r0
 107              	.LVL10:
 108 0020 F3E7     		b	.L8
 109              	.LVL11:
 110              	.L12:
 111              		.loc 1 45 0
 112 0022 211C     		mov	r1, r4
 113 0024 2A1C     		mov	r2, r5
 114 0026 FFF7FEFF 		bl	memcpy
ARM GAS  /tmp/ccZjcVcD.s 			page 3


 115              	.LVL12:
 116 002a 341C     		mov	r4, r6
 117              	.LVL13:
 118 002c EDE7     		b	.L8
 119              	.LVL14:
 120              	.L9:
 121              		.loc 1 42 0
 122 002e 0024     		mov	r4, #0
 123              	.LVL15:
 124 0030 EBE7     		b	.L8
 125              		.cfi_endproc
 126              	.LFE41:
 127              		.size	gfxRealloc, .-gfxRealloc
 128              		.global	__aeabi_uidiv
 129 0032 C046C046 		.section	.text.gfxSleepMilliseconds,"ax",%progbits
 129      C046C046 
 129      C046C046 
 129      C046
 130              		.align	2
 131              		.p2align 4,,15
 132              		.global	gfxSleepMilliseconds
 133              		.code	16
 134              		.thumb_func
 135              		.type	gfxSleepMilliseconds, %function
 136              	gfxSleepMilliseconds:
 137              	.LFB42:
 138              		.loc 1 50 0
 139              		.cfi_startproc
 140              	.LVL16:
 141 0000 08B5     		push	{r3, lr}
 142              	.LCFI2:
 143              		.cfi_def_cfa_offset 8
 144              		.cfi_offset 3, -8
 145              		.cfi_offset 14, -4
 146              		.loc 1 51 0
 147 0002 0028     		cmp	r0, #0
 148 0004 02D1     		bne	.L20
 149              		.loc 1 52 0
 150 0006 FFF7FEFF 		bl	chThdYield
 151              	.LVL17:
 152              	.L13:
 153              		.loc 1 56 0
 154              		@ sp needed for prologue
 155 000a 08BD     		pop	{r3, pc}
 156              	.LVL18:
 157              	.L20:
 158              		.loc 1 51 0
 159 000c 431C     		add	r3, r0, #1
 160 000e 06D0     		beq	.L19
 161              		.loc 1 54 0
 162 0010 FA21     		mov	r1, #250
 163 0012 8900     		lsl	r1, r1, #2
 164 0014 4843     		mul	r0, r1
 165              	.LVL19:
 166 0016 0138     		sub	r0, r0, #1
 167 0018 FFF7FEFF 		bl	__aeabi_uidiv
 168              	.LVL20:
ARM GAS  /tmp/ccZjcVcD.s 			page 4


 169 001c 0130     		add	r0, r0, #1
 170              	.L19:
 171 001e FFF7FEFF 		bl	chThdSleep
 172              	.LVL21:
 173 0022 F2E7     		b	.L13
 174              		.cfi_endproc
 175              	.LFE42:
 176              		.size	gfxSleepMilliseconds, .-gfxSleepMilliseconds
 177 0024 C046C046 		.section	.text.gfxSleepMicroseconds,"ax",%progbits
 177      C046C046 
 177      C046C046 
 178              		.align	2
 179              		.p2align 4,,15
 180              		.global	gfxSleepMicroseconds
 181              		.code	16
 182              		.thumb_func
 183              		.type	gfxSleepMicroseconds, %function
 184              	gfxSleepMicroseconds:
 185              	.LFB43:
 186              		.loc 1 58 0
 187              		.cfi_startproc
 188              	.LVL22:
 189 0000 08B5     		push	{r3, lr}
 190              	.LCFI3:
 191              		.cfi_def_cfa_offset 8
 192              		.cfi_offset 3, -8
 193              		.cfi_offset 14, -4
 194              		.loc 1 59 0
 195 0002 0028     		cmp	r0, #0
 196 0004 0BD0     		beq	.L21
 197 0006 431C     		add	r3, r0, #1
 198 0008 07D0     		beq	.L29
 199              		.loc 1 62 0
 200 000a FA23     		mov	r3, #250
 201 000c 9900     		lsl	r1, r3, #2
 202 000e 4843     		mul	r0, r1
 203              	.LVL23:
 204 0010 0349     		ldr	r1, .L30
 205 0012 0138     		sub	r0, r0, #1
 206 0014 FFF7FEFF 		bl	__aeabi_uidiv
 207              	.LVL24:
 208 0018 0130     		add	r0, r0, #1
 209              	.L29:
 210 001a FFF7FEFF 		bl	chThdSleep
 211              	.LVL25:
 212              	.L21:
 213              		.loc 1 64 0
 214              		@ sp needed for prologue
 215 001e 08BD     		pop	{r3, pc}
 216              	.L31:
 217              		.align	2
 218              	.L30:
 219 0020 40420F00 		.word	1000000
 220              		.cfi_endproc
 221              	.LFE43:
 222              		.size	gfxSleepMicroseconds, .-gfxSleepMicroseconds
 223 0024 C046C046 		.section	.text.gfxSemInit,"ax",%progbits
ARM GAS  /tmp/ccZjcVcD.s 			page 5


 223      C046C046 
 223      C046C046 
 224              		.align	2
 225              		.p2align 4,,15
 226              		.global	gfxSemInit
 227              		.code	16
 228              		.thumb_func
 229              		.type	gfxSemInit, %function
 230              	gfxSemInit:
 231              	.LFB44:
 232              		.loc 1 65 0
 233              		.cfi_startproc
 234              	.LVL26:
 235 0000 08B5     		push	{r3, lr}
 236              	.LCFI4:
 237              		.cfi_def_cfa_offset 8
 238              		.cfi_offset 3, -8
 239              		.cfi_offset 14, -4
 240              		.loc 1 67 0
 241 0002 C260     		str	r2, [r0, #12]
 242              		.loc 1 68 0
 243 0004 8A42     		cmp	r2, r1
 244 0006 00DD     		ble	.L33
 245 0008 0A1C     		mov	r2, r1
 246              	.LVL27:
 247              	.L33:
 248 000a 111C     		mov	r1, r2
 249              	.LVL28:
 250 000c FFF7FEFF 		bl	chSemInit
 251              	.LVL29:
 252              		.loc 1 69 0
 253              		@ sp needed for prologue
 254 0010 08BD     		pop	{r3, pc}
 255              		.cfi_endproc
 256              	.LFE44:
 257              		.size	gfxSemInit, .-gfxSemInit
 258 0012 C046C046 		.section	.text.gfxSemDestroy,"ax",%progbits
 258      C046C046 
 258      C046C046 
 258      C046
 259              		.align	2
 260              		.p2align 4,,15
 261              		.global	gfxSemDestroy
 262              		.code	16
 263              		.thumb_func
 264              		.type	gfxSemDestroy, %function
 265              	gfxSemDestroy:
 266              	.LFB45:
 267              		.loc 1 70 0
 268              		.cfi_startproc
 269              	.LVL30:
 270 0000 08B5     		push	{r3, lr}
 271              	.LCFI5:
 272              		.cfi_def_cfa_offset 8
 273              		.cfi_offset 3, -8
 274              		.cfi_offset 14, -4
 275              		.loc 1 71 0
ARM GAS  /tmp/ccZjcVcD.s 			page 6


 276 0002 0121     		mov	r1, #1
 277 0004 FFF7FEFF 		bl	chSemReset
 278              	.LVL31:
 279              		.loc 1 72 0
 280              		@ sp needed for prologue
 281 0008 08BD     		pop	{r3, pc}
 282              		.cfi_endproc
 283              	.LFE45:
 284              		.size	gfxSemDestroy, .-gfxSemDestroy
 285 000a C046C046 		.section	.text.gfxSemWait,"ax",%progbits
 285      C046
 286              		.align	2
 287              		.p2align 4,,15
 288              		.global	gfxSemWait
 289              		.code	16
 290              		.thumb_func
 291              		.type	gfxSemWait, %function
 292              	gfxSemWait:
 293              	.LFB46:
 294              		.loc 1 73 0
 295              		.cfi_startproc
 296              	.LVL32:
 297 0000 10B5     		push	{r4, lr}
 298              	.LCFI6:
 299              		.cfi_def_cfa_offset 8
 300              		.cfi_offset 4, -8
 301              		.cfi_offset 14, -4
 302              		.loc 1 73 0
 303 0002 041C     		mov	r4, r0
 304              		.loc 1 74 0
 305 0004 4B1C     		add	r3, r1, #1
 306 0006 0ED0     		beq	.L38
 307              		.loc 1 78 0
 308 0008 FA23     		mov	r3, #250
 309 000a 9A00     		lsl	r2, r3, #2
 310 000c 5143     		mul	r1, r2
 311              	.LVL33:
 312 000e 481E     		sub	r0, r1, #1
 313              	.LVL34:
 314 0010 111C     		mov	r1, r2
 315 0012 FFF7FEFF 		bl	__aeabi_uidiv
 316              	.LVL35:
 317 0016 411C     		add	r1, r0, #1
 318 0018 201C     		mov	r0, r4
 319 001a FFF7FEFF 		bl	chSemWaitTimeout
 320              	.LVL36:
 321 001e 0130     		add	r0, r0, #1
 322 0020 431E     		sub	r3, r0, #1
 323 0022 9841     		sbc	r0, r0, r3
 324              	.L37:
 325              		.loc 1 79 0
 326              		@ sp needed for prologue
 327              	.LVL37:
 328 0024 10BD     		pop	{r4, pc}
 329              	.LVL38:
 330              	.L38:
 331              		.loc 1 75 0
ARM GAS  /tmp/ccZjcVcD.s 			page 7


 332 0026 FFF7FEFF 		bl	chSemWait
 333              	.LVL39:
 334              		.loc 1 76 0
 335 002a 0120     		mov	r0, #1
 336 002c FAE7     		b	.L37
 337              		.cfi_endproc
 338              	.LFE46:
 339              		.size	gfxSemWait, .-gfxSemWait
 340 002e C046     		.section	.text.gfxSemSignal,"ax",%progbits
 341              		.align	2
 342              		.p2align 4,,15
 343              		.global	gfxSemSignal
 344              		.code	16
 345              		.thumb_func
 346              		.type	gfxSemSignal, %function
 347              	gfxSemSignal:
 348              	.LFB47:
 349              		.loc 1 81 0
 350              		.cfi_startproc
 351              	.LVL40:
 352 0000 08B5     		push	{r3, lr}
 353              	.LCFI7:
 354              		.cfi_def_cfa_offset 8
 355              		.cfi_offset 3, -8
 356              		.cfi_offset 14, -4
 357              		.loc 1 82 0
 358              	@ 82 "/home/matt/arm_cortex/ChibiOS/ext/ugfx/src/gos/chibios.c" 1
 359 0002 72B6     		cpsid   i
 360              	@ 0 "" 2
 361              		.loc 1 83 0
 362              		.code	16
 363 0004 8268     		ldr	r2, [r0, #8]
 364 0006 C368     		ldr	r3, [r0, #12]
 365 0008 9A42     		cmp	r2, r3
 366 000a 01DA     		bge	.L40
 367              		.loc 1 84 0
 368 000c FFF7FEFF 		bl	chSemSignalI
 369              	.LVL41:
 370              	.L40:
 371              		.loc 1 85 0
 372 0010 FFF7FEFF 		bl	chSchRescheduleS
 373              	.LVL42:
 374              		.loc 1 86 0
 375              	@ 86 "/home/matt/arm_cortex/ChibiOS/ext/ugfx/src/gos/chibios.c" 1
 376 0014 62B6     		cpsie   i
 377              	@ 0 "" 2
 378              		.loc 1 87 0
 379              		.code	16
 380              		@ sp needed for prologue
 381 0016 08BD     		pop	{r3, pc}
 382              		.cfi_endproc
 383              	.LFE47:
 384              		.size	gfxSemSignal, .-gfxSemSignal
 385 0018 C046C046 		.section	.text.gfxSemSignalI,"ax",%progbits
 385      C046C046 
 386              		.align	2
 387              		.p2align 4,,15
ARM GAS  /tmp/ccZjcVcD.s 			page 8


 388              		.global	gfxSemSignalI
 389              		.code	16
 390              		.thumb_func
 391              		.type	gfxSemSignalI, %function
 392              	gfxSemSignalI:
 393              	.LFB48:
 394              		.loc 1 89 0
 395              		.cfi_startproc
 396              	.LVL43:
 397 0000 08B5     		push	{r3, lr}
 398              	.LCFI8:
 399              		.cfi_def_cfa_offset 8
 400              		.cfi_offset 3, -8
 401              		.cfi_offset 14, -4
 402              		.loc 1 90 0
 403 0002 8268     		ldr	r2, [r0, #8]
 404 0004 C368     		ldr	r3, [r0, #12]
 405 0006 9A42     		cmp	r2, r3
 406 0008 01DA     		bge	.L41
 407              		.loc 1 91 0
 408 000a FFF7FEFF 		bl	chSemSignalI
 409              	.LVL44:
 410              	.L41:
 411              		.loc 1 92 0
 412              		@ sp needed for prologue
 413 000e 08BD     		pop	{r3, pc}
 414              		.cfi_endproc
 415              	.LFE48:
 416              		.size	gfxSemSignalI, .-gfxSemSignalI
 417              		.section	.text.gfxThreadCreate,"ax",%progbits
 418              		.align	2
 419              		.p2align 4,,15
 420              		.global	gfxThreadCreate
 421              		.code	16
 422              		.thumb_func
 423              		.type	gfxThreadCreate, %function
 424              	gfxThreadCreate:
 425              	.LFB49:
 426              		.loc 1 94 0
 427              		.cfi_startproc
 428              	.LVL45:
 429 0000 10B5     		push	{r4, lr}
 430              	.LCFI9:
 431              		.cfi_def_cfa_offset 8
 432              		.cfi_offset 4, -8
 433              		.cfi_offset 14, -4
 434 0002 82B0     		sub	sp, sp, #8
 435              	.LCFI10:
 436              		.cfi_def_cfa_offset 16
 437              		.loc 1 95 0
 438 0004 0028     		cmp	r0, #0
 439 0006 09D0     		beq	.L49
 440              		.loc 1 100 0
 441 0008 0029     		cmp	r1, #0
 442 000a 05D0     		beq	.L48
 443              		.loc 1 101 0
 444 000c 049C     		ldr	r4, [sp, #16]
ARM GAS  /tmp/ccZjcVcD.s 			page 9


 445 000e 0094     		str	r4, [sp]
 446 0010 FFF7FEFF 		bl	chThdCreateStatic
 447              	.LVL46:
 448              	.L46:
 449              		.loc 1 102 0
 450 0014 02B0     		add	sp, sp, #8
 451              		@ sp needed for prologue
 452 0016 10BD     		pop	{r4, pc}
 453              	.LVL47:
 454              	.L48:
 455              		.loc 1 100 0
 456 0018 0020     		mov	r0, #0
 457              	.LVL48:
 458 001a FBE7     		b	.L46
 459              	.LVL49:
 460              	.L49:
 461              		.loc 1 96 0
 462 001c 0029     		cmp	r1, #0
 463 001e 01D1     		bne	.L45
 464 0020 8021     		mov	r1, #128
 465              	.LVL50:
 466 0022 4900     		lsl	r1, r1, #1
 467              	.L45:
 468              	.LVL51:
 469              		.loc 1 97 0
 470 0024 0498     		ldr	r0, [sp, #16]
 471              	.LVL52:
 472 0026 0090     		str	r0, [sp]
 473 0028 0020     		mov	r0, #0
 474 002a FFF7FEFF 		bl	chThdCreateFromHeap
 475              	.LVL53:
 476 002e F1E7     		b	.L46
 477              		.cfi_endproc
 478              	.LFE49:
 479              		.size	gfxThreadCreate, .-gfxThreadCreate
 480              		.text
 481              	.Letext0:
 482              		.file 2 "/home/matt/arm_cortex/gcc-arm-none-eabi/bin/../lib/gcc/arm-none-eabi/4.7.4/include/stddef
 483              		.file 3 "/home/matt/arm_cortex/gcc-arm-none-eabi/bin/../lib/gcc/arm-none-eabi/4.7.4/../../../../ar
 484              		.file 4 "/home/matt/arm_cortex/ChibiOS/os/ports/GCC/ARMCMx/chtypes.h"
 485              		.file 5 "/home/matt/arm_cortex/ChibiOS/os/kernel/include/chlists.h"
 486              		.file 6 "/home/matt/arm_cortex/ChibiOS/os/kernel/include/chthreads.h"
 487              		.file 7 "/home/matt/arm_cortex/ChibiOS/os/ports/GCC/ARMCMx/chcore_v6m.h"
 488              		.file 8 "/home/matt/arm_cortex/ChibiOS/os/kernel/include/chschd.h"
 489              		.file 9 "/home/matt/arm_cortex/ChibiOS/os/kernel/include/chsem.h"
 490              		.file 10 "/home/matt/arm_cortex/ChibiOS/os/kernel/include/chmtx.h"
 491              		.file 11 "/home/matt/arm_cortex/ChibiOS/os/kernel/include/chmemcore.h"
 492              		.file 12 "/home/matt/arm_cortex/ChibiOS/os/kernel/include/chheap.h"
 493              		.file 13 "/home/matt/arm_cortex/ChibiOS/ext/ugfx/include/gos/chibios.h"
 494              		.file 14 "/home/matt/arm_cortex/ChibiOS/os/hal/include/hal.h"
 495              		.file 15 "/home/matt/arm_cortex/ChibiOS/os/kernel/include/chsys.h"
 496              		.file 16 "/home/matt/arm_cortex/ChibiOS/os/kernel/include/chdynamic.h"