ARM GAS  /tmp/ccZjcVcD.s 			page 1


   1              		.cpu cortex-m0
   2              		.fpu softvfp
   3              		.eabi_attribute 20, 1
   4              		.eabi_attribute 21, 1
   5              		.eabi_attribute 23, 3
   6              		.eabi_attribute 24, 1
   7              		.eabi_attribute 25, 1
   8              		.eabi_attribute 26, 1
   9              		.eabi_attribute 30, 2
  10              		.eabi_attribute 34, 0
  11              		.eabi_attribute 18, 4
  12              		.code	16
  13              		.file	"chibios.c"
  14              		.text
  15              	.Ltext0:
  16              		.cfi_sections	.debug_frame
  17              		.section	.text._gosInit,"ax",%progbits
  18              		.align	2
  19              		.p2align 4,,15
  20              		.global	_gosInit
  21              		.code	16
  22              		.thumb_func
  23              		.type	_gosInit, %function
  24              	_gosInit:
  25              	.LFB40:
  26              		.file 1 "/home/matt/arm_cortex/ChibiOS/ext/ugfx/src/gos/chibios.c"
  27              		.loc 1 26 0
  28              		.cfi_startproc
  29 0000 08B5     		push	{r3, lr}
  30              	.LCFI0:
  31              		.cfi_def_cfa_offset 8
  32              		.cfi_offset 3, -8
  33              		.cfi_offset 14, -4
  34              		.loc 1 28 0
  35 0002 054B     		ldr	r3, .L5
  36 0004 9869     		ldr	r0, [r3, #24]
  37 0006 0028     		cmp	r0, #0
  38 0008 00D0     		beq	.L4
  39              	.L1:
  40              		.loc 1 32 0
  41              		@ sp needed for prologue
  42 000a 08BD     		pop	{r3, pc}
  43              	.L4:
  44              		.loc 1 29 0
  45 000c FFF7FEFF 		bl	halInit
  46              	.LVL0:
  47              		.loc 1 30 0
  48 0010 FFF7FEFF 		bl	chSysInit
  49              	.LVL1:
  50 0014 F9E7     		b	.L1
  51              	.L6:
  52 0016 C046     		.align	2
  53              	.L5:
  54 0018 00000000 		.word	rlist
  55              		.cfi_endproc
  56              	.LFE40:
  57              		.size	_gosInit, .-_gosInit
ARM GAS  /tmp/ccZjcVcD.s 			page 2


  58 001c C046C046 		.section	.text.gfxRealloc,"ax",%progbits
  59              		.align	2
  60              		.p2align 4,,15
  61              		.global	gfxRealloc
  62              		.code	16
  63              		.thumb_func
  64              		.type	gfxRealloc, %function
  65              	gfxRealloc:
  66              	.LFB41:
  67              		.loc 1 34 0
  68              		.cfi_startproc
  69              	.LVL2:
  70 0000 70B5     		push	{r4, r5, r6, lr}
  71              	.LCFI1:
  72              		.cfi_def_cfa_offset 16
  73              		.cfi_offset 4, -16
  74              		.cfi_offset 5, -12
  75              		.cfi_offset 6, -8
  76              		.cfi_offset 14, -4
  77              		.loc 1 34 0
  78 0002 041C     		mov	r4, r0
  79 0004 0D1C     		mov	r5, r1
  80              		.loc 1 37 0
  81 0006 8A42     		cmp	r2, r1
  82 0008 01D8     		bhi	.L11
  83              	.LVL3:
  84              	.L8:
  85              		.loc 1 48 0
  86 000a 201C     		mov	r0, r4
  87              		@ sp needed for prologue
  88              	.LVL4:
  89 000c 70BD     		pop	{r4, r5, r6, pc}
  90              	.LVL5:
  91              	.L11:
  92              		.loc 1 40 0
  93 000e 0020     		mov	r0, #0
  94              	.LVL6:
  95 0010 111C     		mov	r1, r2
  96              	.LVL7:
  97 0012 FFF7FEFF 		bl	chHeapAlloc
  98              	.LVL8:
  99 0016 061E     		sub	r6, r0, #0
 100              	.LVL9:
 101              		.loc 1 41 0
 102 0018 09D0     		beq	.L9
 103              		.loc 1 44 0
 104 001a 002D     		cmp	r5, #0
 105 001c 01D1     		bne	.L12
 106 001e 041C     		mov	r4, r0
 107              	.LVL10:
 108 0020 F3E7     		b	.L8
 109              	.LVL11:
 110              	.L12:
 111              		.loc 1 45 0
 112 0022 211C     		mov	r1, r4
 113 0024 2A1C     		mov	r2, r5
 114 0026 FFF7FEFF 		bl	memcpy
ARM GAS  /tmp/ccZjcVcD.s 			page 3


 115              	.LVL12:
 116 002a 341C     		mov	r4, r6
 117              	.LVL13:
 118 002c EDE7     		b	.L8
 119              	.LVL14:
 120              	.L9:
 121              		.loc 1 42 0
 122 002e 0024     		mov	r4, #0
 123              	.LVL15:
 124 0030 EBE7     		b	.L8
 125              		.cfi_endproc
 126              	.LFE41:
 127              		.size	gfxRealloc, .-gfxRealloc
 128              		.global	__aeabi_uidiv
 129 0032 C046C046 		.section	.text.gfxSleepMilliseconds,"ax",%progbits
 129      C046C046 
 129      C046C046 
 129      C046
 130              		.align	2
 131              		.p2align 4,,15
 132              		.global	gfxSleepMilliseconds
 133              		.code	16
 134              		.thumb_func
 135              		.type	gfxSleepMilliseconds, %function
 136              	gfxSleepMilliseconds:
 137              	.LFB42:
 138              		.loc 1 50 0
 139              		.cfi_startproc
 140              	.LVL16:
 141 0000 08B5     		push	{r3, lr}
 142              	.LCFI2:
 143              		.cfi_def_cfa_offset 8
 144              		.cfi_offset 3, -8
 145              		.cfi_offset 14, -4
 146              		.loc 1 51 0
 147 0002 0028     		cmp	r0, #0
 148 0004 02D1     		bne	.L20
 149              		.loc 1 52 0
 150 0006 FFF7FEFF 		bl	chThdYield
 151              	.LVL17:
 152              	.L13:
 153              		.loc 1 56 0
 154              		@ sp needed for prologue
 155 000a 08BD     		pop	{r3, pc}
 156              	.LVL18:
 157              	.L20:
 158              		.loc 1 51 0
 159 000c 431C     		add	r3, r0, #1
 160 000e 06D0     		beq	.L19
 161              		.loc 1 54 0
 162 0010 FA21     		mov	r1, #250
 163 0012 8900     		lsl	r1, r1, #2
 164 0014 4843     		mul	r0, r1
 165              	.LVL19:
 166 0016 0138     		sub	r0, r0, #1
 167 0018 FFF7FEFF 		bl	__aeabi_uidiv
 168              	.LVL20:
ARM GAS  /tmp/ccZjcVcD.s 			page 4


 169 001c 0130     		add	r0, r0, #1
 170              	.L19:
 171 001e FFF7FEFF 		bl	chThdSleep
 172              	.LVL21:
 173 0022 F2E7     		b	.L13
 174              		.cfi_endproc
 175              	.LFE42:
 176              		.size	gfxSleepMilliseconds, .-gfxSleepMilliseconds
 177 0024 C046C046 		.section	.text.gfxSleepMicroseconds,"ax",%progbits
 177      C046C046 
 177      C046C046 
 178              		.align	2
 179              		.p2align 4,,15
 180              		.global	gfxSleepMicroseconds
 181              		.code	16
 182              		.thumb_func
 183              		.type	gfxSleepMicroseconds, %function
 184              	gfxSleepMicroseconds:
 185              	.LFB43:
 186              		.loc 1 58 0
 187              		.cfi_startproc
 188              	.LVL22:
 189 0000 08B5     		push	{r3, lr}
 190              	.LCFI3:
 191              		.cfi_def_cfa_offset 8
 192              		.cfi_offset 3, -8
 193              		.cfi_offset 14, -4
 194              		.loc 1 59 0
 195 0002 0028     		cmp	r0, #0
 196 0004 0BD0     		beq	.L21
 197 0006 431C     		add	r3, r0, #1
 198 0008 07D0     		beq	.L29
 199              		.loc 1 62 0
 200 000a FA23     		mov	r3, #250
 201 000c 9900     		lsl	r1, r3, #2
 202 000e 4843     		mul	r0, r1
 203              	.LVL23:
 204 0010 0349     		ldr	r1, .L30
 205 0012 0138     		sub	r0, r0, #1
 206 0014 FFF7FEFF 		bl	__aeabi_uidiv
 207              	.LVL24:
 208 0018 0130     		add	r0, r0, #1
 209              	.L29:
 210 001a FFF7FEFF 		bl	chThdSleep
 211              	.LVL25:
 212              	.L21:
 213              		.loc 1 64 0
 214              		@ sp needed for prologue
 215 001e 08BD     		pop	{r3, pc}
 216              	.L31:
 217              		.align	2
 218              	.L30:
 219 0020 40420F00 		.word	1000000
 220              		.cfi_endproc
 221              	.LFE43:
 222              		.size	gfxSleepMicroseconds, .-gfxSleepMicroseconds
 223 0024 C046C046 		.section	.text.gfxSemInit,"ax",%progbits
ARM GAS  /tmp/ccZjcVcD.s 			page 5


 223      C046C046 
 223      C046C046 
 224              		.align	2
 225              		.p2align 4,,15
 226              		.global	gfxSemInit
 227              		.code	16
 228              		.thumb_func
 229              		.type	gfxSemInit, %function
 230              	gfxSemInit:
 231              	.LFB44:
 232              		.loc 1 65 0
 233              		.cfi_startproc
 234              	.LVL26:
 235 0000 08B5     		push	{r3, lr}
 236              	.LCFI4:
 237              		.cfi_def_cfa_offset 8
 238              		.cfi_offset 3, -8
 239              		.cfi_offset 14, -4
 240              		.loc 1 67 0
 241 0002 C260     		str	r2, [r0, #12]
 242              		.loc 1 68 0
 243 0004 8A42     		cmp	r2, r1
 244 0006 00DD     		ble	.L33
 245 0008 0A1C     		mov	r2, r1
 246              	.LVL27:
 247              	.L33:
 248 000a 111C     		mov	r1, r2
 249              	.LVL28:
 250 000c FFF7FEFF 		bl	chSemInit
 251              	.LVL29:
 252              		.loc 1 69 0
 253              		@ sp needed for prologue
 254 0010 08BD     		pop	{r3, pc}
 255              		.cfi_endproc
 256              	.LFE44:
 257              		.size	gfxSemInit, .-gfxSemInit
 258 0012 C046C046 		.section	.text.gfxSemDestroy,"ax",%progbits
 258      C046C046 
 258      C046C046 
 258      C046
 259              		.align	2
 260              		.p2align 4,,15
 261              		.global	gfxSemDestroy
 262              		.code	16
 263              		.thumb_func
 264              		.type	gfxSemDestroy, %function
 265              	gfxSemDestroy:
 266              	.LFB45:
 267              		.loc 1 70 0
 268              		.cfi_startproc
 269              	.LVL30:
 270 0000 08B5     		push	{r3, lr}
 271              	.LCFI5:
 272              		.cfi_def_cfa_offset 8
 273              		.cfi_offset 3, -8
 274              		.cfi_offset 14, -4
 275              		.loc 1 71 0
ARM GAS  /tmp/ccZjcVcD.s 			page 6


 276 0002 0121     		mov	r1, #1
 277 0004 FFF7FEFF 		bl	chSemReset
 278              	.LVL31:
 279              		.loc 1 72 0
 280              		@ sp needed for prologue
 281 0008 08BD     		pop	{r3, pc}
 282              		.cfi_endproc
 283              	.LFE45:
 284              		.size	gfxSemDestroy, .-gfxSemDestroy
 285 000a C046C046 		.section	.text.gfxSemWait,"ax",%progbits
 285      C046
 286              		.align	2
 287              		.p2align 4,,15
 288              		.global	gfxSemWait
 289              		.code	16
 290              		.thumb_func
 291              		.type	gfxSemWait, %function
 292              	gfxSemWait:
 293              	.LFB46:
 294              		.loc 1 73 0
 295              		.cfi_startproc
 296              	.LVL32:
 297 0000 10B5     		push	{r4, lr}
 298              	.LCFI6:
 299              		.cfi_def_cfa_offset 8
 300              		.cfi_offset 4, -8
 301              		.cfi_offset 14, -4
 302              		.loc 1 73 0
 303 0002 041C     		mov	r4, r0
 304              		.loc 1 74 0
 305 0004 4B1C     		add	r3, r1, #1
 306 0006 0ED0     		beq	.L38
 307              		.loc 1 78 0
 308 0008 FA23     		mov	r3, #250
 309 000a 9A00     		lsl	r2, r3, #2
 310 000c 5143     		mul	r1, r2
 311              	.LVL33:
 312 000e 481E     		sub	r0, r1, #1
 313              	.LVL34:
 314 0010 111C     		mov	r1, r2
 315 0012 FFF7FEFF 		bl	__aeabi_uidiv
 316              	.LVL35:
 317 0016 411C     		add	r1, r0, #1
 318 0018 201C     		mov	r0, r4
 319 001a FFF7FEFF 		bl	chSemWaitTimeout
 320              	.LVL36:
 321 001e 0130     		add	r0, r0, #1
 322 0020 431E     		sub	r3, r0, #1
 323 0022 9841     		sbc	r0, r0, r3
 324              	.L37:
 325              		.loc 1 79 0
 326              		@ sp needed for prologue
 327              	.LVL37:
 328 0024 10BD     		pop	{r4, pc}
 329              	.LVL38:
 330              	.L38:
 331              		.loc 1 75 0
ARM GAS  /tmp/ccZjcVcD.s 			page 7


 332 0026 FFF7FEFF 		bl	chSemWait
 333              	.LVL39:
 334              		.loc 1 76 0
 335 002a 0120     		mov	r0, #1
 336 002c FAE7     		b	.L37
 337              		.cfi_endproc
 338              	.LFE46:
 339              		.size	gfxSemWait, .-gfxSemWait
 340 002e C046     		.section	.text.gfxSemSignal,"ax",%progbits
 341              		.align	2
 342              		.p2align 4,,15
 343              		.global	gfxSemSignal
 344              		.code	16
 345              		.thumb_func
 346              		.type	gfxSemSignal, %function
 347              	gfxSemSignal:
 348              	.LFB47:
 349              		.loc 1 81 0
 350              		.cfi_startproc
 351              	.LVL40:
 352 0000 08B5     		push	{r3, lr}
 353              	.LCFI7:
 354              		.cfi_def_cfa_offset 8
 355              		.cfi_offset 3, -8
 356              		.cfi_offset 14, -4
 357              		.loc 1 82 0
 358              	@ 82 "/home/matt/arm_cortex/ChibiOS/ext/ugfx/src/gos/chibios.c" 1
 359 0002 72B6     		cpsid   i
 360              	@ 0 "" 2
 361              		.loc 1 83 0
 362              		.code	16
 363 0004 8268     		ldr	r2, [r0, #8]
 364 0006 C368     		ldr	r3, [r0, #12]
 365 0008 9A42     		cmp	r2, r3
 366 000a 01DA     		bge	.L40
 367              		.loc 1 84 0
 368 000c FFF7FEFF 		bl	chSemSignalI
 369              	.LVL41:
 370              	.L40:
 371              		.loc 1 85 0
 372 0010 FFF7FEFF 		bl	chSchRescheduleS
 373              	.LVL42:
 374              		.loc 1 86 0
 375              	@ 86 "/home/matt/arm_cortex/ChibiOS/ext/ugfx/src/gos/chibios.c" 1
 376 0014 62B6     		cpsie   i
 377              	@ 0 "" 2
 378              		.loc 1 87 0
 379              		.code	16
 380              		@ sp needed for prologue
 381 0016 08BD     		pop	{r3, pc}
 382              		.cfi_endproc
 383              	.LFE47:
 384              		.size	gfxSemSignal, .-gfxSemSignal
 385 0018 C046C046 		.section	.text.gfxSemSignalI,"ax",%progbits
 385      C046C046 
 386              		.align	2
 387              		.p2align 4,,15
ARM GAS  /tmp/ccZjcVcD.s 			page 8


 388              		.global	gfxSemSignalI
 389              		.code	16
 390              		.thumb_func
 391              		.type	gfxSemSignalI, %function
 392              	gfxSemSignalI:
 393              	.LFB48:
 394              		.loc 1 89 0
 395              		.cfi_startproc
 396              	.LVL43:
 397 0000 08B5     		push	{r3, lr}
 398              	.LCFI8:
 399              		.cfi_def_cfa_offset 8
 400              		.cfi_offset 3, -8
 401              		.cfi_offset 14, -4
 402              		.loc 1 90 0
 403 0002 8268     		ldr	r2, [r0, #8]
 404 0004 C368     		ldr	r3, [r0, #12]
 405 0006 9A42     		cmp	r2, r3
 406 0008 01DA     		bge	.L41
 407              		.loc 1 91 0
 408 000a FFF7FEFF 		bl	chSemSignalI
 409              	.LVL44:
 410              	.L41:
 411              		.loc 1 92 0
 412              		@ sp needed for prologue
 413 000e 08BD     		pop	{r3, pc}
 414              		.cfi_endproc
 415              	.LFE48:
 416              		.size	gfxSemSignalI, .-gfxSemSignalI
 417              		.section	.text.gfxThreadCreate,"ax",%progbits
 418              		.align	2
 419              		.p2align 4,,15
 420              		.global	gfxThreadCreate
 421              		.code	16
 422              		.thumb_func
 423              		.type	gfxThreadCreate, %function
 424              	gfxThreadCreate:
 425              	.LFB49:
 426              		.loc 1 94 0
 427              		.cfi_startproc
 428              	.LVL45:
 429 0000 10B5     		push	{r4, lr}
 430              	.LCFI9:
 431              		.cfi_def_cfa_offset 8
 432              		.cfi_offset 4, -8
 433              		.cfi_offset 14, -4
 434 0002 82B0     		sub	sp, sp, #8
 435              	.LCFI10:
 436              		.cfi_def_cfa_offset 16
 437              		.loc 1 95 0
 438 0004 0028     		cmp	r0, #0
 439 0006 09D0     		beq	.L49
 440              		.loc 1 100 0
 441 0008 0029     		cmp	r1, #0
 442 000a 05D0     		beq	.L48
 443              		.loc 1 101 0
 444 000c 049C     		ldr	r4, [sp, #16]
ARM GAS  /tmp/ccZjcVcD.s 			page 9


 445 000e 0094     		str	r4, [sp]
 446 0010 FFF7FEFF 		bl	chThdCreateStatic
 447              	.LVL46:
 448              	.L46:
 449              		.loc 1 102 0
 450 0014 02B0     		add	sp, sp, #8
 451              		@ sp needed for prologue
 452 0016 10BD     		pop	{r4, pc}
 453              	.LVL47:
 454              	.L48:
 455              		.loc 1 100 0
 456 0018 0020     		mov	r0, #0
 457              	.LVL48:
 458 001a FBE7     		b	.L46
 459              	.LVL49:
 460              	.L49:
 461              		.loc 1 96 0
 462 001c 0029     		cmp	r1, #0
 463 001e 01D1     		bne	.L45
 464 0020 8021     		mov	r1, #128
 465              	.LVL50:
 466 0022 4900     		lsl	r1, r1, #1
 467              	.L45:
 468              	.LVL51:
 469              		.loc 1 97 0
 470 0024 0498     		ldr	r0, [sp, #16]
 471              	.LVL52:
 472 0026 0090     		str	r0, [sp]
 473 0028 0020     		mov	r0, #0
 474 002a FFF7FEFF 		bl	chThdCreateFromHeap
 475              	.LVL53:
 476 002e F1E7     		b	.L46
 477              		.cfi_endproc
 478              	.LFE49:
 479              		.size	gfxThreadCreate, .-gfxThreadCreate
 480              		.text
 481              	.Letext0:
 482              		.file 2 "/home/matt/arm_cortex/gcc-arm-none-eabi/bin/../lib/gcc/arm-none-eabi/4.7.4/include/stddef
 483              		.file 3 "/home/matt/arm_cortex/gcc-arm-none-eabi/bin/../lib/gcc/arm-none-eabi/4.7.4/../../../../ar
 484              		.file 4 "/home/matt/arm_cortex/ChibiOS/os/ports/GCC/ARMCMx/chtypes.h"
 485              		.file 5 "/home/matt/arm_cortex/ChibiOS/os/kernel/include/chlists.h"
 486              		.file 6 "/home/matt/arm_cortex/ChibiOS/os/kernel/include/chthreads.h"
 487              		.file 7 "/home/matt/arm_cortex/ChibiOS/os/ports/GCC/ARMCMx/chcore_v6m.h"
 488              		.file 8 "/home/matt/arm_cortex/ChibiOS/os/kernel/include/chschd.h"
 489              		.file 9 "/home/matt/arm_cortex/ChibiOS/os/kernel/include/chsem.h"
 490              		.file 10 "/home/matt/arm_cortex/ChibiOS/os/kernel/include/chmtx.h"
 491              		.file 11 "/home/matt/arm_cortex/ChibiOS/os/kernel/include/chmemcore.h"
 492              		.file 12 "/home/matt/arm_cortex/ChibiOS/os/kernel/include/chheap.h"
 493              		.file 13 "/home/matt/arm_cortex/ChibiOS/ext/ugfx/include/gos/chibios.h"
 494              		.file 14 "/home/matt/arm_cortex/ChibiOS/os/hal/include/hal.h"
 495              		.file 15 "/home/matt/arm_cortex/ChibiOS/os/kernel/include/chsys.h"
 496              		.file 16 "/home/matt/arm_cortex/ChibiOS/os/kernel/include/chdynamic.h"
 497              		.section	.debug_info,"",%progbits
 498              	.Ldebug_info0:
 499 0000 B30A0000 		.4byte	0xab3
 500 0004 0200     		.2byte	0x2
 501 0006 00000000 		.4byte	.Ldebug_abbrev0
ARM GAS  /tmp/ccZjcVcD.s 			page 10


 502 000a 04       		.byte	0x4
 503 000b 01       		.uleb128 0x1
 504 000c A1040000 		.4byte	.LASF120
 505 0010 01       		.byte	0x1
 506 0011 68040000 		.4byte	.LASF121
 507 0015 00000000 		.4byte	.Ldebug_ranges0+0
 508 0019 00000000 		.4byte	0
 509 001d 00000000 		.4byte	0
 510 0021 00000000 		.4byte	.Ldebug_line0
 511 0025 02       		.uleb128 0x2
 512 0026 04       		.byte	0x4
 513 0027 05       		.byte	0x5
 514 0028 696E7400 		.ascii	"int\000"
 515 002c 03       		.uleb128 0x3
 516 002d 19000000 		.4byte	.LASF2
 517 0031 02       		.byte	0x2
 518 0032 D5       		.byte	0xd5
 519 0033 37000000 		.4byte	0x37
 520 0037 04       		.uleb128 0x4
 521 0038 04       		.byte	0x4
 522 0039 07       		.byte	0x7
 523 003a 6D010000 		.4byte	.LASF0
 524 003e 04       		.uleb128 0x4
 525 003f 01       		.byte	0x1
 526 0040 06       		.byte	0x6
 527 0041 9B000000 		.4byte	.LASF1
 528 0045 03       		.uleb128 0x3
 529 0046 35040000 		.4byte	.LASF3
 530 004a 03       		.byte	0x3
 531 004b 2A       		.byte	0x2a
 532 004c 50000000 		.4byte	0x50
 533 0050 04       		.uleb128 0x4
 534 0051 01       		.byte	0x1
 535 0052 08       		.byte	0x8
 536 0053 E3020000 		.4byte	.LASF4
 537 0057 04       		.uleb128 0x4
 538 0058 02       		.byte	0x2
 539 0059 05       		.byte	0x5
 540 005a 16030000 		.4byte	.LASF5
 541 005e 04       		.uleb128 0x4
 542 005f 02       		.byte	0x2
 543 0060 07       		.byte	0x7
 544 0061 A9010000 		.4byte	.LASF6
 545 0065 03       		.uleb128 0x3
 546 0066 DB020000 		.4byte	.LASF7
 547 006a 03       		.byte	0x3
 548 006b 4F       		.byte	0x4f
 549 006c 70000000 		.4byte	0x70
 550 0070 04       		.uleb128 0x4
 551 0071 04       		.byte	0x4
 552 0072 05       		.byte	0x5
 553 0073 E8000000 		.4byte	.LASF8
 554 0077 03       		.uleb128 0x3
 555 0078 74030000 		.4byte	.LASF9
 556 007c 03       		.byte	0x3
 557 007d 50       		.byte	0x50
 558 007e 82000000 		.4byte	0x82
ARM GAS  /tmp/ccZjcVcD.s 			page 11


 559 0082 04       		.uleb128 0x4
 560 0083 04       		.byte	0x4
 561 0084 07       		.byte	0x7
 562 0085 8A030000 		.4byte	.LASF10
 563 0089 04       		.uleb128 0x4
 564 008a 08       		.byte	0x8
 565 008b 05       		.byte	0x5
 566 008c 8D000000 		.4byte	.LASF11
 567 0090 03       		.uleb128 0x3
 568 0091 27000000 		.4byte	.LASF12
 569 0095 03       		.byte	0x3
 570 0096 78       		.byte	0x78
 571 0097 9B000000 		.4byte	0x9b
 572 009b 04       		.uleb128 0x4
 573 009c 08       		.byte	0x8
 574 009d 07       		.byte	0x7
 575 009e 3D000000 		.4byte	.LASF13
 576 00a2 03       		.uleb128 0x3
 577 00a3 BF000000 		.4byte	.LASF14
 578 00a7 04       		.byte	0x4
 579 00a8 2B       		.byte	0x2b
 580 00a9 AD000000 		.4byte	0xad
 581 00ad 04       		.uleb128 0x4
 582 00ae 01       		.byte	0x1
 583 00af 02       		.byte	0x2
 584 00b0 D5020000 		.4byte	.LASF15
 585 00b4 03       		.uleb128 0x3
 586 00b5 CD010000 		.4byte	.LASF16
 587 00b9 04       		.byte	0x4
 588 00ba 2C       		.byte	0x2c
 589 00bb 45000000 		.4byte	0x45
 590 00bf 03       		.uleb128 0x3
 591 00c0 05010000 		.4byte	.LASF17
 592 00c4 04       		.byte	0x4
 593 00c5 2D       		.byte	0x2d
 594 00c6 45000000 		.4byte	0x45
 595 00ca 03       		.uleb128 0x3
 596 00cb B8020000 		.4byte	.LASF18
 597 00cf 04       		.byte	0x4
 598 00d0 2E       		.byte	0x2e
 599 00d1 45000000 		.4byte	0x45
 600 00d5 03       		.uleb128 0x3
 601 00d6 CE000000 		.4byte	.LASF19
 602 00da 04       		.byte	0x4
 603 00db 2F       		.byte	0x2f
 604 00dc 45000000 		.4byte	0x45
 605 00e0 03       		.uleb128 0x3
 606 00e1 CD020000 		.4byte	.LASF20
 607 00e5 04       		.byte	0x4
 608 00e6 30       		.byte	0x30
 609 00e7 77000000 		.4byte	0x77
 610 00eb 03       		.uleb128 0x3
 611 00ec C7010000 		.4byte	.LASF21
 612 00f0 04       		.byte	0x4
 613 00f1 31       		.byte	0x31
 614 00f2 65000000 		.4byte	0x65
 615 00f6 03       		.uleb128 0x3
ARM GAS  /tmp/ccZjcVcD.s 			page 12


 616 00f7 E1010000 		.4byte	.LASF22
 617 00fb 04       		.byte	0x4
 618 00fc 33       		.byte	0x33
 619 00fd 77000000 		.4byte	0x77
 620 0101 03       		.uleb128 0x3
 621 0102 B2030000 		.4byte	.LASF23
 622 0106 04       		.byte	0x4
 623 0107 35       		.byte	0x35
 624 0108 77000000 		.4byte	0x77
 625 010c 03       		.uleb128 0x3
 626 010d 67010000 		.4byte	.LASF24
 627 0111 04       		.byte	0x4
 628 0112 36       		.byte	0x36
 629 0113 65000000 		.4byte	0x65
 630 0117 03       		.uleb128 0x3
 631 0118 4F030000 		.4byte	.LASF25
 632 011c 05       		.byte	0x5
 633 011d 2A       		.byte	0x2a
 634 011e 22010000 		.4byte	0x122
 635 0122 05       		.uleb128 0x5
 636 0123 4F030000 		.4byte	.LASF25
 637 0127 48       		.byte	0x48
 638 0128 06       		.byte	0x6
 639 0129 5E       		.byte	0x5e
 640 012a 47020000 		.4byte	0x247
 641 012e 06       		.uleb128 0x6
 642 012f 40030000 		.4byte	.LASF26
 643 0133 06       		.byte	0x6
 644 0134 5F       		.byte	0x5f
 645 0135 6C020000 		.4byte	0x26c
 646 0139 02       		.byte	0x2
 647 013a 23       		.byte	0x23
 648 013b 00       		.uleb128 0
 649 013c 06       		.uleb128 0x6
 650 013d C0020000 		.4byte	.LASF27
 651 0141 06       		.byte	0x6
 652 0142 61       		.byte	0x61
 653 0143 6C020000 		.4byte	0x26c
 654 0147 02       		.byte	0x2
 655 0148 23       		.byte	0x23
 656 0149 04       		.uleb128 0x4
 657 014a 06       		.uleb128 0x6
 658 014b 86000000 		.4byte	.LASF28
 659 014f 06       		.byte	0x6
 660 0150 63       		.byte	0x63
 661 0151 E0000000 		.4byte	0xe0
 662 0155 02       		.byte	0x2
 663 0156 23       		.byte	0x23
 664 0157 08       		.uleb128 0x8
 665 0158 06       		.uleb128 0x6
 666 0159 DF040000 		.4byte	.LASF29
 667 015d 06       		.byte	0x6
 668 015e 64       		.byte	0x64
 669 015f 3B030000 		.4byte	0x33b
 670 0163 02       		.byte	0x2
 671 0164 23       		.byte	0x23
 672 0165 0C       		.uleb128 0xc
ARM GAS  /tmp/ccZjcVcD.s 			page 13


 673 0166 06       		.uleb128 0x6
 674 0167 24010000 		.4byte	.LASF30
 675 016b 06       		.byte	0x6
 676 016c 66       		.byte	0x66
 677 016d 6C020000 		.4byte	0x26c
 678 0171 02       		.byte	0x2
 679 0172 23       		.byte	0x23
 680 0173 10       		.uleb128 0x10
 681 0174 06       		.uleb128 0x6
 682 0175 50020000 		.4byte	.LASF31
 683 0179 06       		.byte	0x6
 684 017a 67       		.byte	0x67
 685 017b 6C020000 		.4byte	0x26c
 686 017f 02       		.byte	0x2
 687 0180 23       		.byte	0x23
 688 0181 14       		.uleb128 0x14
 689 0182 06       		.uleb128 0x6
 690 0183 CA040000 		.4byte	.LASF32
 691 0187 06       		.byte	0x6
 692 0188 6E       		.byte	0x6e
 693 0189 53050000 		.4byte	0x553
 694 018d 02       		.byte	0x2
 695 018e 23       		.byte	0x23
 696 018f 18       		.uleb128 0x18
 697 0190 06       		.uleb128 0x6
 698 0191 20030000 		.4byte	.LASF33
 699 0195 06       		.byte	0x6
 700 0196 79       		.byte	0x79
 701 0197 BF000000 		.4byte	0xbf
 702 019b 02       		.byte	0x2
 703 019c 23       		.byte	0x23
 704 019d 1C       		.uleb128 0x1c
 705 019e 06       		.uleb128 0x6
 706 019f 47030000 		.4byte	.LASF34
 707 01a3 06       		.byte	0x6
 708 01a4 7D       		.byte	0x7d
 709 01a5 B4000000 		.4byte	0xb4
 710 01a9 02       		.byte	0x2
 711 01aa 23       		.byte	0x23
 712 01ab 1D       		.uleb128 0x1d
 713 01ac 06       		.uleb128 0x6
 714 01ad 04040000 		.4byte	.LASF35
 715 01b1 06       		.byte	0x6
 716 01b2 82       		.byte	0x82
 717 01b3 CA000000 		.4byte	0xca
 718 01b7 02       		.byte	0x2
 719 01b8 23       		.byte	0x23
 720 01b9 1E       		.uleb128 0x1e
 721 01ba 06       		.uleb128 0x6
 722 01bb 28030000 		.4byte	.LASF36
 723 01bf 06       		.byte	0x6
 724 01c0 88       		.byte	0x88
 725 01c1 D5000000 		.4byte	0xd5
 726 01c5 02       		.byte	0x2
 727 01c6 23       		.byte	0x23
 728 01c7 1F       		.uleb128 0x1f
 729 01c8 06       		.uleb128 0x6
ARM GAS  /tmp/ccZjcVcD.s 			page 14


 730 01c9 15010000 		.4byte	.LASF37
 731 01cd 06       		.byte	0x6
 732 01ce 8F       		.byte	0x8f
 733 01cf 63030000 		.4byte	0x363
 734 01d3 02       		.byte	0x2
 735 01d4 23       		.byte	0x23
 736 01d5 20       		.uleb128 0x20
 737 01d6 07       		.uleb128 0x7
 738 01d7 705F7500 		.ascii	"p_u\000"
 739 01db 06       		.byte	0x6
 740 01dc B4       		.byte	0xb4
 741 01dd 1E050000 		.4byte	0x51e
 742 01e1 02       		.byte	0x2
 743 01e2 23       		.byte	0x23
 744 01e3 24       		.uleb128 0x24
 745 01e4 06       		.uleb128 0x6
 746 01e5 E5040000 		.4byte	.LASF38
 747 01e9 06       		.byte	0x6
 748 01ea B9       		.byte	0xb9
 749 01eb 94020000 		.4byte	0x294
 750 01ef 02       		.byte	0x2
 751 01f0 23       		.byte	0x23
 752 01f1 28       		.uleb128 0x28
 753 01f2 06       		.uleb128 0x6
 754 01f3 80010000 		.4byte	.LASF39
 755 01f7 06       		.byte	0x6
 756 01f8 BF       		.byte	0xbf
 757 01f9 72020000 		.4byte	0x272
 758 01fd 02       		.byte	0x2
 759 01fe 23       		.byte	0x23
 760 01ff 2C       		.uleb128 0x2c
 761 0200 06       		.uleb128 0x6
 762 0201 D1040000 		.4byte	.LASF40
 763 0205 06       		.byte	0x6
 764 0206 C3       		.byte	0xc3
 765 0207 EB000000 		.4byte	0xeb
 766 020b 02       		.byte	0x2
 767 020c 23       		.byte	0x23
 768 020d 34       		.uleb128 0x34
 769 020e 06       		.uleb128 0x6
 770 020f 69030000 		.4byte	.LASF41
 771 0213 06       		.byte	0x6
 772 0214 C9       		.byte	0xc9
 773 0215 F6000000 		.4byte	0xf6
 774 0219 02       		.byte	0x2
 775 021a 23       		.byte	0x23
 776 021b 38       		.uleb128 0x38
 777 021c 06       		.uleb128 0x6
 778 021d 0C030000 		.4byte	.LASF42
 779 0221 06       		.byte	0x6
 780 0222 D0       		.byte	0xd0
 781 0223 65050000 		.4byte	0x565
 782 0227 02       		.byte	0x2
 783 0228 23       		.byte	0x23
 784 0229 3C       		.uleb128 0x3c
 785 022a 06       		.uleb128 0x6
 786 022b BC030000 		.4byte	.LASF43
ARM GAS  /tmp/ccZjcVcD.s 			page 15


 787 022f 06       		.byte	0x6
 788 0230 D4       		.byte	0xd4
 789 0231 E0000000 		.4byte	0xe0
 790 0235 02       		.byte	0x2
 791 0236 23       		.byte	0x23
 792 0237 40       		.uleb128 0x40
 793 0238 06       		.uleb128 0x6
 794 0239 B7000000 		.4byte	.LASF44
 795 023d 06       		.byte	0x6
 796 023e DA       		.byte	0xda
 797 023f AA020000 		.4byte	0x2aa
 798 0243 02       		.byte	0x2
 799 0244 23       		.byte	0x23
 800 0245 44       		.uleb128 0x44
 801 0246 00       		.byte	0
 802 0247 08       		.uleb128 0x8
 803 0248 08       		.byte	0x8
 804 0249 05       		.byte	0x5
 805 024a 61       		.byte	0x61
 806 024b 6C020000 		.4byte	0x26c
 807 024f 06       		.uleb128 0x6
 808 0250 40030000 		.4byte	.LASF26
 809 0254 05       		.byte	0x5
 810 0255 62       		.byte	0x62
 811 0256 6C020000 		.4byte	0x26c
 812 025a 02       		.byte	0x2
 813 025b 23       		.byte	0x23
 814 025c 00       		.uleb128 0
 815 025d 06       		.uleb128 0x6
 816 025e C0020000 		.4byte	.LASF27
 817 0262 05       		.byte	0x5
 818 0263 64       		.byte	0x64
 819 0264 6C020000 		.4byte	0x26c
 820 0268 02       		.byte	0x2
 821 0269 23       		.byte	0x23
 822 026a 04       		.uleb128 0x4
 823 026b 00       		.byte	0
 824 026c 09       		.uleb128 0x9
 825 026d 04       		.byte	0x4
 826 026e 17010000 		.4byte	0x117
 827 0272 03       		.uleb128 0x3
 828 0273 69020000 		.4byte	.LASF45
 829 0277 05       		.byte	0x5
 830 0278 66       		.byte	0x66
 831 0279 47020000 		.4byte	0x247
 832 027d 08       		.uleb128 0x8
 833 027e 04       		.byte	0x4
 834 027f 05       		.byte	0x5
 835 0280 6B       		.byte	0x6b
 836 0281 94020000 		.4byte	0x294
 837 0285 06       		.uleb128 0x6
 838 0286 40030000 		.4byte	.LASF26
 839 028a 05       		.byte	0x5
 840 028b 6D       		.byte	0x6d
 841 028c 6C020000 		.4byte	0x26c
 842 0290 02       		.byte	0x2
 843 0291 23       		.byte	0x23
ARM GAS  /tmp/ccZjcVcD.s 			page 16


 844 0292 00       		.uleb128 0
 845 0293 00       		.byte	0
 846 0294 03       		.uleb128 0x3
 847 0295 D5010000 		.4byte	.LASF46
 848 0299 05       		.byte	0x5
 849 029a 70       		.byte	0x70
 850 029b 7D020000 		.4byte	0x27d
 851 029f 03       		.uleb128 0x3
 852 02a0 58010000 		.4byte	.LASF47
 853 02a4 07       		.byte	0x7
 854 02a5 A7       		.byte	0xa7
 855 02a6 AA020000 		.4byte	0x2aa
 856 02aa 0A       		.uleb128 0xa
 857 02ab 04       		.byte	0x4
 858 02ac 03       		.uleb128 0x3
 859 02ad FE010000 		.4byte	.LASF48
 860 02b1 07       		.byte	0x7
 861 02b2 AD       		.byte	0xad
 862 02b3 90000000 		.4byte	0x90
 863 02b7 05       		.uleb128 0x5
 864 02b8 E3030000 		.4byte	.LASF49
 865 02bc 24       		.byte	0x24
 866 02bd 07       		.byte	0x7
 867 02be BA       		.byte	0xba
 868 02bf 3B030000 		.4byte	0x33b
 869 02c3 07       		.uleb128 0x7
 870 02c4 723800   		.ascii	"r8\000"
 871 02c7 07       		.byte	0x7
 872 02c8 BB       		.byte	0xbb
 873 02c9 9F020000 		.4byte	0x29f
 874 02cd 02       		.byte	0x2
 875 02ce 23       		.byte	0x23
 876 02cf 00       		.uleb128 0
 877 02d0 07       		.uleb128 0x7
 878 02d1 723900   		.ascii	"r9\000"
 879 02d4 07       		.byte	0x7
 880 02d5 BC       		.byte	0xbc
 881 02d6 9F020000 		.4byte	0x29f
 882 02da 02       		.byte	0x2
 883 02db 23       		.byte	0x23
 884 02dc 04       		.uleb128 0x4
 885 02dd 07       		.uleb128 0x7
 886 02de 72313000 		.ascii	"r10\000"
 887 02e2 07       		.byte	0x7
 888 02e3 BD       		.byte	0xbd
 889 02e4 9F020000 		.4byte	0x29f
 890 02e8 02       		.byte	0x2
 891 02e9 23       		.byte	0x23
 892 02ea 08       		.uleb128 0x8
 893 02eb 07       		.uleb128 0x7
 894 02ec 72313100 		.ascii	"r11\000"
 895 02f0 07       		.byte	0x7
 896 02f1 BE       		.byte	0xbe
 897 02f2 9F020000 		.4byte	0x29f
 898 02f6 02       		.byte	0x2
 899 02f7 23       		.byte	0x23
 900 02f8 0C       		.uleb128 0xc
ARM GAS  /tmp/ccZjcVcD.s 			page 17


 901 02f9 07       		.uleb128 0x7
 902 02fa 723400   		.ascii	"r4\000"
 903 02fd 07       		.byte	0x7
 904 02fe BF       		.byte	0xbf
 905 02ff 9F020000 		.4byte	0x29f
 906 0303 02       		.byte	0x2
 907 0304 23       		.byte	0x23
 908 0305 10       		.uleb128 0x10
 909 0306 07       		.uleb128 0x7
 910 0307 723500   		.ascii	"r5\000"
 911 030a 07       		.byte	0x7
 912 030b C0       		.byte	0xc0
 913 030c 9F020000 		.4byte	0x29f
 914 0310 02       		.byte	0x2
 915 0311 23       		.byte	0x23
 916 0312 14       		.uleb128 0x14
 917 0313 07       		.uleb128 0x7
 918 0314 723600   		.ascii	"r6\000"
 919 0317 07       		.byte	0x7
 920 0318 C1       		.byte	0xc1
 921 0319 9F020000 		.4byte	0x29f
 922 031d 02       		.byte	0x2
 923 031e 23       		.byte	0x23
 924 031f 18       		.uleb128 0x18
 925 0320 07       		.uleb128 0x7
 926 0321 723700   		.ascii	"r7\000"
 927 0324 07       		.byte	0x7
 928 0325 C2       		.byte	0xc2
 929 0326 9F020000 		.4byte	0x29f
 930 032a 02       		.byte	0x2
 931 032b 23       		.byte	0x23
 932 032c 1C       		.uleb128 0x1c
 933 032d 07       		.uleb128 0x7
 934 032e 6C7200   		.ascii	"lr\000"
 935 0331 07       		.byte	0x7
 936 0332 C3       		.byte	0xc3
 937 0333 9F020000 		.4byte	0x29f
 938 0337 02       		.byte	0x2
 939 0338 23       		.byte	0x23
 940 0339 20       		.uleb128 0x20
 941 033a 00       		.byte	0
 942 033b 05       		.uleb128 0x5
 943 033c D1030000 		.4byte	.LASF50
 944 0340 04       		.byte	0x4
 945 0341 07       		.byte	0x7
 946 0342 CD       		.byte	0xcd
 947 0343 56030000 		.4byte	0x356
 948 0347 07       		.uleb128 0x7
 949 0348 72313300 		.ascii	"r13\000"
 950 034c 07       		.byte	0x7
 951 034d CE       		.byte	0xce
 952 034e 56030000 		.4byte	0x356
 953 0352 02       		.byte	0x2
 954 0353 23       		.byte	0x23
 955 0354 00       		.uleb128 0
 956 0355 00       		.byte	0
 957 0356 09       		.uleb128 0x9
ARM GAS  /tmp/ccZjcVcD.s 			page 18


 958 0357 04       		.byte	0x4
 959 0358 B7020000 		.4byte	0x2b7
 960 035c 04       		.uleb128 0x4
 961 035d 04       		.byte	0x4
 962 035e 07       		.byte	0x7
 963 035f 3B020000 		.4byte	.LASF51
 964 0363 0B       		.uleb128 0xb
 965 0364 01010000 		.4byte	0x101
 966 0368 08       		.uleb128 0x8
 967 0369 1C       		.byte	0x1c
 968 036a 08       		.byte	0x8
 969 036b 5E       		.byte	0x5e
 970 036c C5030000 		.4byte	0x3c5
 971 0370 06       		.uleb128 0x6
 972 0371 7D030000 		.4byte	.LASF52
 973 0375 08       		.byte	0x8
 974 0376 5F       		.byte	0x5f
 975 0377 72020000 		.4byte	0x272
 976 037b 02       		.byte	0x2
 977 037c 23       		.byte	0x23
 978 037d 00       		.uleb128 0
 979 037e 06       		.uleb128 0x6
 980 037f 32030000 		.4byte	.LASF53
 981 0383 08       		.byte	0x8
 982 0384 60       		.byte	0x60
 983 0385 E0000000 		.4byte	0xe0
 984 0389 02       		.byte	0x2
 985 038a 23       		.byte	0x23
 986 038b 08       		.uleb128 0x8
 987 038c 06       		.uleb128 0x6
 988 038d 58020000 		.4byte	.LASF54
 989 0391 08       		.byte	0x8
 990 0392 62       		.byte	0x62
 991 0393 3B030000 		.4byte	0x33b
 992 0397 02       		.byte	0x2
 993 0398 23       		.byte	0x23
 994 0399 0C       		.uleb128 0xc
 995 039a 06       		.uleb128 0x6
 996 039b 50010000 		.4byte	.LASF55
 997 039f 08       		.byte	0x8
 998 03a0 65       		.byte	0x65
 999 03a1 6C020000 		.4byte	0x26c
 1000 03a5 02       		.byte	0x2
 1001 03a6 23       		.byte	0x23
 1002 03a7 10       		.uleb128 0x10
 1003 03a8 06       		.uleb128 0x6
 1004 03a9 97020000 		.4byte	.LASF56
 1005 03ad 08       		.byte	0x8
 1006 03ae 66       		.byte	0x66
 1007 03af 6C020000 		.4byte	0x26c
 1008 03b3 02       		.byte	0x2
 1009 03b4 23       		.byte	0x23
 1010 03b5 14       		.uleb128 0x14
 1011 03b6 06       		.uleb128 0x6
 1012 03b7 9C030000 		.4byte	.LASF57
 1013 03bb 08       		.byte	0x8
 1014 03bc 69       		.byte	0x69
ARM GAS  /tmp/ccZjcVcD.s 			page 19


 1015 03bd 6C020000 		.4byte	0x26c
 1016 03c1 02       		.byte	0x2
 1017 03c2 23       		.byte	0x23
 1018 03c3 18       		.uleb128 0x18
 1019 03c4 00       		.byte	0
 1020 03c5 03       		.uleb128 0x3
 1021 03c6 25040000 		.4byte	.LASF58
 1022 03ca 08       		.byte	0x8
 1023 03cb 6B       		.byte	0x6b
 1024 03cc 68030000 		.4byte	0x368
 1025 03d0 05       		.uleb128 0x5
 1026 03d1 EA030000 		.4byte	.LASF59
 1027 03d5 0C       		.byte	0xc
 1028 03d6 09       		.byte	0x9
 1029 03d7 2C       		.byte	0x2c
 1030 03d8 F9030000 		.4byte	0x3f9
 1031 03dc 06       		.uleb128 0x6
 1032 03dd 2C010000 		.4byte	.LASF60
 1033 03e1 09       		.byte	0x9
 1034 03e2 2D       		.byte	0x2d
 1035 03e3 72020000 		.4byte	0x272
 1036 03e7 02       		.byte	0x2
 1037 03e8 23       		.byte	0x23
 1038 03e9 00       		.uleb128 0
 1039 03ea 06       		.uleb128 0x6
 1040 03eb 9E010000 		.4byte	.LASF61
 1041 03ef 09       		.byte	0x9
 1042 03f0 2F       		.byte	0x2f
 1043 03f1 0C010000 		.4byte	0x10c
 1044 03f5 02       		.byte	0x2
 1045 03f6 23       		.byte	0x23
 1046 03f7 08       		.uleb128 0x8
 1047 03f8 00       		.byte	0
 1048 03f9 03       		.uleb128 0x3
 1049 03fa EA030000 		.4byte	.LASF59
 1050 03fe 09       		.byte	0x9
 1051 03ff 30       		.byte	0x30
 1052 0400 D0030000 		.4byte	0x3d0
 1053 0404 05       		.uleb128 0x5
 1054 0405 44020000 		.4byte	.LASF62
 1055 0409 10       		.byte	0x10
 1056 040a 0A       		.byte	0xa
 1057 040b 2C       		.byte	0x2c
 1058 040c 3B040000 		.4byte	0x43b
 1059 0410 06       		.uleb128 0x6
 1060 0411 C6000000 		.4byte	.LASF63
 1061 0415 0A       		.byte	0xa
 1062 0416 2D       		.byte	0x2d
 1063 0417 72020000 		.4byte	0x272
 1064 041b 02       		.byte	0x2
 1065 041c 23       		.byte	0x23
 1066 041d 00       		.uleb128 0
 1067 041e 06       		.uleb128 0x6
 1068 041f D7040000 		.4byte	.LASF64
 1069 0423 0A       		.byte	0xa
 1070 0424 2F       		.byte	0x2f
 1071 0425 6C020000 		.4byte	0x26c
ARM GAS  /tmp/ccZjcVcD.s 			page 20


 1072 0429 02       		.byte	0x2
 1073 042a 23       		.byte	0x23
 1074 042b 08       		.uleb128 0x8
 1075 042c 06       		.uleb128 0x6
 1076 042d AB030000 		.4byte	.LASF65
 1077 0431 0A       		.byte	0xa
 1078 0432 31       		.byte	0x31
 1079 0433 3B040000 		.4byte	0x43b
 1080 0437 02       		.byte	0x2
 1081 0438 23       		.byte	0x23
 1082 0439 0C       		.uleb128 0xc
 1083 043a 00       		.byte	0
 1084 043b 09       		.uleb128 0x9
 1085 043c 04       		.byte	0x4
 1086 043d 04040000 		.4byte	0x404
 1087 0441 03       		.uleb128 0x3
 1088 0442 44020000 		.4byte	.LASF62
 1089 0446 0A       		.byte	0xa
 1090 0447 33       		.byte	0x33
 1091 0448 04040000 		.4byte	0x404
 1092 044c 03       		.uleb128 0x3
 1093 044d 30000000 		.4byte	.LASF66
 1094 0451 0B       		.byte	0xb
 1095 0452 2C       		.byte	0x2c
 1096 0453 57040000 		.4byte	0x457
 1097 0457 09       		.uleb128 0x9
 1098 0458 04       		.byte	0x4
 1099 0459 5D040000 		.4byte	0x45d
 1100 045d 0C       		.uleb128 0xc
 1101 045e 01       		.byte	0x1
 1102 045f AA020000 		.4byte	0x2aa
 1103 0463 6D040000 		.4byte	0x46d
 1104 0467 0D       		.uleb128 0xd
 1105 0468 2C000000 		.4byte	0x2c
 1106 046c 00       		.byte	0
 1107 046d 03       		.uleb128 0x3
 1108 046e 9F020000 		.4byte	.LASF67
 1109 0472 0C       		.byte	0xc
 1110 0473 34       		.byte	0x34
 1111 0474 78040000 		.4byte	0x478
 1112 0478 05       		.uleb128 0x5
 1113 0479 F9040000 		.4byte	.LASF68
 1114 047d 20       		.byte	0x20
 1115 047e 0C       		.byte	0xc
 1116 047f 47       		.byte	0x47
 1117 0480 AF040000 		.4byte	0x4af
 1118 0484 06       		.uleb128 0x6
 1119 0485 52040000 		.4byte	.LASF69
 1120 0489 0C       		.byte	0xc
 1121 048a 48       		.byte	0x48
 1122 048b 4C040000 		.4byte	0x44c
 1123 048f 02       		.byte	0x2
 1124 0490 23       		.byte	0x23
 1125 0491 00       		.uleb128 0
 1126 0492 06       		.uleb128 0x6
 1127 0493 66000000 		.4byte	.LASF70
 1128 0497 0C       		.byte	0xc
ARM GAS  /tmp/ccZjcVcD.s 			page 21


 1129 0498 4A       		.byte	0x4a
 1130 0499 CE040000 		.4byte	0x4ce
 1131 049d 02       		.byte	0x2
 1132 049e 23       		.byte	0x23
 1133 049f 08       		.uleb128 0x8
 1134 04a0 06       		.uleb128 0x6
 1135 04a1 A7000000 		.4byte	.LASF71
 1136 04a5 0C       		.byte	0xc
 1137 04a6 4C       		.byte	0x4c
 1138 04a7 41040000 		.4byte	0x441
 1139 04ab 02       		.byte	0x2
 1140 04ac 23       		.byte	0x23
 1141 04ad 10       		.uleb128 0x10
 1142 04ae 00       		.byte	0
 1143 04af 0E       		.uleb128 0xe
 1144 04b0 04       		.byte	0x4
 1145 04b1 0C       		.byte	0xc
 1146 04b2 3C       		.byte	0x3c
 1147 04b3 CE040000 		.4byte	0x4ce
 1148 04b7 0F       		.uleb128 0xf
 1149 04b8 81000000 		.4byte	.LASF72
 1150 04bc 0C       		.byte	0xc
 1151 04bd 3D       		.byte	0x3d
 1152 04be EF040000 		.4byte	0x4ef
 1153 04c2 0F       		.uleb128 0xf
 1154 04c3 85030000 		.4byte	.LASF73
 1155 04c7 0C       		.byte	0xc
 1156 04c8 3E       		.byte	0x3e
 1157 04c9 F5040000 		.4byte	0x4f5
 1158 04cd 00       		.byte	0
 1159 04ce 10       		.uleb128 0x10
 1160 04cf F1020000 		.4byte	.LASF122
 1161 04d3 08       		.byte	0x8
 1162 04d4 0C       		.byte	0xc
 1163 04d5 39       		.byte	0x39
 1164 04d6 EF040000 		.4byte	0x4ef
 1165 04da 0F       		.uleb128 0xf
 1166 04db 61010000 		.4byte	.LASF74
 1167 04df 0C       		.byte	0xc
 1168 04e0 3A       		.byte	0x3a
 1169 04e1 AC020000 		.4byte	0x2ac
 1170 04e5 11       		.uleb128 0x11
 1171 04e6 6800     		.ascii	"h\000"
 1172 04e8 0C       		.byte	0xc
 1173 04e9 41       		.byte	0x41
 1174 04ea FB040000 		.4byte	0x4fb
 1175 04ee 00       		.byte	0
 1176 04ef 09       		.uleb128 0x9
 1177 04f0 04       		.byte	0x4
 1178 04f1 CE040000 		.4byte	0x4ce
 1179 04f5 09       		.uleb128 0x9
 1180 04f6 04       		.byte	0x4
 1181 04f7 6D040000 		.4byte	0x46d
 1182 04fb 08       		.uleb128 0x8
 1183 04fc 08       		.byte	0x8
 1184 04fd 0C       		.byte	0xc
 1185 04fe 3B       		.byte	0x3b
ARM GAS  /tmp/ccZjcVcD.s 			page 22


 1186 04ff 1E050000 		.4byte	0x51e
 1187 0503 07       		.uleb128 0x7
 1188 0504 7500     		.ascii	"u\000"
 1189 0506 0C       		.byte	0xc
 1190 0507 3F       		.byte	0x3f
 1191 0508 AF040000 		.4byte	0x4af
 1192 050c 02       		.byte	0x2
 1193 050d 23       		.byte	0x23
 1194 050e 00       		.uleb128 0
 1195 050f 06       		.uleb128 0x6
 1196 0510 A4010000 		.4byte	.LASF75
 1197 0514 0C       		.byte	0xc
 1198 0515 40       		.byte	0x40
 1199 0516 2C000000 		.4byte	0x2c
 1200 051a 02       		.byte	0x2
 1201 051b 23       		.byte	0x23
 1202 051c 04       		.uleb128 0x4
 1203 051d 00       		.byte	0
 1204 051e 0E       		.uleb128 0xe
 1205 051f 04       		.byte	0x4
 1206 0520 06       		.byte	0x6
 1207 0521 96       		.byte	0x96
 1208 0522 53050000 		.4byte	0x553
 1209 0526 0F       		.uleb128 0xf
 1210 0527 20000000 		.4byte	.LASF76
 1211 052b 06       		.byte	0x6
 1212 052c 9D       		.byte	0x9d
 1213 052d EB000000 		.4byte	0xeb
 1214 0531 0F       		.uleb128 0xf
 1215 0532 5D000000 		.4byte	.LASF77
 1216 0536 06       		.byte	0x6
 1217 0537 A4       		.byte	0xa4
 1218 0538 EB000000 		.4byte	0xeb
 1219 053c 0F       		.uleb128 0xf
 1220 053d C3040000 		.4byte	.LASF78
 1221 0541 06       		.byte	0x6
 1222 0542 AB       		.byte	0xab
 1223 0543 AA020000 		.4byte	0x2aa
 1224 0547 0F       		.uleb128 0xf
 1225 0548 39030000 		.4byte	.LASF79
 1226 054c 06       		.byte	0x6
 1227 054d B2       		.byte	0xb2
 1228 054e F6000000 		.4byte	0xf6
 1229 0552 00       		.byte	0
 1230 0553 09       		.uleb128 0x9
 1231 0554 04       		.byte	0x4
 1232 0555 59050000 		.4byte	0x559
 1233 0559 12       		.uleb128 0x12
 1234 055a 5E050000 		.4byte	0x55e
 1235 055e 04       		.uleb128 0x4
 1236 055f 01       		.byte	0x1
 1237 0560 08       		.byte	0x8
 1238 0561 A6030000 		.4byte	.LASF80
 1239 0565 09       		.uleb128 0x9
 1240 0566 04       		.byte	0x4
 1241 0567 41040000 		.4byte	0x441
 1242 056b 03       		.uleb128 0x3
ARM GAS  /tmp/ccZjcVcD.s 			page 23


 1243 056c 00000000 		.4byte	.LASF81
 1244 0570 06       		.byte	0x6
 1245 0571 E5       		.byte	0xe5
 1246 0572 76050000 		.4byte	0x576
 1247 0576 09       		.uleb128 0x9
 1248 0577 04       		.byte	0x4
 1249 0578 7C050000 		.4byte	0x57c
 1250 057c 0C       		.uleb128 0xc
 1251 057d 01       		.byte	0x1
 1252 057e EB000000 		.4byte	0xeb
 1253 0582 8C050000 		.4byte	0x58c
 1254 0586 0D       		.uleb128 0xd
 1255 0587 AA020000 		.4byte	0x2aa
 1256 058b 00       		.byte	0
 1257 058c 03       		.uleb128 0x3
 1258 058d 56030000 		.4byte	.LASF82
 1259 0591 0D       		.byte	0xd
 1260 0592 24       		.byte	0x24
 1261 0593 01010000 		.4byte	0x101
 1262 0597 03       		.uleb128 0x3
 1263 0598 5E020000 		.4byte	.LASF83
 1264 059c 0D       		.byte	0xd
 1265 059d 26       		.byte	0x26
 1266 059e 0C010000 		.4byte	0x10c
 1267 05a2 03       		.uleb128 0x3
 1268 05a3 FD020000 		.4byte	.LASF84
 1269 05a7 0D       		.byte	0xd
 1270 05a8 27       		.byte	0x27
 1271 05a9 EB000000 		.4byte	0xeb
 1272 05ad 03       		.uleb128 0x3
 1273 05ae 08000000 		.4byte	.LASF85
 1274 05b2 0D       		.byte	0xd
 1275 05b3 28       		.byte	0x28
 1276 05b4 E0000000 		.4byte	0xe0
 1277 05b8 08       		.uleb128 0x8
 1278 05b9 10       		.byte	0x10
 1279 05ba 0D       		.byte	0xd
 1280 05bb 32       		.byte	0x32
 1281 05bc DD050000 		.4byte	0x5dd
 1282 05c0 07       		.uleb128 0x7
 1283 05c1 73656D00 		.ascii	"sem\000"
 1284 05c5 0D       		.byte	0xd
 1285 05c6 33       		.byte	0x33
 1286 05c7 F9030000 		.4byte	0x3f9
 1287 05cb 02       		.byte	0x2
 1288 05cc 23       		.byte	0x23
 1289 05cd 00       		.uleb128 0
 1290 05ce 06       		.uleb128 0x6
 1291 05cf 6D000000 		.4byte	.LASF86
 1292 05d3 0D       		.byte	0xd
 1293 05d4 34       		.byte	0x34
 1294 05d5 97050000 		.4byte	0x597
 1295 05d9 02       		.byte	0x2
 1296 05da 23       		.byte	0x23
 1297 05db 0C       		.uleb128 0xc
 1298 05dc 00       		.byte	0
 1299 05dd 03       		.uleb128 0x3
ARM GAS  /tmp/ccZjcVcD.s 			page 24


 1300 05de 62030000 		.4byte	.LASF87
 1301 05e2 0D       		.byte	0xd
 1302 05e3 35       		.byte	0x35
 1303 05e4 B8050000 		.4byte	0x5b8
 1304 05e8 03       		.uleb128 0x3
 1305 05e9 D8000000 		.4byte	.LASF88
 1306 05ed 0D       		.byte	0xd
 1307 05ee 38       		.byte	0x38
 1308 05ef 6C020000 		.4byte	0x26c
 1309 05f3 13       		.uleb128 0x13
 1310 05f4 01       		.byte	0x1
 1311 05f5 54000000 		.4byte	.LASF91
 1312 05f9 01       		.byte	0x1
 1313 05fa 1A       		.byte	0x1a
 1314 05fb 01       		.byte	0x1
 1315 05fc 00000000 		.4byte	.LFB40
 1316 0600 1C000000 		.4byte	.LFE40
 1317 0604 00000000 		.4byte	.LLST0
 1318 0608 01       		.byte	0x1
 1319 0609 20060000 		.4byte	0x620
 1320 060d 14       		.uleb128 0x14
 1321 060e 10000000 		.4byte	.LVL0
 1322 0612 5D090000 		.4byte	0x95d
 1323 0616 14       		.uleb128 0x14
 1324 0617 14000000 		.4byte	.LVL1
 1325 061b 67090000 		.4byte	0x967
 1326 061f 00       		.byte	0
 1327 0620 15       		.uleb128 0x15
 1328 0621 01       		.byte	0x1
 1329 0622 93010000 		.4byte	.LASF97
 1330 0626 01       		.byte	0x1
 1331 0627 22       		.byte	0x22
 1332 0628 01       		.byte	0x1
 1333 0629 AA020000 		.4byte	0x2aa
 1334 062d 00000000 		.4byte	.LFB41
 1335 0631 32000000 		.4byte	.LFE41
 1336 0635 20000000 		.4byte	.LLST1
 1337 0639 01       		.byte	0x1
 1338 063a AA060000 		.4byte	0x6aa
 1339 063e 16       		.uleb128 0x16
 1340 063f 70747200 		.ascii	"ptr\000"
 1341 0643 01       		.byte	0x1
 1342 0644 22       		.byte	0x22
 1343 0645 AA020000 		.4byte	0x2aa
 1344 0649 40000000 		.4byte	.LLST2
 1345 064d 17       		.uleb128 0x17
 1346 064e C7020000 		.4byte	.LASF89
 1347 0652 01       		.byte	0x1
 1348 0653 22       		.byte	0x22
 1349 0654 2C000000 		.4byte	0x2c
 1350 0658 B7000000 		.4byte	.LLST3
 1351 065c 17       		.uleb128 0x17
 1352 065d 7A010000 		.4byte	.LASF90
 1353 0661 01       		.byte	0x1
 1354 0662 22       		.byte	0x22
 1355 0663 2C000000 		.4byte	0x2c
 1356 0667 F9000000 		.4byte	.LLST4
ARM GAS  /tmp/ccZjcVcD.s 			page 25


 1357 066b 18       		.uleb128 0x18
 1358 066c 6E7000   		.ascii	"np\000"
 1359 066f 01       		.byte	0x1
 1360 0670 23       		.byte	0x23
 1361 0671 AA020000 		.4byte	0x2aa
 1362 0675 33010000 		.4byte	.LLST5
 1363 0679 19       		.uleb128 0x19
 1364 067a 16000000 		.4byte	.LVL8
 1365 067e 71090000 		.4byte	0x971
 1366 0682 93060000 		.4byte	0x693
 1367 0686 1A       		.uleb128 0x1a
 1368 0687 01       		.byte	0x1
 1369 0688 51       		.byte	0x51
 1370 0689 03       		.byte	0x3
 1371 068a F3       		.byte	0xf3
 1372 068b 01       		.uleb128 0x1
 1373 068c 52       		.byte	0x52
 1374 068d 1A       		.uleb128 0x1a
 1375 068e 01       		.byte	0x1
 1376 068f 50       		.byte	0x50
 1377 0690 01       		.byte	0x1
 1378 0691 30       		.byte	0x30
 1379 0692 00       		.byte	0
 1380 0693 1B       		.uleb128 0x1b
 1381 0694 2A000000 		.4byte	.LVL12
 1382 0698 8E090000 		.4byte	0x98e
 1383 069c 1A       		.uleb128 0x1a
 1384 069d 01       		.byte	0x1
 1385 069e 52       		.byte	0x52
 1386 069f 02       		.byte	0x2
 1387 06a0 75       		.byte	0x75
 1388 06a1 00       		.sleb128 0
 1389 06a2 1A       		.uleb128 0x1a
 1390 06a3 01       		.byte	0x1
 1391 06a4 51       		.byte	0x51
 1392 06a5 02       		.byte	0x2
 1393 06a6 74       		.byte	0x74
 1394 06a7 00       		.sleb128 0
 1395 06a8 00       		.byte	0
 1396 06a9 00       		.byte	0
 1397 06aa 1C       		.uleb128 0x1c
 1398 06ab 01       		.byte	0x1
 1399 06ac 3D040000 		.4byte	.LASF92
 1400 06b0 01       		.byte	0x1
 1401 06b1 32       		.byte	0x32
 1402 06b2 01       		.byte	0x1
 1403 06b3 00000000 		.4byte	.LFB42
 1404 06b7 24000000 		.4byte	.LFE42
 1405 06bb 5C010000 		.4byte	.LLST6
 1406 06bf 01       		.byte	0x1
 1407 06c0 E5060000 		.4byte	0x6e5
 1408 06c4 16       		.uleb128 0x16
 1409 06c5 6D7300   		.ascii	"ms\000"
 1410 06c8 01       		.byte	0x1
 1411 06c9 32       		.byte	0x32
 1412 06ca 8C050000 		.4byte	0x58c
 1413 06ce 7C010000 		.4byte	.LLST7
ARM GAS  /tmp/ccZjcVcD.s 			page 26


 1414 06d2 14       		.uleb128 0x14
 1415 06d3 0A000000 		.4byte	.LVL17
 1416 06d7 B6090000 		.4byte	0x9b6
 1417 06db 14       		.uleb128 0x14
 1418 06dc 22000000 		.4byte	.LVL21
 1419 06e0 C1090000 		.4byte	0x9c1
 1420 06e4 00       		.byte	0
 1421 06e5 1C       		.uleb128 0x1c
 1422 06e6 01       		.byte	0x1
 1423 06e7 26020000 		.4byte	.LASF93
 1424 06eb 01       		.byte	0x1
 1425 06ec 3A       		.byte	0x3a
 1426 06ed 01       		.byte	0x1
 1427 06ee 00000000 		.4byte	.LFB43
 1428 06f2 24000000 		.4byte	.LFE43
 1429 06f6 B6010000 		.4byte	.LLST8
 1430 06fa 01       		.byte	0x1
 1431 06fb 17070000 		.4byte	0x717
 1432 06ff 16       		.uleb128 0x16
 1433 0700 6D7300   		.ascii	"ms\000"
 1434 0703 01       		.byte	0x1
 1435 0704 3A       		.byte	0x3a
 1436 0705 8C050000 		.4byte	0x58c
 1437 0709 D6010000 		.4byte	.LLST9
 1438 070d 14       		.uleb128 0x14
 1439 070e 1E000000 		.4byte	.LVL25
 1440 0712 C1090000 		.4byte	0x9c1
 1441 0716 00       		.byte	0
 1442 0717 13       		.uleb128 0x13
 1443 0718 01       		.byte	0x1
 1444 0719 09020000 		.4byte	.LASF94
 1445 071d 01       		.byte	0x1
 1446 071e 41       		.byte	0x41
 1447 071f 01       		.byte	0x1
 1448 0720 00000000 		.4byte	.LFB44
 1449 0724 12000000 		.4byte	.LFE44
 1450 0728 F7010000 		.4byte	.LLST10
 1451 072c 01       		.byte	0x1
 1452 072d 68070000 		.4byte	0x768
 1453 0731 17       		.uleb128 0x17
 1454 0732 F4030000 		.4byte	.LASF95
 1455 0736 01       		.byte	0x1
 1456 0737 41       		.byte	0x41
 1457 0738 68070000 		.4byte	0x768
 1458 073c 17020000 		.4byte	.LLST11
 1459 0740 16       		.uleb128 0x16
 1460 0741 76616C00 		.ascii	"val\000"
 1461 0745 01       		.byte	0x1
 1462 0746 41       		.byte	0x41
 1463 0747 97050000 		.4byte	0x597
 1464 074b 38020000 		.4byte	.LLST12
 1465 074f 17       		.uleb128 0x17
 1466 0750 6D000000 		.4byte	.LASF86
 1467 0754 01       		.byte	0x1
 1468 0755 41       		.byte	0x41
 1469 0756 97050000 		.4byte	0x597
 1470 075a B0020000 		.4byte	.LLST13
ARM GAS  /tmp/ccZjcVcD.s 			page 27


 1471 075e 14       		.uleb128 0x14
 1472 075f 10000000 		.4byte	.LVL29
 1473 0763 D6090000 		.4byte	0x9d6
 1474 0767 00       		.byte	0
 1475 0768 09       		.uleb128 0x9
 1476 0769 04       		.byte	0x4
 1477 076a DD050000 		.4byte	0x5dd
 1478 076e 13       		.uleb128 0x13
 1479 076f 01       		.byte	0x1
 1480 0770 AA020000 		.4byte	.LASF96
 1481 0774 01       		.byte	0x1
 1482 0775 46       		.byte	0x46
 1483 0776 01       		.byte	0x1
 1484 0777 00000000 		.4byte	.LFB45
 1485 077b 0A000000 		.4byte	.LFE45
 1486 077f DD020000 		.4byte	.LLST14
 1487 0783 01       		.byte	0x1
 1488 0784 AE070000 		.4byte	0x7ae
 1489 0788 17       		.uleb128 0x17
 1490 0789 F4030000 		.4byte	.LASF95
 1491 078d 01       		.byte	0x1
 1492 078e 46       		.byte	0x46
 1493 078f 68070000 		.4byte	0x768
 1494 0793 FD020000 		.4byte	.LLST15
 1495 0797 1B       		.uleb128 0x1b
 1496 0798 08000000 		.4byte	.LVL31
 1497 079c F5090000 		.4byte	0x9f5
 1498 07a0 1A       		.uleb128 0x1a
 1499 07a1 01       		.byte	0x1
 1500 07a2 51       		.byte	0x51
 1501 07a3 01       		.byte	0x1
 1502 07a4 31       		.byte	0x31
 1503 07a5 1A       		.uleb128 0x1a
 1504 07a6 01       		.byte	0x1
 1505 07a7 50       		.byte	0x50
 1506 07a8 03       		.byte	0x3
 1507 07a9 F3       		.byte	0xf3
 1508 07aa 01       		.uleb128 0x1
 1509 07ab 50       		.byte	0x50
 1510 07ac 00       		.byte	0
 1511 07ad 00       		.byte	0
 1512 07ae 1D       		.uleb128 0x1d
 1513 07af 01       		.byte	0x1
 1514 07b0 45010000 		.4byte	.LASF98
 1515 07b4 01       		.byte	0x1
 1516 07b5 49       		.byte	0x49
 1517 07b6 01       		.byte	0x1
 1518 07b7 A2000000 		.4byte	0xa2
 1519 07bb 00000000 		.4byte	.LFB46
 1520 07bf 2E000000 		.4byte	.LFE46
 1521 07c3 1E030000 		.4byte	.LLST16
 1522 07c7 01       		.byte	0x1
 1523 07c8 07080000 		.4byte	0x807
 1524 07cc 17       		.uleb128 0x17
 1525 07cd F4030000 		.4byte	.LASF95
 1526 07d1 01       		.byte	0x1
 1527 07d2 49       		.byte	0x49
ARM GAS  /tmp/ccZjcVcD.s 			page 28


 1528 07d3 68070000 		.4byte	0x768
 1529 07d7 3E030000 		.4byte	.LLST17
 1530 07db 16       		.uleb128 0x16
 1531 07dc 6D7300   		.ascii	"ms\000"
 1532 07df 01       		.byte	0x1
 1533 07e0 49       		.byte	0x49
 1534 07e1 8C050000 		.4byte	0x58c
 1535 07e5 80030000 		.4byte	.LLST18
 1536 07e9 19       		.uleb128 0x19
 1537 07ea 1E000000 		.4byte	.LVL36
 1538 07ee 0E0A0000 		.4byte	0xa0e
 1539 07f2 FD070000 		.4byte	0x7fd
 1540 07f6 1A       		.uleb128 0x1a
 1541 07f7 01       		.byte	0x1
 1542 07f8 50       		.byte	0x50
 1543 07f9 02       		.byte	0x2
 1544 07fa 74       		.byte	0x74
 1545 07fb 00       		.sleb128 0
 1546 07fc 00       		.byte	0
 1547 07fd 14       		.uleb128 0x14
 1548 07fe 2A000000 		.4byte	.LVL39
 1549 0802 2B0A0000 		.4byte	0xa2b
 1550 0806 00       		.byte	0
 1551 0807 13       		.uleb128 0x13
 1552 0808 01       		.byte	0x1
 1553 0809 0B040000 		.4byte	.LASF99
 1554 080d 01       		.byte	0x1
 1555 080e 51       		.byte	0x51
 1556 080f 01       		.byte	0x1
 1557 0810 00000000 		.4byte	.LFB47
 1558 0814 18000000 		.4byte	.LFE47
 1559 0818 BA030000 		.4byte	.LLST19
 1560 081c 01       		.byte	0x1
 1561 081d 4F080000 		.4byte	0x84f
 1562 0821 17       		.uleb128 0x17
 1563 0822 F4030000 		.4byte	.LASF95
 1564 0826 01       		.byte	0x1
 1565 0827 51       		.byte	0x51
 1566 0828 68070000 		.4byte	0x768
 1567 082c DA030000 		.4byte	.LLST20
 1568 0830 19       		.uleb128 0x19
 1569 0831 10000000 		.4byte	.LVL41
 1570 0835 430A0000 		.4byte	0xa43
 1571 0839 45080000 		.4byte	0x845
 1572 083d 1A       		.uleb128 0x1a
 1573 083e 01       		.byte	0x1
 1574 083f 50       		.byte	0x50
 1575 0840 03       		.byte	0x3
 1576 0841 F3       		.byte	0xf3
 1577 0842 01       		.uleb128 0x1
 1578 0843 50       		.byte	0x50
 1579 0844 00       		.byte	0
 1580 0845 14       		.uleb128 0x14
 1581 0846 14000000 		.4byte	.LVL42
 1582 084a 570A0000 		.4byte	0xa57
 1583 084e 00       		.byte	0
 1584 084f 13       		.uleb128 0x13
ARM GAS  /tmp/ccZjcVcD.s 			page 29


 1585 0850 01       		.byte	0x1
 1586 0851 73000000 		.4byte	.LASF100
 1587 0855 01       		.byte	0x1
 1588 0856 59       		.byte	0x59
 1589 0857 01       		.byte	0x1
 1590 0858 00000000 		.4byte	.LFB48
 1591 085c 10000000 		.4byte	.LFE48
 1592 0860 FB030000 		.4byte	.LLST21
 1593 0864 01       		.byte	0x1
 1594 0865 8A080000 		.4byte	0x88a
 1595 0869 17       		.uleb128 0x17
 1596 086a F4030000 		.4byte	.LASF95
 1597 086e 01       		.byte	0x1
 1598 086f 59       		.byte	0x59
 1599 0870 68070000 		.4byte	0x768
 1600 0874 1B040000 		.4byte	.LLST22
 1601 0878 1B       		.uleb128 0x1b
 1602 0879 0E000000 		.4byte	.LVL44
 1603 087d 430A0000 		.4byte	0xa43
 1604 0881 1A       		.uleb128 0x1a
 1605 0882 01       		.byte	0x1
 1606 0883 50       		.byte	0x50
 1607 0884 03       		.byte	0x3
 1608 0885 F3       		.byte	0xf3
 1609 0886 01       		.uleb128 0x1
 1610 0887 50       		.byte	0x50
 1611 0888 00       		.byte	0
 1612 0889 00       		.byte	0
 1613 088a 15       		.uleb128 0x15
 1614 088b 01       		.byte	0x1
 1615 088c 76020000 		.4byte	.LASF101
 1616 0890 01       		.byte	0x1
 1617 0891 5E       		.byte	0x5e
 1618 0892 01       		.byte	0x1
 1619 0893 E8050000 		.4byte	0x5e8
 1620 0897 00000000 		.4byte	.LFB49
 1621 089b 30000000 		.4byte	.LFE49
 1622 089f 3C040000 		.4byte	.LLST23
 1623 08a3 01       		.byte	0x1
 1624 08a4 3A090000 		.4byte	0x93a
 1625 08a8 17       		.uleb128 0x17
 1626 08a9 D9030000 		.4byte	.LASF102
 1627 08ad 01       		.byte	0x1
 1628 08ae 5E       		.byte	0x5e
 1629 08af AA020000 		.4byte	0x2aa
 1630 08b3 68040000 		.4byte	.LLST24
 1631 08b7 17       		.uleb128 0x17
 1632 08b8 1C010000 		.4byte	.LASF103
 1633 08bc 01       		.byte	0x1
 1634 08bd 5E       		.byte	0x5e
 1635 08be 2C000000 		.4byte	0x2c
 1636 08c2 BB040000 		.4byte	.LLST25
 1637 08c6 17       		.uleb128 0x17
 1638 08c7 92020000 		.4byte	.LASF104
 1639 08cb 01       		.byte	0x1
 1640 08cc 5E       		.byte	0x5e
 1641 08cd AD050000 		.4byte	0x5ad
ARM GAS  /tmp/ccZjcVcD.s 			page 30


 1642 08d1 00050000 		.4byte	.LLST26
 1643 08d5 16       		.uleb128 0x16
 1644 08d6 666E00   		.ascii	"fn\000"
 1645 08d9 01       		.byte	0x1
 1646 08da 5E       		.byte	0x5e
 1647 08db 4A090000 		.4byte	0x94a
 1648 08df 3A050000 		.4byte	.LLST27
 1649 08e3 1E       		.uleb128 0x1e
 1650 08e4 4A020000 		.4byte	.LASF105
 1651 08e8 01       		.byte	0x1
 1652 08e9 5E       		.byte	0x5e
 1653 08ea AA020000 		.4byte	0x2aa
 1654 08ee 02       		.byte	0x2
 1655 08ef 91       		.byte	0x91
 1656 08f0 00       		.sleb128 0
 1657 08f1 19       		.uleb128 0x19
 1658 08f2 14000000 		.4byte	.LVL46
 1659 08f6 610A0000 		.4byte	0xa61
 1660 08fa 22090000 		.4byte	0x922
 1661 08fe 1A       		.uleb128 0x1a
 1662 08ff 01       		.byte	0x1
 1663 0900 53       		.byte	0x53
 1664 0901 03       		.byte	0x3
 1665 0902 F3       		.byte	0xf3
 1666 0903 01       		.uleb128 0x1
 1667 0904 53       		.byte	0x53
 1668 0905 1A       		.uleb128 0x1a
 1669 0906 01       		.byte	0x1
 1670 0907 52       		.byte	0x52
 1671 0908 03       		.byte	0x3
 1672 0909 F3       		.byte	0xf3
 1673 090a 01       		.uleb128 0x1
 1674 090b 52       		.byte	0x52
 1675 090c 1A       		.uleb128 0x1a
 1676 090d 01       		.byte	0x1
 1677 090e 51       		.byte	0x51
 1678 090f 03       		.byte	0x3
 1679 0910 F3       		.byte	0xf3
 1680 0911 01       		.uleb128 0x1
 1681 0912 51       		.byte	0x51
 1682 0913 1A       		.uleb128 0x1a
 1683 0914 01       		.byte	0x1
 1684 0915 50       		.byte	0x50
 1685 0916 03       		.byte	0x3
 1686 0917 F3       		.byte	0xf3
 1687 0918 01       		.uleb128 0x1
 1688 0919 50       		.byte	0x50
 1689 091a 1A       		.uleb128 0x1a
 1690 091b 02       		.byte	0x2
 1691 091c 7D       		.byte	0x7d
 1692 091d 00       		.sleb128 0
 1693 091e 02       		.byte	0x2
 1694 091f 74       		.byte	0x74
 1695 0920 00       		.sleb128 0
 1696 0921 00       		.byte	0
 1697 0922 1B       		.uleb128 0x1b
 1698 0923 2E000000 		.4byte	.LVL53
ARM GAS  /tmp/ccZjcVcD.s 			page 31


 1699 0927 8E0A0000 		.4byte	0xa8e
 1700 092b 1A       		.uleb128 0x1a
 1701 092c 01       		.byte	0x1
 1702 092d 50       		.byte	0x50
 1703 092e 01       		.byte	0x1
 1704 092f 30       		.byte	0x30
 1705 0930 1A       		.uleb128 0x1a
 1706 0931 02       		.byte	0x2
 1707 0932 7D       		.byte	0x7d
 1708 0933 00       		.sleb128 0
 1709 0934 03       		.byte	0x3
 1710 0935 91       		.byte	0x91
 1711 0936 00       		.sleb128 0
 1712 0937 06       		.byte	0x6
 1713 0938 00       		.byte	0
 1714 0939 00       		.byte	0
 1715 093a 0C       		.uleb128 0xc
 1716 093b 01       		.byte	0x1
 1717 093c A2050000 		.4byte	0x5a2
 1718 0940 4A090000 		.4byte	0x94a
 1719 0944 0D       		.uleb128 0xd
 1720 0945 AA020000 		.4byte	0x2aa
 1721 0949 00       		.byte	0
 1722 094a 09       		.uleb128 0x9
 1723 094b 04       		.byte	0x4
 1724 094c 3A090000 		.4byte	0x93a
 1725 0950 1F       		.uleb128 0x1f
 1726 0951 2F040000 		.4byte	.LASF123
 1727 0955 08       		.byte	0x8
 1728 0956 6F       		.byte	0x6f
 1729 0957 C5030000 		.4byte	0x3c5
 1730 095b 01       		.byte	0x1
 1731 095c 01       		.byte	0x1
 1732 095d 20       		.uleb128 0x20
 1733 095e 01       		.byte	0x1
 1734 095f 8B010000 		.4byte	.LASF106
 1735 0963 0E       		.byte	0xe
 1736 0964 D0       		.byte	0xd0
 1737 0965 01       		.byte	0x1
 1738 0966 01       		.byte	0x1
 1739 0967 20       		.uleb128 0x20
 1740 0968 01       		.byte	0x1
 1741 0969 AD000000 		.4byte	.LASF107
 1742 096d 0F       		.byte	0xf
 1743 096e F6       		.byte	0xf6
 1744 096f 01       		.byte	0x1
 1745 0970 01       		.byte	0x1
 1746 0971 21       		.uleb128 0x21
 1747 0972 01       		.byte	0x1
 1748 0973 86020000 		.4byte	.LASF113
 1749 0977 0C       		.byte	0xc
 1750 0978 59       		.byte	0x59
 1751 0979 01       		.byte	0x1
 1752 097a AA020000 		.4byte	0x2aa
 1753 097e 01       		.byte	0x1
 1754 097f 8E090000 		.4byte	0x98e
 1755 0983 0D       		.uleb128 0xd
ARM GAS  /tmp/ccZjcVcD.s 			page 32


 1756 0984 F5040000 		.4byte	0x4f5
 1757 0988 0D       		.uleb128 0xd
 1758 0989 2C000000 		.4byte	0x2c
 1759 098d 00       		.byte	0
 1760 098e 22       		.uleb128 0x22
 1761 098f 01       		.byte	0x1
 1762 0990 0E010000 		.4byte	.LASF109
 1763 0994 01       		.byte	0x1
 1764 0995 AA020000 		.4byte	0x2aa
 1765 0999 01       		.byte	0x1
 1766 099a 01       		.byte	0x1
 1767 099b AF090000 		.4byte	0x9af
 1768 099f 0D       		.uleb128 0xd
 1769 09a0 AA020000 		.4byte	0x2aa
 1770 09a4 0D       		.uleb128 0xd
 1771 09a5 AF090000 		.4byte	0x9af
 1772 09a9 0D       		.uleb128 0xd
 1773 09aa 5C030000 		.4byte	0x35c
 1774 09ae 00       		.byte	0
 1775 09af 09       		.uleb128 0x9
 1776 09b0 04       		.byte	0x4
 1777 09b1 B5090000 		.4byte	0x9b5
 1778 09b5 23       		.uleb128 0x23
 1779 09b6 24       		.uleb128 0x24
 1780 09b7 01       		.byte	0x1
 1781 09b8 5D040000 		.4byte	.LASF108
 1782 09bc 06       		.byte	0x6
 1783 09bd 7701     		.2byte	0x177
 1784 09bf 01       		.byte	0x1
 1785 09c0 01       		.byte	0x1
 1786 09c1 25       		.uleb128 0x25
 1787 09c2 01       		.byte	0x1
 1788 09c3 F9030000 		.4byte	.LASF110
 1789 09c7 06       		.byte	0x6
 1790 09c8 7501     		.2byte	0x175
 1791 09ca 01       		.byte	0x1
 1792 09cb 01       		.byte	0x1
 1793 09cc D6090000 		.4byte	0x9d6
 1794 09d0 0D       		.uleb128 0xd
 1795 09d1 01010000 		.4byte	0x101
 1796 09d5 00       		.byte	0
 1797 09d6 26       		.uleb128 0x26
 1798 09d7 01       		.byte	0x1
 1799 09d8 EF040000 		.4byte	.LASF111
 1800 09dc 09       		.byte	0x9
 1801 09dd 35       		.byte	0x35
 1802 09de 01       		.byte	0x1
 1803 09df 01       		.byte	0x1
 1804 09e0 EF090000 		.4byte	0x9ef
 1805 09e4 0D       		.uleb128 0xd
 1806 09e5 EF090000 		.4byte	0x9ef
 1807 09e9 0D       		.uleb128 0xd
 1808 09ea 0C010000 		.4byte	0x10c
 1809 09ee 00       		.byte	0
 1810 09ef 09       		.uleb128 0x9
 1811 09f0 04       		.byte	0x4
 1812 09f1 F9030000 		.4byte	0x3f9
ARM GAS  /tmp/ccZjcVcD.s 			page 33


 1813 09f5 26       		.uleb128 0x26
 1814 09f6 01       		.byte	0x1
 1815 09f7 BC010000 		.4byte	.LASF112
 1816 09fb 09       		.byte	0x9
 1817 09fc 36       		.byte	0x36
 1818 09fd 01       		.byte	0x1
 1819 09fe 01       		.byte	0x1
 1820 09ff 0E0A0000 		.4byte	0xa0e
 1821 0a03 0D       		.uleb128 0xd
 1822 0a04 EF090000 		.4byte	0x9ef
 1823 0a08 0D       		.uleb128 0xd
 1824 0a09 0C010000 		.4byte	0x10c
 1825 0a0d 00       		.byte	0
 1826 0a0e 21       		.uleb128 0x21
 1827 0a0f 01       		.byte	0x1
 1828 0a10 ED010000 		.4byte	.LASF114
 1829 0a14 09       		.byte	0x9
 1830 0a15 3A       		.byte	0x3a
 1831 0a16 01       		.byte	0x1
 1832 0a17 EB000000 		.4byte	0xeb
 1833 0a1b 01       		.byte	0x1
 1834 0a1c 2B0A0000 		.4byte	0xa2b
 1835 0a20 0D       		.uleb128 0xd
 1836 0a21 EF090000 		.4byte	0x9ef
 1837 0a25 0D       		.uleb128 0xd
 1838 0a26 01010000 		.4byte	0x101
 1839 0a2a 00       		.byte	0
 1840 0a2b 21       		.uleb128 0x21
 1841 0a2c 01       		.byte	0x1
 1842 0a2d C7030000 		.4byte	.LASF115
 1843 0a31 09       		.byte	0x9
 1844 0a32 38       		.byte	0x38
 1845 0a33 01       		.byte	0x1
 1846 0a34 EB000000 		.4byte	0xeb
 1847 0a38 01       		.byte	0x1
 1848 0a39 430A0000 		.4byte	0xa43
 1849 0a3d 0D       		.uleb128 0xd
 1850 0a3e EF090000 		.4byte	0x9ef
 1851 0a42 00       		.byte	0
 1852 0a43 26       		.uleb128 0x26
 1853 0a44 01       		.byte	0x1
 1854 0a45 18040000 		.4byte	.LASF116
 1855 0a49 09       		.byte	0x9
 1856 0a4a 3D       		.byte	0x3d
 1857 0a4b 01       		.byte	0x1
 1858 0a4c 01       		.byte	0x1
 1859 0a4d 570A0000 		.4byte	0xa57
 1860 0a51 0D       		.uleb128 0xd
 1861 0a52 EF090000 		.4byte	0x9ef
 1862 0a56 00       		.byte	0
 1863 0a57 20       		.uleb128 0x20
 1864 0a58 01       		.byte	0x1
 1865 0a59 34010000 		.4byte	.LASF117
 1866 0a5d 08       		.byte	0x8
 1867 0a5e 9C       		.byte	0x9c
 1868 0a5f 01       		.byte	0x1
 1869 0a60 01       		.byte	0x1
ARM GAS  /tmp/ccZjcVcD.s 			page 34


 1870 0a61 27       		.uleb128 0x27
 1871 0a62 01       		.byte	0x1
 1872 0a63 14020000 		.4byte	.LASF118
 1873 0a67 06       		.byte	0x6
 1874 0a68 7001     		.2byte	0x170
 1875 0a6a 01       		.byte	0x1
 1876 0a6b 6C020000 		.4byte	0x26c
 1877 0a6f 01       		.byte	0x1
 1878 0a70 8E0A0000 		.4byte	0xa8e
 1879 0a74 0D       		.uleb128 0xd
 1880 0a75 AA020000 		.4byte	0x2aa
 1881 0a79 0D       		.uleb128 0xd
 1882 0a7a 2C000000 		.4byte	0x2c
 1883 0a7e 0D       		.uleb128 0xd
 1884 0a7f E0000000 		.4byte	0xe0
 1885 0a83 0D       		.uleb128 0xd
 1886 0a84 6B050000 		.4byte	0x56b
 1887 0a88 0D       		.uleb128 0xd
 1888 0a89 AA020000 		.4byte	0x2aa
 1889 0a8d 00       		.byte	0
 1890 0a8e 28       		.uleb128 0x28
 1891 0a8f 01       		.byte	0x1
 1892 0a90 F1000000 		.4byte	.LASF119
 1893 0a94 10       		.byte	0x10
 1894 0a95 3C       		.byte	0x3c
 1895 0a96 01       		.byte	0x1
 1896 0a97 6C020000 		.4byte	0x26c
 1897 0a9b 01       		.byte	0x1
 1898 0a9c 0D       		.uleb128 0xd
 1899 0a9d F5040000 		.4byte	0x4f5
 1900 0aa1 0D       		.uleb128 0xd
 1901 0aa2 2C000000 		.4byte	0x2c
 1902 0aa6 0D       		.uleb128 0xd
 1903 0aa7 E0000000 		.4byte	0xe0
 1904 0aab 0D       		.uleb128 0xd
 1905 0aac 6B050000 		.4byte	0x56b
 1906 0ab0 0D       		.uleb128 0xd
 1907 0ab1 AA020000 		.4byte	0x2aa
 1908 0ab5 00       		.byte	0
 1909 0ab6 00       		.byte	0
 1910              		.section	.debug_abbrev,"",%progbits
 1911              	.Ldebug_abbrev0:
 1912 0000 01       		.uleb128 0x1
 1913 0001 11       		.uleb128 0x11
 1914 0002 01       		.byte	0x1
 1915 0003 25       		.uleb128 0x25
 1916 0004 0E       		.uleb128 0xe
 1917 0005 13       		.uleb128 0x13
 1918 0006 0B       		.uleb128 0xb
 1919 0007 03       		.uleb128 0x3
 1920 0008 0E       		.uleb128 0xe
 1921 0009 55       		.uleb128 0x55
 1922 000a 06       		.uleb128 0x6
 1923 000b 11       		.uleb128 0x11
 1924 000c 01       		.uleb128 0x1
 1925 000d 52       		.uleb128 0x52
 1926 000e 01       		.uleb128 0x1
ARM GAS  /tmp/ccZjcVcD.s 			page 35


 1927 000f 10       		.uleb128 0x10
 1928 0010 06       		.uleb128 0x6
 1929 0011 00       		.byte	0
 1930 0012 00       		.byte	0
 1931 0013 02       		.uleb128 0x2
 1932 0014 24       		.uleb128 0x24
 1933 0015 00       		.byte	0
 1934 0016 0B       		.uleb128 0xb
 1935 0017 0B       		.uleb128 0xb
 1936 0018 3E       		.uleb128 0x3e
 1937 0019 0B       		.uleb128 0xb
 1938 001a 03       		.uleb128 0x3
 1939 001b 08       		.uleb128 0x8
 1940 001c 00       		.byte	0
 1941 001d 00       		.byte	0
 1942 001e 03       		.uleb128 0x3
 1943 001f 16       		.uleb128 0x16
 1944 0020 00       		.byte	0
 1945 0021 03       		.uleb128 0x3
 1946 0022 0E       		.uleb128 0xe
 1947 0023 3A       		.uleb128 0x3a
 1948 0024 0B       		.uleb128 0xb
 1949 0025 3B       		.uleb128 0x3b
 1950 0026 0B       		.uleb128 0xb
 1951 0027 49       		.uleb128 0x49
 1952 0028 13       		.uleb128 0x13
 1953 0029 00       		.byte	0
 1954 002a 00       		.byte	0
 1955 002b 04       		.uleb128 0x4
 1956 002c 24       		.uleb128 0x24
 1957 002d 00       		.byte	0
 1958 002e 0B       		.uleb128 0xb
 1959 002f 0B       		.uleb128 0xb
 1960 0030 3E       		.uleb128 0x3e
 1961 0031 0B       		.uleb128 0xb
 1962 0032 03       		.uleb128 0x3
 1963 0033 0E       		.uleb128 0xe
 1964 0034 00       		.byte	0
 1965 0035 00       		.byte	0
 1966 0036 05       		.uleb128 0x5
 1967 0037 13       		.uleb128 0x13
 1968 0038 01       		.byte	0x1
 1969 0039 03       		.uleb128 0x3
 1970 003a 0E       		.uleb128 0xe
 1971 003b 0B       		.uleb128 0xb
 1972 003c 0B       		.uleb128 0xb
 1973 003d 3A       		.uleb128 0x3a
 1974 003e 0B       		.uleb128 0xb
 1975 003f 3B       		.uleb128 0x3b
 1976 0040 0B       		.uleb128 0xb
 1977 0041 01       		.uleb128 0x1
 1978 0042 13       		.uleb128 0x13
 1979 0043 00       		.byte	0
 1980 0044 00       		.byte	0
 1981 0045 06       		.uleb128 0x6
 1982 0046 0D       		.uleb128 0xd
 1983 0047 00       		.byte	0
ARM GAS  /tmp/ccZjcVcD.s 			page 36


 1984 0048 03       		.uleb128 0x3
 1985 0049 0E       		.uleb128 0xe
 1986 004a 3A       		.uleb128 0x3a
 1987 004b 0B       		.uleb128 0xb
 1988 004c 3B       		.uleb128 0x3b
 1989 004d 0B       		.uleb128 0xb
 1990 004e 49       		.uleb128 0x49
 1991 004f 13       		.uleb128 0x13
 1992 0050 38       		.uleb128 0x38
 1993 0051 0A       		.uleb128 0xa
 1994 0052 00       		.byte	0
 1995 0053 00       		.byte	0
 1996 0054 07       		.uleb128 0x7
 1997 0055 0D       		.uleb128 0xd
 1998 0056 00       		.byte	0
 1999 0057 03       		.uleb128 0x3
 2000 0058 08       		.uleb128 0x8
 2001 0059 3A       		.uleb128 0x3a
 2002 005a 0B       		.uleb128 0xb
 2003 005b 3B       		.uleb128 0x3b
 2004 005c 0B       		.uleb128 0xb
 2005 005d 49       		.uleb128 0x49
 2006 005e 13       		.uleb128 0x13
 2007 005f 38       		.uleb128 0x38
 2008 0060 0A       		.uleb128 0xa
 2009 0061 00       		.byte	0
 2010 0062 00       		.byte	0
 2011 0063 08       		.uleb128 0x8
 2012 0064 13       		.uleb128 0x13
 2013 0065 01       		.byte	0x1
 2014 0066 0B       		.uleb128 0xb
 2015 0067 0B       		.uleb128 0xb
 2016 0068 3A       		.uleb128 0x3a
 2017 0069 0B       		.uleb128 0xb
 2018 006a 3B       		.uleb128 0x3b
 2019 006b 0B       		.uleb128 0xb
 2020 006c 01       		.uleb128 0x1
 2021 006d 13       		.uleb128 0x13
 2022 006e 00       		.byte	0
 2023 006f 00       		.byte	0
 2024 0070 09       		.uleb128 0x9
 2025 0071 0F       		.uleb128 0xf
 2026 0072 00       		.byte	0
 2027 0073 0B       		.uleb128 0xb
 2028 0074 0B       		.uleb128 0xb
 2029 0075 49       		.uleb128 0x49
 2030 0076 13       		.uleb128 0x13
 2031 0077 00       		.byte	0
 2032 0078 00       		.byte	0
 2033 0079 0A       		.uleb128 0xa
 2034 007a 0F       		.uleb128 0xf
 2035 007b 00       		.byte	0
 2036 007c 0B       		.uleb128 0xb
 2037 007d 0B       		.uleb128 0xb
 2038 007e 00       		.byte	0
 2039 007f 00       		.byte	0
 2040 0080 0B       		.uleb128 0xb
ARM GAS  /tmp/ccZjcVcD.s 			page 37


 2041 0081 35       		.uleb128 0x35
 2042 0082 00       		.byte	0
 2043 0083 49       		.uleb128 0x49
 2044 0084 13       		.uleb128 0x13
 2045 0085 00       		.byte	0
 2046 0086 00       		.byte	0
 2047 0087 0C       		.uleb128 0xc
 2048 0088 15       		.uleb128 0x15
 2049 0089 01       		.byte	0x1
 2050 008a 27       		.uleb128 0x27
 2051 008b 0C       		.uleb128 0xc
 2052 008c 49       		.uleb128 0x49
 2053 008d 13       		.uleb128 0x13
 2054 008e 01       		.uleb128 0x1
 2055 008f 13       		.uleb128 0x13
 2056 0090 00       		.byte	0
 2057 0091 00       		.byte	0
 2058 0092 0D       		.uleb128 0xd
 2059 0093 05       		.uleb128 0x5
 2060 0094 00       		.byte	0
 2061 0095 49       		.uleb128 0x49
 2062 0096 13       		.uleb128 0x13
 2063 0097 00       		.byte	0
 2064 0098 00       		.byte	0
 2065 0099 0E       		.uleb128 0xe
 2066 009a 17       		.uleb128 0x17
 2067 009b 01       		.byte	0x1
 2068 009c 0B       		.uleb128 0xb
 2069 009d 0B       		.uleb128 0xb
 2070 009e 3A       		.uleb128 0x3a
 2071 009f 0B       		.uleb128 0xb
 2072 00a0 3B       		.uleb128 0x3b
 2073 00a1 0B       		.uleb128 0xb
 2074 00a2 01       		.uleb128 0x1
 2075 00a3 13       		.uleb128 0x13
 2076 00a4 00       		.byte	0
 2077 00a5 00       		.byte	0
 2078 00a6 0F       		.uleb128 0xf
 2079 00a7 0D       		.uleb128 0xd
 2080 00a8 00       		.byte	0
 2081 00a9 03       		.uleb128 0x3
 2082 00aa 0E       		.uleb128 0xe
 2083 00ab 3A       		.uleb128 0x3a
 2084 00ac 0B       		.uleb128 0xb
 2085 00ad 3B       		.uleb128 0x3b
 2086 00ae 0B       		.uleb128 0xb
 2087 00af 49       		.uleb128 0x49
 2088 00b0 13       		.uleb128 0x13
 2089 00b1 00       		.byte	0
 2090 00b2 00       		.byte	0
 2091 00b3 10       		.uleb128 0x10
 2092 00b4 17       		.uleb128 0x17
 2093 00b5 01       		.byte	0x1
 2094 00b6 03       		.uleb128 0x3
 2095 00b7 0E       		.uleb128 0xe
 2096 00b8 0B       		.uleb128 0xb
 2097 00b9 0B       		.uleb128 0xb
ARM GAS  /tmp/ccZjcVcD.s 			page 38


 2098 00ba 3A       		.uleb128 0x3a
 2099 00bb 0B       		.uleb128 0xb
 2100 00bc 3B       		.uleb128 0x3b
 2101 00bd 0B       		.uleb128 0xb
 2102 00be 01       		.uleb128 0x1
 2103 00bf 13       		.uleb128 0x13
 2104 00c0 00       		.byte	0
 2105 00c1 00       		.byte	0
 2106 00c2 11       		.uleb128 0x11
 2107 00c3 0D       		.uleb128 0xd
 2108 00c4 00       		.byte	0
 2109 00c5 03       		.uleb128 0x3
 2110 00c6 08       		.uleb128 0x8
 2111 00c7 3A       		.uleb128 0x3a
 2112 00c8 0B       		.uleb128 0xb
 2113 00c9 3B       		.uleb128 0x3b
 2114 00ca 0B       		.uleb128 0xb
 2115 00cb 49       		.uleb128 0x49
 2116 00cc 13       		.uleb128 0x13
 2117 00cd 00       		.byte	0
 2118 00ce 00       		.byte	0
 2119 00cf 12       		.uleb128 0x12
 2120 00d0 26       		.uleb128 0x26
 2121 00d1 00       		.byte	0
 2122 00d2 49       		.uleb128 0x49
 2123 00d3 13       		.uleb128 0x13
 2124 00d4 00       		.byte	0
 2125 00d5 00       		.byte	0
 2126 00d6 13       		.uleb128 0x13
 2127 00d7 2E       		.uleb128 0x2e
 2128 00d8 01       		.byte	0x1
 2129 00d9 3F       		.uleb128 0x3f
 2130 00da 0C       		.uleb128 0xc
 2131 00db 03       		.uleb128 0x3
 2132 00dc 0E       		.uleb128 0xe
 2133 00dd 3A       		.uleb128 0x3a
 2134 00de 0B       		.uleb128 0xb
 2135 00df 3B       		.uleb128 0x3b
 2136 00e0 0B       		.uleb128 0xb
 2137 00e1 27       		.uleb128 0x27
 2138 00e2 0C       		.uleb128 0xc
 2139 00e3 11       		.uleb128 0x11
 2140 00e4 01       		.uleb128 0x1
 2141 00e5 12       		.uleb128 0x12
 2142 00e6 01       		.uleb128 0x1
 2143 00e7 40       		.uleb128 0x40
 2144 00e8 06       		.uleb128 0x6
 2145 00e9 9742     		.uleb128 0x2117
 2146 00eb 0C       		.uleb128 0xc
 2147 00ec 01       		.uleb128 0x1
 2148 00ed 13       		.uleb128 0x13
 2149 00ee 00       		.byte	0
 2150 00ef 00       		.byte	0
 2151 00f0 14       		.uleb128 0x14
 2152 00f1 898201   		.uleb128 0x4109
 2153 00f4 00       		.byte	0
 2154 00f5 11       		.uleb128 0x11
ARM GAS  /tmp/ccZjcVcD.s 			page 39


 2155 00f6 01       		.uleb128 0x1
 2156 00f7 31       		.uleb128 0x31
 2157 00f8 13       		.uleb128 0x13
 2158 00f9 00       		.byte	0
 2159 00fa 00       		.byte	0
 2160 00fb 15       		.uleb128 0x15
 2161 00fc 2E       		.uleb128 0x2e
 2162 00fd 01       		.byte	0x1
 2163 00fe 3F       		.uleb128 0x3f
 2164 00ff 0C       		.uleb128 0xc
 2165 0100 03       		.uleb128 0x3
 2166 0101 0E       		.uleb128 0xe
 2167 0102 3A       		.uleb128 0x3a
 2168 0103 0B       		.uleb128 0xb
 2169 0104 3B       		.uleb128 0x3b
 2170 0105 0B       		.uleb128 0xb
 2171 0106 27       		.uleb128 0x27
 2172 0107 0C       		.uleb128 0xc
 2173 0108 49       		.uleb128 0x49
 2174 0109 13       		.uleb128 0x13
 2175 010a 11       		.uleb128 0x11
 2176 010b 01       		.uleb128 0x1
 2177 010c 12       		.uleb128 0x12
 2178 010d 01       		.uleb128 0x1
 2179 010e 40       		.uleb128 0x40
 2180 010f 06       		.uleb128 0x6
 2181 0110 9742     		.uleb128 0x2117
 2182 0112 0C       		.uleb128 0xc
 2183 0113 01       		.uleb128 0x1
 2184 0114 13       		.uleb128 0x13
 2185 0115 00       		.byte	0
 2186 0116 00       		.byte	0
 2187 0117 16       		.uleb128 0x16
 2188 0118 05       		.uleb128 0x5
 2189 0119 00       		.byte	0
 2190 011a 03       		.uleb128 0x3
 2191 011b 08       		.uleb128 0x8
 2192 011c 3A       		.uleb128 0x3a
 2193 011d 0B       		.uleb128 0xb
 2194 011e 3B       		.uleb128 0x3b
 2195 011f 0B       		.uleb128 0xb
 2196 0120 49       		.uleb128 0x49
 2197 0121 13       		.uleb128 0x13
 2198 0122 02       		.uleb128 0x2
 2199 0123 06       		.uleb128 0x6
 2200 0124 00       		.byte	0
 2201 0125 00       		.byte	0
 2202 0126 17       		.uleb128 0x17
 2203 0127 05       		.uleb128 0x5
 2204 0128 00       		.byte	0
 2205 0129 03       		.uleb128 0x3
 2206 012a 0E       		.uleb128 0xe
 2207 012b 3A       		.uleb128 0x3a
 2208 012c 0B       		.uleb128 0xb
 2209 012d 3B       		.uleb128 0x3b
 2210 012e 0B       		.uleb128 0xb
 2211 012f 49       		.uleb128 0x49
ARM GAS  /tmp/ccZjcVcD.s 			page 40


 2212 0130 13       		.uleb128 0x13
 2213 0131 02       		.uleb128 0x2
 2214 0132 06       		.uleb128 0x6
 2215 0133 00       		.byte	0
 2216 0134 00       		.byte	0
 2217 0135 18       		.uleb128 0x18
 2218 0136 34       		.uleb128 0x34
 2219 0137 00       		.byte	0
 2220 0138 03       		.uleb128 0x3
 2221 0139 08       		.uleb128 0x8
 2222 013a 3A       		.uleb128 0x3a
 2223 013b 0B       		.uleb128 0xb
 2224 013c 3B       		.uleb128 0x3b
 2225 013d 0B       		.uleb128 0xb
 2226 013e 49       		.uleb128 0x49
 2227 013f 13       		.uleb128 0x13
 2228 0140 02       		.uleb128 0x2
 2229 0141 06       		.uleb128 0x6
 2230 0142 00       		.byte	0
 2231 0143 00       		.byte	0
 2232 0144 19       		.uleb128 0x19
 2233 0145 898201   		.uleb128 0x4109
 2234 0148 01       		.byte	0x1
 2235 0149 11       		.uleb128 0x11
 2236 014a 01       		.uleb128 0x1
 2237 014b 31       		.uleb128 0x31
 2238 014c 13       		.uleb128 0x13
 2239 014d 01       		.uleb128 0x1
 2240 014e 13       		.uleb128 0x13
 2241 014f 00       		.byte	0
 2242 0150 00       		.byte	0
 2243 0151 1A       		.uleb128 0x1a
 2244 0152 8A8201   		.uleb128 0x410a
 2245 0155 00       		.byte	0
 2246 0156 02       		.uleb128 0x2
 2247 0157 0A       		.uleb128 0xa
 2248 0158 9142     		.uleb128 0x2111
 2249 015a 0A       		.uleb128 0xa
 2250 015b 00       		.byte	0
 2251 015c 00       		.byte	0
 2252 015d 1B       		.uleb128 0x1b
 2253 015e 898201   		.uleb128 0x4109
 2254 0161 01       		.byte	0x1
 2255 0162 11       		.uleb128 0x11
 2256 0163 01       		.uleb128 0x1
 2257 0164 31       		.uleb128 0x31
 2258 0165 13       		.uleb128 0x13
 2259 0166 00       		.byte	0
 2260 0167 00       		.byte	0
 2261 0168 1C       		.uleb128 0x1c
 2262 0169 2E       		.uleb128 0x2e
 2263 016a 01       		.byte	0x1
 2264 016b 3F       		.uleb128 0x3f
 2265 016c 0C       		.uleb128 0xc
 2266 016d 03       		.uleb128 0x3
 2267 016e 0E       		.uleb128 0xe
 2268 016f 3A       		.uleb128 0x3a
ARM GAS  /tmp/ccZjcVcD.s 			page 41


 2269 0170 0B       		.uleb128 0xb
 2270 0171 3B       		.uleb128 0x3b
 2271 0172 0B       		.uleb128 0xb
 2272 0173 27       		.uleb128 0x27
 2273 0174 0C       		.uleb128 0xc
 2274 0175 11       		.uleb128 0x11
 2275 0176 01       		.uleb128 0x1
 2276 0177 12       		.uleb128 0x12
 2277 0178 01       		.uleb128 0x1
 2278 0179 40       		.uleb128 0x40
 2279 017a 06       		.uleb128 0x6
 2280 017b 9642     		.uleb128 0x2116
 2281 017d 0C       		.uleb128 0xc
 2282 017e 01       		.uleb128 0x1
 2283 017f 13       		.uleb128 0x13
 2284 0180 00       		.byte	0
 2285 0181 00       		.byte	0
 2286 0182 1D       		.uleb128 0x1d
 2287 0183 2E       		.uleb128 0x2e
 2288 0184 01       		.byte	0x1
 2289 0185 3F       		.uleb128 0x3f
 2290 0186 0C       		.uleb128 0xc
 2291 0187 03       		.uleb128 0x3
 2292 0188 0E       		.uleb128 0xe
 2293 0189 3A       		.uleb128 0x3a
 2294 018a 0B       		.uleb128 0xb
 2295 018b 3B       		.uleb128 0x3b
 2296 018c 0B       		.uleb128 0xb
 2297 018d 27       		.uleb128 0x27
 2298 018e 0C       		.uleb128 0xc
 2299 018f 49       		.uleb128 0x49
 2300 0190 13       		.uleb128 0x13
 2301 0191 11       		.uleb128 0x11
 2302 0192 01       		.uleb128 0x1
 2303 0193 12       		.uleb128 0x12
 2304 0194 01       		.uleb128 0x1
 2305 0195 40       		.uleb128 0x40
 2306 0196 06       		.uleb128 0x6
 2307 0197 9642     		.uleb128 0x2116
 2308 0199 0C       		.uleb128 0xc
 2309 019a 01       		.uleb128 0x1
 2310 019b 13       		.uleb128 0x13
 2311 019c 00       		.byte	0
 2312 019d 00       		.byte	0
 2313 019e 1E       		.uleb128 0x1e
 2314 019f 05       		.uleb128 0x5
 2315 01a0 00       		.byte	0
 2316 01a1 03       		.uleb128 0x3
 2317 01a2 0E       		.uleb128 0xe
 2318 01a3 3A       		.uleb128 0x3a
 2319 01a4 0B       		.uleb128 0xb
 2320 01a5 3B       		.uleb128 0x3b
 2321 01a6 0B       		.uleb128 0xb
 2322 01a7 49       		.uleb128 0x49
 2323 01a8 13       		.uleb128 0x13
 2324 01a9 02       		.uleb128 0x2
 2325 01aa 0A       		.uleb128 0xa
ARM GAS  /tmp/ccZjcVcD.s 			page 42


 2326 01ab 00       		.byte	0
 2327 01ac 00       		.byte	0
 2328 01ad 1F       		.uleb128 0x1f
 2329 01ae 34       		.uleb128 0x34
 2330 01af 00       		.byte	0
 2331 01b0 03       		.uleb128 0x3
 2332 01b1 0E       		.uleb128 0xe
 2333 01b2 3A       		.uleb128 0x3a
 2334 01b3 0B       		.uleb128 0xb
 2335 01b4 3B       		.uleb128 0x3b
 2336 01b5 0B       		.uleb128 0xb
 2337 01b6 49       		.uleb128 0x49
 2338 01b7 13       		.uleb128 0x13
 2339 01b8 3F       		.uleb128 0x3f
 2340 01b9 0C       		.uleb128 0xc
 2341 01ba 3C       		.uleb128 0x3c
 2342 01bb 0C       		.uleb128 0xc
 2343 01bc 00       		.byte	0
 2344 01bd 00       		.byte	0
 2345 01be 20       		.uleb128 0x20
 2346 01bf 2E       		.uleb128 0x2e
 2347 01c0 00       		.byte	0
 2348 01c1 3F       		.uleb128 0x3f
 2349 01c2 0C       		.uleb128 0xc
 2350 01c3 03       		.uleb128 0x3
 2351 01c4 0E       		.uleb128 0xe
 2352 01c5 3A       		.uleb128 0x3a
 2353 01c6 0B       		.uleb128 0xb
 2354 01c7 3B       		.uleb128 0x3b
 2355 01c8 0B       		.uleb128 0xb
 2356 01c9 27       		.uleb128 0x27
 2357 01ca 0C       		.uleb128 0xc
 2358 01cb 3C       		.uleb128 0x3c
 2359 01cc 0C       		.uleb128 0xc
 2360 01cd 00       		.byte	0
 2361 01ce 00       		.byte	0
 2362 01cf 21       		.uleb128 0x21
 2363 01d0 2E       		.uleb128 0x2e
 2364 01d1 01       		.byte	0x1
 2365 01d2 3F       		.uleb128 0x3f
 2366 01d3 0C       		.uleb128 0xc
 2367 01d4 03       		.uleb128 0x3
 2368 01d5 0E       		.uleb128 0xe
 2369 01d6 3A       		.uleb128 0x3a
 2370 01d7 0B       		.uleb128 0xb
 2371 01d8 3B       		.uleb128 0x3b
 2372 01d9 0B       		.uleb128 0xb
 2373 01da 27       		.uleb128 0x27
 2374 01db 0C       		.uleb128 0xc
 2375 01dc 49       		.uleb128 0x49
 2376 01dd 13       		.uleb128 0x13
 2377 01de 3C       		.uleb128 0x3c
 2378 01df 0C       		.uleb128 0xc
 2379 01e0 01       		.uleb128 0x1
 2380 01e1 13       		.uleb128 0x13
 2381 01e2 00       		.byte	0
 2382 01e3 00       		.byte	0
ARM GAS  /tmp/ccZjcVcD.s 			page 43


 2383 01e4 22       		.uleb128 0x22
 2384 01e5 2E       		.uleb128 0x2e
 2385 01e6 01       		.byte	0x1
 2386 01e7 3F       		.uleb128 0x3f
 2387 01e8 0C       		.uleb128 0xc
 2388 01e9 03       		.uleb128 0x3
 2389 01ea 0E       		.uleb128 0xe
 2390 01eb 27       		.uleb128 0x27
 2391 01ec 0C       		.uleb128 0xc
 2392 01ed 49       		.uleb128 0x49
 2393 01ee 13       		.uleb128 0x13
 2394 01ef 34       		.uleb128 0x34
 2395 01f0 0C       		.uleb128 0xc
 2396 01f1 3C       		.uleb128 0x3c
 2397 01f2 0C       		.uleb128 0xc
 2398 01f3 01       		.uleb128 0x1
 2399 01f4 13       		.uleb128 0x13
 2400 01f5 00       		.byte	0
 2401 01f6 00       		.byte	0
 2402 01f7 23       		.uleb128 0x23
 2403 01f8 26       		.uleb128 0x26
 2404 01f9 00       		.byte	0
 2405 01fa 00       		.byte	0
 2406 01fb 00       		.byte	0
 2407 01fc 24       		.uleb128 0x24
 2408 01fd 2E       		.uleb128 0x2e
 2409 01fe 00       		.byte	0
 2410 01ff 3F       		.uleb128 0x3f
 2411 0200 0C       		.uleb128 0xc
 2412 0201 03       		.uleb128 0x3
 2413 0202 0E       		.uleb128 0xe
 2414 0203 3A       		.uleb128 0x3a
 2415 0204 0B       		.uleb128 0xb
 2416 0205 3B       		.uleb128 0x3b
 2417 0206 05       		.uleb128 0x5
 2418 0207 27       		.uleb128 0x27
 2419 0208 0C       		.uleb128 0xc
 2420 0209 3C       		.uleb128 0x3c
 2421 020a 0C       		.uleb128 0xc
 2422 020b 00       		.byte	0
 2423 020c 00       		.byte	0
 2424 020d 25       		.uleb128 0x25
 2425 020e 2E       		.uleb128 0x2e
 2426 020f 01       		.byte	0x1
 2427 0210 3F       		.uleb128 0x3f
 2428 0211 0C       		.uleb128 0xc
 2429 0212 03       		.uleb128 0x3
 2430 0213 0E       		.uleb128 0xe
 2431 0214 3A       		.uleb128 0x3a
 2432 0215 0B       		.uleb128 0xb
 2433 0216 3B       		.uleb128 0x3b
 2434 0217 05       		.uleb128 0x5
 2435 0218 27       		.uleb128 0x27
 2436 0219 0C       		.uleb128 0xc
 2437 021a 3C       		.uleb128 0x3c
 2438 021b 0C       		.uleb128 0xc
 2439 021c 01       		.uleb128 0x1
ARM GAS  /tmp/ccZjcVcD.s 			page 44


 2440 021d 13       		.uleb128 0x13
 2441 021e 00       		.byte	0
 2442 021f 00       		.byte	0
 2443 0220 26       		.uleb128 0x26
 2444 0221 2E       		.uleb128 0x2e
 2445 0222 01       		.byte	0x1
 2446 0223 3F       		.uleb128 0x3f
 2447 0224 0C       		.uleb128 0xc
 2448 0225 03       		.uleb128 0x3
 2449 0226 0E       		.uleb128 0xe
 2450 0227 3A       		.uleb128 0x3a
 2451 0228 0B       		.uleb128 0xb
 2452 0229 3B       		.uleb128 0x3b
 2453 022a 0B       		.uleb128 0xb
 2454 022b 27       		.uleb128 0x27
 2455 022c 0C       		.uleb128 0xc
 2456 022d 3C       		.uleb128 0x3c
 2457 022e 0C       		.uleb128 0xc
 2458 022f 01       		.uleb128 0x1
 2459 0230 13       		.uleb128 0x13
 2460 0231 00       		.byte	0
 2461 0232 00       		.byte	0
 2462 0233 27       		.uleb128 0x27
 2463 0234 2E       		.uleb128 0x2e
 2464 0235 01       		.byte	0x1
 2465 0236 3F       		.uleb128 0x3f
 2466 0237 0C       		.uleb128 0xc
 2467 0238 03       		.uleb128 0x3
 2468 0239 0E       		.uleb128 0xe
 2469 023a 3A       		.uleb128 0x3a
 2470 023b 0B       		.uleb128 0xb
 2471 023c 3B       		.uleb128 0x3b
 2472 023d 05       		.uleb128 0x5
 2473 023e 27       		.uleb128 0x27
 2474 023f 0C       		.uleb128 0xc
 2475 0240 49       		.uleb128 0x49
 2476 0241 13       		.uleb128 0x13
 2477 0242 3C       		.uleb128 0x3c
 2478 0243 0C       		.uleb128 0xc
 2479 0244 01       		.uleb128 0x1
 2480 0245 13       		.uleb128 0x13
 2481 0246 00       		.byte	0
 2482 0247 00       		.byte	0
 2483 0248 28       		.uleb128 0x28
 2484 0249 2E       		.uleb128 0x2e
 2485 024a 01       		.byte	0x1
 2486 024b 3F       		.uleb128 0x3f
 2487 024c 0C       		.uleb128 0xc
 2488 024d 03       		.uleb128 0x3
 2489 024e 0E       		.uleb128 0xe
 2490 024f 3A       		.uleb128 0x3a
 2491 0250 0B       		.uleb128 0xb
 2492 0251 3B       		.uleb128 0x3b
 2493 0252 0B       		.uleb128 0xb
 2494 0253 27       		.uleb128 0x27
 2495 0254 0C       		.uleb128 0xc
 2496 0255 49       		.uleb128 0x49
ARM GAS  /tmp/ccZjcVcD.s 			page 45


 2497 0256 13       		.uleb128 0x13
 2498 0257 3C       		.uleb128 0x3c
 2499 0258 0C       		.uleb128 0xc
 2500 0259 00       		.byte	0
 2501 025a 00       		.byte	0
 2502 025b 00       		.byte	0
 2503              		.section	.debug_loc,"",%progbits
 2504              	.Ldebug_loc0:
 2505              	.LLST0:
 2506 0000 00000000 		.4byte	.LFB40
 2507 0004 02000000 		.4byte	.LCFI0
 2508 0008 0200     		.2byte	0x2
 2509 000a 7D       		.byte	0x7d
 2510 000b 00       		.sleb128 0
 2511 000c 02000000 		.4byte	.LCFI0
 2512 0010 1C000000 		.4byte	.LFE40
 2513 0014 0200     		.2byte	0x2
 2514 0016 7D       		.byte	0x7d
 2515 0017 08       		.sleb128 8
 2516 0018 00000000 		.4byte	0
 2517 001c 00000000 		.4byte	0
 2518              	.LLST1:
 2519 0020 00000000 		.4byte	.LFB41
 2520 0024 02000000 		.4byte	.LCFI1
 2521 0028 0200     		.2byte	0x2
 2522 002a 7D       		.byte	0x7d
 2523 002b 00       		.sleb128 0
 2524 002c 02000000 		.4byte	.LCFI1
 2525 0030 32000000 		.4byte	.LFE41
 2526 0034 0200     		.2byte	0x2
 2527 0036 7D       		.byte	0x7d
 2528 0037 10       		.sleb128 16
 2529 0038 00000000 		.4byte	0
 2530 003c 00000000 		.4byte	0
 2531              	.LLST2:
 2532 0040 00000000 		.4byte	.LVL2
 2533 0044 0A000000 		.4byte	.LVL3
 2534 0048 0100     		.2byte	0x1
 2535 004a 50       		.byte	0x50
 2536 004b 0A000000 		.4byte	.LVL3
 2537 004f 0E000000 		.4byte	.LVL5
 2538 0053 0400     		.2byte	0x4
 2539 0055 F3       		.byte	0xf3
 2540 0056 01       		.uleb128 0x1
 2541 0057 50       		.byte	0x50
 2542 0058 9F       		.byte	0x9f
 2543 0059 0E000000 		.4byte	.LVL5
 2544 005d 10000000 		.4byte	.LVL6
 2545 0061 0100     		.2byte	0x1
 2546 0063 50       		.byte	0x50
 2547 0064 10000000 		.4byte	.LVL6
 2548 0068 20000000 		.4byte	.LVL10
 2549 006c 0100     		.2byte	0x1
 2550 006e 54       		.byte	0x54
 2551 006f 20000000 		.4byte	.LVL10
 2552 0073 22000000 		.4byte	.LVL11
 2553 0077 0400     		.2byte	0x4
ARM GAS  /tmp/ccZjcVcD.s 			page 46


 2554 0079 F3       		.byte	0xf3
 2555 007a 01       		.uleb128 0x1
 2556 007b 50       		.byte	0x50
 2557 007c 9F       		.byte	0x9f
 2558 007d 22000000 		.4byte	.LVL11
 2559 0081 2C000000 		.4byte	.LVL13
 2560 0085 0100     		.2byte	0x1
 2561 0087 54       		.byte	0x54
 2562 0088 2C000000 		.4byte	.LVL13
 2563 008c 2E000000 		.4byte	.LVL14
 2564 0090 0400     		.2byte	0x4
 2565 0092 F3       		.byte	0xf3
 2566 0093 01       		.uleb128 0x1
 2567 0094 50       		.byte	0x50
 2568 0095 9F       		.byte	0x9f
 2569 0096 2E000000 		.4byte	.LVL14
 2570 009a 30000000 		.4byte	.LVL15
 2571 009e 0100     		.2byte	0x1
 2572 00a0 54       		.byte	0x54
 2573 00a1 30000000 		.4byte	.LVL15
 2574 00a5 32000000 		.4byte	.LFE41
 2575 00a9 0400     		.2byte	0x4
 2576 00ab F3       		.byte	0xf3
 2577 00ac 01       		.uleb128 0x1
 2578 00ad 50       		.byte	0x50
 2579 00ae 9F       		.byte	0x9f
 2580 00af 00000000 		.4byte	0
 2581 00b3 00000000 		.4byte	0
 2582              	.LLST3:
 2583 00b7 00000000 		.4byte	.LVL2
 2584 00bb 0A000000 		.4byte	.LVL3
 2585 00bf 0100     		.2byte	0x1
 2586 00c1 51       		.byte	0x51
 2587 00c2 0A000000 		.4byte	.LVL3
 2588 00c6 0C000000 		.4byte	.LVL4
 2589 00ca 0100     		.2byte	0x1
 2590 00cc 55       		.byte	0x55
 2591 00cd 0C000000 		.4byte	.LVL4
 2592 00d1 0E000000 		.4byte	.LVL5
 2593 00d5 0400     		.2byte	0x4
 2594 00d7 F3       		.byte	0xf3
 2595 00d8 01       		.uleb128 0x1
 2596 00d9 51       		.byte	0x51
 2597 00da 9F       		.byte	0x9f
 2598 00db 0E000000 		.4byte	.LVL5
 2599 00df 12000000 		.4byte	.LVL7
 2600 00e3 0100     		.2byte	0x1
 2601 00e5 51       		.byte	0x51
 2602 00e6 12000000 		.4byte	.LVL7
 2603 00ea 32000000 		.4byte	.LFE41
 2604 00ee 0100     		.2byte	0x1
 2605 00f0 55       		.byte	0x55
 2606 00f1 00000000 		.4byte	0
 2607 00f5 00000000 		.4byte	0
 2608              	.LLST4:
 2609 00f9 00000000 		.4byte	.LVL2
 2610 00fd 0A000000 		.4byte	.LVL3
ARM GAS  /tmp/ccZjcVcD.s 			page 47


 2611 0101 0100     		.2byte	0x1
 2612 0103 52       		.byte	0x52
 2613 0104 0A000000 		.4byte	.LVL3
 2614 0108 0E000000 		.4byte	.LVL5
 2615 010c 0400     		.2byte	0x4
 2616 010e F3       		.byte	0xf3
 2617 010f 01       		.uleb128 0x1
 2618 0110 52       		.byte	0x52
 2619 0111 9F       		.byte	0x9f
 2620 0112 0E000000 		.4byte	.LVL5
 2621 0116 15000000 		.4byte	.LVL8-1
 2622 011a 0100     		.2byte	0x1
 2623 011c 52       		.byte	0x52
 2624 011d 15000000 		.4byte	.LVL8-1
 2625 0121 32000000 		.4byte	.LFE41
 2626 0125 0400     		.2byte	0x4
 2627 0127 F3       		.byte	0xf3
 2628 0128 01       		.uleb128 0x1
 2629 0129 52       		.byte	0x52
 2630 012a 9F       		.byte	0x9f
 2631 012b 00000000 		.4byte	0
 2632 012f 00000000 		.4byte	0
 2633              	.LLST5:
 2634 0133 18000000 		.4byte	.LVL9
 2635 0137 29000000 		.4byte	.LVL12-1
 2636 013b 0100     		.2byte	0x1
 2637 013d 50       		.byte	0x50
 2638 013e 29000000 		.4byte	.LVL12-1
 2639 0142 2E000000 		.4byte	.LVL14
 2640 0146 0100     		.2byte	0x1
 2641 0148 56       		.byte	0x56
 2642 0149 2E000000 		.4byte	.LVL14
 2643 014d 32000000 		.4byte	.LFE41
 2644 0151 0100     		.2byte	0x1
 2645 0153 50       		.byte	0x50
 2646 0154 00000000 		.4byte	0
 2647 0158 00000000 		.4byte	0
 2648              	.LLST6:
 2649 015c 00000000 		.4byte	.LFB42
 2650 0160 02000000 		.4byte	.LCFI2
 2651 0164 0200     		.2byte	0x2
 2652 0166 7D       		.byte	0x7d
 2653 0167 00       		.sleb128 0
 2654 0168 02000000 		.4byte	.LCFI2
 2655 016c 24000000 		.4byte	.LFE42
 2656 0170 0200     		.2byte	0x2
 2657 0172 7D       		.byte	0x7d
 2658 0173 08       		.sleb128 8
 2659 0174 00000000 		.4byte	0
 2660 0178 00000000 		.4byte	0
 2661              	.LLST7:
 2662 017c 00000000 		.4byte	.LVL16
 2663 0180 09000000 		.4byte	.LVL17-1
 2664 0184 0100     		.2byte	0x1
 2665 0186 50       		.byte	0x50
 2666 0187 09000000 		.4byte	.LVL17-1
 2667 018b 0C000000 		.4byte	.LVL18
ARM GAS  /tmp/ccZjcVcD.s 			page 48


 2668 018f 0400     		.2byte	0x4
 2669 0191 F3       		.byte	0xf3
 2670 0192 01       		.uleb128 0x1
 2671 0193 50       		.byte	0x50
 2672 0194 9F       		.byte	0x9f
 2673 0195 0C000000 		.4byte	.LVL18
 2674 0199 16000000 		.4byte	.LVL19
 2675 019d 0100     		.2byte	0x1
 2676 019f 50       		.byte	0x50
 2677 01a0 16000000 		.4byte	.LVL19
 2678 01a4 24000000 		.4byte	.LFE42
 2679 01a8 0400     		.2byte	0x4
 2680 01aa F3       		.byte	0xf3
 2681 01ab 01       		.uleb128 0x1
 2682 01ac 50       		.byte	0x50
 2683 01ad 9F       		.byte	0x9f
 2684 01ae 00000000 		.4byte	0
 2685 01b2 00000000 		.4byte	0
 2686              	.LLST8:
 2687 01b6 00000000 		.4byte	.LFB43
 2688 01ba 02000000 		.4byte	.LCFI3
 2689 01be 0200     		.2byte	0x2
 2690 01c0 7D       		.byte	0x7d
 2691 01c1 00       		.sleb128 0
 2692 01c2 02000000 		.4byte	.LCFI3
 2693 01c6 24000000 		.4byte	.LFE43
 2694 01ca 0200     		.2byte	0x2
 2695 01cc 7D       		.byte	0x7d
 2696 01cd 08       		.sleb128 8
 2697 01ce 00000000 		.4byte	0
 2698 01d2 00000000 		.4byte	0
 2699              	.LLST9:
 2700 01d6 00000000 		.4byte	.LVL22
 2701 01da 10000000 		.4byte	.LVL23
 2702 01de 0100     		.2byte	0x1
 2703 01e0 50       		.byte	0x50
 2704 01e1 10000000 		.4byte	.LVL23
 2705 01e5 24000000 		.4byte	.LFE43
 2706 01e9 0400     		.2byte	0x4
 2707 01eb F3       		.byte	0xf3
 2708 01ec 01       		.uleb128 0x1
 2709 01ed 50       		.byte	0x50
 2710 01ee 9F       		.byte	0x9f
 2711 01ef 00000000 		.4byte	0
 2712 01f3 00000000 		.4byte	0
 2713              	.LLST10:
 2714 01f7 00000000 		.4byte	.LFB44
 2715 01fb 02000000 		.4byte	.LCFI4
 2716 01ff 0200     		.2byte	0x2
 2717 0201 7D       		.byte	0x7d
 2718 0202 00       		.sleb128 0
 2719 0203 02000000 		.4byte	.LCFI4
 2720 0207 12000000 		.4byte	.LFE44
 2721 020b 0200     		.2byte	0x2
 2722 020d 7D       		.byte	0x7d
 2723 020e 08       		.sleb128 8
 2724 020f 00000000 		.4byte	0
ARM GAS  /tmp/ccZjcVcD.s 			page 49


 2725 0213 00000000 		.4byte	0
 2726              	.LLST11:
 2727 0217 00000000 		.4byte	.LVL26
 2728 021b 0F000000 		.4byte	.LVL29-1
 2729 021f 0100     		.2byte	0x1
 2730 0221 50       		.byte	0x50
 2731 0222 0F000000 		.4byte	.LVL29-1
 2732 0226 12000000 		.4byte	.LFE44
 2733 022a 0400     		.2byte	0x4
 2734 022c F3       		.byte	0xf3
 2735 022d 01       		.uleb128 0x1
 2736 022e 50       		.byte	0x50
 2737 022f 9F       		.byte	0x9f
 2738 0230 00000000 		.4byte	0
 2739 0234 00000000 		.4byte	0
 2740              	.LLST12:
 2741 0238 00000000 		.4byte	.LVL26
 2742 023c 00000000 		.4byte	.LVL26
 2743 0240 0100     		.2byte	0x1
 2744 0242 51       		.byte	0x51
 2745 0243 00000000 		.4byte	.LVL26
 2746 0247 0A000000 		.4byte	.LVL27
 2747 024b 0E00     		.2byte	0xe
 2748 024d 72       		.byte	0x72
 2749 024e 00       		.sleb128 0
 2750 024f 12       		.byte	0x12
 2751 0250 71       		.byte	0x71
 2752 0251 00       		.sleb128 0
 2753 0252 16       		.byte	0x16
 2754 0253 14       		.byte	0x14
 2755 0254 2D       		.byte	0x2d
 2756 0255 28       		.byte	0x28
 2757 0256 0100     		.2byte	0x1
 2758 0258 16       		.byte	0x16
 2759 0259 13       		.byte	0x13
 2760 025a 9F       		.byte	0x9f
 2761 025b 0A000000 		.4byte	.LVL27
 2762 025f 0C000000 		.4byte	.LVL28
 2763 0263 0F00     		.2byte	0xf
 2764 0265 70       		.byte	0x70
 2765 0266 0C       		.sleb128 12
 2766 0267 06       		.byte	0x6
 2767 0268 12       		.byte	0x12
 2768 0269 71       		.byte	0x71
 2769 026a 00       		.sleb128 0
 2770 026b 16       		.byte	0x16
 2771 026c 14       		.byte	0x14
 2772 026d 2D       		.byte	0x2d
 2773 026e 28       		.byte	0x28
 2774 026f 0100     		.2byte	0x1
 2775 0271 16       		.byte	0x16
 2776 0272 13       		.byte	0x13
 2777 0273 9F       		.byte	0x9f
 2778 0274 0C000000 		.4byte	.LVL28
 2779 0278 0F000000 		.4byte	.LVL29-1
 2780 027c 1000     		.2byte	0x10
 2781 027e 70       		.byte	0x70
ARM GAS  /tmp/ccZjcVcD.s 			page 50


 2782 027f 0C       		.sleb128 12
 2783 0280 06       		.byte	0x6
 2784 0281 12       		.byte	0x12
 2785 0282 F3       		.byte	0xf3
 2786 0283 01       		.uleb128 0x1
 2787 0284 51       		.byte	0x51
 2788 0285 16       		.byte	0x16
 2789 0286 14       		.byte	0x14
 2790 0287 2D       		.byte	0x2d
 2791 0288 28       		.byte	0x28
 2792 0289 0100     		.2byte	0x1
 2793 028b 16       		.byte	0x16
 2794 028c 13       		.byte	0x13
 2795 028d 9F       		.byte	0x9f
 2796 028e 0F000000 		.4byte	.LVL29-1
 2797 0292 12000000 		.4byte	.LFE44
 2798 0296 1000     		.2byte	0x10
 2799 0298 F3       		.byte	0xf3
 2800 0299 01       		.uleb128 0x1
 2801 029a 52       		.byte	0x52
 2802 029b 12       		.byte	0x12
 2803 029c F3       		.byte	0xf3
 2804 029d 01       		.uleb128 0x1
 2805 029e 51       		.byte	0x51
 2806 029f 16       		.byte	0x16
 2807 02a0 14       		.byte	0x14
 2808 02a1 2D       		.byte	0x2d
 2809 02a2 28       		.byte	0x28
 2810 02a3 0100     		.2byte	0x1
 2811 02a5 16       		.byte	0x16
 2812 02a6 13       		.byte	0x13
 2813 02a7 9F       		.byte	0x9f
 2814 02a8 00000000 		.4byte	0
 2815 02ac 00000000 		.4byte	0
 2816              	.LLST13:
 2817 02b0 00000000 		.4byte	.LVL26
 2818 02b4 0A000000 		.4byte	.LVL27
 2819 02b8 0100     		.2byte	0x1
 2820 02ba 52       		.byte	0x52
 2821 02bb 0A000000 		.4byte	.LVL27
 2822 02bf 0F000000 		.4byte	.LVL29-1
 2823 02c3 0200     		.2byte	0x2
 2824 02c5 70       		.byte	0x70
 2825 02c6 0C       		.sleb128 12
 2826 02c7 0F000000 		.4byte	.LVL29-1
 2827 02cb 12000000 		.4byte	.LFE44
 2828 02cf 0400     		.2byte	0x4
 2829 02d1 F3       		.byte	0xf3
 2830 02d2 01       		.uleb128 0x1
 2831 02d3 52       		.byte	0x52
 2832 02d4 9F       		.byte	0x9f
 2833 02d5 00000000 		.4byte	0
 2834 02d9 00000000 		.4byte	0
 2835              	.LLST14:
 2836 02dd 00000000 		.4byte	.LFB45
 2837 02e1 02000000 		.4byte	.LCFI5
 2838 02e5 0200     		.2byte	0x2
ARM GAS  /tmp/ccZjcVcD.s 			page 51


 2839 02e7 7D       		.byte	0x7d
 2840 02e8 00       		.sleb128 0
 2841 02e9 02000000 		.4byte	.LCFI5
 2842 02ed 0A000000 		.4byte	.LFE45
 2843 02f1 0200     		.2byte	0x2
 2844 02f3 7D       		.byte	0x7d
 2845 02f4 08       		.sleb128 8
 2846 02f5 00000000 		.4byte	0
 2847 02f9 00000000 		.4byte	0
 2848              	.LLST15:
 2849 02fd 00000000 		.4byte	.LVL30
 2850 0301 07000000 		.4byte	.LVL31-1
 2851 0305 0100     		.2byte	0x1
 2852 0307 50       		.byte	0x50
 2853 0308 07000000 		.4byte	.LVL31-1
 2854 030c 0A000000 		.4byte	.LFE45
 2855 0310 0400     		.2byte	0x4
 2856 0312 F3       		.byte	0xf3
 2857 0313 01       		.uleb128 0x1
 2858 0314 50       		.byte	0x50
 2859 0315 9F       		.byte	0x9f
 2860 0316 00000000 		.4byte	0
 2861 031a 00000000 		.4byte	0
 2862              	.LLST16:
 2863 031e 00000000 		.4byte	.LFB46
 2864 0322 02000000 		.4byte	.LCFI6
 2865 0326 0200     		.2byte	0x2
 2866 0328 7D       		.byte	0x7d
 2867 0329 00       		.sleb128 0
 2868 032a 02000000 		.4byte	.LCFI6
 2869 032e 2E000000 		.4byte	.LFE46
 2870 0332 0200     		.2byte	0x2
 2871 0334 7D       		.byte	0x7d
 2872 0335 08       		.sleb128 8
 2873 0336 00000000 		.4byte	0
 2874 033a 00000000 		.4byte	0
 2875              	.LLST17:
 2876 033e 00000000 		.4byte	.LVL32
 2877 0342 10000000 		.4byte	.LVL34
 2878 0346 0100     		.2byte	0x1
 2879 0348 50       		.byte	0x50
 2880 0349 10000000 		.4byte	.LVL34
 2881 034d 24000000 		.4byte	.LVL37
 2882 0351 0100     		.2byte	0x1
 2883 0353 54       		.byte	0x54
 2884 0354 24000000 		.4byte	.LVL37
 2885 0358 26000000 		.4byte	.LVL38
 2886 035c 0400     		.2byte	0x4
 2887 035e F3       		.byte	0xf3
 2888 035f 01       		.uleb128 0x1
 2889 0360 50       		.byte	0x50
 2890 0361 9F       		.byte	0x9f
 2891 0362 26000000 		.4byte	.LVL38
 2892 0366 29000000 		.4byte	.LVL39-1
 2893 036a 0100     		.2byte	0x1
 2894 036c 50       		.byte	0x50
 2895 036d 29000000 		.4byte	.LVL39-1
ARM GAS  /tmp/ccZjcVcD.s 			page 52


 2896 0371 2E000000 		.4byte	.LFE46
 2897 0375 0100     		.2byte	0x1
 2898 0377 54       		.byte	0x54
 2899 0378 00000000 		.4byte	0
 2900 037c 00000000 		.4byte	0
 2901              	.LLST18:
 2902 0380 00000000 		.4byte	.LVL32
 2903 0384 0E000000 		.4byte	.LVL33
 2904 0388 0100     		.2byte	0x1
 2905 038a 51       		.byte	0x51
 2906 038b 0E000000 		.4byte	.LVL33
 2907 038f 26000000 		.4byte	.LVL38
 2908 0393 0400     		.2byte	0x4
 2909 0395 F3       		.byte	0xf3
 2910 0396 01       		.uleb128 0x1
 2911 0397 51       		.byte	0x51
 2912 0398 9F       		.byte	0x9f
 2913 0399 26000000 		.4byte	.LVL38
 2914 039d 29000000 		.4byte	.LVL39-1
 2915 03a1 0100     		.2byte	0x1
 2916 03a3 51       		.byte	0x51
 2917 03a4 29000000 		.4byte	.LVL39-1
 2918 03a8 2E000000 		.4byte	.LFE46
 2919 03ac 0400     		.2byte	0x4
 2920 03ae F3       		.byte	0xf3
 2921 03af 01       		.uleb128 0x1
 2922 03b0 51       		.byte	0x51
 2923 03b1 9F       		.byte	0x9f
 2924 03b2 00000000 		.4byte	0
 2925 03b6 00000000 		.4byte	0
 2926              	.LLST19:
 2927 03ba 00000000 		.4byte	.LFB47
 2928 03be 02000000 		.4byte	.LCFI7
 2929 03c2 0200     		.2byte	0x2
 2930 03c4 7D       		.byte	0x7d
 2931 03c5 00       		.sleb128 0
 2932 03c6 02000000 		.4byte	.LCFI7
 2933 03ca 18000000 		.4byte	.LFE47
 2934 03ce 0200     		.2byte	0x2
 2935 03d0 7D       		.byte	0x7d
 2936 03d1 08       		.sleb128 8
 2937 03d2 00000000 		.4byte	0
 2938 03d6 00000000 		.4byte	0
 2939              	.LLST20:
 2940 03da 00000000 		.4byte	.LVL40
 2941 03de 0F000000 		.4byte	.LVL41-1
 2942 03e2 0100     		.2byte	0x1
 2943 03e4 50       		.byte	0x50
 2944 03e5 0F000000 		.4byte	.LVL41-1
 2945 03e9 18000000 		.4byte	.LFE47
 2946 03ed 0400     		.2byte	0x4
 2947 03ef F3       		.byte	0xf3
 2948 03f0 01       		.uleb128 0x1
 2949 03f1 50       		.byte	0x50
 2950 03f2 9F       		.byte	0x9f
 2951 03f3 00000000 		.4byte	0
 2952 03f7 00000000 		.4byte	0
ARM GAS  /tmp/ccZjcVcD.s 			page 53


 2953              	.LLST21:
 2954 03fb 00000000 		.4byte	.LFB48
 2955 03ff 02000000 		.4byte	.LCFI8
 2956 0403 0200     		.2byte	0x2
 2957 0405 7D       		.byte	0x7d
 2958 0406 00       		.sleb128 0
 2959 0407 02000000 		.4byte	.LCFI8
 2960 040b 10000000 		.4byte	.LFE48
 2961 040f 0200     		.2byte	0x2
 2962 0411 7D       		.byte	0x7d
 2963 0412 08       		.sleb128 8
 2964 0413 00000000 		.4byte	0
 2965 0417 00000000 		.4byte	0
 2966              	.LLST22:
 2967 041b 00000000 		.4byte	.LVL43
 2968 041f 0D000000 		.4byte	.LVL44-1
 2969 0423 0100     		.2byte	0x1
 2970 0425 50       		.byte	0x50
 2971 0426 0D000000 		.4byte	.LVL44-1
 2972 042a 10000000 		.4byte	.LFE48
 2973 042e 0400     		.2byte	0x4
 2974 0430 F3       		.byte	0xf3
 2975 0431 01       		.uleb128 0x1
 2976 0432 50       		.byte	0x50
 2977 0433 9F       		.byte	0x9f
 2978 0434 00000000 		.4byte	0
 2979 0438 00000000 		.4byte	0
 2980              	.LLST23:
 2981 043c 00000000 		.4byte	.LFB49
 2982 0440 02000000 		.4byte	.LCFI9
 2983 0444 0200     		.2byte	0x2
 2984 0446 7D       		.byte	0x7d
 2985 0447 00       		.sleb128 0
 2986 0448 02000000 		.4byte	.LCFI9
 2987 044c 04000000 		.4byte	.LCFI10
 2988 0450 0200     		.2byte	0x2
 2989 0452 7D       		.byte	0x7d
 2990 0453 08       		.sleb128 8
 2991 0454 04000000 		.4byte	.LCFI10
 2992 0458 30000000 		.4byte	.LFE49
 2993 045c 0200     		.2byte	0x2
 2994 045e 7D       		.byte	0x7d
 2995 045f 10       		.sleb128 16
 2996 0460 00000000 		.4byte	0
 2997 0464 00000000 		.4byte	0
 2998              	.LLST24:
 2999 0468 00000000 		.4byte	.LVL45
 3000 046c 13000000 		.4byte	.LVL46-1
 3001 0470 0100     		.2byte	0x1
 3002 0472 50       		.byte	0x50
 3003 0473 13000000 		.4byte	.LVL46-1
 3004 0477 18000000 		.4byte	.LVL47
 3005 047b 0400     		.2byte	0x4
 3006 047d F3       		.byte	0xf3
 3007 047e 01       		.uleb128 0x1
 3008 047f 50       		.byte	0x50
 3009 0480 9F       		.byte	0x9f
ARM GAS  /tmp/ccZjcVcD.s 			page 54


 3010 0481 18000000 		.4byte	.LVL47
 3011 0485 1A000000 		.4byte	.LVL48
 3012 0489 0100     		.2byte	0x1
 3013 048b 50       		.byte	0x50
 3014 048c 1A000000 		.4byte	.LVL48
 3015 0490 1C000000 		.4byte	.LVL49
 3016 0494 0400     		.2byte	0x4
 3017 0496 F3       		.byte	0xf3
 3018 0497 01       		.uleb128 0x1
 3019 0498 50       		.byte	0x50
 3020 0499 9F       		.byte	0x9f
 3021 049a 1C000000 		.4byte	.LVL49
 3022 049e 26000000 		.4byte	.LVL52
 3023 04a2 0100     		.2byte	0x1
 3024 04a4 50       		.byte	0x50
 3025 04a5 26000000 		.4byte	.LVL52
 3026 04a9 30000000 		.4byte	.LFE49
 3027 04ad 0400     		.2byte	0x4
 3028 04af F3       		.byte	0xf3
 3029 04b0 01       		.uleb128 0x1
 3030 04b1 50       		.byte	0x50
 3031 04b2 9F       		.byte	0x9f
 3032 04b3 00000000 		.4byte	0
 3033 04b7 00000000 		.4byte	0
 3034              	.LLST25:
 3035 04bb 00000000 		.4byte	.LVL45
 3036 04bf 13000000 		.4byte	.LVL46-1
 3037 04c3 0100     		.2byte	0x1
 3038 04c5 51       		.byte	0x51
 3039 04c6 13000000 		.4byte	.LVL46-1
 3040 04ca 14000000 		.4byte	.LVL46
 3041 04ce 0400     		.2byte	0x4
 3042 04d0 F3       		.byte	0xf3
 3043 04d1 01       		.uleb128 0x1
 3044 04d2 51       		.byte	0x51
 3045 04d3 9F       		.byte	0x9f
 3046 04d4 18000000 		.4byte	.LVL47
 3047 04d8 22000000 		.4byte	.LVL50
 3048 04dc 0100     		.2byte	0x1
 3049 04de 51       		.byte	0x51
 3050 04df 22000000 		.4byte	.LVL50
 3051 04e3 24000000 		.4byte	.LVL51
 3052 04e7 0400     		.2byte	0x4
 3053 04e9 F3       		.byte	0xf3
 3054 04ea 01       		.uleb128 0x1
 3055 04eb 51       		.byte	0x51
 3056 04ec 9F       		.byte	0x9f
 3057 04ed 24000000 		.4byte	.LVL51
 3058 04f1 2D000000 		.4byte	.LVL53-1
 3059 04f5 0100     		.2byte	0x1
 3060 04f7 51       		.byte	0x51
 3061 04f8 00000000 		.4byte	0
 3062 04fc 00000000 		.4byte	0
 3063              	.LLST26:
 3064 0500 00000000 		.4byte	.LVL45
 3065 0504 13000000 		.4byte	.LVL46-1
 3066 0508 0100     		.2byte	0x1
ARM GAS  /tmp/ccZjcVcD.s 			page 55


 3067 050a 52       		.byte	0x52
 3068 050b 13000000 		.4byte	.LVL46-1
 3069 050f 18000000 		.4byte	.LVL47
 3070 0513 0400     		.2byte	0x4
 3071 0515 F3       		.byte	0xf3
 3072 0516 01       		.uleb128 0x1
 3073 0517 52       		.byte	0x52
 3074 0518 9F       		.byte	0x9f
 3075 0519 18000000 		.4byte	.LVL47
 3076 051d 2D000000 		.4byte	.LVL53-1
 3077 0521 0100     		.2byte	0x1
 3078 0523 52       		.byte	0x52
 3079 0524 2D000000 		.4byte	.LVL53-1
 3080 0528 30000000 		.4byte	.LFE49
 3081 052c 0400     		.2byte	0x4
 3082 052e F3       		.byte	0xf3
 3083 052f 01       		.uleb128 0x1
 3084 0530 52       		.byte	0x52
 3085 0531 9F       		.byte	0x9f
 3086 0532 00000000 		.4byte	0
 3087 0536 00000000 		.4byte	0
 3088              	.LLST27:
 3089 053a 00000000 		.4byte	.LVL45
 3090 053e 13000000 		.4byte	.LVL46-1
 3091 0542 0100     		.2byte	0x1
 3092 0544 53       		.byte	0x53
 3093 0545 13000000 		.4byte	.LVL46-1
 3094 0549 18000000 		.4byte	.LVL47
 3095 054d 0400     		.2byte	0x4
 3096 054f F3       		.byte	0xf3
 3097 0550 01       		.uleb128 0x1
 3098 0551 53       		.byte	0x53
 3099 0552 9F       		.byte	0x9f
 3100 0553 18000000 		.4byte	.LVL47
 3101 0557 2D000000 		.4byte	.LVL53-1
 3102 055b 0100     		.2byte	0x1
 3103 055d 53       		.byte	0x53
 3104 055e 2D000000 		.4byte	.LVL53-1
 3105 0562 30000000 		.4byte	.LFE49
 3106 0566 0400     		.2byte	0x4
 3107 0568 F3       		.byte	0xf3
 3108 0569 01       		.uleb128 0x1
 3109 056a 53       		.byte	0x53
 3110 056b 9F       		.byte	0x9f
 3111 056c 00000000 		.4byte	0
 3112 0570 00000000 		.4byte	0
 3113              		.section	.debug_aranges,"",%progbits
 3114 0000 64000000 		.4byte	0x64
 3115 0004 0200     		.2byte	0x2
 3116 0006 00000000 		.4byte	.Ldebug_info0
 3117 000a 04       		.byte	0x4
 3118 000b 00       		.byte	0
 3119 000c 0000     		.2byte	0
 3120 000e 0000     		.2byte	0
 3121 0010 00000000 		.4byte	.LFB40
 3122 0014 1C000000 		.4byte	.LFE40-.LFB40
 3123 0018 00000000 		.4byte	.LFB41
ARM GAS  /tmp/ccZjcVcD.s 			page 56


 3124 001c 32000000 		.4byte	.LFE41-.LFB41
 3125 0020 00000000 		.4byte	.LFB42
 3126 0024 24000000 		.4byte	.LFE42-.LFB42
 3127 0028 00000000 		.4byte	.LFB43
 3128 002c 24000000 		.4byte	.LFE43-.LFB43
 3129 0030 00000000 		.4byte	.LFB44
 3130 0034 12000000 		.4byte	.LFE44-.LFB44
 3131 0038 00000000 		.4byte	.LFB45
 3132 003c 0A000000 		.4byte	.LFE45-.LFB45
 3133 0040 00000000 		.4byte	.LFB46
 3134 0044 2E000000 		.4byte	.LFE46-.LFB46
 3135 0048 00000000 		.4byte	.LFB47
 3136 004c 18000000 		.4byte	.LFE47-.LFB47
 3137 0050 00000000 		.4byte	.LFB48
 3138 0054 10000000 		.4byte	.LFE48-.LFB48
 3139 0058 00000000 		.4byte	.LFB49
 3140 005c 30000000 		.4byte	.LFE49-.LFB49
 3141 0060 00000000 		.4byte	0
 3142 0064 00000000 		.4byte	0
 3143              		.section	.debug_ranges,"",%progbits
 3144              	.Ldebug_ranges0:
 3145 0000 00000000 		.4byte	.LFB40
 3146 0004 1C000000 		.4byte	.LFE40
 3147 0008 00000000 		.4byte	.LFB41
 3148 000c 32000000 		.4byte	.LFE41
 3149 0010 00000000 		.4byte	.LFB42
 3150 0014 24000000 		.4byte	.LFE42
 3151 0018 00000000 		.4byte	.LFB43
 3152 001c 24000000 		.4byte	.LFE43
 3153 0020 00000000 		.4byte	.LFB44
 3154 0024 12000000 		.4byte	.LFE44
 3155 0028 00000000 		.4byte	.LFB45
 3156 002c 0A000000 		.4byte	.LFE45
 3157 0030 00000000 		.4byte	.LFB46
 3158 0034 2E000000 		.4byte	.LFE46
 3159 0038 00000000 		.4byte	.LFB47
 3160 003c 18000000 		.4byte	.LFE47
 3161 0040 00000000 		.4byte	.LFB48
 3162 0044 10000000 		.4byte	.LFE48
 3163 0048 00000000 		.4byte	.LFB49
 3164 004c 30000000 		.4byte	.LFE49
 3165 0050 00000000 		.4byte	0
 3166 0054 00000000 		.4byte	0
 3167              		.section	.debug_line,"",%progbits
 3168              	.Ldebug_line0:
 3169 0000 64030000 		.section	.debug_str,"MS",%progbits,1
 3169      02008F02 
 3169      00000201 
 3169      FB0E0D00 
 3169      01010101 
 3170              	.LASF81:
 3171 0000 7466756E 		.ascii	"tfunc_t\000"
 3171      635F7400 
 3172              	.LASF85:
 3173 0008 74687265 		.ascii	"threadpriority_t\000"
 3173      61647072 
 3173      696F7269 
ARM GAS  /tmp/ccZjcVcD.s 			page 57


 3173      74795F74 
 3173      00
 3174              	.LASF2:
 3175 0019 73697A65 		.ascii	"size_t\000"
 3175      5F7400
 3176              	.LASF76:
 3177 0020 7264796D 		.ascii	"rdymsg\000"
 3177      736700
 3178              	.LASF12:
 3179 0027 75696E74 		.ascii	"uint64_t\000"
 3179      36345F74 
 3179      00
 3180              	.LASF66:
 3181 0030 6D656D67 		.ascii	"memgetfunc_t\000"
 3181      65746675 
 3181      6E635F74 
 3181      00
 3182              	.LASF13:
 3183 003d 6C6F6E67 		.ascii	"long long unsigned int\000"
 3183      206C6F6E 
 3183      6720756E 
 3183      7369676E 
 3183      65642069 
 3184              	.LASF91:
 3185 0054 5F676F73 		.ascii	"_gosInit\000"
 3185      496E6974 
 3185      00
 3186              	.LASF77:
 3187 005d 65786974 		.ascii	"exitcode\000"
 3187      636F6465 
 3187      00
 3188              	.LASF70:
 3189 0066 685F6672 		.ascii	"h_free\000"
 3189      656500
 3190              	.LASF86:
 3191 006d 6C696D69 		.ascii	"limit\000"
 3191      7400
 3192              	.LASF100:
 3193 0073 67667853 		.ascii	"gfxSemSignalI\000"
 3193      656D5369 
 3193      676E616C 
 3193      4900
 3194              	.LASF72:
 3195 0081 6E657874 		.ascii	"next\000"
 3195      00
 3196              	.LASF28:
 3197 0086 705F7072 		.ascii	"p_prio\000"
 3197      696F00
 3198              	.LASF11:
 3199 008d 6C6F6E67 		.ascii	"long long int\000"
 3199      206C6F6E 
 3199      6720696E 
 3199      7400
 3200              	.LASF1:
 3201 009b 7369676E 		.ascii	"signed char\000"
 3201      65642063 
 3201      68617200 
ARM GAS  /tmp/ccZjcVcD.s 			page 58


 3202              	.LASF71:
 3203 00a7 685F6D74 		.ascii	"h_mtx\000"
 3203      7800
 3204              	.LASF107:
 3205 00ad 63685379 		.ascii	"chSysInit\000"
 3205      73496E69 
 3205      7400
 3206              	.LASF44:
 3207 00b7 705F6D70 		.ascii	"p_mpool\000"
 3207      6F6F6C00 
 3208              	.LASF14:
 3209 00bf 626F6F6C 		.ascii	"bool_t\000"
 3209      5F7400
 3210              	.LASF63:
 3211 00c6 6D5F7175 		.ascii	"m_queue\000"
 3211      65756500 
 3212              	.LASF19:
 3213 00ce 74736C69 		.ascii	"tslices_t\000"
 3213      6365735F 
 3213      7400
 3214              	.LASF88:
 3215 00d8 67667854 		.ascii	"gfxThreadHandle\000"
 3215      68726561 
 3215      6448616E 
 3215      646C6500 
 3216              	.LASF8:
 3217 00e8 6C6F6E67 		.ascii	"long int\000"
 3217      20696E74 
 3217      00
 3218              	.LASF119:
 3219 00f1 63685468 		.ascii	"chThdCreateFromHeap\000"
 3219      64437265 
 3219      61746546 
 3219      726F6D48 
 3219      65617000 
 3220              	.LASF17:
 3221 0105 74737461 		.ascii	"tstate_t\000"
 3221      74655F74 
 3221      00
 3222              	.LASF109:
 3223 010e 6D656D63 		.ascii	"memcpy\000"
 3223      707900
 3224              	.LASF37:
 3225 0115 705F7469 		.ascii	"p_time\000"
 3225      6D6500
 3226              	.LASF103:
 3227 011c 73746163 		.ascii	"stacksz\000"
 3227      6B737A00 
 3228              	.LASF30:
 3229 0124 705F6E65 		.ascii	"p_newer\000"
 3229      77657200 
 3230              	.LASF60:
 3231 012c 735F7175 		.ascii	"s_queue\000"
 3231      65756500 
 3232              	.LASF117:
 3233 0134 63685363 		.ascii	"chSchRescheduleS\000"
 3233      68526573 
ARM GAS  /tmp/ccZjcVcD.s 			page 59


 3233      63686564 
 3233      756C6553 
 3233      00
 3234              	.LASF98:
 3235 0145 67667853 		.ascii	"gfxSemWait\000"
 3235      656D5761 
 3235      697400
 3236              	.LASF55:
 3237 0150 725F6E65 		.ascii	"r_newer\000"
 3237      77657200 
 3238              	.LASF47:
 3239 0158 72656761 		.ascii	"regarm_t\000"
 3239      726D5F74 
 3239      00
 3240              	.LASF74:
 3241 0161 616C6967 		.ascii	"align\000"
 3241      6E00
 3242              	.LASF24:
 3243 0167 636E745F 		.ascii	"cnt_t\000"
 3243      7400
 3244              	.LASF0:
 3245 016d 756E7369 		.ascii	"unsigned int\000"
 3245      676E6564 
 3245      20696E74 
 3245      00
 3246              	.LASF90:
 3247 017a 6E657773 		.ascii	"newsz\000"
 3247      7A00
 3248              	.LASF39:
 3249 0180 705F6D73 		.ascii	"p_msgqueue\000"
 3249      67717565 
 3249      756500
 3250              	.LASF106:
 3251 018b 68616C49 		.ascii	"halInit\000"
 3251      6E697400 
 3252              	.LASF97:
 3253 0193 67667852 		.ascii	"gfxRealloc\000"
 3253      65616C6C 
 3253      6F6300
 3254              	.LASF61:
 3255 019e 735F636E 		.ascii	"s_cnt\000"
 3255      7400
 3256              	.LASF75:
 3257 01a4 73697A65 		.ascii	"size\000"
 3257      00
 3258              	.LASF6:
 3259 01a9 73686F72 		.ascii	"short unsigned int\000"
 3259      7420756E 
 3259      7369676E 
 3259      65642069 
 3259      6E7400
 3260              	.LASF112:
 3261 01bc 63685365 		.ascii	"chSemReset\000"
 3261      6D526573 
 3261      657400
 3262              	.LASF21:
 3263 01c7 6D73675F 		.ascii	"msg_t\000"
ARM GAS  /tmp/ccZjcVcD.s 			page 60


 3263      7400
 3264              	.LASF16:
 3265 01cd 746D6F64 		.ascii	"tmode_t\000"
 3265      655F7400 
 3266              	.LASF46:
 3267 01d5 54687265 		.ascii	"ThreadsList\000"
 3267      6164734C 
 3267      69737400 
 3268              	.LASF22:
 3269 01e1 6576656E 		.ascii	"eventmask_t\000"
 3269      746D6173 
 3269      6B5F7400 
 3270              	.LASF114:
 3271 01ed 63685365 		.ascii	"chSemWaitTimeout\000"
 3271      6D576169 
 3271      7454696D 
 3271      656F7574 
 3271      00
 3272              	.LASF48:
 3273 01fe 73746B61 		.ascii	"stkalign_t\000"
 3273      6C69676E 
 3273      5F7400
 3274              	.LASF94:
 3275 0209 67667853 		.ascii	"gfxSemInit\000"
 3275      656D496E 
 3275      697400
 3276              	.LASF118:
 3277 0214 63685468 		.ascii	"chThdCreateStatic\000"
 3277      64437265 
 3277      61746553 
 3277      74617469 
 3277      6300
 3278              	.LASF93:
 3279 0226 67667853 		.ascii	"gfxSleepMicroseconds\000"
 3279      6C656570 
 3279      4D696372 
 3279      6F736563 
 3279      6F6E6473 
 3280              	.LASF51:
 3281 023b 73697A65 		.ascii	"sizetype\000"
 3281      74797065 
 3281      00
 3282              	.LASF62:
 3283 0244 4D757465 		.ascii	"Mutex\000"
 3283      7800
 3284              	.LASF105:
 3285 024a 70617261 		.ascii	"param\000"
 3285      6D00
 3286              	.LASF31:
 3287 0250 705F6F6C 		.ascii	"p_older\000"
 3287      64657200 
 3288              	.LASF54:
 3289 0258 725F6374 		.ascii	"r_ctx\000"
 3289      7800
 3290              	.LASF83:
 3291 025e 73656D63 		.ascii	"semcount_t\000"
 3291      6F756E74 
ARM GAS  /tmp/ccZjcVcD.s 			page 61


 3291      5F7400
 3292              	.LASF45:
 3293 0269 54687265 		.ascii	"ThreadsQueue\000"
 3293      61647351 
 3293      75657565 
 3293      00
 3294              	.LASF101:
 3295 0276 67667854 		.ascii	"gfxThreadCreate\000"
 3295      68726561 
 3295      64437265 
 3295      61746500 
 3296              	.LASF113:
 3297 0286 63684865 		.ascii	"chHeapAlloc\000"
 3297      6170416C 
 3297      6C6F6300 
 3298              	.LASF104:
 3299 0292 7072696F 		.ascii	"prio\000"
 3299      00
 3300              	.LASF56:
 3301 0297 725F6F6C 		.ascii	"r_older\000"
 3301      64657200 
 3302              	.LASF67:
 3303 029f 4D656D6F 		.ascii	"MemoryHeap\000"
 3303      72794865 
 3303      617000
 3304              	.LASF96:
 3305 02aa 67667853 		.ascii	"gfxSemDestroy\000"
 3305      656D4465 
 3305      7374726F 
 3305      7900
 3306              	.LASF18:
 3307 02b8 74726566 		.ascii	"trefs_t\000"
 3307      735F7400 
 3308              	.LASF27:
 3309 02c0 705F7072 		.ascii	"p_prev\000"
 3309      657600
 3310              	.LASF89:
 3311 02c7 6F6C6473 		.ascii	"oldsz\000"
 3311      7A00
 3312              	.LASF20:
 3313 02cd 74707269 		.ascii	"tprio_t\000"
 3313      6F5F7400 
 3314              	.LASF15:
 3315 02d5 5F426F6F 		.ascii	"_Bool\000"
 3315      6C00
 3316              	.LASF7:
 3317 02db 696E7433 		.ascii	"int32_t\000"
 3317      325F7400 
 3318              	.LASF4:
 3319 02e3 756E7369 		.ascii	"unsigned char\000"
 3319      676E6564 
 3319      20636861 
 3319      7200
 3320              	.LASF122:
 3321 02f1 68656170 		.ascii	"heap_header\000"
 3321      5F686561 
 3321      64657200 
ARM GAS  /tmp/ccZjcVcD.s 			page 62


 3322              	.LASF84:
 3323 02fd 74687265 		.ascii	"threadreturn_t\000"
 3323      61647265 
 3323      7475726E 
 3323      5F7400
 3324              	.LASF42:
 3325 030c 705F6D74 		.ascii	"p_mtxlist\000"
 3325      786C6973 
 3325      7400
 3326              	.LASF5:
 3327 0316 73686F72 		.ascii	"short int\000"
 3327      7420696E 
 3327      7400
 3328              	.LASF33:
 3329 0320 705F7374 		.ascii	"p_state\000"
 3329      61746500 
 3330              	.LASF36:
 3331 0328 705F7072 		.ascii	"p_preempt\000"
 3331      65656D70 
 3331      7400
 3332              	.LASF53:
 3333 0332 725F7072 		.ascii	"r_prio\000"
 3333      696F00
 3334              	.LASF79:
 3335 0339 65776D61 		.ascii	"ewmask\000"
 3335      736B00
 3336              	.LASF26:
 3337 0340 705F6E65 		.ascii	"p_next\000"
 3337      787400
 3338              	.LASF34:
 3339 0347 705F666C 		.ascii	"p_flags\000"
 3339      61677300 
 3340              	.LASF25:
 3341 034f 54687265 		.ascii	"Thread\000"
 3341      616400
 3342              	.LASF82:
 3343 0356 64656C61 		.ascii	"delaytime_t\000"
 3343      7974696D 
 3343      655F7400 
 3344              	.LASF87:
 3345 0362 67667853 		.ascii	"gfxSem\000"
 3345      656D00
 3346              	.LASF41:
 3347 0369 705F6570 		.ascii	"p_epending\000"
 3347      656E6469 
 3347      6E6700
 3348              	.LASF9:
 3349 0374 75696E74 		.ascii	"uint32_t\000"
 3349      33325F74 
 3349      00
 3350              	.LASF52:
 3351 037d 725F7175 		.ascii	"r_queue\000"
 3351      65756500 
 3352              	.LASF73:
 3353 0385 68656170 		.ascii	"heap\000"
 3353      00
 3354              	.LASF10:
ARM GAS  /tmp/ccZjcVcD.s 			page 63


 3355 038a 6C6F6E67 		.ascii	"long unsigned int\000"
 3355      20756E73 
 3355      69676E65 
 3355      6420696E 
 3355      7400
 3356              	.LASF57:
 3357 039c 725F6375 		.ascii	"r_current\000"
 3357      7272656E 
 3357      7400
 3358              	.LASF80:
 3359 03a6 63686172 		.ascii	"char\000"
 3359      00
 3360              	.LASF65:
 3361 03ab 6D5F6E65 		.ascii	"m_next\000"
 3361      787400
 3362              	.LASF23:
 3363 03b2 73797374 		.ascii	"systime_t\000"
 3363      696D655F 
 3363      7400
 3364              	.LASF43:
 3365 03bc 705F7265 		.ascii	"p_realprio\000"
 3365      616C7072 
 3365      696F00
 3366              	.LASF115:
 3367 03c7 63685365 		.ascii	"chSemWait\000"
 3367      6D576169 
 3367      7400
 3368              	.LASF50:
 3369 03d1 636F6E74 		.ascii	"context\000"
 3369      65787400 
 3370              	.LASF102:
 3371 03d9 73746163 		.ascii	"stackarea\000"
 3371      6B617265 
 3371      6100
 3372              	.LASF49:
 3373 03e3 696E7463 		.ascii	"intctx\000"
 3373      747800
 3374              	.LASF59:
 3375 03ea 53656D61 		.ascii	"Semaphore\000"
 3375      70686F72 
 3375      6500
 3376              	.LASF95:
 3377 03f4 7073656D 		.ascii	"psem\000"
 3377      00
 3378              	.LASF110:
 3379 03f9 63685468 		.ascii	"chThdSleep\000"
 3379      64536C65 
 3379      657000
 3380              	.LASF35:
 3381 0404 705F7265 		.ascii	"p_refs\000"
 3381      667300
 3382              	.LASF99:
 3383 040b 67667853 		.ascii	"gfxSemSignal\000"
 3383      656D5369 
 3383      676E616C 
 3383      00
 3384              	.LASF116:
ARM GAS  /tmp/ccZjcVcD.s 			page 64


 3385 0418 63685365 		.ascii	"chSemSignalI\000"
 3385      6D536967 
 3385      6E616C49 
 3385      00
 3386              	.LASF58:
 3387 0425 52656164 		.ascii	"ReadyList\000"
 3387      794C6973 
 3387      7400
 3388              	.LASF123:
 3389 042f 726C6973 		.ascii	"rlist\000"
 3389      7400
 3390              	.LASF3:
 3391 0435 75696E74 		.ascii	"uint8_t\000"
 3391      385F7400 
 3392              	.LASF92:
 3393 043d 67667853 		.ascii	"gfxSleepMilliseconds\000"
 3393      6C656570 
 3393      4D696C6C 
 3393      69736563 
 3393      6F6E6473 
 3394              	.LASF69:
 3395 0452 685F7072 		.ascii	"h_provider\000"
 3395      6F766964 
 3395      657200
 3396              	.LASF108:
 3397 045d 63685468 		.ascii	"chThdYield\000"
 3397      64596965 
 3397      6C6400
 3398              	.LASF121:
 3399 0468 2F686F6D 		.ascii	"/home/matt/arm_cortex/ChibiOS/ext/ugfx/src/gos/chib"
 3399      652F6D61 
 3399      74742F61 
 3399      726D5F63 
 3399      6F727465 
 3400 049b 696F732E 		.ascii	"ios.c\000"
 3400      6300
 3401              	.LASF120:
 3402 04a1 474E5520 		.ascii	"GNU C 4.7.4 20130913 (prerelease)\000"
 3402      4320342E 
 3402      372E3420 
 3402      32303133 
 3402      30393133 
 3403              	.LASF78:
 3404 04c3 77746F62 		.ascii	"wtobjp\000"
 3404      6A7000
 3405              	.LASF32:
 3406 04ca 705F6E61 		.ascii	"p_name\000"
 3406      6D6500
 3407              	.LASF40:
 3408 04d1 705F6D73 		.ascii	"p_msg\000"
 3408      6700
 3409              	.LASF64:
 3410 04d7 6D5F6F77 		.ascii	"m_owner\000"
 3410      6E657200 
 3411              	.LASF29:
 3412 04df 705F6374 		.ascii	"p_ctx\000"
 3412      7800
ARM GAS  /tmp/ccZjcVcD.s 			page 65


 3413              	.LASF38:
 3414 04e5 705F7761 		.ascii	"p_waiting\000"
 3414      6974696E 
 3414      6700
 3415              	.LASF111:
 3416 04ef 63685365 		.ascii	"chSemInit\000"
 3416      6D496E69 
 3416      7400
 3417              	.LASF68:
 3418 04f9 6D656D6F 		.ascii	"memory_heap\000"
 3418      72795F68 
 3418      65617000 
 3419              		.ident	"GCC: (GNU Tools for ARM Embedded Processors / bleeding-edge-toolchain-131005) 4.7.4 201309
ARM GAS  /tmp/ccZjcVcD.s 			page 66


DEFINED SYMBOLS
                            *ABS*:0000000000000000 chibios.c
     /tmp/ccZjcVcD.s:18     .text._gosInit:0000000000000000 $t
     /tmp/ccZjcVcD.s:24     .text._gosInit:0000000000000000 _gosInit
     /tmp/ccZjcVcD.s:54     .text._gosInit:0000000000000018 $d
     /tmp/ccZjcVcD.s:59     .text.gfxRealloc:0000000000000000 $t
     /tmp/ccZjcVcD.s:65     .text.gfxRealloc:0000000000000000 gfxRealloc
     /tmp/ccZjcVcD.s:130    .text.gfxSleepMilliseconds:0000000000000000 $t
     /tmp/ccZjcVcD.s:136    .text.gfxSleepMilliseconds:0000000000000000 gfxSleepMilliseconds
     /tmp/ccZjcVcD.s:178    .text.gfxSleepMicroseconds:0000000000000000 $t
     /tmp/ccZjcVcD.s:184    .text.gfxSleepMicroseconds:0000000000000000 gfxSleepMicroseconds
     /tmp/ccZjcVcD.s:219    .text.gfxSleepMicroseconds:0000000000000020 $d
     /tmp/ccZjcVcD.s:224    .text.gfxSemInit:0000000000000000 $t
     /tmp/ccZjcVcD.s:230    .text.gfxSemInit:0000000000000000 gfxSemInit
     /tmp/ccZjcVcD.s:259    .text.gfxSemDestroy:0000000000000000 $t
     /tmp/ccZjcVcD.s:265    .text.gfxSemDestroy:0000000000000000 gfxSemDestroy
     /tmp/ccZjcVcD.s:286    .text.gfxSemWait:0000000000000000 $t
     /tmp/ccZjcVcD.s:292    .text.gfxSemWait:0000000000000000 gfxSemWait
     /tmp/ccZjcVcD.s:341    .text.gfxSemSignal:0000000000000000 $t
     /tmp/ccZjcVcD.s:347    .text.gfxSemSignal:0000000000000000 gfxSemSignal
     /tmp/ccZjcVcD.s:386    .text.gfxSemSignalI:0000000000000000 $t
     /tmp/ccZjcVcD.s:392    .text.gfxSemSignalI:0000000000000000 gfxSemSignalI
     /tmp/ccZjcVcD.s:418    .text.gfxThreadCreate:0000000000000000 $t
     /tmp/ccZjcVcD.s:424    .text.gfxThreadCreate:0000000000000000 gfxThreadCreate
                     .debug_frame:0000000000000010 $d
     /tmp/ccZjcVcD.s:58     .text._gosInit:000000000000001c $t
     /tmp/ccZjcVcD.s:223    .text.gfxSleepMicroseconds:0000000000000024 $t

UNDEFINED SYMBOLS
halInit
chSysInit
rlist
chHeapAlloc
memcpy
__aeabi_uidiv
chThdYield
chThdSleep
chSemInit
chSemReset
chSemWaitTimeout
chSemWait
chSemSignalI
chSchRescheduleS
chThdCreateStatic
chThdCreateFromHeap
