ARM GAS  /tmp/cckNs5Ju.s 			page 1


   1              		.cpu cortex-m0
   2              		.fpu softvfp
   3              		.eabi_attribute 20, 1
   4              		.eabi_attribute 21, 1
   5              		.eabi_attribute 23, 3
   6              		.eabi_attribute 24, 1
   7              		.eabi_attribute 25, 1
   8              		.eabi_attribute 26, 1
   9              		.eabi_attribute 30, 2
  10              		.eabi_attribute 34, 0
  11              		.eabi_attribute 18, 4
  12              		.code	16
  13              		.file	"chmtx.c"
  14              		.text
  15              	.Ltext0:
  16              		.cfi_sections	.debug_frame
  17              		.section	.text.chMtxInit,"ax",%progbits
  18              		.align	2
  19              		.p2align 4,,15
  20              		.global	chMtxInit
  21              		.code	16
  22              		.thumb_func
  23              		.type	chMtxInit, %function
  24              	chMtxInit:
  25              	.LFB7:
  26              		.file 1 "/home/matt/arm_cortex/ChibiOS/os/kernel/src/chmtx.c"
  27              		.loc 1 86 0
  28              		.cfi_startproc
  29              	.LVL0:
  30              		.loc 1 91 0
  31 0000 0023     		mov	r3, #0
  32              		.loc 1 90 0
  33 0002 4060     		str	r0, [r0, #4]
  34 0004 0060     		str	r0, [r0]
  35              		.loc 1 91 0
  36 0006 8360     		str	r3, [r0, #8]
  37              		.loc 1 92 0
  38              		@ sp needed for prologue
  39 0008 7047     		bx	lr
  40              		.cfi_endproc
  41              	.LFE7:
  42              		.size	chMtxInit, .-chMtxInit
  43 000a C046C046 		.section	.text.chMtxLockS,"ax",%progbits
  43      C046
  44              		.align	2
  45              		.p2align 4,,15
  46              		.global	chMtxLockS
  47              		.code	16
  48              		.thumb_func
  49              		.type	chMtxLockS, %function
  50              	chMtxLockS:
  51              	.LFB9:
  52              		.loc 1 121 0
  53              		.cfi_startproc
  54              	.LVL1:
  55              		.loc 1 122 0
  56 0000 2F4B     		ldr	r3, .L28
ARM GAS  /tmp/cckNs5Ju.s 			page 2


  57              		.loc 1 121 0
  58 0002 70B5     		push	{r4, r5, r6, lr}
  59              	.LCFI0:
  60              		.cfi_def_cfa_offset 16
  61              		.cfi_offset 4, -16
  62              		.cfi_offset 5, -12
  63              		.cfi_offset 6, -8
  64              		.cfi_offset 14, -4
  65              		.loc 1 122 0
  66 0004 9C69     		ldr	r4, [r3, #24]
  67              	.LVL2:
  68              		.loc 1 128 0
  69 0006 8368     		ldr	r3, [r0, #8]
  70              		.loc 1 121 0
  71 0008 051C     		mov	r5, r0
  72              		.loc 1 128 0
  73 000a 002B     		cmp	r3, #0
  74 000c 51D0     		beq	.L3
  75              	.LVL3:
  76              	.LBB27:
  77              		.loc 1 135 0 discriminator 1
  78 000e A168     		ldr	r1, [r4, #8]
  79 0010 9A68     		ldr	r2, [r3, #8]
  80 0012 9142     		cmp	r1, r2
  81 0014 07D9     		bls	.L5
  82              	.LVL4:
  83              	.L21:
  84              		.loc 1 139 0
  85 0016 1E7F     		ldrb	r6, [r3, #28]
  86              		.loc 1 137 0
  87 0018 9960     		str	r1, [r3, #8]
  88              		.loc 1 139 0
  89 001a 042E     		cmp	r6, #4
  90 001c 31D0     		beq	.L7
  91 001e 052E     		cmp	r6, #5
  92 0020 1CD0     		beq	.L8
  93 0022 002E     		cmp	r6, #0
  94 0024 11D0     		beq	.L6
  95              	.LVL5:
  96              	.L5:
  97              		.file 2 "/home/matt/arm_cortex/ChibiOS/os/kernel/include/chinline.h"
  98              		.loc 2 43 0
  99 0026 2E1C     		mov	r6, r5
 100              	.LVL6:
 101              	.L19:
 102              	.LBB28:
 103              	.LBB29:
 104              		.loc 2 45 0
 105 0028 3668     		ldr	r6, [r6]
 106              	.LVL7:
 107              		.loc 2 46 0
 108 002a B542     		cmp	r5, r6
 109 002c 03D0     		beq	.L20
 110 002e B368     		ldr	r3, [r6, #8]
 111 0030 A268     		ldr	r2, [r4, #8]
 112 0032 9342     		cmp	r3, r2
 113 0034 F8D2     		bcs	.L19
ARM GAS  /tmp/cckNs5Ju.s 			page 3


 114              	.L20:
 115              		.loc 2 48 0
 116 0036 7168     		ldr	r1, [r6, #4]
 117              		.loc 2 47 0
 118 0038 2660     		str	r6, [r4]
 119              		.loc 2 48 0
 120 003a 6160     		str	r1, [r4, #4]
 121              		.loc 2 49 0
 122 003c 0C60     		str	r4, [r1]
 123 003e 7460     		str	r4, [r6, #4]
 124              	.LBE29:
 125              	.LBE28:
 126              		.loc 1 174 0
 127 0040 6562     		str	r5, [r4, #36]
 128              		.loc 1 175 0
 129 0042 0420     		mov	r0, #4
 130 0044 FFF7FEFF 		bl	chSchGoSleepS
 131              	.LVL8:
 132              	.L2:
 133              	.LBE27:
 134              		.loc 1 187 0
 135              		@ sp needed for prologue
 136              	.LVL9:
 137              	.LVL10:
 138 0048 70BD     		pop	{r4, r5, r6, pc}
 139              	.LVL11:
 140              	.L6:
 141              	.LBB44:
 142              	.LBB30:
 143              	.LBB31:
 144              		.loc 2 75 0
 145 004a 5A68     		ldr	r2, [r3, #4]
 146 004c 1968     		ldr	r1, [r3]
 147 004e 1160     		str	r1, [r2]
 148              		.loc 2 76 0
 149 0050 1868     		ldr	r0, [r3]
 150 0052 4260     		str	r2, [r0, #4]
 151              	.LBE31:
 152              	.LBE30:
 153              		.loc 1 167 0
 154 0054 181C     		mov	r0, r3
 155 0056 FFF7FEFF 		bl	chSchReadyI
 156              	.LVL12:
 157              		.loc 1 168 0
 158 005a E4E7     		b	.L5
 159              	.LVL13:
 160              	.L8:
 161              	.LBB32:
 162              	.LBB33:
 163              		.loc 2 75 0
 164 005c 5E68     		ldr	r6, [r3, #4]
 165 005e 1A68     		ldr	r2, [r3]
 166 0060 3260     		str	r2, [r6]
 167              		.loc 2 76 0
 168 0062 1868     		ldr	r0, [r3]
 169 0064 4660     		str	r6, [r0, #4]
 170              	.LBE33:
ARM GAS  /tmp/cckNs5Ju.s 			page 4


 171              	.LBE32:
 172              		.loc 1 158 0
 173 0066 586A     		ldr	r0, [r3, #36]
 174              	.LVL14:
 175              		.loc 2 43 0
 176 0068 021C     		mov	r2, r0
 177              	.LVL15:
 178              	.L15:
 179              	.LBB34:
 180              	.LBB35:
 181              		.loc 2 45 0
 182 006a 1268     		ldr	r2, [r2]
 183              	.LVL16:
 184              		.loc 2 46 0
 185 006c 9042     		cmp	r0, r2
 186 006e 02D0     		beq	.L16
 187 0070 9668     		ldr	r6, [r2, #8]
 188 0072 8E42     		cmp	r6, r1
 189 0074 F9D2     		bcs	.L15
 190              	.L16:
 191              		.loc 2 48 0
 192 0076 5168     		ldr	r1, [r2, #4]
 193              		.loc 2 47 0
 194 0078 1A60     		str	r2, [r3]
 195              		.loc 2 48 0
 196 007a 5960     		str	r1, [r3, #4]
 197              		.loc 2 49 0
 198 007c 0B60     		str	r3, [r1]
 199 007e 5360     		str	r3, [r2, #4]
 200 0080 D1E7     		b	.L5
 201              	.LVL17:
 202              	.L7:
 203              	.LBE35:
 204              	.LBE34:
 205              	.LBB36:
 206              	.LBB37:
 207              		.loc 2 75 0
 208 0082 5A68     		ldr	r2, [r3, #4]
 209 0084 1868     		ldr	r0, [r3]
 210 0086 1060     		str	r0, [r2]
 211              		.loc 2 76 0
 212 0088 1E68     		ldr	r6, [r3]
 213              	.LBE37:
 214              	.LBE36:
 215              		.loc 1 142 0
 216 008a 586A     		ldr	r0, [r3, #36]
 217              	.LVL18:
 218              	.LBB39:
 219              	.LBB38:
 220              		.loc 2 76 0
 221 008c 7260     		str	r2, [r6, #4]
 222              	.LBE38:
 223              	.LBE39:
 224              		.loc 1 142 0
 225 008e 021C     		mov	r2, r0
 226              	.LVL19:
 227              	.L12:
ARM GAS  /tmp/cckNs5Ju.s 			page 5


 228              	.LBB40:
 229              	.LBB41:
 230              		.loc 2 45 0
 231 0090 1268     		ldr	r2, [r2]
 232              	.LVL20:
 233              		.loc 2 46 0
 234 0092 9042     		cmp	r0, r2
 235 0094 12D0     		beq	.L27
 236 0096 9668     		ldr	r6, [r2, #8]
 237 0098 8E42     		cmp	r6, r1
 238 009a F9D2     		bcs	.L12
 239              	.LVL21:
 240              	.L13:
 241              		.loc 2 48 0
 242 009c 5168     		ldr	r1, [r2, #4]
 243              		.loc 2 47 0
 244 009e 1A60     		str	r2, [r3]
 245              		.loc 2 48 0
 246 00a0 5960     		str	r1, [r3, #4]
 247              		.loc 2 49 0
 248 00a2 0B60     		str	r3, [r1]
 249 00a4 5360     		str	r3, [r2, #4]
 250              	.LBE41:
 251              	.LBE40:
 252              		.loc 1 143 0
 253 00a6 8368     		ldr	r3, [r0, #8]
 254              	.LVL22:
 255              		.loc 1 135 0
 256 00a8 A168     		ldr	r1, [r4, #8]
 257 00aa 9868     		ldr	r0, [r3, #8]
 258              	.LVL23:
 259 00ac 8842     		cmp	r0, r1
 260 00ae B2D3     		bcc	.L21
 261 00b0 B9E7     		b	.L5
 262              	.LVL24:
 263              	.L3:
 264              	.LBE44:
 265              		.loc 1 183 0
 266 00b2 8460     		str	r4, [r0, #8]
 267              		.loc 1 184 0
 268 00b4 E06B     		ldr	r0, [r4, #60]
 269              	.LVL25:
 270 00b6 E860     		str	r0, [r5, #12]
 271              		.loc 1 185 0
 272 00b8 E563     		str	r5, [r4, #60]
 273 00ba C5E7     		b	.L2
 274              	.LVL26:
 275              	.L27:
 276              	.LBB45:
 277              	.LBB43:
 278              	.LBB42:
 279              		.loc 2 46 0
 280 00bc 021C     		mov	r2, r0
 281              	.LVL27:
 282 00be EDE7     		b	.L13
 283              	.L29:
 284              		.align	2
ARM GAS  /tmp/cckNs5Ju.s 			page 6


 285              	.L28:
 286 00c0 00000000 		.word	rlist
 287              	.LBE42:
 288              	.LBE43:
 289              	.LBE45:
 290              		.cfi_endproc
 291              	.LFE9:
 292              		.size	chMtxLockS, .-chMtxLockS
 293 00c4 C046C046 		.section	.text.chMtxLock,"ax",%progbits
 293      C046C046 
 293      C046C046 
 294              		.align	2
 295              		.p2align 4,,15
 296              		.global	chMtxLock
 297              		.code	16
 298              		.thumb_func
 299              		.type	chMtxLock, %function
 300              	chMtxLock:
 301              	.LFB8:
 302              		.loc 1 103 0
 303              		.cfi_startproc
 304              	.LVL28:
 305 0000 08B5     		push	{r3, lr}
 306              	.LCFI1:
 307              		.cfi_def_cfa_offset 8
 308              		.cfi_offset 3, -8
 309              		.cfi_offset 14, -4
 310              		.loc 1 105 0
 311              	@ 105 "/home/matt/arm_cortex/ChibiOS/os/kernel/src/chmtx.c" 1
 312 0002 72B6     		cpsid   i
 313              	@ 0 "" 2
 314              		.loc 1 107 0
 315              		.code	16
 316 0004 FFF7FEFF 		bl	chMtxLockS
 317              	.LVL29:
 318              		.loc 1 109 0
 319              	@ 109 "/home/matt/arm_cortex/ChibiOS/os/kernel/src/chmtx.c" 1
 320 0008 62B6     		cpsie   i
 321              	@ 0 "" 2
 322              		.loc 1 110 0
 323              		.code	16
 324              		@ sp needed for prologue
 325 000a 08BD     		pop	{r3, pc}
 326              		.cfi_endproc
 327              	.LFE8:
 328              		.size	chMtxLock, .-chMtxLock
 329 000c C046C046 		.section	.text.chMtxTryLock,"ax",%progbits
 330              		.align	2
 331              		.p2align 4,,15
 332              		.global	chMtxTryLock
 333              		.code	16
 334              		.thumb_func
 335              		.type	chMtxTryLock, %function
 336              	chMtxTryLock:
 337              	.LFB10:
 338              		.loc 1 206 0
 339              		.cfi_startproc
ARM GAS  /tmp/cckNs5Ju.s 			page 7


 340              	.LVL30:
 341              		.loc 1 206 0
 342 0000 031C     		mov	r3, r0
 343              		.loc 1 209 0
 344              	@ 209 "/home/matt/arm_cortex/ChibiOS/os/kernel/src/chmtx.c" 1
 345 0002 72B6     		cpsid   i
 346              	@ 0 "" 2
 347              	.LVL31:
 348              		.code	16
 349              	.LBB46:
 350              	.LBB47:
 351              		.loc 1 239 0
 352 0004 9968     		ldr	r1, [r3, #8]
 353              		.loc 1 240 0
 354 0006 0020     		mov	r0, #0
 355              	.LVL32:
 356              		.loc 1 239 0
 357 0008 0029     		cmp	r1, #0
 358 000a 01D0     		beq	.L34
 359              	.L32:
 360              	.LBE47:
 361              	.LBE46:
 362              		.loc 1 213 0
 363              	@ 213 "/home/matt/arm_cortex/ChibiOS/os/kernel/src/chmtx.c" 1
 364 000c 62B6     		cpsie   i
 365              	@ 0 "" 2
 366              		.loc 1 215 0
 367              		.code	16
 368              		@ sp needed for prologue
 369 000e 7047     		bx	lr
 370              	.L34:
 371              	.LBB49:
 372              	.LBB48:
 373              		.loc 1 241 0
 374 0010 034A     		ldr	r2, .L35
 375 0012 9069     		ldr	r0, [r2, #24]
 376              		.loc 1 242 0
 377 0014 C16B     		ldr	r1, [r0, #60]
 378              		.loc 1 241 0
 379 0016 9860     		str	r0, [r3, #8]
 380              		.loc 1 242 0
 381 0018 D960     		str	r1, [r3, #12]
 382              		.loc 1 243 0
 383 001a C363     		str	r3, [r0, #60]
 384              		.loc 1 244 0
 385 001c 0120     		mov	r0, #1
 386 001e F5E7     		b	.L32
 387              	.L36:
 388              		.align	2
 389              	.L35:
 390 0020 00000000 		.word	rlist
 391              	.LBE48:
 392              	.LBE49:
 393              		.cfi_endproc
 394              	.LFE10:
 395              		.size	chMtxTryLock, .-chMtxTryLock
 396 0024 C046C046 		.section	.text.chMtxTryLockS,"ax",%progbits
ARM GAS  /tmp/cckNs5Ju.s 			page 8


 396      C046C046 
 396      C046C046 
 397              		.align	2
 398              		.p2align 4,,15
 399              		.global	chMtxTryLockS
 400              		.code	16
 401              		.thumb_func
 402              		.type	chMtxTryLockS, %function
 403              	chMtxTryLockS:
 404              	.LFB11:
 405              		.loc 1 234 0
 406              		.cfi_startproc
 407              	.LVL33:
 408              		.loc 1 234 0
 409 0000 031C     		mov	r3, r0
 410              		.loc 1 239 0
 411 0002 9968     		ldr	r1, [r3, #8]
 412              		.loc 1 240 0
 413 0004 0020     		mov	r0, #0
 414              	.LVL34:
 415              		.loc 1 239 0
 416 0006 0029     		cmp	r1, #0
 417 0008 00D0     		beq	.L40
 418              	.L38:
 419              		.loc 1 245 0
 420              		@ sp needed for prologue
 421 000a 7047     		bx	lr
 422              	.L40:
 423              		.loc 1 241 0
 424 000c 034A     		ldr	r2, .L41
 425 000e 9069     		ldr	r0, [r2, #24]
 426              		.loc 1 242 0
 427 0010 C16B     		ldr	r1, [r0, #60]
 428              		.loc 1 241 0
 429 0012 9860     		str	r0, [r3, #8]
 430              		.loc 1 242 0
 431 0014 D960     		str	r1, [r3, #12]
 432              		.loc 1 243 0
 433 0016 C363     		str	r3, [r0, #60]
 434              		.loc 1 244 0
 435 0018 0120     		mov	r0, #1
 436 001a F6E7     		b	.L38
 437              	.L42:
 438              		.align	2
 439              	.L41:
 440 001c 00000000 		.word	rlist
 441              		.cfi_endproc
 442              	.LFE11:
 443              		.size	chMtxTryLockS, .-chMtxTryLockS
 444              		.section	.text.chMtxUnlock,"ax",%progbits
 445              		.align	2
 446              		.p2align 4,,15
 447              		.global	chMtxUnlock
 448              		.code	16
 449              		.thumb_func
 450              		.type	chMtxUnlock, %function
 451              	chMtxUnlock:
ARM GAS  /tmp/cckNs5Ju.s 			page 9


 452              	.LFB12:
 453              		.loc 1 257 0
 454              		.cfi_startproc
 455 0000 38B5     		push	{r3, r4, r5, lr}
 456              	.LCFI2:
 457              		.cfi_def_cfa_offset 16
 458              		.cfi_offset 3, -16
 459              		.cfi_offset 4, -12
 460              		.cfi_offset 5, -8
 461              		.cfi_offset 14, -4
 462              		.loc 1 258 0
 463 0002 134B     		ldr	r3, .L55
 464 0004 9D69     		ldr	r5, [r3, #24]
 465              	.LVL35:
 466              		.loc 1 261 0
 467              	@ 261 "/home/matt/arm_cortex/ChibiOS/os/kernel/src/chmtx.c" 1
 468 0006 72B6     		cpsid   i
 469              	@ 0 "" 2
 470              		.loc 1 270 0
 471              		.code	16
 472 0008 EC6B     		ldr	r4, [r5, #60]
 473              	.LVL36:
 474              		.loc 1 271 0
 475 000a E368     		ldr	r3, [r4, #12]
 476              		.loc 1 273 0
 477 000c 2068     		ldr	r0, [r4]
 478              		.loc 1 271 0
 479 000e EB63     		str	r3, [r5, #60]
 480              		.loc 1 273 0
 481 0010 A042     		cmp	r0, r4
 482 0012 1AD0     		beq	.L44
 483              	.LBB50:
 484              		.loc 1 278 0
 485 0014 296C     		ldr	r1, [r5, #64]
 486              	.LVL37:
 487              		.loc 1 280 0
 488 0016 002B     		cmp	r3, #0
 489 0018 09D0     		beq	.L45
 490              	.L52:
 491              		.loc 1 284 0
 492 001a 1A68     		ldr	r2, [r3]
 493 001c 9A42     		cmp	r2, r3
 494 001e 03D0     		beq	.L46
 495              		.loc 1 284 0 is_stmt 0 discriminator 1
 496 0020 9268     		ldr	r2, [r2, #8]
 497 0022 9142     		cmp	r1, r2
 498 0024 00D2     		bcs	.L46
 499 0026 111C     		mov	r1, r2
 500              	.LVL38:
 501              	.L46:
 502              		.loc 1 286 0 is_stmt 1
 503 0028 DB68     		ldr	r3, [r3, #12]
 504              	.LVL39:
 505              		.loc 1 280 0
 506 002a 002B     		cmp	r3, #0
 507 002c F5D1     		bne	.L52
 508              	.L45:
ARM GAS  /tmp/cckNs5Ju.s 			page 10


 509              		.loc 1 290 0
 510 002e A960     		str	r1, [r5, #8]
 511              	.LVL40:
 512              		.loc 1 295 0
 513 0030 C26B     		ldr	r2, [r0, #60]
 514              	.LBB51:
 515              	.LBB52:
 516              		.loc 2 62 0
 517 0032 0568     		ldr	r5, [r0]
 518              	.LVL41:
 519              	.LBE52:
 520              	.LBE51:
 521              		.loc 1 297 0
 522 0034 0021     		mov	r1, #0
 523              	.LVL42:
 524              	.LBB54:
 525              	.LBB53:
 526              		.loc 2 62 0
 527 0036 2560     		str	r5, [r4]
 528 0038 6C60     		str	r4, [r5, #4]
 529              	.LBE53:
 530              	.LBE54:
 531              		.loc 1 294 0
 532 003a A060     		str	r0, [r4, #8]
 533              		.loc 1 295 0
 534 003c E260     		str	r2, [r4, #12]
 535              		.loc 1 296 0
 536 003e C463     		str	r4, [r0, #60]
 537              		.loc 1 297 0
 538 0040 FFF7FEFF 		bl	chSchWakeupS
 539              	.LVL43:
 540              	.L49:
 541              	.LBE50:
 542              		.loc 1 301 0
 543              	@ 301 "/home/matt/arm_cortex/ChibiOS/os/kernel/src/chmtx.c" 1
 544 0044 62B6     		cpsie   i
 545              	@ 0 "" 2
 546              		.loc 1 303 0
 547              		.code	16
 548 0046 201C     		mov	r0, r4
 549              		@ sp needed for prologue
 550              	.LVL44:
 551 0048 38BD     		pop	{r3, r4, r5, pc}
 552              	.LVL45:
 553              	.L44:
 554              		.loc 1 300 0
 555 004a 0020     		mov	r0, #0
 556 004c A060     		str	r0, [r4, #8]
 557 004e F9E7     		b	.L49
 558              	.L56:
 559              		.align	2
 560              	.L55:
 561 0050 00000000 		.word	rlist
 562              		.cfi_endproc
 563              	.LFE12:
 564              		.size	chMtxUnlock, .-chMtxUnlock
 565 0054 C046C046 		.section	.text.chMtxUnlockS,"ax",%progbits
ARM GAS  /tmp/cckNs5Ju.s 			page 11


 565      C046C046 
 565      C046C046 
 566              		.align	2
 567              		.p2align 4,,15
 568              		.global	chMtxUnlockS
 569              		.code	16
 570              		.thumb_func
 571              		.type	chMtxUnlockS, %function
 572              	chMtxUnlockS:
 573              	.LFB13:
 574              		.loc 1 317 0
 575              		.cfi_startproc
 576 0000 38B5     		push	{r3, r4, r5, lr}
 577              	.LCFI3:
 578              		.cfi_def_cfa_offset 16
 579              		.cfi_offset 3, -16
 580              		.cfi_offset 4, -12
 581              		.cfi_offset 5, -8
 582              		.cfi_offset 14, -4
 583              		.loc 1 318 0
 584 0002 124B     		ldr	r3, .L69
 585 0004 9D69     		ldr	r5, [r3, #24]
 586              	.LVL46:
 587              		.loc 1 331 0
 588 0006 EC6B     		ldr	r4, [r5, #60]
 589              	.LVL47:
 590              		.loc 1 332 0
 591 0008 E368     		ldr	r3, [r4, #12]
 592              		.loc 1 334 0
 593 000a 2068     		ldr	r0, [r4]
 594              		.loc 1 332 0
 595 000c EB63     		str	r3, [r5, #60]
 596              		.loc 1 334 0
 597 000e A042     		cmp	r0, r4
 598 0010 18D0     		beq	.L58
 599              	.LBB55:
 600              		.loc 1 339 0
 601 0012 296C     		ldr	r1, [r5, #64]
 602              	.LVL48:
 603              		.loc 1 341 0
 604 0014 002B     		cmp	r3, #0
 605 0016 09D0     		beq	.L59
 606              	.L66:
 607              		.loc 1 345 0
 608 0018 1A68     		ldr	r2, [r3]
 609 001a 9A42     		cmp	r2, r3
 610 001c 03D0     		beq	.L60
 611              		.loc 1 345 0 is_stmt 0 discriminator 1
 612 001e 9268     		ldr	r2, [r2, #8]
 613 0020 9142     		cmp	r1, r2
 614 0022 00D2     		bcs	.L60
 615 0024 111C     		mov	r1, r2
 616              	.LVL49:
 617              	.L60:
 618              		.loc 1 347 0 is_stmt 1
 619 0026 DB68     		ldr	r3, [r3, #12]
 620              	.LVL50:
ARM GAS  /tmp/cckNs5Ju.s 			page 12


 621              		.loc 1 341 0
 622 0028 002B     		cmp	r3, #0
 623 002a F5D1     		bne	.L66
 624              	.L59:
 625              		.loc 1 349 0
 626 002c A960     		str	r1, [r5, #8]
 627              	.LVL51:
 628              		.loc 1 354 0
 629 002e C26B     		ldr	r2, [r0, #60]
 630              	.LBB56:
 631              	.LBB57:
 632              		.loc 2 62 0
 633 0030 0568     		ldr	r5, [r0]
 634              	.LVL52:
 635 0032 2560     		str	r5, [r4]
 636 0034 6C60     		str	r4, [r5, #4]
 637              	.LBE57:
 638              	.LBE56:
 639              		.loc 1 353 0
 640 0036 A060     		str	r0, [r4, #8]
 641              		.loc 1 354 0
 642 0038 E260     		str	r2, [r4, #12]
 643              		.loc 1 355 0
 644 003a C463     		str	r4, [r0, #60]
 645              		.loc 1 356 0
 646 003c FFF7FEFF 		bl	chSchReadyI
 647              	.LVL53:
 648              	.L63:
 649              	.LBE55:
 650              		.loc 1 361 0
 651 0040 201C     		mov	r0, r4
 652              		@ sp needed for prologue
 653              	.LVL54:
 654 0042 38BD     		pop	{r3, r4, r5, pc}
 655              	.LVL55:
 656              	.L58:
 657              		.loc 1 359 0
 658 0044 0020     		mov	r0, #0
 659 0046 A060     		str	r0, [r4, #8]
 660 0048 FAE7     		b	.L63
 661              	.L70:
 662 004a C046     		.align	2
 663              	.L69:
 664 004c 00000000 		.word	rlist
 665              		.cfi_endproc
 666              	.LFE13:
 667              		.size	chMtxUnlockS, .-chMtxUnlockS
 668              		.section	.text.chMtxUnlockAll,"ax",%progbits
 669              		.align	2
 670              		.p2align 4,,15
 671              		.global	chMtxUnlockAll
 672              		.code	16
 673              		.thumb_func
 674              		.type	chMtxUnlockAll, %function
 675              	chMtxUnlockAll:
 676              	.LFB14:
 677              		.loc 1 374 0
ARM GAS  /tmp/cckNs5Ju.s 			page 13


 678              		.cfi_startproc
 679 0000 38B5     		push	{r3, r4, r5, lr}
 680              	.LCFI4:
 681              		.cfi_def_cfa_offset 16
 682              		.cfi_offset 3, -16
 683              		.cfi_offset 4, -12
 684              		.cfi_offset 5, -8
 685              		.cfi_offset 14, -4
 686              		.loc 1 375 0
 687 0002 114B     		ldr	r3, .L83
 688 0004 9C69     		ldr	r4, [r3, #24]
 689              	.LVL56:
 690              		.loc 1 377 0
 691              	@ 377 "/home/matt/arm_cortex/ChibiOS/os/kernel/src/chmtx.c" 1
 692 0006 72B6     		cpsid   i
 693              	@ 0 "" 2
 694              		.loc 1 378 0
 695              		.code	16
 696 0008 E36B     		ldr	r3, [r4, #60]
 697 000a 002B     		cmp	r3, #0
 698 000c 1AD0     		beq	.L72
 699              	.LBB58:
 700              		.loc 1 390 0
 701 000e 0025     		mov	r5, #0
 702 0010 0BE0     		b	.L78
 703              	.LVL57:
 704              	.L82:
 705              	.LBB59:
 706              	.LBB60:
 707              	.LBB61:
 708              		.loc 2 62 0
 709 0012 0168     		ldr	r1, [r0]
 710              	.LBE61:
 711              	.LBE60:
 712              		.loc 1 385 0
 713 0014 C26B     		ldr	r2, [r0, #60]
 714              	.LBB63:
 715              	.LBB62:
 716              		.loc 2 62 0
 717 0016 1960     		str	r1, [r3]
 718 0018 4B60     		str	r3, [r1, #4]
 719              	.LBE62:
 720              	.LBE63:
 721              		.loc 1 384 0
 722 001a 9860     		str	r0, [r3, #8]
 723              		.loc 1 385 0
 724 001c DA60     		str	r2, [r3, #12]
 725              		.loc 1 386 0
 726 001e C363     		str	r3, [r0, #60]
 727              		.loc 1 387 0
 728 0020 FFF7FEFF 		bl	chSchReadyI
 729              	.LVL58:
 730              	.LBE59:
 731              	.LBE58:
 732              		.loc 1 391 0
 733 0024 E36B     		ldr	r3, [r4, #60]
 734 0026 002B     		cmp	r3, #0
ARM GAS  /tmp/cckNs5Ju.s 			page 14


 735 0028 08D0     		beq	.L81
 736              	.L78:
 737              	.LVL59:
 738              	.LBB64:
 739              		.loc 1 381 0
 740 002a DA68     		ldr	r2, [r3, #12]
 741              		.loc 1 382 0
 742 002c 1868     		ldr	r0, [r3]
 743              		.loc 1 381 0
 744 002e E263     		str	r2, [r4, #60]
 745              		.loc 1 382 0
 746 0030 9842     		cmp	r0, r3
 747 0032 EED1     		bne	.L82
 748              		.loc 1 390 0
 749 0034 9D60     		str	r5, [r3, #8]
 750              	.LBE64:
 751              		.loc 1 391 0
 752 0036 E36B     		ldr	r3, [r4, #60]
 753              	.LVL60:
 754 0038 002B     		cmp	r3, #0
 755 003a F6D1     		bne	.L78
 756              	.L81:
 757              		.loc 1 392 0
 758 003c 206C     		ldr	r0, [r4, #64]
 759 003e A060     		str	r0, [r4, #8]
 760              		.loc 1 393 0
 761 0040 FFF7FEFF 		bl	chSchRescheduleS
 762              	.LVL61:
 763              	.L72:
 764              		.loc 1 395 0
 765              	@ 395 "/home/matt/arm_cortex/ChibiOS/os/kernel/src/chmtx.c" 1
 766 0044 62B6     		cpsie   i
 767              	@ 0 "" 2
 768              		.loc 1 396 0
 769              		.code	16
 770              		@ sp needed for prologue
 771              	.LVL62:
 772 0046 38BD     		pop	{r3, r4, r5, pc}
 773              	.L84:
 774              		.align	2
 775              	.L83:
 776 0048 00000000 		.word	rlist
 777              		.cfi_endproc
 778              	.LFE14:
 779              		.size	chMtxUnlockAll, .-chMtxUnlockAll
 780 004c C046C046 		.text
 781              	.Letext0:
 782              		.file 3 "/home/matt/arm_cortex/gcc-arm-none-eabi/bin/../lib/gcc/arm-none-eabi/4.7.4/../../../../ar
 783              		.file 4 "/home/matt/arm_cortex/ChibiOS/os/ports/GCC/ARMCMx/chtypes.h"
 784              		.file 5 "/home/matt/arm_cortex/ChibiOS/os/kernel/include/chlists.h"
 785              		.file 6 "/home/matt/arm_cortex/ChibiOS/os/kernel/include/chthreads.h"
 786              		.file 7 "/home/matt/arm_cortex/ChibiOS/os/ports/GCC/ARMCMx/chcore_v6m.h"
 787              		.file 8 "/home/matt/arm_cortex/ChibiOS/os/kernel/include/chschd.h"
 788              		.file 9 "/home/matt/arm_cortex/ChibiOS/os/kernel/include/chmtx.h"