ARM GAS  /tmp/ccTkhTBY.s 			page 1


   1              		.cpu cortex-m0
   2              		.fpu softvfp
   3              		.eabi_attribute 20, 1
   4              		.eabi_attribute 21, 1
   5              		.eabi_attribute 23, 3
   6              		.eabi_attribute 24, 1
   7              		.eabi_attribute 25, 1
   8              		.eabi_attribute 26, 1
   9              		.eabi_attribute 30, 2
  10              		.eabi_attribute 34, 0
  11              		.eabi_attribute 18, 4
  12              		.code	16
  13              		.file	"chschd.c"
  14              		.text
  15              	.Ltext0:
  16              		.cfi_sections	.debug_frame
  17              		.section	.text.wakeup,"ax",%progbits
  18              		.align	2
  19              		.p2align 4,,15
  20              		.code	16
  21              		.thumb_func
  22              		.type	wakeup, %function
  23              	wakeup:
  24              	.LFB10:
  25              		.file 1 "/home/matt/arm_cortex/ChibiOS/os/kernel/src/chschd.c"
  26              		.loc 1 136 0
  27              		.cfi_startproc
  28              	.LVL0:
  29              		.loc 1 139 0
  30              	@ 139 "/home/matt/arm_cortex/ChibiOS/os/kernel/src/chschd.c" 1
  31 0000 72B6     		cpsid   i
  32              	@ 0 "" 2
  33              		.loc 1 140 0
  34              		.code	16
  35 0002 037F     		ldrb	r3, [r0, #28]
  36 0004 032B     		cmp	r3, #3
  37 0006 19D0     		beq	.L4
  38 0008 15D9     		bls	.L18
  39 000a 052B     		cmp	r3, #5
  40 000c 1AD0     		beq	.L5
  41 000e 0D2B     		cmp	r3, #13
  42 0010 18D0     		beq	.L5
  43              	.L2:
  44              		.loc 1 163 0
  45 0012 0123     		mov	r3, #1
  46              	.LBB19:
  47              	.LBB20:
  48              		.loc 1 92 0
  49 0014 0022     		mov	r2, #0
  50              	.LBE20:
  51              	.LBE19:
  52              		.loc 1 163 0
  53 0016 5942     		neg	r1, r3
  54              	.LBB23:
  55              	.LBB21:
  56              		.loc 1 92 0
  57 0018 0277     		strb	r2, [r0, #28]
ARM GAS  /tmp/ccTkhTBY.s 			page 2


  58              		.loc 1 93 0
  59 001a 0D4B     		ldr	r3, .L19
  60 001c 8268     		ldr	r2, [r0, #8]
  61              	.LBE21:
  62              	.LBE23:
  63              		.loc 1 163 0
  64 001e 4162     		str	r1, [r0, #36]
  65              	.LVL1:
  66              	.L8:
  67              	.LBB24:
  68              	.LBB22:
  69              		.loc 1 95 0
  70 0020 1B68     		ldr	r3, [r3]
  71              	.LVL2:
  72              		.loc 1 96 0
  73 0022 9968     		ldr	r1, [r3, #8]
  74 0024 9142     		cmp	r1, r2
  75 0026 FBD2     		bcs	.L8
  76              		.loc 1 99 0
  77 0028 5A68     		ldr	r2, [r3, #4]
  78              		.loc 1 98 0
  79 002a 0360     		str	r3, [r0]
  80              		.loc 1 99 0
  81 002c 4260     		str	r2, [r0, #4]
  82              		.loc 1 100 0
  83 002e 1060     		str	r0, [r2]
  84 0030 5860     		str	r0, [r3, #4]
  85              	.LVL3:
  86              	.L16:
  87              	.LBE22:
  88              	.LBE24:
  89              		.loc 1 165 0
  90              	@ 165 "/home/matt/arm_cortex/ChibiOS/os/kernel/src/chschd.c" 1
  91 0032 62B6     		cpsie   i
  92              	@ 0 "" 2
  93              		.loc 1 166 0
  94              		.code	16
  95              		@ sp needed for prologue
  96 0034 7047     		bx	lr
  97              	.L18:
  98              		.loc 1 140 0
  99 0036 002B     		cmp	r3, #0
 100 0038 FBD0     		beq	.L16
 101 003a EAE7     		b	.L2
 102              	.L4:
 103              		.loc 1 150 0
 104 003c 416A     		ldr	r1, [r0, #36]
 105 003e 8A68     		ldr	r2, [r1, #8]
 106 0040 0132     		add	r2, r2, #1
 107 0042 8A60     		str	r2, [r1, #8]
 108              	.L5:
 109              	.LVL4:
 110              	.LBB25:
 111              	.LBB26:
 112              		.file 2 "/home/matt/arm_cortex/ChibiOS/os/kernel/include/chinline.h"
 113              		.loc 2 75 0
 114 0044 4368     		ldr	r3, [r0, #4]
ARM GAS  /tmp/ccTkhTBY.s 			page 3


 115 0046 0168     		ldr	r1, [r0]
 116 0048 1960     		str	r1, [r3]
 117              		.loc 2 76 0
 118 004a 0268     		ldr	r2, [r0]
 119 004c 5360     		str	r3, [r2, #4]
 120 004e E0E7     		b	.L2
 121              	.L20:
 122              		.align	2
 123              	.L19:
 124 0050 00000000 		.word	.LANCHOR0
 125              	.LBE26:
 126              	.LBE25:
 127              		.cfi_endproc
 128              	.LFE10:
 129              		.size	wakeup, .-wakeup
 130 0054 C046C046 		.section	.text._scheduler_init,"ax",%progbits
 130      C046C046 
 130      C046C046 
 131              		.align	2
 132              		.p2align 4,,15
 133              		.global	_scheduler_init
 134              		.code	16
 135              		.thumb_func
 136              		.type	_scheduler_init, %function
 137              	_scheduler_init:
 138              	.LFB7:
 139              		.loc 1 55 0
 140              		.cfi_startproc
 141              		.loc 1 57 0
 142 0000 034B     		ldr	r3, .L22
 143              		.loc 1 58 0
 144 0002 0022     		mov	r2, #0
 145              		.loc 1 57 0
 146 0004 5B60     		str	r3, [r3, #4]
 147 0006 1B60     		str	r3, [r3]
 148              		.loc 1 58 0
 149 0008 9A60     		str	r2, [r3, #8]
 150              		.loc 1 60 0
 151 000a 5B61     		str	r3, [r3, #20]
 152 000c 1B61     		str	r3, [r3, #16]
 153              		.loc 1 62 0
 154              		@ sp needed for prologue
 155 000e 7047     		bx	lr
 156              	.L23:
 157              		.align	2
 158              	.L22:
 159 0010 00000000 		.word	.LANCHOR0
 160              		.cfi_endproc
 161              	.LFE7:
 162              		.size	_scheduler_init, .-_scheduler_init
 163 0014 C046C046 		.section	.text.chSchReadyI,"ax",%progbits
 163      C046C046 
 163      C046C046 
 164              		.align	2
 165              		.p2align 4,,15
 166              		.global	chSchReadyI
 167              		.code	16
ARM GAS  /tmp/ccTkhTBY.s 			page 4


 168              		.thumb_func
 169              		.type	chSchReadyI, %function
 170              	chSchReadyI:
 171              	.LFB8:
 172              		.loc 1 81 0
 173              		.cfi_startproc
 174              	.LVL5:
 175              		.loc 1 92 0
 176 0000 0023     		mov	r3, #0
 177 0002 0377     		strb	r3, [r0, #28]
 178              	.LVL6:
 179 0004 8268     		ldr	r2, [r0, #8]
 180              		.loc 1 93 0
 181 0006 054B     		ldr	r3, .L27
 182              	.LVL7:
 183              	.L25:
 184              		.loc 1 95 0 discriminator 1
 185 0008 1B68     		ldr	r3, [r3]
 186              	.LVL8:
 187              		.loc 1 96 0 discriminator 1
 188 000a 9968     		ldr	r1, [r3, #8]
 189 000c 9142     		cmp	r1, r2
 190 000e FBD2     		bcs	.L25
 191              		.loc 1 99 0
 192 0010 5A68     		ldr	r2, [r3, #4]
 193              		.loc 1 98 0
 194 0012 0360     		str	r3, [r0]
 195              		.loc 1 99 0
 196 0014 4260     		str	r2, [r0, #4]
 197              		.loc 1 100 0
 198 0016 1060     		str	r0, [r2]
 199 0018 5860     		str	r0, [r3, #4]
 200              		.loc 1 102 0
 201              		@ sp needed for prologue
 202 001a 7047     		bx	lr
 203              	.L28:
 204              		.align	2
 205              	.L27:
 206 001c 00000000 		.word	.LANCHOR0
 207              		.cfi_endproc
 208              	.LFE8:
 209              		.size	chSchReadyI, .-chSchReadyI
 210              		.section	.text.chSchGoSleepS,"ax",%progbits
 211              		.align	2
 212              		.p2align 4,,15
 213              		.global	chSchGoSleepS
 214              		.code	16
 215              		.thumb_func
 216              		.type	chSchGoSleepS, %function
 217              	chSchGoSleepS:
 218              	.LFB9:
 219              		.loc 1 115 0
 220              		.cfi_startproc
 221              	.LVL9:
 222 0000 08B5     		push	{r3, lr}
 223              	.LCFI0:
 224              		.cfi_def_cfa_offset 8
ARM GAS  /tmp/ccTkhTBY.s 			page 5


 225              		.cfi_offset 3, -8
 226              		.cfi_offset 14, -4
 227              		.loc 1 120 0
 228 0002 074B     		ldr	r3, .L30
 229              		.loc 1 124 0
 230 0004 1422     		mov	r2, #20
 231              		.loc 1 120 0
 232 0006 9969     		ldr	r1, [r3, #24]
 233              	.LVL10:
 234              		.loc 1 129 0
 235              		@ sp needed for prologue
 236              		.loc 1 120 0
 237 0008 0877     		strb	r0, [r1, #28]
 238              	.LBB27:
 239              	.LBB28:
 240              		.loc 2 60 0
 241 000a 1868     		ldr	r0, [r3]
 242              	.LVL11:
 243              	.LBE28:
 244              	.LBE27:
 245              		.loc 1 124 0
 246 000c CA77     		strb	r2, [r1, #31]
 247              	.LVL12:
 248              	.LBB30:
 249              	.LBB29:
 250              		.loc 2 62 0
 251 000e 0268     		ldr	r2, [r0]
 252 0010 5360     		str	r3, [r2, #4]
 253 0012 1A60     		str	r2, [r3]
 254              	.LBE29:
 255              	.LBE30:
 256              		.loc 1 126 0
 257 0014 9861     		str	r0, [r3, #24]
 258              		.loc 1 127 0
 259 0016 0123     		mov	r3, #1
 260 0018 0377     		strb	r3, [r0, #28]
 261              		.loc 1 128 0
 262 001a FFF7FEFF 		bl	_port_switch
 263              	.LVL13:
 264              		.loc 1 129 0
 265 001e 08BD     		pop	{r3, pc}
 266              	.L31:
 267              		.align	2
 268              	.L30:
 269 0020 00000000 		.word	.LANCHOR0
 270              		.cfi_endproc
 271              	.LFE9:
 272              		.size	chSchGoSleepS, .-chSchGoSleepS
 273 0024 C046C046 		.section	.text.chSchGoSleepTimeoutS,"ax",%progbits
 273      C046C046 
 273      C046C046 
 274              		.align	2
 275              		.p2align 4,,15
 276              		.global	chSchGoSleepTimeoutS
 277              		.code	16
 278              		.thumb_func
 279              		.type	chSchGoSleepTimeoutS, %function
ARM GAS  /tmp/ccTkhTBY.s 			page 6


 280              	chSchGoSleepTimeoutS:
 281              	.LFB11:
 282              		.loc 1 189 0
 283              		.cfi_startproc
 284              	.LVL14:
 285 0000 30B5     		push	{r4, r5, lr}
 286              	.LCFI1:
 287              		.cfi_def_cfa_offset 12
 288              		.cfi_offset 4, -12
 289              		.cfi_offset 5, -8
 290              		.cfi_offset 14, -4
 291 0002 051C     		mov	r5, r0
 292 0004 87B0     		sub	sp, sp, #28
 293              	.LCFI2:
 294              		.cfi_def_cfa_offset 40
 295              		.loc 1 193 0
 296 0006 4B1C     		add	r3, r1, #1
 297 0008 12D0     		beq	.L33
 298              	.LBB31:
 299              		.loc 1 196 0
 300 000a 0B4C     		ldr	r4, .L39
 301 000c 01A8     		add	r0, sp, #4
 302              	.LVL15:
 303 000e A369     		ldr	r3, [r4, #24]
 304 0010 0A4A     		ldr	r2, .L39+4
 305 0012 FFF7FEFF 		bl	chVTSetI
 306              	.LVL16:
 307              		.loc 1 197 0
 308 0016 281C     		mov	r0, r5
 309 0018 FFF7FEFF 		bl	chSchGoSleepS
 310              	.LVL17:
 311              		.loc 1 198 0
 312 001c 049B     		ldr	r3, [sp, #16]
 313 001e 002B     		cmp	r3, #0
 314 0020 02D0     		beq	.L35
 315              		.loc 1 199 0
 316 0022 01A8     		add	r0, sp, #4
 317 0024 FFF7FEFF 		bl	chVTResetI
 318              	.LVL18:
 319              	.L35:
 320              	.LBE31:
 321              		.loc 1 203 0
 322 0028 A069     		ldr	r0, [r4, #24]
 323 002a 406A     		ldr	r0, [r0, #36]
 324              		.loc 1 204 0
 325 002c 07B0     		add	sp, sp, #28
 326              		@ sp needed for prologue
 327 002e 30BD     		pop	{r4, r5, pc}
 328              	.LVL19:
 329              	.L33:
 330              		.loc 1 202 0
 331 0030 FFF7FEFF 		bl	chSchGoSleepS
 332              	.LVL20:
 333 0034 004C     		ldr	r4, .L39
 334 0036 F7E7     		b	.L35
 335              	.L40:
 336              		.align	2
ARM GAS  /tmp/ccTkhTBY.s 			page 7


 337              	.L39:
 338 0038 00000000 		.word	.LANCHOR0
 339 003c 00000000 		.word	wakeup
 340              		.cfi_endproc
 341              	.LFE11:
 342              		.size	chSchGoSleepTimeoutS, .-chSchGoSleepTimeoutS
 343              		.section	.text.chSchWakeupS,"ax",%progbits
 344              		.align	2
 345              		.p2align 4,,15
 346              		.global	chSchWakeupS
 347              		.code	16
 348              		.thumb_func
 349              		.type	chSchWakeupS, %function
 350              	chSchWakeupS:
 351              	.LFB12:
 352              		.loc 1 225 0
 353              		.cfi_startproc
 354              	.LVL21:
 355 0000 38B5     		push	{r3, r4, r5, lr}
 356              	.LCFI3:
 357              		.cfi_def_cfa_offset 16
 358              		.cfi_offset 3, -16
 359              		.cfi_offset 4, -12
 360              		.cfi_offset 5, -8
 361              		.cfi_offset 14, -4
 362              		.loc 1 234 0
 363 0002 124D     		ldr	r5, .L48
 364              		.loc 1 229 0
 365 0004 4162     		str	r1, [r0, #36]
 366              		.loc 1 234 0
 367 0006 A969     		ldr	r1, [r5, #24]
 368              	.LVL22:
 369 0008 8468     		ldr	r4, [r0, #8]
 370 000a 8A68     		ldr	r2, [r1, #8]
 371              	.LBB32:
 372              	.LBB33:
 373              		.loc 1 92 0
 374 000c 0023     		mov	r3, #0
 375              	.LBE33:
 376              	.LBE32:
 377              		.loc 1 234 0
 378 000e 9442     		cmp	r4, r2
 379 0010 0BD8     		bhi	.L42
 380              	.LVL23:
 381              	.LBB35:
 382              	.LBB34:
 383              		.loc 1 92 0
 384 0012 0377     		strb	r3, [r0, #28]
 385              	.LVL24:
 386              		.loc 1 93 0
 387 0014 291C     		mov	r1, r5
 388              	.LVL25:
 389              	.L43:
 390              		.loc 1 95 0
 391 0016 0968     		ldr	r1, [r1]
 392              	.LVL26:
 393              		.loc 1 96 0
ARM GAS  /tmp/ccTkhTBY.s 			page 8


 394 0018 8B68     		ldr	r3, [r1, #8]
 395 001a 9C42     		cmp	r4, r3
 396 001c FBD9     		bls	.L43
 397              		.loc 1 99 0
 398 001e 4C68     		ldr	r4, [r1, #4]
 399              		.loc 1 98 0
 400 0020 0160     		str	r1, [r0]
 401              		.loc 1 99 0
 402 0022 4460     		str	r4, [r0, #4]
 403              		.loc 1 100 0
 404 0024 2060     		str	r0, [r4]
 405 0026 4860     		str	r0, [r1, #4]
 406              	.LVL27:
 407              	.L41:
 408              	.LBE34:
 409              	.LBE35:
 410              		.loc 1 242 0
 411              		@ sp needed for prologue
 412 0028 38BD     		pop	{r3, r4, r5, pc}
 413              	.LVL28:
 414              	.L42:
 415              	.LBB36:
 416              	.LBB37:
 417              	.LBB38:
 418              		.loc 1 92 0
 419 002a 0B77     		strb	r3, [r1, #28]
 420              	.LVL29:
 421              		.loc 1 93 0
 422 002c 2B1C     		mov	r3, r5
 423              	.LVL30:
 424              	.L45:
 425              		.loc 1 95 0
 426 002e 1B68     		ldr	r3, [r3]
 427              	.LVL31:
 428              		.loc 1 96 0
 429 0030 9C68     		ldr	r4, [r3, #8]
 430 0032 A242     		cmp	r2, r4
 431 0034 FBD9     		bls	.L45
 432              		.loc 1 99 0
 433 0036 5A68     		ldr	r2, [r3, #4]
 434              		.loc 1 98 0
 435 0038 0B60     		str	r3, [r1]
 436              		.loc 1 99 0
 437 003a 4A60     		str	r2, [r1, #4]
 438              		.loc 1 100 0
 439 003c 1160     		str	r1, [r2]
 440 003e 5960     		str	r1, [r3, #4]
 441              	.LBE38:
 442              	.LBE37:
 443              		.loc 1 238 0
 444 0040 A861     		str	r0, [r5, #24]
 445              		.loc 1 239 0
 446 0042 0125     		mov	r5, #1
 447 0044 0577     		strb	r5, [r0, #28]
 448              		.loc 1 240 0
 449 0046 FFF7FEFF 		bl	_port_switch
 450              	.LVL32:
ARM GAS  /tmp/ccTkhTBY.s 			page 9


 451 004a EDE7     		b	.L41
 452              	.L49:
 453              		.align	2
 454              	.L48:
 455 004c 00000000 		.word	.LANCHOR0
 456              	.LBE36:
 457              		.cfi_endproc
 458              	.LFE12:
 459              		.size	chSchWakeupS, .-chSchWakeupS
 460              		.section	.text.chSchDoRescheduleBehind,"ax",%progbits
 461              		.align	2
 462              		.p2align 4,,15
 463              		.global	chSchDoRescheduleBehind
 464              		.code	16
 465              		.thumb_func
 466              		.type	chSchDoRescheduleBehind, %function
 467              	chSchDoRescheduleBehind:
 468              	.LFB14:
 469              		.loc 1 304 0
 470              		.cfi_startproc
 471              		.loc 1 307 0
 472 0000 0E4B     		ldr	r3, .L54
 473              		.loc 1 304 0
 474 0002 10B5     		push	{r4, lr}
 475              	.LCFI4:
 476              		.cfi_def_cfa_offset 8
 477              		.cfi_offset 4, -8
 478              		.cfi_offset 14, -4
 479              	.LBB39:
 480              	.LBB40:
 481              		.loc 2 60 0
 482 0004 1868     		ldr	r0, [r3]
 483              	.LBE40:
 484              	.LBE39:
 485              		.loc 1 307 0
 486 0006 9969     		ldr	r1, [r3, #24]
 487              	.LVL33:
 488              	.LBB43:
 489              	.LBB41:
 490              		.loc 2 62 0
 491 0008 0268     		ldr	r2, [r0]
 492              	.LBE41:
 493              	.LBE43:
 494              		.loc 1 310 0
 495 000a 0124     		mov	r4, #1
 496              	.LBB44:
 497              	.LBB42:
 498              		.loc 2 62 0
 499 000c 5360     		str	r3, [r2, #4]
 500 000e 1A60     		str	r2, [r3]
 501              	.LBE42:
 502              	.LBE44:
 503              		.loc 1 309 0
 504 0010 9861     		str	r0, [r3, #24]
 505              	.LBB45:
 506              	.LBB46:
 507              		.loc 1 92 0
ARM GAS  /tmp/ccTkhTBY.s 			page 10


 508 0012 0022     		mov	r2, #0
 509              	.LBE46:
 510              	.LBE45:
 511              		.loc 1 312 0
 512 0014 1423     		mov	r3, #20
 513              		.loc 1 310 0
 514 0016 0477     		strb	r4, [r0, #28]
 515              		.loc 1 312 0
 516 0018 CB77     		strb	r3, [r1, #31]
 517              	.LVL34:
 518              	.LBB48:
 519              	.LBB47:
 520              		.loc 1 92 0
 521 001a 0A77     		strb	r2, [r1, #28]
 522              	.LVL35:
 523 001c 031C     		mov	r3, r0
 524 001e 8A68     		ldr	r2, [r1, #8]
 525 0020 00E0     		b	.L52
 526              	.LVL36:
 527              	.L53:
 528 0022 1B68     		ldr	r3, [r3]
 529              	.LVL37:
 530              	.L52:
 531              		.loc 1 96 0
 532 0024 9C68     		ldr	r4, [r3, #8]
 533 0026 9442     		cmp	r4, r2
 534 0028 FBD2     		bcs	.L53
 535              		.loc 1 99 0
 536 002a 5A68     		ldr	r2, [r3, #4]
 537              		.loc 1 98 0
 538 002c 0B60     		str	r3, [r1]
 539              		.loc 1 99 0
 540 002e 4A60     		str	r2, [r1, #4]
 541              		.loc 1 100 0
 542 0030 1160     		str	r1, [r2]
 543 0032 5960     		str	r1, [r3, #4]
 544              	.LBE47:
 545              	.LBE48:
 546              		.loc 1 315 0
 547 0034 FFF7FEFF 		bl	_port_switch
 548              	.LVL38:
 549              		.loc 1 316 0
 550              		@ sp needed for prologue
 551 0038 10BD     		pop	{r4, pc}
 552              	.L55:
 553 003a C046     		.align	2
 554              	.L54:
 555 003c 00000000 		.word	.LANCHOR0
 556              		.cfi_endproc
 557              	.LFE14:
 558              		.size	chSchDoRescheduleBehind, .-chSchDoRescheduleBehind
 559              		.section	.text.chSchDoRescheduleAhead,"ax",%progbits
 560              		.align	2
 561              		.p2align 4,,15
 562              		.global	chSchDoRescheduleAhead
 563              		.code	16
 564              		.thumb_func
ARM GAS  /tmp/ccTkhTBY.s 			page 11


 565              		.type	chSchDoRescheduleAhead, %function
 566              	chSchDoRescheduleAhead:
 567              	.LFB15:
 568              		.loc 1 329 0
 569              		.cfi_startproc
 570              		.loc 1 332 0
 571 0000 0D4B     		ldr	r3, .L60
 572              		.loc 1 329 0
 573 0002 10B5     		push	{r4, lr}
 574              	.LCFI5:
 575              		.cfi_def_cfa_offset 8
 576              		.cfi_offset 4, -8
 577              		.cfi_offset 14, -4
 578              	.LBB49:
 579              	.LBB50:
 580              		.loc 2 60 0
 581 0004 1868     		ldr	r0, [r3]
 582              	.LBE50:
 583              	.LBE49:
 584              		.loc 1 332 0
 585 0006 9969     		ldr	r1, [r3, #24]
 586              	.LVL39:
 587              	.LBB53:
 588              	.LBB51:
 589              		.loc 2 62 0
 590 0008 0268     		ldr	r2, [r0]
 591              	.LBE51:
 592              	.LBE53:
 593              		.loc 1 335 0
 594 000a 0124     		mov	r4, #1
 595              	.LBB54:
 596              	.LBB52:
 597              		.loc 2 62 0
 598 000c 5360     		str	r3, [r2, #4]
 599 000e 1A60     		str	r2, [r3]
 600              	.LBE52:
 601              	.LBE54:
 602              		.loc 1 334 0
 603 0010 9861     		str	r0, [r3, #24]
 604              		.loc 1 337 0
 605 0012 0023     		mov	r3, #0
 606              		.loc 1 335 0
 607 0014 0477     		strb	r4, [r0, #28]
 608 0016 8A68     		ldr	r2, [r1, #8]
 609              		.loc 1 337 0
 610 0018 0B77     		strb	r3, [r1, #28]
 611              	.LVL40:
 612 001a 031C     		mov	r3, r0
 613 001c 00E0     		b	.L58
 614              	.LVL41:
 615              	.L59:
 616 001e 1B68     		ldr	r3, [r3]
 617              	.LVL42:
 618              	.L58:
 619              		.loc 1 341 0 discriminator 1
 620 0020 9C68     		ldr	r4, [r3, #8]
 621 0022 9442     		cmp	r4, r2
ARM GAS  /tmp/ccTkhTBY.s 			page 12


 622 0024 FBD8     		bhi	.L59
 623              		.loc 1 344 0
 624 0026 5A68     		ldr	r2, [r3, #4]
 625              		.loc 1 343 0
 626 0028 0B60     		str	r3, [r1]
 627              		.loc 1 344 0
 628 002a 4A60     		str	r2, [r1, #4]
 629              		.loc 1 345 0
 630 002c 1160     		str	r1, [r2]
 631 002e 5960     		str	r1, [r3, #4]
 632              		.loc 1 347 0
 633 0030 FFF7FEFF 		bl	_port_switch
 634              	.LVL43:
 635              		.loc 1 348 0
 636              		@ sp needed for prologue
 637 0034 10BD     		pop	{r4, pc}
 638              	.L61:
 639 0036 C046     		.align	2
 640              	.L60:
 641 0038 00000000 		.word	.LANCHOR0
 642              		.cfi_endproc
 643              	.LFE15:
 644              		.size	chSchDoRescheduleAhead, .-chSchDoRescheduleAhead
 645 003c C046C046 		.section	.text.chSchRescheduleS,"ax",%progbits
 646              		.align	2
 647              		.p2align 4,,15
 648              		.global	chSchRescheduleS
 649              		.code	16
 650              		.thumb_func
 651              		.type	chSchRescheduleS, %function
 652              	chSchRescheduleS:
 653              	.LFB13:
 654              		.loc 1 253 0
 655              		.cfi_startproc
 656 0000 08B5     		push	{r3, lr}
 657              	.LCFI6:
 658              		.cfi_def_cfa_offset 8
 659              		.cfi_offset 3, -8
 660              		.cfi_offset 14, -4
 661              		.loc 1 257 0
 662 0002 054B     		ldr	r3, .L64
 663 0004 1A68     		ldr	r2, [r3]
 664 0006 9869     		ldr	r0, [r3, #24]
 665 0008 9168     		ldr	r1, [r2, #8]
 666 000a 8368     		ldr	r3, [r0, #8]
 667 000c 9942     		cmp	r1, r3
 668 000e 01D9     		bls	.L62
 669              		.loc 1 258 0
 670 0010 FFF7FEFF 		bl	chSchDoRescheduleAhead
 671              	.LVL44:
 672              	.L62:
 673              		.loc 1 259 0
 674              		@ sp needed for prologue
 675 0014 08BD     		pop	{r3, pc}
 676              	.L65:
 677 0016 C046     		.align	2
 678              	.L64:
ARM GAS  /tmp/ccTkhTBY.s 			page 13


 679 0018 00000000 		.word	.LANCHOR0
 680              		.cfi_endproc
 681              	.LFE13:
 682              		.size	chSchRescheduleS, .-chSchRescheduleS
 683 001c C046C046 		.section	.text.chSchDoReschedule,"ax",%progbits
 684              		.align	2
 685              		.p2align 4,,15
 686              		.global	chSchDoReschedule
 687              		.code	16
 688              		.thumb_func
 689              		.type	chSchDoReschedule, %function
 690              	chSchDoReschedule:
 691              	.LFB16:
 692              		.loc 1 362 0
 693              		.cfi_startproc
 694 0000 08B5     		push	{r3, lr}
 695              	.LCFI7:
 696              		.cfi_def_cfa_offset 8
 697              		.cfi_offset 3, -8
 698              		.cfi_offset 14, -4
 699              		.loc 1 367 0
 700 0002 054B     		ldr	r3, .L70
 701 0004 9869     		ldr	r0, [r3, #24]
 702 0006 C17F     		ldrb	r1, [r0, #31]
 703 0008 0029     		cmp	r1, #0
 704 000a 02D0     		beq	.L69
 705              		.loc 1 375 0
 706 000c FFF7FEFF 		bl	chSchDoRescheduleAhead
 707              	.LVL45:
 708              	.L66:
 709              		.loc 1 382 0
 710              		@ sp needed for prologue
 711 0010 08BD     		pop	{r3, pc}
 712              	.L69:
 713              		.loc 1 370 0
 714 0012 FFF7FEFF 		bl	chSchDoRescheduleBehind
 715              	.LVL46:
 716 0016 FBE7     		b	.L66
 717              	.L71:
 718              		.align	2
 719              	.L70:
 720 0018 00000000 		.word	.LANCHOR0
 721              		.cfi_endproc
 722              	.LFE16:
 723              		.size	chSchDoReschedule, .-chSchDoReschedule
 724              		.global	rlist
 725 001c C046C046 		.section	.bss.rlist,"aw",%nobits
 726              		.align	2
 727              		.set	.LANCHOR0,. + 0
 728              		.type	rlist, %object
 729              		.size	rlist, 28
 730              	rlist:
 731 0000 00000000 		.space	28
 731      00000000 
 731      00000000 
 731      00000000 
 731      00000000 
ARM GAS  /tmp/ccTkhTBY.s 			page 14


 732              		.text
 733              	.Letext0:
 734              		.file 3 "/home/matt/arm_cortex/gcc-arm-none-eabi/bin/../lib/gcc/arm-none-eabi/4.7.4/../../../../ar
 735              		.file 4 "/home/matt/arm_cortex/ChibiOS/os/ports/GCC/ARMCMx/chtypes.h"
 736              		.file 5 "/home/matt/arm_cortex/ChibiOS/os/kernel/include/chlists.h"
 737              		.file 6 "/home/matt/arm_cortex/ChibiOS/os/kernel/include/chthreads.h"
 738              		.file 7 "/home/matt/arm_cortex/ChibiOS/os/ports/GCC/ARMCMx/chcore_v6m.h"
 739              		.file 8 "/home/matt/arm_cortex/ChibiOS/os/kernel/include/chvt.h"
 740              		.file 9 "/home/matt/arm_cortex/ChibiOS/os/kernel/include/chschd.h"
 741              		.file 10 "/home/matt/arm_cortex/ChibiOS/os/kernel/include/chsem.h"
 742              		.file 11 "/home/matt/arm_cortex/ChibiOS/os/kernel/include/chmtx.h"