ARM GAS  /tmp/ccCxRu4j.s 			page 1


   1              		.cpu cortex-m0
   2              		.fpu softvfp
   3              		.eabi_attribute 20, 1
   4              		.eabi_attribute 21, 1
   5              		.eabi_attribute 23, 3
   6              		.eabi_attribute 24, 1
   7              		.eabi_attribute 25, 1
   8              		.eabi_attribute 26, 1
   9              		.eabi_attribute 30, 2
  10              		.eabi_attribute 34, 0
  11              		.eabi_attribute 18, 4
  12              		.code	16
  13              		.file	"chsem.c"
  14              		.text
  15              	.Ltext0:
  16              		.cfi_sections	.debug_frame
  17              		.section	.text.chSemInit,"ax",%progbits
  18              		.align	2
  19              		.p2align 4,,15
  20              		.global	chSemInit
  21              		.code	16
  22              		.thumb_func
  23              		.type	chSemInit, %function
  24              	chSemInit:
  25              	.LFB7:
  26              		.file 1 "/home/matt/arm_cortex/ChibiOS/os/kernel/src/chsem.c"
  27              		.loc 1 86 0
  28              		.cfi_startproc
  29              	.LVL0:
  30              		.loc 1 90 0
  31 0000 4060     		str	r0, [r0, #4]
  32 0002 0060     		str	r0, [r0]
  33              		.loc 1 91 0
  34 0004 8160     		str	r1, [r0, #8]
  35              		.loc 1 92 0
  36              		@ sp needed for prologue
  37 0006 7047     		bx	lr
  38              		.cfi_endproc
  39              	.LFE7:
  40              		.size	chSemInit, .-chSemInit
  41 0008 C046C046 		.section	.text.chSemResetI,"ax",%progbits
  41      C046C046 
  42              		.align	2
  43              		.p2align 4,,15
  44              		.global	chSemResetI
  45              		.code	16
  46              		.thumb_func
  47              		.type	chSemResetI, %function
  48              	chSemResetI:
  49              	.LFB9:
  50              		.loc 1 136 0
  51              		.cfi_startproc
  52              	.LVL1:
  53 0000 F8B5     		push	{r3, r4, r5, r6, r7, lr}
  54              	.LCFI0:
  55              		.cfi_def_cfa_offset 24
  56              		.cfi_offset 3, -24
ARM GAS  /tmp/ccCxRu4j.s 			page 2


  57              		.cfi_offset 4, -20
  58              		.cfi_offset 5, -16
  59              		.cfi_offset 6, -12
  60              		.cfi_offset 7, -8
  61              		.cfi_offset 14, -4
  62              		.loc 1 141 0
  63 0002 8568     		ldr	r5, [r0, #8]
  64              	.LVL2:
  65              		.loc 1 136 0
  66 0004 041C     		mov	r4, r0
  67              		.loc 1 148 0
  68 0006 0135     		add	r5, r5, #1
  69              	.LVL3:
  70              		.loc 1 147 0
  71 0008 8160     		str	r1, [r0, #8]
  72              	.LVL4:
  73              		.loc 1 148 0
  74 000a 002D     		cmp	r5, #0
  75 000c 2BDC     		bgt	.L2
  76              	.LBB20:
  77              	.LBB21:
  78              		.file 2 "/home/matt/arm_cortex/ChibiOS/os/kernel/include/chinline.h"
  79              		.loc 2 67 0
  80 000e 4068     		ldr	r0, [r0, #4]
  81              	.LVL5:
  82 0010 0123     		mov	r3, #1
  83              		.loc 2 69 0
  84 0012 4168     		ldr	r1, [r0, #4]
  85              	.LVL6:
  86 0014 2F1C     		mov	r7, r5
  87 0016 6160     		str	r1, [r4, #4]
  88 0018 0C60     		str	r4, [r1]
  89 001a 1F40     		and	r7, r3
  90              	.LVL7:
  91              	.LBE21:
  92              	.LBE20:
  93              		.loc 1 149 0
  94 001c FFF7FEFF 		bl	chSchReadyI
  95              	.LVL8:
  96 0020 0226     		mov	r6, #2
  97 0022 7642     		neg	r6, r6
  98              		.loc 1 148 0
  99 0024 0135     		add	r5, r5, #1
 100              	.LVL9:
 101              		.loc 1 149 0
 102 0026 4662     		str	r6, [r0, #36]
 103              	.LVL10:
 104              		.loc 1 148 0
 105 0028 012D     		cmp	r5, #1
 106 002a 1CD0     		beq	.L2
 107 002c 002F     		cmp	r7, #0
 108 002e 09D0     		beq	.L6
 109              	.LVL11:
 110              	.LBB27:
 111              	.LBB22:
 112              		.loc 2 67 0
 113 0030 6068     		ldr	r0, [r4, #4]
ARM GAS  /tmp/ccCxRu4j.s 			page 3


 114              	.LBE22:
 115              	.LBE27:
 116              		.loc 1 148 0
 117 0032 0135     		add	r5, r5, #1
 118              	.LBB28:
 119              	.LBB23:
 120              		.loc 2 69 0
 121 0034 4268     		ldr	r2, [r0, #4]
 122 0036 6260     		str	r2, [r4, #4]
 123 0038 1460     		str	r4, [r2]
 124              	.LBE23:
 125              	.LBE28:
 126              		.loc 1 149 0
 127 003a FFF7FEFF 		bl	chSchReadyI
 128              	.LVL12:
 129 003e 4662     		str	r6, [r0, #36]
 130              		.loc 1 148 0
 131 0040 012D     		cmp	r5, #1
 132 0042 10D0     		beq	.L2
 133              	.LVL13:
 134              	.L6:
 135              	.LBB29:
 136              	.LBB24:
 137              		.loc 2 67 0
 138 0044 6068     		ldr	r0, [r4, #4]
 139              	.LBE24:
 140              	.LBE29:
 141              		.loc 1 148 0
 142 0046 0235     		add	r5, r5, #2
 143              	.LBB30:
 144              	.LBB25:
 145              		.loc 2 69 0
 146 0048 4368     		ldr	r3, [r0, #4]
 147 004a 6360     		str	r3, [r4, #4]
 148 004c 1C60     		str	r4, [r3]
 149              	.LBE25:
 150              	.LBE30:
 151              		.loc 1 149 0
 152 004e FFF7FEFF 		bl	chSchReadyI
 153              	.LVL14:
 154 0052 4662     		str	r6, [r0, #36]
 155              	.LBB31:
 156              	.LBB26:
 157              		.loc 2 67 0
 158 0054 6068     		ldr	r0, [r4, #4]
 159              		.loc 2 69 0
 160 0056 4768     		ldr	r7, [r0, #4]
 161 0058 6760     		str	r7, [r4, #4]
 162 005a 3C60     		str	r4, [r7]
 163              	.LBE26:
 164              	.LBE31:
 165              		.loc 1 149 0
 166 005c FFF7FEFF 		bl	chSchReadyI
 167              	.LVL15:
 168 0060 4662     		str	r6, [r0, #36]
 169              		.loc 1 148 0
 170 0062 012D     		cmp	r5, #1
ARM GAS  /tmp/ccCxRu4j.s 			page 4


 171 0064 EED1     		bne	.L6
 172              	.LVL16:
 173              	.L2:
 174              		.loc 1 150 0
 175              		@ sp needed for prologue
 176              	.LVL17:
 177 0066 F8BD     		pop	{r3, r4, r5, r6, r7, pc}
 178              		.cfi_endproc
 179              	.LFE9:
 180              		.size	chSemResetI, .-chSemResetI
 181 0068 C046C046 		.section	.text.chSemReset,"ax",%progbits
 181      C046C046 
 182              		.align	2
 183              		.p2align 4,,15
 184              		.global	chSemReset
 185              		.code	16
 186              		.thumb_func
 187              		.type	chSemReset, %function
 188              	chSemReset:
 189              	.LFB8:
 190              		.loc 1 109 0
 191              		.cfi_startproc
 192              	.LVL18:
 193 0000 08B5     		push	{r3, lr}
 194              	.LCFI1:
 195              		.cfi_def_cfa_offset 8
 196              		.cfi_offset 3, -8
 197              		.cfi_offset 14, -4
 198              		.loc 1 111 0
 199              	@ 111 "/home/matt/arm_cortex/ChibiOS/os/kernel/src/chsem.c" 1
 200 0002 72B6     		cpsid   i
 201              	@ 0 "" 2
 202              		.loc 1 112 0
 203              		.code	16
 204 0004 FFF7FEFF 		bl	chSemResetI
 205              	.LVL19:
 206              		.loc 1 113 0
 207 0008 FFF7FEFF 		bl	chSchRescheduleS
 208              	.LVL20:
 209              		.loc 1 114 0
 210              	@ 114 "/home/matt/arm_cortex/ChibiOS/os/kernel/src/chsem.c" 1
 211 000c 62B6     		cpsie   i
 212              	@ 0 "" 2
 213              		.loc 1 115 0
 214              		.code	16
 215              		@ sp needed for prologue
 216 000e 08BD     		pop	{r3, pc}
 217              		.cfi_endproc
 218              	.LFE8:
 219              		.size	chSemReset, .-chSemReset
 220              		.section	.text.chSemWaitS,"ax",%progbits
 221              		.align	2
 222              		.p2align 4,,15
 223              		.global	chSemWaitS
 224              		.code	16
 225              		.thumb_func
 226              		.type	chSemWaitS, %function
ARM GAS  /tmp/ccCxRu4j.s 			page 5


 227              	chSemWaitS:
 228              	.LFB11:
 229              		.loc 1 185 0
 230              		.cfi_startproc
 231              	.LVL21:
 232              		.loc 1 194 0
 233 0000 8268     		ldr	r2, [r0, #8]
 234              		.loc 1 185 0
 235 0002 10B5     		push	{r4, lr}
 236              	.LCFI2:
 237              		.cfi_def_cfa_offset 8
 238              		.cfi_offset 4, -8
 239              		.cfi_offset 14, -4
 240              		.loc 1 194 0
 241 0004 013A     		sub	r2, r2, #1
 242              		.loc 1 185 0
 243 0006 031C     		mov	r3, r0
 244              		.loc 1 194 0
 245 0008 8260     		str	r2, [r0, #8]
 246              		.loc 1 200 0
 247 000a 0020     		mov	r0, #0
 248              	.LVL22:
 249              		.loc 1 194 0
 250 000c 002A     		cmp	r2, #0
 251 000e 00DB     		blt	.L19
 252              	.LVL23:
 253              	.L17:
 254              		.loc 1 201 0
 255              		@ sp needed for prologue
 256 0010 10BD     		pop	{r4, pc}
 257              	.LVL24:
 258              	.L19:
 259              		.loc 1 195 0
 260 0012 074C     		ldr	r4, .L20
 261 0014 A069     		ldr	r0, [r4, #24]
 262 0016 4362     		str	r3, [r0, #36]
 263              	.LVL25:
 264              	.LBB32:
 265              	.LBB33:
 266              		.loc 2 55 0
 267 0018 5968     		ldr	r1, [r3, #4]
 268              		.loc 2 54 0
 269 001a 0360     		str	r3, [r0]
 270              		.loc 2 55 0
 271 001c 4160     		str	r1, [r0, #4]
 272              		.loc 2 56 0
 273 001e 5860     		str	r0, [r3, #4]
 274 0020 0860     		str	r0, [r1]
 275              	.LBE33:
 276              	.LBE32:
 277              		.loc 1 197 0
 278 0022 0320     		mov	r0, #3
 279              	.LVL26:
 280 0024 FFF7FEFF 		bl	chSchGoSleepS
 281              	.LVL27:
 282              		.loc 1 198 0
 283 0028 A369     		ldr	r3, [r4, #24]
ARM GAS  /tmp/ccCxRu4j.s 			page 6


 284 002a 586A     		ldr	r0, [r3, #36]
 285 002c F0E7     		b	.L17
 286              	.L21:
 287 002e C046     		.align	2
 288              	.L20:
 289 0030 00000000 		.word	rlist
 290              		.cfi_endproc
 291              	.LFE11:
 292              		.size	chSemWaitS, .-chSemWaitS
 293 0034 C046C046 		.section	.text.chSemWait,"ax",%progbits
 293      C046C046 
 293      C046C046 
 294              		.align	2
 295              		.p2align 4,,15
 296              		.global	chSemWait
 297              		.code	16
 298              		.thumb_func
 299              		.type	chSemWait, %function
 300              	chSemWait:
 301              	.LFB10:
 302              		.loc 1 164 0
 303              		.cfi_startproc
 304              	.LVL28:
 305 0000 08B5     		push	{r3, lr}
 306              	.LCFI3:
 307              		.cfi_def_cfa_offset 8
 308              		.cfi_offset 3, -8
 309              		.cfi_offset 14, -4
 310              		.loc 1 167 0
 311              	@ 167 "/home/matt/arm_cortex/ChibiOS/os/kernel/src/chsem.c" 1
 312 0002 72B6     		cpsid   i
 313              	@ 0 "" 2
 314              		.loc 1 168 0
 315              		.code	16
 316 0004 FFF7FEFF 		bl	chSemWaitS
 317              	.LVL29:
 318              		.loc 1 169 0
 319              	@ 169 "/home/matt/arm_cortex/ChibiOS/os/kernel/src/chsem.c" 1
 320 0008 62B6     		cpsie   i
 321              	@ 0 "" 2
 322              		.loc 1 171 0
 323              		.code	16
 324              		@ sp needed for prologue
 325 000a 08BD     		pop	{r3, pc}
 326              		.cfi_endproc
 327              	.LFE10:
 328              		.size	chSemWait, .-chSemWait
 329 000c C046C046 		.section	.text.chSemWaitTimeoutS,"ax",%progbits
 330              		.align	2
 331              		.p2align 4,,15
 332              		.global	chSemWaitTimeoutS
 333              		.code	16
 334              		.thumb_func
 335              		.type	chSemWaitTimeoutS, %function
 336              	chSemWaitTimeoutS:
 337              	.LFB13:
 338              		.loc 1 250 0
ARM GAS  /tmp/ccCxRu4j.s 			page 7


 339              		.cfi_startproc
 340              	.LVL30:
 341 0000 10B5     		push	{r4, lr}
 342              	.LCFI4:
 343              		.cfi_def_cfa_offset 8
 344              		.cfi_offset 4, -8
 345              		.cfi_offset 14, -4
 346              		.loc 1 254 0
 347 0002 8468     		ldr	r4, [r0, #8]
 348              		.loc 1 250 0
 349 0004 031C     		mov	r3, r0
 350              		.loc 1 259 0
 351 0006 621E     		sub	r2, r4, #1
 352 0008 8260     		str	r2, [r0, #8]
 353              		.loc 1 268 0
 354 000a 0020     		mov	r0, #0
 355              	.LVL31:
 356              		.loc 1 259 0
 357 000c 002A     		cmp	r2, #0
 358 000e 00DB     		blt	.L27
 359              	.LVL32:
 360              	.L24:
 361              		.loc 1 269 0
 362              		@ sp needed for prologue
 363 0010 10BD     		pop	{r4, pc}
 364              	.LVL33:
 365              	.L27:
 366              		.loc 1 260 0
 367 0012 0029     		cmp	r1, #0
 368 0014 0BD0     		beq	.L28
 369              		.loc 1 264 0
 370 0016 0848     		ldr	r0, .L29
 371 0018 8469     		ldr	r4, [r0, #24]
 372              		.loc 1 266 0
 373 001a 0320     		mov	r0, #3
 374              		.loc 1 264 0
 375 001c 6362     		str	r3, [r4, #36]
 376              	.LVL34:
 377              	.LBB34:
 378              	.LBB35:
 379              		.loc 2 55 0
 380 001e 5A68     		ldr	r2, [r3, #4]
 381              		.loc 2 54 0
 382 0020 2360     		str	r3, [r4]
 383              		.loc 2 55 0
 384 0022 6260     		str	r2, [r4, #4]
 385              		.loc 2 56 0
 386 0024 5C60     		str	r4, [r3, #4]
 387 0026 1460     		str	r4, [r2]
 388              	.LBE35:
 389              	.LBE34:
 390              		.loc 1 266 0
 391 0028 FFF7FEFF 		bl	chSchGoSleepTimeoutS
 392              	.LVL35:
 393 002c F0E7     		b	.L24
 394              	.LVL36:
 395              	.L28:
ARM GAS  /tmp/ccCxRu4j.s 			page 8


 396              		.loc 1 262 0
 397 002e 0121     		mov	r1, #1
 398              	.LVL37:
 399              		.loc 1 261 0
 400 0030 9C60     		str	r4, [r3, #8]
 401              		.loc 1 262 0
 402 0032 4842     		neg	r0, r1
 403 0034 ECE7     		b	.L24
 404              	.L30:
 405 0036 C046     		.align	2
 406              	.L29:
 407 0038 00000000 		.word	rlist
 408              		.cfi_endproc
 409              	.LFE13:
 410              		.size	chSemWaitTimeoutS, .-chSemWaitTimeoutS
 411 003c C046C046 		.section	.text.chSemWaitTimeout,"ax",%progbits
 412              		.align	2
 413              		.p2align 4,,15
 414              		.global	chSemWaitTimeout
 415              		.code	16
 416              		.thumb_func
 417              		.type	chSemWaitTimeout, %function
 418              	chSemWaitTimeout:
 419              	.LFB12:
 420              		.loc 1 222 0
 421              		.cfi_startproc
 422              	.LVL38:
 423 0000 08B5     		push	{r3, lr}
 424              	.LCFI5:
 425              		.cfi_def_cfa_offset 8
 426              		.cfi_offset 3, -8
 427              		.cfi_offset 14, -4
 428              		.loc 1 225 0
 429              	@ 225 "/home/matt/arm_cortex/ChibiOS/os/kernel/src/chsem.c" 1
 430 0002 72B6     		cpsid   i
 431              	@ 0 "" 2
 432              		.loc 1 226 0
 433              		.code	16
 434 0004 FFF7FEFF 		bl	chSemWaitTimeoutS
 435              	.LVL39:
 436              		.loc 1 227 0
 437              	@ 227 "/home/matt/arm_cortex/ChibiOS/os/kernel/src/chsem.c" 1
 438 0008 62B6     		cpsie   i
 439              	@ 0 "" 2
 440              		.loc 1 229 0
 441              		.code	16
 442              		@ sp needed for prologue
 443 000a 08BD     		pop	{r3, pc}
 444              		.cfi_endproc
 445              	.LFE12:
 446              		.size	chSemWaitTimeout, .-chSemWaitTimeout
 447 000c C046C046 		.section	.text.chSemSignal,"ax",%progbits
 448              		.align	2
 449              		.p2align 4,,15
 450              		.global	chSemSignal
 451              		.code	16
 452              		.thumb_func
ARM GAS  /tmp/ccCxRu4j.s 			page 9


 453              		.type	chSemSignal, %function
 454              	chSemSignal:
 455              	.LFB14:
 456              		.loc 1 278 0
 457              		.cfi_startproc
 458              	.LVL40:
 459 0000 08B5     		push	{r3, lr}
 460              	.LCFI6:
 461              		.cfi_def_cfa_offset 8
 462              		.cfi_offset 3, -8
 463              		.cfi_offset 14, -4
 464              		.loc 1 286 0
 465              	@ 286 "/home/matt/arm_cortex/ChibiOS/os/kernel/src/chsem.c" 1
 466 0002 72B6     		cpsid   i
 467              	@ 0 "" 2
 468              		.loc 1 287 0
 469              		.code	16
 470 0004 8368     		ldr	r3, [r0, #8]
 471 0006 0133     		add	r3, r3, #1
 472 0008 8360     		str	r3, [r0, #8]
 473 000a 002B     		cmp	r3, #0
 474 000c 01DD     		ble	.L34
 475              	.LVL41:
 476              	.L33:
 477              		.loc 1 289 0
 478              	@ 289 "/home/matt/arm_cortex/ChibiOS/os/kernel/src/chsem.c" 1
 479 000e 62B6     		cpsie   i
 480              	@ 0 "" 2
 481              		.loc 1 290 0
 482              		.code	16
 483              		@ sp needed for prologue
 484 0010 08BD     		pop	{r3, pc}
 485              	.LVL42:
 486              	.L34:
 487              	.LBB36:
 488              	.LBB37:
 489              		.loc 2 60 0
 490 0012 0268     		ldr	r2, [r0]
 491              	.LVL43:
 492              		.loc 2 62 0
 493 0014 1168     		ldr	r1, [r2]
 494 0016 0160     		str	r1, [r0]
 495 0018 4860     		str	r0, [r1, #4]
 496              	.LBE37:
 497              	.LBE36:
 498              		.loc 1 288 0
 499 001a 101C     		mov	r0, r2
 500              	.LVL44:
 501 001c 0021     		mov	r1, #0
 502              	.LVL45:
 503 001e FFF7FEFF 		bl	chSchWakeupS
 504              	.LVL46:
 505 0022 F4E7     		b	.L33
 506              		.cfi_endproc
 507              	.LFE14:
 508              		.size	chSemSignal, .-chSemSignal
 509 0024 C046C046 		.section	.text.chSemSignalI,"ax",%progbits
ARM GAS  /tmp/ccCxRu4j.s 			page 10


 509      C046C046 
 509      C046C046 
 510              		.align	2
 511              		.p2align 4,,15
 512              		.global	chSemSignalI
 513              		.code	16
 514              		.thumb_func
 515              		.type	chSemSignalI, %function
 516              	chSemSignalI:
 517              	.LFB15:
 518              		.loc 1 303 0
 519              		.cfi_startproc
 520              	.LVL47:
 521 0000 08B5     		push	{r3, lr}
 522              	.LCFI7:
 523              		.cfi_def_cfa_offset 8
 524              		.cfi_offset 3, -8
 525              		.cfi_offset 14, -4
 526              		.loc 1 312 0
 527 0002 8368     		ldr	r3, [r0, #8]
 528 0004 0133     		add	r3, r3, #1
 529 0006 8360     		str	r3, [r0, #8]
 530 0008 002B     		cmp	r3, #0
 531 000a 00DD     		ble	.L37
 532              	.LVL48:
 533              	.L35:
 534              		.loc 1 319 0
 535              		@ sp needed for prologue
 536 000c 08BD     		pop	{r3, pc}
 537              	.LVL49:
 538              	.L37:
 539              	.LBB38:
 540              	.LBB39:
 541              	.LBB40:
 542              		.loc 2 60 0
 543 000e 0168     		ldr	r1, [r0]
 544              	.LVL50:
 545              		.loc 2 62 0
 546 0010 0A68     		ldr	r2, [r1]
 547 0012 0260     		str	r2, [r0]
 548 0014 5060     		str	r0, [r2, #4]
 549              	.LBE40:
 550              	.LBE39:
 551              		.loc 1 316 0
 552 0016 0020     		mov	r0, #0
 553              	.LVL51:
 554 0018 4862     		str	r0, [r1, #36]
 555              		.loc 1 317 0
 556 001a 081C     		mov	r0, r1
 557 001c FFF7FEFF 		bl	chSchReadyI
 558              	.LVL52:
 559 0020 F4E7     		b	.L35
 560              	.LBE38:
 561              		.cfi_endproc
 562              	.LFE15:
 563              		.size	chSemSignalI, .-chSemSignalI
 564 0022 C046C046 		.section	.text.chSemAddCounterI,"ax",%progbits
ARM GAS  /tmp/ccCxRu4j.s 			page 11


 564      C046C046 
 564      C046C046 
 564      C046
 565              		.align	2
 566              		.p2align 4,,15
 567              		.global	chSemAddCounterI
 568              		.code	16
 569              		.thumb_func
 570              		.type	chSemAddCounterI, %function
 571              	chSemAddCounterI:
 572              	.LFB16:
 573              		.loc 1 334 0
 574              		.cfi_startproc
 575              	.LVL53:
 576 0000 F8B5     		push	{r3, r4, r5, r6, r7, lr}
 577              	.LCFI8:
 578              		.cfi_def_cfa_offset 24
 579              		.cfi_offset 3, -24
 580              		.cfi_offset 4, -20
 581              		.cfi_offset 5, -16
 582              		.cfi_offset 6, -12
 583              		.cfi_offset 7, -8
 584              		.cfi_offset 14, -4
 585              		.loc 1 334 0
 586 0002 041C     		mov	r4, r0
 587 0004 0D1E     		sub	r5, r1, #0
 588              		.loc 1 343 0
 589 0006 2BDD     		ble	.L38
 590              		.loc 1 344 0
 591 0008 8068     		ldr	r0, [r0, #8]
 592              	.LVL54:
 593 000a 0122     		mov	r2, #1
 594 000c 4B1E     		sub	r3, r1, #1
 595 000e 171C     		mov	r7, r2
 596 0010 0130     		add	r0, r0, #1
 597              		.loc 1 345 0
 598 0012 0026     		mov	r6, #0
 599 0014 1F40     		and	r7, r3
 600              		.loc 1 344 0
 601 0016 A060     		str	r0, [r4, #8]
 602 0018 0028     		cmp	r0, #0
 603 001a 2ADD     		ble	.L56
 604              	.LVL55:
 605              	.L45:
 606              		.loc 1 346 0
 607 001c 013D     		sub	r5, r5, #1
 608              	.LVL56:
 609              		.loc 1 343 0
 610 001e 002D     		cmp	r5, #0
 611 0020 1ED0     		beq	.L38
 612 0022 002F     		cmp	r7, #0
 613 0024 07D0     		beq	.L43
 614              		.loc 1 344 0
 615 0026 A368     		ldr	r3, [r4, #8]
 616 0028 0133     		add	r3, r3, #1
 617 002a A360     		str	r3, [r4, #8]
 618 002c 002B     		cmp	r3, #0
ARM GAS  /tmp/ccCxRu4j.s 			page 12


 619 002e 0DDD     		ble	.L55
 620              	.LVL57:
 621              	.L50:
 622              		.loc 1 346 0
 623 0030 013D     		sub	r5, r5, #1
 624              		.loc 1 343 0
 625 0032 002D     		cmp	r5, #0
 626 0034 14D0     		beq	.L38
 627              	.L43:
 628              		.loc 1 344 0
 629 0036 A768     		ldr	r7, [r4, #8]
 630 0038 0137     		add	r7, r7, #1
 631 003a A760     		str	r7, [r4, #8]
 632 003c 002F     		cmp	r7, #0
 633 003e 10DD     		ble	.L57
 634              	.L40:
 635 0040 A068     		ldr	r0, [r4, #8]
 636              		.loc 1 346 0
 637 0042 013D     		sub	r5, r5, #1
 638              		.loc 1 344 0
 639 0044 0130     		add	r0, r0, #1
 640 0046 A060     		str	r0, [r4, #8]
 641 0048 0028     		cmp	r0, #0
 642 004a F1DC     		bgt	.L50
 643              	.L55:
 644              	.LVL58:
 645              	.LBB41:
 646              	.LBB42:
 647              		.loc 2 60 0
 648 004c 2068     		ldr	r0, [r4]
 649              	.LBE42:
 650              	.LBE41:
 651              		.loc 1 346 0
 652 004e 013D     		sub	r5, r5, #1
 653              	.LBB46:
 654              	.LBB43:
 655              		.loc 2 62 0
 656 0050 0268     		ldr	r2, [r0]
 657 0052 2260     		str	r2, [r4]
 658 0054 5460     		str	r4, [r2, #4]
 659              	.LBE43:
 660              	.LBE46:
 661              		.loc 1 345 0
 662 0056 FFF7FEFF 		bl	chSchReadyI
 663              	.LVL59:
 664 005a 4662     		str	r6, [r0, #36]
 665              		.loc 1 343 0
 666 005c 002D     		cmp	r5, #0
 667 005e EAD1     		bne	.L43
 668              	.LVL60:
 669              	.L38:
 670              		.loc 1 348 0
 671              		@ sp needed for prologue
 672              	.LVL61:
 673 0060 F8BD     		pop	{r3, r4, r5, r6, r7, pc}
 674              	.LVL62:
 675              	.L57:
ARM GAS  /tmp/ccCxRu4j.s 			page 13


 676              	.LBB47:
 677              	.LBB44:
 678              		.loc 2 60 0
 679 0062 2068     		ldr	r0, [r4]
 680              	.LVL63:
 681              		.loc 2 62 0
 682 0064 0168     		ldr	r1, [r0]
 683 0066 2160     		str	r1, [r4]
 684 0068 4C60     		str	r4, [r1, #4]
 685              	.LBE44:
 686              	.LBE47:
 687              		.loc 1 345 0
 688 006a FFF7FEFF 		bl	chSchReadyI
 689              	.LVL64:
 690 006e 4662     		str	r6, [r0, #36]
 691 0070 E6E7     		b	.L40
 692              	.LVL65:
 693              	.L56:
 694              	.LBB48:
 695              	.LBB45:
 696              		.loc 2 60 0
 697 0072 2068     		ldr	r0, [r4]
 698              		.loc 2 62 0
 699 0074 0168     		ldr	r1, [r0]
 700              	.LVL66:
 701 0076 2160     		str	r1, [r4]
 702 0078 4C60     		str	r4, [r1, #4]
 703              	.LBE45:
 704              	.LBE48:
 705              		.loc 1 345 0
 706 007a FFF7FEFF 		bl	chSchReadyI
 707              	.LVL67:
 708 007e 4662     		str	r6, [r0, #36]
 709 0080 CCE7     		b	.L45
 710              		.cfi_endproc
 711              	.LFE16:
 712              		.size	chSemAddCounterI, .-chSemAddCounterI
 713 0082 C046C046 		.section	.text.chSemSignalWait,"ax",%progbits
 713      C046C046 
 713      C046C046 
 713      C046
 714              		.align	2
 715              		.p2align 4,,15
 716              		.global	chSemSignalWait
 717              		.code	16
 718              		.thumb_func
 719              		.type	chSemSignalWait, %function
 720              	chSemSignalWait:
 721              	.LFB17:
 722              		.loc 1 366 0
 723              		.cfi_startproc
 724              	.LVL68:
 725 0000 38B5     		push	{r3, r4, r5, lr}
 726              	.LCFI9:
 727              		.cfi_def_cfa_offset 16
 728              		.cfi_offset 3, -16
 729              		.cfi_offset 4, -12
ARM GAS  /tmp/ccCxRu4j.s 			page 14


 730              		.cfi_offset 5, -8
 731              		.cfi_offset 14, -4
 732              		.loc 1 366 0
 733 0002 0C1C     		mov	r4, r1
 734              		.loc 1 379 0
 735              	@ 379 "/home/matt/arm_cortex/ChibiOS/os/kernel/src/chsem.c" 1
 736 0004 72B6     		cpsid   i
 737              	@ 0 "" 2
 738              		.loc 1 380 0
 739              		.code	16
 740 0006 8368     		ldr	r3, [r0, #8]
 741 0008 0133     		add	r3, r3, #1
 742 000a 8360     		str	r3, [r0, #8]
 743 000c 002B     		cmp	r3, #0
 744 000e 16DD     		ble	.L62
 745              	.LVL69:
 746              	.L59:
 747              		.loc 1 382 0
 748 0010 A068     		ldr	r0, [r4, #8]
 749 0012 0138     		sub	r0, r0, #1
 750 0014 A060     		str	r0, [r4, #8]
 751 0016 0028     		cmp	r0, #0
 752 0018 04DB     		blt	.L63
 753              		.loc 1 390 0
 754 001a FFF7FEFF 		bl	chSchRescheduleS
 755              	.LVL70:
 756              		.loc 1 391 0
 757 001e 0020     		mov	r0, #0
 758              	.LVL71:
 759              	.L61:
 760              		.loc 1 393 0
 761              	@ 393 "/home/matt/arm_cortex/ChibiOS/os/kernel/src/chsem.c" 1
 762 0020 62B6     		cpsie   i
 763              	@ 0 "" 2
 764              		.loc 1 395 0
 765              		.code	16
 766              		@ sp needed for prologue
 767              	.LVL72:
 768 0022 38BD     		pop	{r3, r4, r5, pc}
 769              	.LVL73:
 770              	.L63:
 771              	.LBB49:
 772              		.loc 1 383 0
 773 0024 0B4B     		ldr	r3, .L64
 774              	.LBB50:
 775              	.LBB51:
 776              		.loc 2 55 0
 777 0026 6268     		ldr	r2, [r4, #4]
 778              	.LBE51:
 779              	.LBE50:
 780              		.loc 1 383 0
 781 0028 9D69     		ldr	r5, [r3, #24]
 782              	.LVL74:
 783              		.loc 1 386 0
 784 002a 0320     		mov	r0, #3
 785              	.LBB53:
 786              	.LBB52:
ARM GAS  /tmp/ccCxRu4j.s 			page 15


 787              		.loc 2 54 0
 788 002c 2C60     		str	r4, [r5]
 789              		.loc 2 55 0
 790 002e 6A60     		str	r2, [r5, #4]
 791              		.loc 2 56 0
 792 0030 6560     		str	r5, [r4, #4]
 793 0032 1560     		str	r5, [r2]
 794              	.LBE52:
 795              	.LBE53:
 796              		.loc 1 385 0
 797 0034 6C62     		str	r4, [r5, #36]
 798              		.loc 1 386 0
 799 0036 FFF7FEFF 		bl	chSchGoSleepS
 800              	.LVL75:
 801              		.loc 1 387 0
 802 003a 686A     		ldr	r0, [r5, #36]
 803              	.LVL76:
 804 003c F0E7     		b	.L61
 805              	.LVL77:
 806              	.L62:
 807              	.LBE49:
 808              	.LBB54:
 809              	.LBB55:
 810              		.loc 2 60 0
 811 003e 0268     		ldr	r2, [r0]
 812              	.LVL78:
 813              	.LBE55:
 814              	.LBE54:
 815              		.loc 1 381 0
 816 0040 0025     		mov	r5, #0
 817              	.LBB57:
 818              	.LBB56:
 819              		.loc 2 62 0
 820 0042 1168     		ldr	r1, [r2]
 821              	.LVL79:
 822 0044 0160     		str	r1, [r0]
 823 0046 4860     		str	r0, [r1, #4]
 824              	.LBE56:
 825              	.LBE57:
 826              		.loc 1 381 0
 827 0048 101C     		mov	r0, r2
 828              	.LVL80:
 829 004a FFF7FEFF 		bl	chSchReadyI
 830              	.LVL81:
 831 004e 4562     		str	r5, [r0, #36]
 832 0050 DEE7     		b	.L59
 833              	.L65:
 834 0052 C046     		.align	2
 835              	.L64:
 836 0054 00000000 		.word	rlist
 837              		.cfi_endproc
 838              	.LFE17:
 839              		.size	chSemSignalWait, .-chSemSignalWait
 840 0058 C046C046 		.text
 840      C046C046 
 841              	.Letext0:
 842              		.file 3 "/home/matt/arm_cortex/gcc-arm-none-eabi/bin/../lib/gcc/arm-none-eabi/4.7.4/../../../../ar
ARM GAS  /tmp/ccCxRu4j.s 			page 16


 843              		.file 4 "/home/matt/arm_cortex/ChibiOS/os/ports/GCC/ARMCMx/chtypes.h"
 844              		.file 5 "/home/matt/arm_cortex/ChibiOS/os/kernel/include/chlists.h"
 845              		.file 6 "/home/matt/arm_cortex/ChibiOS/os/kernel/include/chthreads.h"
 846              		.file 7 "/home/matt/arm_cortex/ChibiOS/os/ports/GCC/ARMCMx/chcore_v6m.h"
 847              		.file 8 "/home/matt/arm_cortex/ChibiOS/os/kernel/include/chschd.h"
 848              		.file 9 "/home/matt/arm_cortex/ChibiOS/os/kernel/include/chsem.h"
 849              		.file 10 "/home/matt/arm_cortex/ChibiOS/os/kernel/include/chmtx.h"