ARM GAS  /tmp/ccPB8r84.s 			page 1


   1              		.cpu cortex-m0
   2              		.fpu softvfp
   3              		.eabi_attribute 20, 1
   4              		.eabi_attribute 21, 1
   5              		.eabi_attribute 23, 3
   6              		.eabi_attribute 24, 1
   7              		.eabi_attribute 25, 1
   8              		.eabi_attribute 26, 1
   9              		.eabi_attribute 30, 2
  10              		.eabi_attribute 34, 0
  11              		.eabi_attribute 18, 4
  12              		.code	16
  13              		.file	"gdisp.c"
  14              		.text
  15              	.Ltext0:
  16              		.cfi_sections	.debug_frame
  17              		.section	.text.gdispFillString_callback,"ax",%progbits
  18              		.align	2
  19              		.p2align 4,,15
  20              		.code	16
  21              		.thumb_func
  22              		.type	gdispFillString_callback, %function
  23              	gdispFillString_callback:
  24              	.LFB47:
  25              		.file 1 "/home/matt/arm_cortex/ChibiOS/ext/ugfx/src/gdisp/gdisp.c"
  26              		.loc 1 688 0
  27              		.cfi_startproc
  28              	.LVL0:
  29 0000 F0B5     		push	{r4, r5, r6, r7, lr}
  30              	.LCFI0:
  31              		.cfi_def_cfa_offset 20
  32              		.cfi_offset 4, -20
  33              		.cfi_offset 5, -16
  34              		.cfi_offset 6, -12
  35              		.cfi_offset 7, -8
  36              		.cfi_offset 14, -4
  37 0002 4746     		mov	r7, r8
  38 0004 80B4     		push	{r7}
  39              	.LCFI1:
  40              		.cfi_def_cfa_offset 24
  41              		.cfi_offset 8, -24
  42 0006 051C     		mov	r5, r0
  43 0008 82B0     		sub	sp, sp, #8
  44              	.LCFI2:
  45              		.cfi_def_cfa_offset 32
  46              		.loc 1 688 0
  47 000a 8846     		mov	r8, r1
  48              		.loc 1 692 0
  49 000c 1868     		ldr	r0, [r3]
  50              	.LVL1:
  51 000e 111C     		mov	r1, r2
  52              	.LVL2:
  53              		.loc 1 688 0
  54 0010 1C1C     		mov	r4, r3
  55 0012 171C     		mov	r7, r2
  56              		.loc 1 692 0
  57 0014 FFF7FEFF 		bl	mf_character_width
ARM GAS  /tmp/ccPB8r84.s 			page 2


  58              	.LVL3:
  59 0018 061C     		mov	r6, r0
  60              	.LVL4:
  61              		.loc 1 693 0
  62 001a 0821     		mov	r1, #8
  63 001c 605E     		ldrsh	r0, [r4, r1]
  64              	.LVL5:
  65 001e A842     		cmp	r0, r5
  66 0020 12DC     		bgt	.L2
  67              		.loc 1 693 0 is_stmt 0 discriminator 1
  68 0022 0C21     		mov	r1, #12
  69 0024 625E     		ldrsh	r2, [r4, r1]
  70 0026 AB19     		add	r3, r5, r6
  71 0028 8118     		add	r1, r0, r2
  72 002a 8B42     		cmp	r3, r1
  73 002c 0CDA     		bge	.L2
  74              	.LVL6:
  75              	.LBB4:
  76              	.LBB5:
  77              		.loc 1 693 0
  78 002e 0A22     		mov	r2, #10
  79 0030 A35E     		ldrsh	r3, [r4, r2]
  80 0032 9845     		cmp	r8, r3
  81 0034 08DB     		blt	.L2
  82 0036 2068     		ldr	r0, [r4]
  83 0038 427A     		ldrb	r2, [r0, #9]
  84 003a 9446     		mov	ip, r2
  85 003c 0E22     		mov	r2, #14
  86 003e A15E     		ldrsh	r1, [r4, r2]
  87 0040 C444     		add	ip, ip, r8
  88 0042 5B18     		add	r3, r3, r1
  89 0044 9C45     		cmp	ip, r3
  90 0046 04DD     		ble	.L4
  91              	.LVL7:
  92              	.L2:
  93              	.LBE5:
  94              	.LBE4:
  95              		.loc 1 696 0 is_stmt 1
  96 0048 301C     		mov	r0, r6
  97 004a 02B0     		add	sp, sp, #8
  98              		@ sp needed for prologue
  99              	.LVL8:
 100 004c 04BC     		pop	{r2}
 101 004e 9046     		mov	r8, r2
 102 0050 F0BD     		pop	{r4, r5, r6, r7, pc}
 103              	.LVL9:
 104              	.L4:
 105              	.LBB7:
 106              	.LBB6:
 107              		.loc 1 694 0
 108 0052 054A     		ldr	r2, .L5
 109 0054 0434     		add	r4, r4, #4
 110              	.LVL10:
 111 0056 0092     		str	r2, [sp]
 112 0058 0194     		str	r4, [sp, #4]
 113 005a 291C     		mov	r1, r5
 114 005c 4246     		mov	r2, r8
ARM GAS  /tmp/ccPB8r84.s 			page 3


 115 005e 3B1C     		mov	r3, r7
 116 0060 FFF7FEFF 		bl	mf_render_character
 117              	.LVL11:
 118 0064 F0E7     		b	.L2
 119              	.L6:
 120 0066 C046     		.align	2
 121              	.L5:
 122 0068 00000000 		.word	text_draw_char_callback
 123              	.LBE6:
 124              	.LBE7:
 125              		.cfi_endproc
 126              	.LFE47:
 127              		.size	gdispFillString_callback, .-gdispFillString_callback
 128 006c C046C046 		.section	.text.gdispDrawString_callback,"ax",%progbits
 129              		.align	2
 130              		.p2align 4,,15
 131              		.code	16
 132              		.thumb_func
 133              		.type	gdispDrawString_callback, %function
 134              	gdispDrawString_callback:
 135              	.LFB45:
 136              		.loc 1 653 0
 137              		.cfi_startproc
 138              	.LVL12:
 139 0000 F0B5     		push	{r4, r5, r6, r7, lr}
 140              	.LCFI3:
 141              		.cfi_def_cfa_offset 20
 142              		.cfi_offset 4, -20
 143              		.cfi_offset 5, -16
 144              		.cfi_offset 6, -12
 145              		.cfi_offset 7, -8
 146              		.cfi_offset 14, -4
 147 0002 4746     		mov	r7, r8
 148 0004 80B4     		push	{r7}
 149              	.LCFI4:
 150              		.cfi_def_cfa_offset 24
 151              		.cfi_offset 8, -24
 152 0006 051C     		mov	r5, r0
 153 0008 82B0     		sub	sp, sp, #8
 154              	.LCFI5:
 155              		.cfi_def_cfa_offset 32
 156              		.loc 1 653 0
 157 000a 8846     		mov	r8, r1
 158              		.loc 1 657 0
 159 000c 1868     		ldr	r0, [r3]
 160              	.LVL13:
 161 000e 111C     		mov	r1, r2
 162              	.LVL14:
 163              		.loc 1 653 0
 164 0010 1C1C     		mov	r4, r3
 165 0012 171C     		mov	r7, r2
 166              		.loc 1 657 0
 167 0014 FFF7FEFF 		bl	mf_character_width
 168              	.LVL15:
 169 0018 061C     		mov	r6, r0
 170              	.LVL16:
 171              		.loc 1 658 0
ARM GAS  /tmp/ccPB8r84.s 			page 4


 172 001a 0621     		mov	r1, #6
 173 001c 605E     		ldrsh	r0, [r4, r1]
 174              	.LVL17:
 175 001e A842     		cmp	r0, r5
 176 0020 12DC     		bgt	.L8
 177              		.loc 1 658 0 is_stmt 0 discriminator 1
 178 0022 0A21     		mov	r1, #10
 179 0024 625E     		ldrsh	r2, [r4, r1]
 180 0026 AB19     		add	r3, r5, r6
 181 0028 8118     		add	r1, r0, r2
 182 002a 8B42     		cmp	r3, r1
 183 002c 0CDA     		bge	.L8
 184              	.LVL18:
 185              	.LBB10:
 186              	.LBB11:
 187              		.loc 1 658 0
 188 002e 0822     		mov	r2, #8
 189 0030 A35E     		ldrsh	r3, [r4, r2]
 190 0032 9845     		cmp	r8, r3
 191 0034 08DB     		blt	.L8
 192 0036 2068     		ldr	r0, [r4]
 193 0038 427A     		ldrb	r2, [r0, #9]
 194 003a 9446     		mov	ip, r2
 195 003c 0C22     		mov	r2, #12
 196 003e A15E     		ldrsh	r1, [r4, r2]
 197 0040 C444     		add	ip, ip, r8
 198 0042 5B18     		add	r3, r3, r1
 199 0044 9C45     		cmp	ip, r3
 200 0046 04DD     		ble	.L9
 201              	.LVL19:
 202              	.L8:
 203              	.LBE11:
 204              	.LBE10:
 205              		.loc 1 661 0 is_stmt 1
 206 0048 301C     		mov	r0, r6
 207 004a 02B0     		add	sp, sp, #8
 208              		@ sp needed for prologue
 209              	.LVL20:
 210 004c 04BC     		pop	{r2}
 211 004e 9046     		mov	r8, r2
 212 0050 F0BD     		pop	{r4, r5, r6, r7, pc}
 213              	.LVL21:
 214              	.L9:
 215              	.LBB13:
 216              	.LBB12:
 217              		.loc 1 659 0
 218 0052 054A     		ldr	r2, .L10
 219 0054 0434     		add	r4, r4, #4
 220              	.LVL22:
 221 0056 0092     		str	r2, [sp]
 222 0058 0194     		str	r4, [sp, #4]
 223 005a 291C     		mov	r1, r5
 224 005c 4246     		mov	r2, r8
 225 005e 3B1C     		mov	r3, r7
 226 0060 FFF7FEFF 		bl	mf_render_character
 227              	.LVL23:
 228 0064 F0E7     		b	.L8
ARM GAS  /tmp/ccPB8r84.s 			page 5


 229              	.L11:
 230 0066 C046     		.align	2
 231              	.L10:
 232 0068 00000000 		.word	text_draw_char_callback
 233              	.LBE12:
 234              	.LBE13:
 235              		.cfi_endproc
 236              	.LFE45:
 237              		.size	gdispDrawString_callback, .-gdispDrawString_callback
 238 006c C046C046 		.section	.text.text_draw_char_callback,"ax",%progbits
 239              		.align	2
 240              		.p2align 4,,15
 241              		.code	16
 242              		.thumb_func
 243              		.type	text_draw_char_callback, %function
 244              	text_draw_char_callback:
 245              	.LFB42:
 246              		.loc 1 599 0
 247              		.cfi_startproc
 248              	.LVL24:
 249 0000 10B5     		push	{r4, lr}
 250              	.LCFI6:
 251              		.cfi_def_cfa_offset 8
 252              		.cfi_offset 4, -8
 253              		.cfi_offset 14, -4
 254 0002 82B0     		sub	sp, sp, #8
 255              	.LCFI7:
 256              		.cfi_def_cfa_offset 16
 257              		.loc 1 600 0
 258 0004 802B     		cmp	r3, #128
 259 0006 08D9     		bls	.L12
 260              		.loc 1 601 0
 261 0008 012A     		cmp	r2, #1
 262 000a 08D0     		beq	.L15
 263              	.LVL25:
 264              	.LBB16:
 265              	.LBB17:
 266              		.loc 1 604 0
 267 000c 049C     		ldr	r4, [sp, #16]
 268 000e 12B2     		sxth	r2, r2
 269              	.LVL26:
 270 0010 2388     		ldrh	r3, [r4]
 271              	.LVL27:
 272 0012 0093     		str	r3, [sp]
 273 0014 0123     		mov	r3, #1
 274 0016 FFF7FEFF 		bl	gdisp_lld_fill_area
 275              	.LVL28:
 276              	.L12:
 277              	.LBE17:
 278              	.LBE16:
 279              		.loc 1 606 0
 280 001a 02B0     		add	sp, sp, #8
 281              		@ sp needed for prologue
 282 001c 10BD     		pop	{r4, pc}
 283              	.LVL29:
 284              	.L15:
 285              		.loc 1 602 0
ARM GAS  /tmp/ccPB8r84.s 			page 6


 286 001e 049A     		ldr	r2, [sp, #16]
 287              	.LVL30:
 288 0020 1288     		ldrh	r2, [r2]
 289 0022 FFF7FEFF 		bl	gdisp_lld_draw_pixel
 290              	.LVL31:
 291 0026 F8E7     		b	.L12
 292              		.cfi_endproc
 293              	.LFE42:
 294              		.size	text_draw_char_callback, .-text_draw_char_callback
 295 0028 C046C046 		.section	.text._gdispInit,"ax",%progbits
 295      C046C046 
 296              		.align	2
 297              		.p2align 4,,15
 298              		.global	_gdispInit
 299              		.code	16
 300              		.thumb_func
 301              		.type	_gdispInit, %function
 302              	_gdispInit:
 303              	.LFB40:
 304              		.loc 1 135 0
 305              		.cfi_startproc
 306 0000 08B5     		push	{r3, lr}
 307              	.LCFI8:
 308              		.cfi_def_cfa_offset 8
 309              		.cfi_offset 3, -8
 310              		.cfi_offset 14, -4
 311              		.loc 1 136 0
 312 0002 FFF7FEFF 		bl	gdisp_lld_init
 313              	.LVL32:
 314              		.loc 1 137 0
 315              		@ sp needed for prologue
 316 0006 08BD     		pop	{r3, pc}
 317              		.cfi_endproc
 318              	.LFE40:
 319              		.size	_gdispInit, .-_gdispInit
 320 0008 C046C046 		.section	.text.gdispDrawBox,"ax",%progbits
 320      C046C046 
 321              		.align	2
 322              		.p2align 4,,15
 323              		.global	gdispDrawBox
 324              		.code	16
 325              		.thumb_func
 326              		.type	gdispDrawBox, %function
 327              	gdispDrawBox:
 328              	.LFB41:
 329              		.loc 1 460 0
 330              		.cfi_startproc
 331              	.LVL33:
 332 0000 F0B5     		push	{r4, r5, r6, r7, lr}
 333              	.LCFI9:
 334              		.cfi_def_cfa_offset 20
 335              		.cfi_offset 4, -20
 336              		.cfi_offset 5, -16
 337              		.cfi_offset 6, -12
 338              		.cfi_offset 7, -8
 339              		.cfi_offset 14, -4
 340 0002 5F46     		mov	r7, fp
ARM GAS  /tmp/ccPB8r84.s 			page 7


 341 0004 5646     		mov	r6, sl
 342 0006 4D46     		mov	r5, r9
 343 0008 4446     		mov	r4, r8
 344 000a F0B4     		push	{r4, r5, r6, r7}
 345              	.LCFI10:
 346              		.cfi_def_cfa_offset 36
 347              		.cfi_offset 8, -36
 348              		.cfi_offset 9, -32
 349              		.cfi_offset 10, -28
 350              		.cfi_offset 11, -24
 351 000c 83B0     		sub	sp, sp, #12
 352              	.LCFI11:
 353              		.cfi_def_cfa_offset 48
 354              		.loc 1 460 0
 355 000e 1C1C     		mov	r4, r3
 356 0010 0CAB     		add	r3, sp, #48
 357              	.LVL34:
 358 0012 051C     		mov	r5, r0
 359 0014 1888     		ldrh	r0, [r3]
 360              	.LVL35:
 361 0016 0E1C     		mov	r6, r1
 362 0018 8146     		mov	r9, r0
 363              		.loc 1 464 0
 364 001a 691E     		sub	r1, r5, #1
 365              	.LVL36:
 366              		.loc 1 465 0
 367 001c B0B2     		uxth	r0, r6
 368              		.loc 1 464 0
 369 001e 8F18     		add	r7, r1, r2
 370              		.loc 1 465 0
 371 0020 0119     		add	r1, r0, r4
 372              		.loc 1 464 0
 373 0022 BBB2     		uxth	r3, r7
 374              		.loc 1 465 0
 375 0024 8FB2     		uxth	r7, r1
 376              		.loc 1 464 0
 377 0026 9A46     		mov	sl, r3
 378              	.LVL37:
 379              		.loc 1 465 0
 380 0028 7B1E     		sub	r3, r7, #1
 381              	.LVL38:
 382 002a 8046     		mov	r8, r0
 383 002c 98B2     		uxth	r0, r3
 384 002e 8346     		mov	fp, r0
 385              	.LVL39:
 386              		.loc 1 467 0
 387 0030 022A     		cmp	r2, #2
 388 0032 1FDD     		ble	.L18
 389              		.loc 1 468 0
 390 0034 002C     		cmp	r4, #0
 391 0036 16DD     		ble	.L17
 392              		.loc 1 469 0
 393 0038 5246     		mov	r2, sl
 394              	.LVL40:
 395 003a 4946     		mov	r1, r9
 396 003c 12B2     		sxth	r2, r2
 397 003e 0091     		str	r1, [sp]
ARM GAS  /tmp/ccPB8r84.s 			page 8


 398 0040 281C     		mov	r0, r5
 399 0042 311C     		mov	r1, r6
 400 0044 331C     		mov	r3, r6
 401              	.LVL41:
 402 0046 9246     		mov	sl, r2
 403              	.LVL42:
 404 0048 FFF7FEFF 		bl	gdisp_lld_draw_line
 405              	.LVL43:
 406              		.loc 1 470 0
 407 004c 012C     		cmp	r4, #1
 408 004e 0AD0     		beq	.L17
 409              		.loc 1 471 0
 410 0050 5E46     		mov	r6, fp
 411 0052 4846     		mov	r0, r9
 412 0054 33B2     		sxth	r3, r6
 413 0056 0090     		str	r0, [sp]
 414 0058 191C     		mov	r1, r3
 415 005a 281C     		mov	r0, r5
 416 005c 5246     		mov	r2, sl
 417 005e FFF7FEFF 		bl	gdisp_lld_draw_line
 418              	.LVL44:
 419              		.loc 1 472 0
 420 0062 022C     		cmp	r4, #2
 421 0064 13D1     		bne	.L29
 422              	.L17:
 423              		.loc 1 484 0
 424 0066 03B0     		add	sp, sp, #12
 425              		@ sp needed for prologue
 426              	.LVL45:
 427 0068 3CBC     		pop	{r2, r3, r4, r5}
 428 006a 9046     		mov	r8, r2
 429 006c 9946     		mov	r9, r3
 430 006e A246     		mov	sl, r4
 431 0070 AB46     		mov	fp, r5
 432 0072 F0BD     		pop	{r4, r5, r6, r7, pc}
 433              	.LVL46:
 434              	.L18:
 435              		.loc 1 478 0
 436 0074 022A     		cmp	r2, #2
 437 0076 20D0     		beq	.L30
 438              		.loc 1 481 0
 439 0078 012A     		cmp	r2, #1
 440 007a F4D1     		bne	.L17
 441              		.loc 1 482 0
 442 007c 4C46     		mov	r4, r9
 443 007e 03B2     		sxth	r3, r0
 444              	.LVL47:
 445 0080 0094     		str	r4, [sp]
 446 0082 281C     		mov	r0, r5
 447              	.LVL48:
 448 0084 311C     		mov	r1, r6
 449 0086 2A1C     		mov	r2, r5
 450              	.LVL49:
 451 0088 FFF7FEFF 		bl	gdisp_lld_draw_line
 452              	.LVL50:
 453 008c EBE7     		b	.L17
 454              	.LVL51:
ARM GAS  /tmp/ccPB8r84.s 			page 9


 455              	.L29:
 456              		.loc 1 473 0
 457 008e 4446     		mov	r4, r8
 458 0090 0134     		add	r4, r4, #1
 459 0092 023F     		sub	r7, r7, #2
 460 0094 26B2     		sxth	r6, r4
 461 0096 3FB2     		sxth	r7, r7
 462 0098 4B46     		mov	r3, r9
 463 009a 0093     		str	r3, [sp]
 464 009c 281C     		mov	r0, r5
 465 009e 311C     		mov	r1, r6
 466 00a0 2A1C     		mov	r2, r5
 467 00a2 3B1C     		mov	r3, r7
 468              		.loc 1 474 0
 469 00a4 4D46     		mov	r5, r9
 470              		.loc 1 473 0
 471 00a6 FFF7FEFF 		bl	gdisp_lld_draw_line
 472              	.LVL52:
 473              		.loc 1 474 0
 474 00aa 0095     		str	r5, [sp]
 475 00ac 5046     		mov	r0, sl
 476 00ae 311C     		mov	r1, r6
 477 00b0 5246     		mov	r2, sl
 478 00b2 3B1C     		mov	r3, r7
 479 00b4 FFF7FEFF 		bl	gdisp_lld_draw_line
 480              	.LVL53:
 481 00b8 D5E7     		b	.L17
 482              	.LVL54:
 483              	.L30:
 484              		.loc 1 479 0
 485 00ba 07B2     		sxth	r7, r0
 486 00bc 4B46     		mov	r3, r9
 487              	.LVL55:
 488 00be 0093     		str	r3, [sp]
 489 00c0 281C     		mov	r0, r5
 490              	.LVL56:
 491 00c2 311C     		mov	r1, r6
 492 00c4 2A1C     		mov	r2, r5
 493              	.LVL57:
 494 00c6 3B1C     		mov	r3, r7
 495              		.loc 1 480 0
 496 00c8 5546     		mov	r5, sl
 497              		.loc 1 479 0
 498 00ca FFF7FEFF 		bl	gdisp_lld_draw_line
 499              	.LVL58:
 500              		.loc 1 480 0
 501 00ce 4846     		mov	r0, r9
 502 00d0 2AB2     		sxth	r2, r5
 503 00d2 0090     		str	r0, [sp]
 504 00d4 311C     		mov	r1, r6
 505 00d6 101C     		mov	r0, r2
 506 00d8 3B1C     		mov	r3, r7
 507 00da FFF7FEFF 		bl	gdisp_lld_draw_line
 508              	.LVL59:
 509 00de C2E7     		b	.L17
 510              		.cfi_endproc
 511              	.LFE41:
ARM GAS  /tmp/ccPB8r84.s 			page 10


 512              		.size	gdispDrawBox, .-gdispDrawBox
 513              		.section	.text.gdispDrawChar,"ax",%progbits
 514              		.align	2
 515              		.p2align 4,,15
 516              		.global	gdispDrawChar
 517              		.code	16
 518              		.thumb_func
 519              		.type	gdispDrawChar, %function
 520              	gdispDrawChar:
 521              	.LFB43:
 522              		.loc 1 609 0
 523              		.cfi_startproc
 524              	.LVL60:
 525 0000 30B5     		push	{r4, r5, lr}
 526              	.LCFI12:
 527              		.cfi_def_cfa_offset 12
 528              		.cfi_offset 4, -12
 529              		.cfi_offset 5, -8
 530              		.cfi_offset 14, -4
 531 0002 051C     		mov	r5, r0
 532 0004 83B0     		sub	sp, sp, #12
 533              	.LCFI13:
 534              		.cfi_def_cfa_offset 24
 535              		.loc 1 609 0
 536 0006 181C     		mov	r0, r3
 537              	.LVL61:
 538              		.loc 1 611 0
 539 0008 D3B2     		uxtb	r3, r2
 540              	.LVL62:
 541 000a 054A     		ldr	r2, .L32
 542              	.LVL63:
 543              		.loc 1 609 0
 544 000c 0C1C     		mov	r4, r1
 545              		.loc 1 611 0
 546 000e 06A9     		add	r1, sp, #24
 547              	.LVL64:
 548 0010 0092     		str	r2, [sp]
 549 0012 0191     		str	r1, [sp, #4]
 550 0014 221C     		mov	r2, r4
 551 0016 291C     		mov	r1, r5
 552 0018 FFF7FEFF 		bl	mf_render_character
 553              	.LVL65:
 554              		.loc 1 612 0
 555 001c 03B0     		add	sp, sp, #12
 556              		@ sp needed for prologue
 557 001e 30BD     		pop	{r4, r5, pc}
 558              	.L33:
 559              		.align	2
 560              	.L32:
 561 0020 00000000 		.word	text_draw_char_callback
 562              		.cfi_endproc
 563              	.LFE43:
 564              		.size	gdispDrawChar, .-gdispDrawChar
 565 0024 C046C046 		.section	.text.gdispFillChar,"ax",%progbits
 565      C046C046 
 565      C046C046 
 566              		.align	2
ARM GAS  /tmp/ccPB8r84.s 			page 11


 567              		.p2align 4,,15
 568              		.global	gdispFillChar
 569              		.code	16
 570              		.thumb_func
 571              		.type	gdispFillChar, %function
 572              	gdispFillChar:
 573              	.LFB44:
 574              		.loc 1 632 0
 575              		.cfi_startproc
 576              	.LVL66:
 577 0000 F0B5     		push	{r4, r5, r6, r7, lr}
 578              	.LCFI14:
 579              		.cfi_def_cfa_offset 20
 580              		.cfi_offset 4, -20
 581              		.cfi_offset 5, -16
 582              		.cfi_offset 6, -12
 583              		.cfi_offset 7, -8
 584              		.cfi_offset 14, -4
 585 0002 4F46     		mov	r7, r9
 586 0004 4646     		mov	r6, r8
 587 0006 C0B4     		push	{r6, r7}
 588              	.LCFI15:
 589              		.cfi_def_cfa_offset 28
 590              		.cfi_offset 8, -28
 591              		.cfi_offset 9, -24
 592 0008 85B0     		sub	sp, sp, #20
 593              	.LCFI16:
 594              		.cfi_def_cfa_offset 48
 595              		.loc 1 632 0
 596 000a 0F1C     		mov	r7, r1
 597 000c 0DA9     		add	r1, sp, #52
 598              	.LVL67:
 599 000e 0D88     		ldrh	r5, [r1]
 600 0010 1C1C     		mov	r4, r3
 601 0012 A946     		mov	r9, r5
 602 0014 0CAB     		add	r3, sp, #48
 603              	.LVL68:
 604 0016 8046     		mov	r8, r0
 605              		.loc 1 636 0
 606 0018 03AD     		add	r5, sp, #12
 607              		.loc 1 632 0
 608 001a 1888     		ldrh	r0, [r3]
 609              	.LVL69:
 610              		.loc 1 637 0
 611 001c 4E46     		mov	r6, r9
 612 001e 6E80     		strh	r6, [r5, #2]
 613              		.loc 1 639 0
 614 0020 D6B2     		uxtb	r6, r2
 615              		.loc 1 636 0
 616 0022 2880     		strh	r0, [r5]
 617              		.loc 1 639 0
 618 0024 311C     		mov	r1, r6
 619 0026 201C     		mov	r0, r4
 620 0028 FFF7FEFF 		bl	mf_character_width
 621              	.LVL70:
 622 002c 227B     		ldrb	r2, [r4, #12]
 623 002e 391C     		mov	r1, r7
ARM GAS  /tmp/ccPB8r84.s 			page 12


 624 0030 8318     		add	r3, r0, r2
 625 0032 4846     		mov	r0, r9
 626 0034 1AB2     		sxth	r2, r3
 627 0036 0090     		str	r0, [sp]
 628 0038 637A     		ldrb	r3, [r4, #9]
 629 003a 4046     		mov	r0, r8
 630 003c FFF7FEFF 		bl	gdisp_lld_fill_area
 631              	.LVL71:
 632              		.loc 1 640 0
 633 0040 0649     		ldr	r1, .L35
 634 0042 0195     		str	r5, [sp, #4]
 635 0044 0091     		str	r1, [sp]
 636 0046 201C     		mov	r0, r4
 637 0048 4146     		mov	r1, r8
 638 004a 3A1C     		mov	r2, r7
 639 004c 331C     		mov	r3, r6
 640 004e FFF7FEFF 		bl	mf_render_character
 641              	.LVL72:
 642              		.loc 1 641 0
 643 0052 05B0     		add	sp, sp, #20
 644              		@ sp needed for prologue
 645              	.LVL73:
 646 0054 0CBC     		pop	{r2, r3}
 647 0056 9046     		mov	r8, r2
 648 0058 9946     		mov	r9, r3
 649 005a F0BD     		pop	{r4, r5, r6, r7, pc}
 650              	.L36:
 651              		.align	2
 652              	.L35:
 653 005c 00000000 		.word	text_draw_char_callback
 654              		.cfi_endproc
 655              	.LFE44:
 656              		.size	gdispFillChar, .-gdispFillChar
 657              		.section	.text.gdispDrawString,"ax",%progbits
 658              		.align	2
 659              		.p2align 4,,15
 660              		.global	gdispDrawString
 661              		.code	16
 662              		.thumb_func
 663              		.type	gdispDrawString, %function
 664              	gdispDrawString:
 665              	.LFB46:
 666              		.loc 1 663 0
 667              		.cfi_startproc
 668              	.LVL74:
 669 0000 70B5     		push	{r4, r5, r6, lr}
 670              	.LCFI17:
 671              		.cfi_def_cfa_offset 16
 672              		.cfi_offset 4, -16
 673              		.cfi_offset 5, -12
 674              		.cfi_offset 6, -8
 675              		.cfi_offset 14, -4
 676 0002 88B0     		sub	sp, sp, #32
 677              	.LCFI18:
 678              		.cfi_def_cfa_offset 48
 679              		.loc 1 663 0
 680 0004 0D1C     		mov	r5, r1
ARM GAS  /tmp/ccPB8r84.s 			page 13


 681 0006 0CA9     		add	r1, sp, #48
 682              	.LVL75:
 683 0008 0E88     		ldrh	r6, [r1]
 684              		.loc 1 667 0
 685 000a 04AC     		add	r4, sp, #16
 686              		.loc 1 671 0
 687 000c 0D49     		ldr	r1, .L38
 688              		.loc 1 669 0
 689 000e E080     		strh	r0, [r4, #6]
 690              		.loc 1 668 0
 691 0010 A680     		strh	r6, [r4, #4]
 692              		.loc 1 670 0
 693 0012 2581     		strh	r5, [r4, #8]
 694              		.loc 1 667 0
 695 0014 0493     		str	r3, [sp, #16]
 696              		.loc 1 671 0
 697 0016 0E88     		ldrh	r6, [r1]
 698 0018 80B2     		uxth	r0, r0
 699              	.LVL76:
 700 001a 361A     		sub	r6, r6, r0
 701 001c 6681     		strh	r6, [r4, #10]
 702              		.loc 1 672 0
 703 001e 4988     		ldrh	r1, [r1, #2]
 704 0020 4E1B     		sub	r6, r1, r5
 705 0022 A681     		strh	r6, [r4, #12]
 706              	.LVL77:
 707              		.loc 1 674 0
 708 0024 197B     		ldrb	r1, [r3, #12]
 709              		.loc 1 675 0
 710 0026 084E     		ldr	r6, .L38+4
 711 0028 0092     		str	r2, [sp]
 712              		.loc 1 674 0
 713 002a 4018     		add	r0, r0, r1
 714              	.LVL78:
 715              		.loc 1 675 0
 716 002c 0022     		mov	r2, #0
 717              	.LVL79:
 718 002e 01B2     		sxth	r1, r0
 719 0030 0192     		str	r2, [sp, #4]
 720 0032 181C     		mov	r0, r3
 721 0034 0296     		str	r6, [sp, #8]
 722 0036 0394     		str	r4, [sp, #12]
 723 0038 2A1C     		mov	r2, r5
 724 003a 0023     		mov	r3, #0
 725              	.LVL80:
 726 003c FFF7FEFF 		bl	mf_render_aligned
 727              	.LVL81:
 728              		.loc 1 676 0
 729 0040 08B0     		add	sp, sp, #32
 730              		@ sp needed for prologue
 731 0042 70BD     		pop	{r4, r5, r6, pc}
 732              	.L39:
 733              		.align	2
 734              	.L38:
 735 0044 00000000 		.word	GDISP
 736 0048 00000000 		.word	gdispDrawString_callback
 737              		.cfi_endproc
ARM GAS  /tmp/ccPB8r84.s 			page 14


 738              	.LFE46:
 739              		.size	gdispDrawString, .-gdispDrawString
 740 004c C046C046 		.section	.text.gdispFillString,"ax",%progbits
 741              		.align	2
 742              		.p2align 4,,15
 743              		.global	gdispFillString
 744              		.code	16
 745              		.thumb_func
 746              		.type	gdispFillString, %function
 747              	gdispFillString:
 748              	.LFB48:
 749              		.loc 1 698 0
 750              		.cfi_startproc
 751              	.LVL82:
 752 0000 F0B5     		push	{r4, r5, r6, r7, lr}
 753              	.LCFI19:
 754              		.cfi_def_cfa_offset 20
 755              		.cfi_offset 4, -20
 756              		.cfi_offset 5, -16
 757              		.cfi_offset 6, -12
 758              		.cfi_offset 7, -8
 759              		.cfi_offset 14, -4
 760 0002 4F46     		mov	r7, r9
 761 0004 4646     		mov	r6, r8
 762 0006 C0B4     		push	{r6, r7}
 763              	.LCFI20:
 764              		.cfi_def_cfa_offset 28
 765              		.cfi_offset 8, -28
 766              		.cfi_offset 9, -24
 767 0008 89B0     		sub	sp, sp, #36
 768              	.LCFI21:
 769              		.cfi_def_cfa_offset 64
 770              		.loc 1 698 0
 771 000a 1D1C     		mov	r5, r3
 772 000c 9046     		mov	r8, r2
 773 000e 10AB     		add	r3, sp, #64
 774              	.LVL83:
 775 0010 11AA     		add	r2, sp, #68
 776              	.LVL84:
 777 0012 0E1C     		mov	r6, r1
 778 0014 071C     		mov	r7, r0
 779 0016 1188     		ldrh	r1, [r2]
 780              	.LVL85:
 781 0018 1888     		ldrh	r0, [r3]
 782              	.LVL86:
 783              		.loc 1 702 0
 784 001a 04AC     		add	r4, sp, #16
 785              		.loc 1 698 0
 786 001c 8946     		mov	r9, r1
 787              		.loc 1 703 0
 788 001e A080     		strh	r0, [r4, #4]
 789              		.loc 1 704 0
 790 0020 E180     		strh	r1, [r4, #6]
 791              		.loc 1 707 0
 792 0022 281C     		mov	r0, r5
 793 0024 4146     		mov	r1, r8
 794 0026 0022     		mov	r2, #0
ARM GAS  /tmp/ccPB8r84.s 			page 15


 795 0028 0023     		mov	r3, #0
 796              		.loc 1 705 0
 797 002a 2781     		strh	r7, [r4, #8]
 798              		.loc 1 702 0
 799 002c 0495     		str	r5, [sp, #16]
 800              		.loc 1 706 0
 801 002e 6681     		strh	r6, [r4, #10]
 802              		.loc 1 707 0
 803 0030 FFF7FEFF 		bl	mf_get_string_width
 804              	.LVL87:
 805              		.loc 1 708 0
 806 0034 6B7A     		ldrb	r3, [r5, #9]
 807              		.loc 1 707 0
 808 0036 A081     		strh	r0, [r4, #12]
 809 0038 021C     		mov	r2, r0
 810              		.loc 1 710 0
 811 003a 4846     		mov	r0, r9
 812              		.loc 1 708 0
 813 003c E381     		strh	r3, [r4, #14]
 814              		.loc 1 710 0
 815 003e 311C     		mov	r1, r6
 816 0040 0090     		str	r0, [sp]
 817 0042 381C     		mov	r0, r7
 818 0044 FFF7FEFF 		bl	gdisp_lld_fill_area
 819              	.LVL88:
 820              		.loc 1 711 0
 821 0048 2A7B     		ldrb	r2, [r5, #12]
 822 004a 4346     		mov	r3, r8
 823 004c BF18     		add	r7, r7, r2
 824 004e 084A     		ldr	r2, .L41
 825 0050 0020     		mov	r0, #0
 826 0052 0093     		str	r3, [sp]
 827 0054 0190     		str	r0, [sp, #4]
 828 0056 0292     		str	r2, [sp, #8]
 829 0058 39B2     		sxth	r1, r7
 830 005a 0394     		str	r4, [sp, #12]
 831 005c 281C     		mov	r0, r5
 832 005e 321C     		mov	r2, r6
 833 0060 0023     		mov	r3, #0
 834 0062 FFF7FEFF 		bl	mf_render_aligned
 835              	.LVL89:
 836              		.loc 1 712 0
 837 0066 09B0     		add	sp, sp, #36
 838              		@ sp needed for prologue
 839              	.LVL90:
 840              	.LVL91:
 841 0068 0CBC     		pop	{r2, r3}
 842 006a 9046     		mov	r8, r2
 843 006c 9946     		mov	r9, r3
 844 006e F0BD     		pop	{r4, r5, r6, r7, pc}
 845              	.L42:
 846              		.align	2
 847              	.L41:
 848 0070 00000000 		.word	gdispFillString_callback
 849              		.cfi_endproc
 850              	.LFE48:
 851              		.size	gdispFillString, .-gdispFillString
ARM GAS  /tmp/ccPB8r84.s 			page 16


 852 0074 C046C046 		.section	.text.gdispDrawStringBox,"ax",%progbits
 852      C046C046 
 852      C046C046 
 853              		.align	2
 854              		.p2align 4,,15
 855              		.global	gdispDrawStringBox
 856              		.code	16
 857              		.thumb_func
 858              		.type	gdispDrawStringBox, %function
 859              	gdispDrawStringBox:
 860              	.LFB49:
 861              		.loc 1 714 0
 862              		.cfi_startproc
 863              	.LVL92:
 864 0000 F0B5     		push	{r4, r5, r6, r7, lr}
 865              	.LCFI22:
 866              		.cfi_def_cfa_offset 20
 867              		.cfi_offset 4, -20
 868              		.cfi_offset 5, -16
 869              		.cfi_offset 6, -12
 870              		.cfi_offset 7, -8
 871              		.cfi_offset 14, -4
 872 0002 89B0     		sub	sp, sp, #36
 873              	.LCFI23:
 874              		.cfi_def_cfa_offset 56
 875              		.loc 1 714 0
 876 0004 0F1C     		mov	r7, r1
 877 0006 11AC     		add	r4, sp, #68
 878 0008 10A9     		add	r1, sp, #64
 879              	.LVL93:
 880 000a 0F9D     		ldr	r5, [sp, #60]
 881 000c 0988     		ldrh	r1, [r1]
 882 000e 2678     		ldrb	r6, [r4]
 883              		.loc 1 718 0
 884 0010 04AC     		add	r4, sp, #16
 885 0012 0495     		str	r5, [sp, #16]
 886              		.loc 1 719 0
 887 0014 A180     		strh	r1, [r4, #4]
 888              		.loc 1 720 0
 889 0016 E080     		strh	r0, [r4, #6]
 890              		.loc 1 721 0
 891 0018 2781     		strh	r7, [r4, #8]
 892              		.loc 1 722 0
 893 001a 6281     		strh	r2, [r4, #10]
 894              		.loc 1 723 0
 895 001c A381     		strh	r3, [r4, #12]
 896              		.loc 1 726 0
 897 001e 012E     		cmp	r6, #1
 898 0020 19D0     		beq	.L45
 899 0022 022E     		cmp	r6, #2
 900 0024 1ED0     		beq	.L49
 901              		.loc 1 734 0
 902 0026 2A7B     		ldrb	r2, [r5, #12]
 903              	.LVL94:
 904 0028 8018     		add	r0, r0, r2
 905              	.LVL95:
 906 002a 01B2     		sxth	r1, r0
ARM GAS  /tmp/ccPB8r84.s 			page 17


 907              	.LVL96:
 908              	.L47:
 909              		.loc 1 737 0
 910 002c 6A7A     		ldrb	r2, [r5, #9]
 911 002e 0133     		add	r3, r3, #1
 912              	.LVL97:
 913 0030 9B1A     		sub	r3, r3, r2
 914 0032 D80F     		lsr	r0, r3, #31
 915 0034 C218     		add	r2, r0, r3
 916 0036 5310     		asr	r3, r2, #1
 917 0038 DF19     		add	r7, r3, r7
 918              	.LVL98:
 919              		.loc 1 739 0
 920 003a 0E98     		ldr	r0, [sp, #56]
 921 003c 3AB2     		sxth	r2, r7
 922 003e 0B4F     		ldr	r7, .L50
 923              	.LVL99:
 924 0040 0023     		mov	r3, #0
 925 0042 0090     		str	r0, [sp]
 926 0044 0193     		str	r3, [sp, #4]
 927 0046 0297     		str	r7, [sp, #8]
 928 0048 0394     		str	r4, [sp, #12]
 929 004a 281C     		mov	r0, r5
 930 004c 331C     		mov	r3, r6
 931 004e FFF7FEFF 		bl	mf_render_aligned
 932              	.LVL100:
 933              		.loc 1 740 0
 934 0052 09B0     		add	sp, sp, #36
 935              		@ sp needed for prologue
 936 0054 F0BD     		pop	{r4, r5, r6, r7, pc}
 937              	.LVL101:
 938              	.L45:
 939              		.loc 1 728 0
 940 0056 0132     		add	r2, r2, #1
 941              	.LVL102:
 942 0058 D10F     		lsr	r1, r2, #31
 943 005a 8A18     		add	r2, r1, r2
 944 005c 5110     		asr	r1, r2, #1
 945 005e 0818     		add	r0, r1, r0
 946              	.LVL103:
 947 0060 01B2     		sxth	r1, r0
 948              	.LVL104:
 949              		.loc 1 729 0
 950 0062 E3E7     		b	.L47
 951              	.LVL105:
 952              	.L49:
 953              		.loc 1 731 0
 954 0064 1118     		add	r1, r2, r0
 955 0066 09B2     		sxth	r1, r1
 956              	.LVL106:
 957              		.loc 1 732 0
 958 0068 E0E7     		b	.L47
 959              	.L51:
 960 006a C046     		.align	2
 961              	.L50:
 962 006c 00000000 		.word	gdispDrawString_callback
 963              		.cfi_endproc
ARM GAS  /tmp/ccPB8r84.s 			page 18


 964              	.LFE49:
 965              		.size	gdispDrawStringBox, .-gdispDrawStringBox
 966              		.section	.text.gdispFillStringBox,"ax",%progbits
 967              		.align	2
 968              		.p2align 4,,15
 969              		.global	gdispFillStringBox
 970              		.code	16
 971              		.thumb_func
 972              		.type	gdispFillStringBox, %function
 973              	gdispFillStringBox:
 974              	.LFB50:
 975              		.loc 1 742 0
 976              		.cfi_startproc
 977              	.LVL107:
 978 0000 F0B5     		push	{r4, r5, r6, r7, lr}
 979              	.LCFI24:
 980              		.cfi_def_cfa_offset 20
 981              		.cfi_offset 4, -20
 982              		.cfi_offset 5, -16
 983              		.cfi_offset 6, -12
 984              		.cfi_offset 7, -8
 985              		.cfi_offset 14, -4
 986 0002 5746     		mov	r7, sl
 987 0004 4646     		mov	r6, r8
 988 0006 C0B4     		push	{r6, r7}
 989              	.LCFI25:
 990              		.cfi_def_cfa_offset 28
 991              		.cfi_offset 8, -28
 992              		.cfi_offset 10, -24
 993 0008 89B0     		sub	sp, sp, #36
 994              	.LCFI26:
 995              		.cfi_def_cfa_offset 64
 996              		.loc 1 742 0
 997 000a 1F1C     		mov	r7, r3
 998 000c 12AB     		add	r3, sp, #72
 999              	.LVL108:
 1000 000e 8046     		mov	r8, r0
 1001 0010 9246     		mov	sl, r2
 1002 0012 13A8     		add	r0, sp, #76
 1003              	.LVL109:
 1004 0014 1A88     		ldrh	r2, [r3]
 1005              	.LVL110:
 1006              		.loc 1 746 0
 1007 0016 04AC     		add	r4, sp, #16
 1008              		.loc 1 742 0
 1009 0018 0388     		ldrh	r3, [r0]
 1010 001a 0E1C     		mov	r6, r1
 1011              		.loc 1 746 0
 1012 001c 1198     		ldr	r0, [sp, #68]
 1013              		.loc 1 742 0
 1014 001e 14A9     		add	r1, sp, #80
 1015              	.LVL111:
 1016 0020 0D78     		ldrb	r5, [r1]
 1017              		.loc 1 747 0
 1018 0022 A280     		strh	r2, [r4, #4]
 1019              		.loc 1 751 0
 1020 0024 5146     		mov	r1, sl
ARM GAS  /tmp/ccPB8r84.s 			page 19


 1021              		.loc 1 749 0
 1022 0026 4246     		mov	r2, r8
 1023              		.loc 1 748 0
 1024 0028 E380     		strh	r3, [r4, #6]
 1025              		.loc 1 749 0
 1026 002a 2281     		strh	r2, [r4, #8]
 1027              		.loc 1 751 0
 1028 002c A181     		strh	r1, [r4, #12]
 1029              		.loc 1 746 0
 1030 002e 0490     		str	r0, [sp, #16]
 1031              		.loc 1 750 0
 1032 0030 6681     		strh	r6, [r4, #10]
 1033              		.loc 1 752 0
 1034 0032 E781     		strh	r7, [r4, #14]
 1035              		.loc 1 754 0
 1036 0034 4046     		mov	r0, r8
 1037 0036 0093     		str	r3, [sp]
 1038 0038 311C     		mov	r1, r6
 1039 003a 5246     		mov	r2, sl
 1040 003c 3B1C     		mov	r3, r7
 1041 003e FFF7FEFF 		bl	gdisp_lld_fill_area
 1042              	.LVL112:
 1043              		.loc 1 757 0
 1044 0042 012D     		cmp	r5, #1
 1045 0044 1ED0     		beq	.L54
 1046 0046 022D     		cmp	r5, #2
 1047 0048 24D0     		beq	.L58
 1048              		.loc 1 765 0
 1049 004a 119B     		ldr	r3, [sp, #68]
 1050 004c 187B     		ldrb	r0, [r3, #12]
 1051 004e 4044     		add	r0, r0, r8
 1052 0050 01B2     		sxth	r1, r0
 1053              	.LVL113:
 1054              	.L56:
 1055              		.loc 1 768 0
 1056 0052 119B     		ldr	r3, [sp, #68]
 1057 0054 0137     		add	r7, r7, #1
 1058 0056 587A     		ldrb	r0, [r3, #9]
 1059              		.loc 1 771 0
 1060 0058 0394     		str	r4, [sp, #12]
 1061              		.loc 1 768 0
 1062 005a 3F1A     		sub	r7, r7, r0
 1063 005c FA0F     		lsr	r2, r7, #31
 1064 005e D319     		add	r3, r2, r7
 1065 0060 5810     		asr	r0, r3, #1
 1066 0062 8619     		add	r6, r0, r6
 1067              	.LVL114:
 1068              		.loc 1 771 0
 1069 0064 109F     		ldr	r7, [sp, #64]
 1070 0066 0D48     		ldr	r0, .L59
 1071 0068 0023     		mov	r3, #0
 1072 006a 0193     		str	r3, [sp, #4]
 1073 006c 0290     		str	r0, [sp, #8]
 1074 006e 32B2     		sxth	r2, r6
 1075 0070 0097     		str	r7, [sp]
 1076 0072 1198     		ldr	r0, [sp, #68]
 1077 0074 2B1C     		mov	r3, r5
ARM GAS  /tmp/ccPB8r84.s 			page 20


 1078 0076 FFF7FEFF 		bl	mf_render_aligned
 1079              	.LVL115:
 1080              		.loc 1 772 0
 1081 007a 09B0     		add	sp, sp, #36
 1082              		@ sp needed for prologue
 1083              	.LVL116:
 1084 007c 0CBC     		pop	{r2, r3}
 1085 007e 9046     		mov	r8, r2
 1086 0080 9A46     		mov	sl, r3
 1087 0082 F0BD     		pop	{r4, r5, r6, r7, pc}
 1088              	.LVL117:
 1089              	.L54:
 1090              		.loc 1 759 0
 1091 0084 5346     		mov	r3, sl
 1092 0086 0133     		add	r3, r3, #1
 1093 0088 D80F     		lsr	r0, r3, #31
 1094 008a C218     		add	r2, r0, r3
 1095 008c 5110     		asr	r1, r2, #1
 1096 008e 4144     		add	r1, r1, r8
 1097 0090 09B2     		sxth	r1, r1
 1098              	.LVL118:
 1099              		.loc 1 760 0
 1100 0092 DEE7     		b	.L56
 1101              	.LVL119:
 1102              	.L58:
 1103              		.loc 1 762 0
 1104 0094 5146     		mov	r1, sl
 1105 0096 4144     		add	r1, r1, r8
 1106 0098 09B2     		sxth	r1, r1
 1107              	.LVL120:
 1108              		.loc 1 763 0
 1109 009a DAE7     		b	.L56
 1110              	.L60:
 1111              		.align	2
 1112              	.L59:
 1113 009c 00000000 		.word	gdispFillString_callback
 1114              		.cfi_endproc
 1115              	.LFE50:
 1116              		.size	gdispFillStringBox, .-gdispFillStringBox
 1117              		.section	.text.gdispGetFontMetric,"ax",%progbits
 1118              		.align	2
 1119              		.p2align 4,,15
 1120              		.global	gdispGetFontMetric
 1121              		.code	16
 1122              		.thumb_func
 1123              		.type	gdispGetFontMetric, %function
 1124              	gdispGetFontMetric:
 1125              	.LFB51:
 1126              		.loc 1 774 0
 1127              		.cfi_startproc
 1128              	.LVL121:
 1129              		.loc 1 776 0
 1130 0000 0529     		cmp	r1, #5
 1131 0002 02D9     		bls	.L70
 1132              	.LVL122:
 1133              	.L69:
 1134              		.loc 1 780 0
ARM GAS  /tmp/ccPB8r84.s 			page 21


 1135 0004 0022     		mov	r2, #0
 1136              	.LVL123:
 1137              	.L62:
 1138 0006 10B2     		sxth	r0, r2
 1139              		.loc 1 785 0
 1140              		@ sp needed for prologue
 1141 0008 7047     		bx	lr
 1142              	.LVL124:
 1143              	.L70:
 1144              		.loc 1 776 0
 1145 000a 084B     		ldr	r3, .L71
 1146 000c 8900     		lsl	r1, r1, #2
 1147              	.LVL125:
 1148 000e 5A58     		ldr	r2, [r3, r1]
 1149 0010 9746     		mov	pc, r2
 1150              		.section	.rodata.gdispGetFontMetric,"a",%progbits
 1151              		.align	2
 1152              	.L68:
 1153 0000 16000000 		.word	.L63
 1154 0004 1A000000 		.word	.L64
 1155 0008 24000000 		.word	.L65
 1156 000c 04000000 		.word	.L69
 1157 0010 28000000 		.word	.L66
 1158 0014 12000000 		.word	.L67
 1159              		.section	.text.gdispGetFontMetric
 1160              	.L67:
 1161              		.loc 1 782 0
 1162 0012 C27A     		ldrb	r2, [r0, #11]
 1163 0014 F7E7     		b	.L62
 1164              	.L63:
 1165              		.loc 1 777 0
 1166 0016 427A     		ldrb	r2, [r0, #9]
 1167 0018 F5E7     		b	.L62
 1168              	.L64:
 1169              		.loc 1 778 0
 1170 001a 417A     		ldrb	r1, [r0, #9]
 1171 001c 407B     		ldrb	r0, [r0, #13]
 1172              	.LVL126:
 1173 001e 0B1A     		sub	r3, r1, r0
 1174 0020 9AB2     		uxth	r2, r3
 1175 0022 F0E7     		b	.L62
 1176              	.LVL127:
 1177              	.L65:
 1178              		.loc 1 779 0
 1179 0024 827B     		ldrb	r2, [r0, #14]
 1180 0026 EEE7     		b	.L62
 1181              	.L66:
 1182              		.loc 1 781 0
 1183 0028 827A     		ldrb	r2, [r0, #10]
 1184 002a ECE7     		b	.L62
 1185              	.L72:
 1186              		.align	2
 1187              	.L71:
 1188 002c 00000000 		.word	.L68
 1189              		.cfi_endproc
 1190              	.LFE51:
 1191              		.size	gdispGetFontMetric, .-gdispGetFontMetric
ARM GAS  /tmp/ccPB8r84.s 			page 22


 1192              		.section	.text.gdispGetCharWidth,"ax",%progbits
 1193              		.align	2
 1194              		.p2align 4,,15
 1195              		.global	gdispGetCharWidth
 1196              		.code	16
 1197              		.thumb_func
 1198              		.type	gdispGetCharWidth, %function
 1199              	gdispGetCharWidth:
 1200              	.LFB52:
 1201              		.loc 1 787 0
 1202              		.cfi_startproc
 1203              	.LVL128:
 1204 0000 08B5     		push	{r3, lr}
 1205              	.LCFI27:
 1206              		.cfi_def_cfa_offset 8
 1207              		.cfi_offset 3, -8
 1208              		.cfi_offset 14, -4
 1209              		.loc 1 787 0
 1210 0002 031C     		mov	r3, r0
 1211              		.loc 1 789 0
 1212 0004 081C     		mov	r0, r1
 1213              	.LVL129:
 1214 0006 191C     		mov	r1, r3
 1215              	.LVL130:
 1216 0008 FFF7FEFF 		bl	mf_character_width
 1217              	.LVL131:
 1218              		.loc 1 790 0
 1219              		@ sp needed for prologue
 1220              		.loc 1 789 0
 1221 000c 00B2     		sxth	r0, r0
 1222              		.loc 1 790 0
 1223 000e 08BD     		pop	{r3, pc}
 1224              		.cfi_endproc
 1225              	.LFE52:
 1226              		.size	gdispGetCharWidth, .-gdispGetCharWidth
 1227              		.section	.text.gdispGetStringWidth,"ax",%progbits
 1228              		.align	2
 1229              		.p2align 4,,15
 1230              		.global	gdispGetStringWidth
 1231              		.code	16
 1232              		.thumb_func
 1233              		.type	gdispGetStringWidth, %function
 1234              	gdispGetStringWidth:
 1235              	.LFB53:
 1236              		.loc 1 792 0
 1237              		.cfi_startproc
 1238              	.LVL132:
 1239 0000 08B5     		push	{r3, lr}
 1240              	.LCFI28:
 1241              		.cfi_def_cfa_offset 8
 1242              		.cfi_offset 3, -8
 1243              		.cfi_offset 14, -4
 1244              		.loc 1 792 0
 1245 0002 031C     		mov	r3, r0
 1246              		.loc 1 794 0
 1247 0004 0022     		mov	r2, #0
 1248 0006 081C     		mov	r0, r1
ARM GAS  /tmp/ccPB8r84.s 			page 23


 1249              	.LVL133:
 1250 0008 191C     		mov	r1, r3
 1251              	.LVL134:
 1252 000a 0023     		mov	r3, #0
 1253              	.LVL135:
 1254 000c FFF7FEFF 		bl	mf_get_string_width
 1255              	.LVL136:
 1256              		.loc 1 795 0
 1257              		@ sp needed for prologue
 1258 0010 08BD     		pop	{r3, pc}
 1259              		.cfi_endproc
 1260              	.LFE53:
 1261              		.size	gdispGetStringWidth, .-gdispGetStringWidth
 1262 0012 C046C046 		.section	.text.gdispBlendColor,"ax",%progbits
 1262      C046C046 
 1262      C046C046 
 1262      C046
 1263              		.align	2
 1264              		.p2align 4,,15
 1265              		.global	gdispBlendColor
 1266              		.code	16
 1267              		.thumb_func
 1268              		.type	gdispBlendColor, %function
 1269              	gdispBlendColor:
 1270              	.LFB54:
 1271              		.loc 1 799 0
 1272              		.cfi_startproc
 1273              	.LVL137:
 1274 0000 F0B5     		push	{r4, r5, r6, r7, lr}
 1275              	.LCFI29:
 1276              		.cfi_def_cfa_offset 20
 1277              		.cfi_offset 4, -20
 1278              		.cfi_offset 5, -16
 1279              		.cfi_offset 6, -12
 1280              		.cfi_offset 7, -8
 1281              		.cfi_offset 14, -4
 1282              		.loc 1 804 0
 1283 0002 C70A     		lsr	r7, r0, #11
 1284              		.loc 1 800 0
 1285 0004 541C     		add	r4, r2, #1
 1286              	.LVL138:
 1287              		.loc 1 804 0
 1288 0006 FE00     		lsl	r6, r7, #3
 1289 0008 6643     		mul	r6, r4
 1290              		.loc 1 801 0
 1291 000a 8023     		mov	r3, #128
 1292 000c 5D00     		lsl	r5, r3, #1
 1293 000e AA1A     		sub	r2, r5, r2
 1294              	.LVL139:
 1295              		.loc 1 805 0
 1296 0010 FC25     		mov	r5, #252
 1297              		.loc 1 801 0
 1298 0012 93B2     		uxth	r3, r2
 1299              	.LVL140:
 1300              		.loc 1 804 0
 1301 0014 B7B2     		uxth	r7, r6
 1302              	.LVL141:
ARM GAS  /tmp/ccPB8r84.s 			page 24


 1303              		.loc 1 805 0
 1304 0016 021C     		mov	r2, r0
 1305              	.LVL142:
 1306 0018 EE00     		lsl	r6, r5, #3
 1307              	.LVL143:
 1308 001a 3240     		and	r2, r6
 1309 001c D510     		asr	r5, r2, #3
 1310 001e 6543     		mul	r5, r4
 1311              		.loc 1 806 0
 1312 0020 C000     		lsl	r0, r0, #3
 1313              	.LVL144:
 1314              		.loc 1 805 0
 1315 0022 AAB2     		uxth	r2, r5
 1316              	.LVL145:
 1317              		.loc 1 806 0
 1318 0024 FF25     		mov	r5, #255
 1319              	.LVL146:
 1320 0026 2840     		and	r0, r5
 1321 0028 4443     		mul	r4, r0
 1322              	.LVL147:
 1323              		.loc 1 809 0
 1324 002a 0E40     		and	r6, r1
 1325              		.loc 1 808 0
 1326 002c C80A     		lsr	r0, r1, #11
 1327 002e C000     		lsl	r0, r0, #3
 1328              		.loc 1 810 0
 1329 0030 C900     		lsl	r1, r1, #3
 1330              	.LVL148:
 1331              		.loc 1 809 0
 1332 0032 F610     		asr	r6, r6, #3
 1333              		.loc 1 808 0
 1334 0034 5843     		mul	r0, r3
 1335              		.loc 1 809 0
 1336 0036 5E43     		mul	r6, r3
 1337              		.loc 1 810 0
 1338 0038 0D40     		and	r5, r1
 1339 003a 6B43     		mul	r3, r5
 1340              	.LVL149:
 1341              		.loc 1 809 0
 1342 003c 9219     		add	r2, r2, r6
 1343              	.LVL150:
 1344              		.loc 1 806 0
 1345 003e A4B2     		uxth	r4, r4
 1346              	.LVL151:
 1347              		.loc 1 808 0
 1348 0040 3F18     		add	r7, r7, r0
 1349              	.LVL152:
 1350              		.loc 1 810 0
 1351 0042 E318     		add	r3, r4, r3
 1352              	.LVL153:
 1353              		.loc 1 813 0
 1354 0044 150A     		lsr	r5, r2, #8
 1355              		.loc 1 816 0
 1356 0046 FC24     		mov	r4, #252
 1357 0048 F826     		mov	r6, #248
 1358              		.loc 1 812 0
 1359 004a 3F0A     		lsr	r7, r7, #8
ARM GAS  /tmp/ccPB8r84.s 			page 25


 1360              	.LVL154:
 1361              		.loc 1 816 0
 1362 004c 3740     		and	r7, r6
 1363 004e 2540     		and	r5, r4
 1364              		.loc 1 814 0
 1365 0050 190A     		lsr	r1, r3, #8
 1366              		.loc 1 816 0
 1367 0052 E800     		lsl	r0, r5, #3
 1368 0054 3A02     		lsl	r2, r7, #8
 1369              	.LVL155:
 1370 0056 0E40     		and	r6, r1
 1371 0058 F310     		asr	r3, r6, #3
 1372              	.LVL156:
 1373 005a 1043     		orr	r0, r2
 1374 005c 1843     		orr	r0, r3
 1375              		.loc 1 817 0
 1376              		@ sp needed for prologue
 1377 005e F0BD     		pop	{r4, r5, r6, r7, pc}
 1378              		.cfi_endproc
 1379              	.LFE54:
 1380              		.size	gdispBlendColor, .-gdispBlendColor
 1381              		.text
 1382              	.Letext0:
 1383              		.file 2 "/home/matt/arm_cortex/gcc-arm-none-eabi/bin/../lib/gcc/arm-none-eabi/4.7.4/../../../../ar
 1384              		.file 3 "/home/matt/arm_cortex/ChibiOS/os/ports/GCC/ARMCMx/chtypes.h"
 1385              		.file 4 "/home/matt/arm_cortex/ChibiOS/ext/ugfx/include/gdisp/gdisp.h"
 1386              		.file 5 "/home/matt/arm_cortex/ChibiOS/ext/ugfx/src/gdisp/mcufont/mf_font.h"
 1387              		.file 6 "/home/matt/arm_cortex/ChibiOS/ext/ugfx/src/gdisp/mcufont/mf_encoding.h"
 1388              		.file 7 "/home/matt/arm_cortex/ChibiOS/ext/ugfx/src/gdisp/mcufont/mf_justify.h"
 1389              		.file 8 "/home/matt/arm_cortex/ChibiOS/ext/ugfx/include/gdisp/lld/gdisp_lld.h"