ARM GAS  /tmp/cclC07rx.s 			page 1


   1              		.cpu cortex-m0
   2              		.fpu softvfp
   3              		.eabi_attribute 20, 1
   4              		.eabi_attribute 21, 1
   5              		.eabi_attribute 23, 3
   6              		.eabi_attribute 24, 1
   7              		.eabi_attribute 25, 1
   8              		.eabi_attribute 26, 1
   9              		.eabi_attribute 30, 2
  10              		.eabi_attribute 34, 0
  11              		.eabi_attribute 18, 4
  12              		.code	16
  13              		.file	"gevent.c"
  14              		.text
  15              	.Ltext0:
  16              		.cfi_sections	.debug_frame
  17              		.section	.text.deleteAssignments,"ax",%progbits
  18              		.align	2
  19              		.p2align 4,,15
  20              		.code	16
  21              		.thumb_func
  22              		.type	deleteAssignments, %function
  23              	deleteAssignments:
  24              	.LFB40:
  25              		.file 1 "/home/matt/arm_cortex/ChibiOS/ext/ugfx/src/gevent/gevent.c"
  26              		.loc 1 33 0
  27              		.cfi_startproc
  28              	.LVL0:
  29 0000 F0B5     		push	{r4, r5, r6, r7, lr}
  30              	.LCFI0:
  31              		.cfi_def_cfa_offset 20
  32              		.cfi_offset 4, -20
  33              		.cfi_offset 5, -16
  34              		.cfi_offset 6, -12
  35              		.cfi_offset 7, -8
  36              		.cfi_offset 14, -4
  37 0002 5746     		mov	r7, sl
  38 0004 4546     		mov	r5, r8
  39 0006 4E46     		mov	r6, r9
  40 0008 E0B4     		push	{r5, r6, r7}
  41              	.LCFI1:
  42              		.cfi_def_cfa_offset 32
  43              		.cfi_offset 8, -32
  44              		.cfi_offset 9, -28
  45              		.cfi_offset 10, -24
  46              		.loc 1 36 0
  47 000a 554F     		ldr	r7, .L50
  48              		.loc 1 44 0
  49 000c 0022     		mov	r2, #0
  50              		.loc 1 40 0
  51 000e 0123     		mov	r3, #1
  52              		.loc 1 33 0
  53 0010 051C     		mov	r5, r0
  54 0012 8846     		mov	r8, r1
  55              		.loc 1 36 0
  56 0014 3C1C     		mov	r4, r7
  57              		.loc 1 44 0
ARM GAS  /tmp/cclC07rx.s 			page 2


  58 0016 9146     		mov	r9, r2
  59              		.loc 1 40 0
  60 0018 9A46     		mov	sl, r3
  61              		.loc 1 37 0
  62 001a 0028     		cmp	r0, #0
  63 001c 46D0     		beq	.L12
  64 001e 3868     		ldr	r0, [r7]
  65              	.LVL1:
  66 0020 A842     		cmp	r0, r5
  67 0022 43D0     		beq	.L12
  68              	.LVL2:
  69              	.L15:
  70              		.loc 1 36 0
  71 0024 8022     		mov	r2, #128
  72 0026 9300     		lsl	r3, r2, #2
  73 0028 1034     		add	r4, r4, #16
  74              	.LVL3:
  75 002a F818     		add	r0, r7, r3
  76 002c A042     		cmp	r0, r4
  77 002e 1DD9     		bls	.L40
  78              		.loc 1 37 0
  79 0030 002D     		cmp	r5, #0
  80 0032 48D0     		beq	.L17
  81 0034 2168     		ldr	r1, [r4]
  82 0036 A942     		cmp	r1, r5
  83 0038 45D0     		beq	.L17
  84              	.L46:
  85              		.loc 1 36 0
  86 003a 8023     		mov	r3, #128
  87 003c 9900     		lsl	r1, r3, #2
  88 003e 1034     		add	r4, r4, #16
  89              	.LVL4:
  90 0040 7818     		add	r0, r7, r1
  91 0042 8442     		cmp	r4, r0
  92 0044 12D2     		bcs	.L40
  93              	.L6:
  94              		.loc 1 37 0
  95 0046 002D     		cmp	r5, #0
  96 0048 23D0     		beq	.L2
  97              		.loc 1 37 0 is_stmt 0 discriminator 2
  98 004a 2668     		ldr	r6, [r4]
  99 004c AE42     		cmp	r6, r5
 100 004e 20D0     		beq	.L2
 101              	.L3:
 102              		.loc 1 36 0 is_stmt 1
 103 0050 261C     		mov	r6, r4
 104 0052 1036     		add	r6, r6, #16
 105              		.loc 1 37 0
 106 0054 002D     		cmp	r5, #0
 107 0056 0ED0     		beq	.L22
 108 0058 2469     		ldr	r4, [r4, #16]
 109 005a AC42     		cmp	r4, r5
 110 005c 0BD0     		beq	.L22
 111              	.L25:
 112              		.loc 1 36 0
 113 005e 341C     		mov	r4, r6
 114              	.L48:
ARM GAS  /tmp/cclC07rx.s 			page 3


 115 0060 8023     		mov	r3, #128
 116 0062 9900     		lsl	r1, r3, #2
 117 0064 1034     		add	r4, r4, #16
 118 0066 7818     		add	r0, r7, r1
 119 0068 8442     		cmp	r4, r0
 120 006a ECD3     		bcc	.L6
 121              	.L40:
 122              		.loc 1 47 0
 123              		@ sp needed for prologue
 124              	.LVL5:
 125              	.LVL6:
 126 006c 1CBC     		pop	{r2, r3, r4}
 127 006e 9046     		mov	r8, r2
 128 0070 9946     		mov	r9, r3
 129 0072 A246     		mov	sl, r4
 130 0074 F0BD     		pop	{r4, r5, r6, r7, pc}
 131              	.LVL7:
 132              	.L22:
 133              		.loc 1 37 0
 134 0076 4146     		mov	r1, r8
 135 0078 0029     		cmp	r1, #0
 136 007a 02D0     		beq	.L23
 137              	.LVL8:
 138 007c 7068     		ldr	r0, [r6, #4]
 139 007e 4045     		cmp	r0, r8
 140 0080 EDD1     		bne	.L25
 141              	.L23:
 142              		.loc 1 38 0
 143 0082 3068     		ldr	r0, [r6]
 144 0084 8268     		ldr	r2, [r0, #8]
 145 0086 002A     		cmp	r2, #0
 146 0088 2ADB     		blt	.L45
 147              	.LVL9:
 148              	.L24:
 149              		.loc 1 44 0
 150 008a 4846     		mov	r0, r9
 151 008c 3060     		str	r0, [r6]
 152              		.loc 1 36 0
 153 008e 341C     		mov	r4, r6
 154 0090 E6E7     		b	.L48
 155              	.L2:
 156              		.loc 1 37 0 discriminator 1
 157 0092 4246     		mov	r2, r8
 158 0094 002A     		cmp	r2, #0
 159 0096 02D0     		beq	.L4
 160              	.LVL10:
 161 0098 6368     		ldr	r3, [r4, #4]
 162 009a 4345     		cmp	r3, r8
 163 009c D8D1     		bne	.L3
 164              	.L4:
 165              		.loc 1 38 0
 166 009e 2068     		ldr	r0, [r4]
 167 00a0 8168     		ldr	r1, [r0, #8]
 168 00a2 0029     		cmp	r1, #0
 169 00a4 2CDB     		blt	.L49
 170              	.LVL11:
 171              	.L5:
ARM GAS  /tmp/cclC07rx.s 			page 4


 172              		.loc 1 44 0
 173 00a6 4B46     		mov	r3, r9
 174 00a8 2360     		str	r3, [r4]
 175 00aa D1E7     		b	.L3
 176              	.LVL12:
 177              	.L12:
 178              		.loc 1 37 0
 179 00ac 4146     		mov	r1, r8
 180              	.LVL13:
 181 00ae 0029     		cmp	r1, #0
 182 00b0 02D0     		beq	.L13
 183              	.LVL14:
 184 00b2 6668     		ldr	r6, [r4, #4]
 185 00b4 4645     		cmp	r6, r8
 186 00b6 B5D1     		bne	.L15
 187              	.L13:
 188              		.loc 1 38 0
 189 00b8 2068     		ldr	r0, [r4]
 190 00ba 8268     		ldr	r2, [r0, #8]
 191 00bc 002A     		cmp	r2, #0
 192 00be 2FDB     		blt	.L39
 193              	.LVL15:
 194              	.L14:
 195              		.loc 1 44 0
 196 00c0 4E46     		mov	r6, r9
 197 00c2 2660     		str	r6, [r4]
 198 00c4 AEE7     		b	.L15
 199              	.LVL16:
 200              	.L17:
 201              		.loc 1 37 0
 202 00c6 4646     		mov	r6, r8
 203 00c8 002E     		cmp	r6, #0
 204 00ca 02D0     		beq	.L18
 205              	.LVL17:
 206 00cc 6268     		ldr	r2, [r4, #4]
 207 00ce 4245     		cmp	r2, r8
 208 00d0 B3D1     		bne	.L46
 209              	.L18:
 210              		.loc 1 38 0
 211 00d2 2068     		ldr	r0, [r4]
 212 00d4 8368     		ldr	r3, [r0, #8]
 213 00d6 002B     		cmp	r3, #0
 214 00d8 32DB     		blt	.L43
 215              	.LVL18:
 216              	.L19:
 217              		.loc 1 44 0
 218 00da 4A46     		mov	r2, r9
 219 00dc 2260     		str	r2, [r4]
 220 00de ACE7     		b	.L46
 221              	.LVL19:
 222              	.L45:
 223              		.loc 1 39 0
 224 00e0 0123     		mov	r3, #1
 225 00e2 5942     		neg	r1, r3
 226              	.LVL20:
 227 00e4 1030     		add	r0, r0, #16
 228 00e6 FFF7FEFF 		bl	gfxSemWait
ARM GAS  /tmp/cclC07rx.s 			page 5


 229              	.LVL21:
 230              		.loc 1 40 0
 231 00ea 3168     		ldr	r1, [r6]
 232 00ec 5446     		mov	r4, sl
 233 00ee 0C85     		strh	r4, [r1, #40]
 234              		.loc 1 41 0
 235 00f0 3068     		ldr	r0, [r6]
 236 00f2 FFF7FEFF 		bl	gfxSemSignal
 237              	.LVL22:
 238              		.loc 1 42 0
 239 00f6 3068     		ldr	r0, [r6]
 240 00f8 1030     		add	r0, r0, #16
 241 00fa FFF7FEFF 		bl	gfxSemSignal
 242              	.LVL23:
 243 00fe C4E7     		b	.L24
 244              	.LVL24:
 245              	.L49:
 246              		.loc 1 39 0
 247 0100 0126     		mov	r6, #1
 248 0102 7142     		neg	r1, r6
 249 0104 1030     		add	r0, r0, #16
 250 0106 FFF7FEFF 		bl	gfxSemWait
 251              	.LVL25:
 252              		.loc 1 40 0
 253 010a 2268     		ldr	r2, [r4]
 254 010c 5046     		mov	r0, sl
 255 010e 1085     		strh	r0, [r2, #40]
 256              		.loc 1 41 0
 257 0110 2068     		ldr	r0, [r4]
 258 0112 FFF7FEFF 		bl	gfxSemSignal
 259              	.LVL26:
 260              		.loc 1 42 0
 261 0116 2068     		ldr	r0, [r4]
 262 0118 1030     		add	r0, r0, #16
 263 011a FFF7FEFF 		bl	gfxSemSignal
 264              	.LVL27:
 265 011e C2E7     		b	.L5
 266              	.LVL28:
 267              	.L39:
 268              		.loc 1 39 0
 269 0120 0123     		mov	r3, #1
 270 0122 5942     		neg	r1, r3
 271              	.LVL29:
 272 0124 1030     		add	r0, r0, #16
 273 0126 FFF7FEFF 		bl	gfxSemWait
 274              	.LVL30:
 275              		.loc 1 40 0
 276 012a 2168     		ldr	r1, [r4]
 277 012c 5046     		mov	r0, sl
 278 012e 0885     		strh	r0, [r1, #40]
 279              		.loc 1 41 0
 280 0130 2068     		ldr	r0, [r4]
 281 0132 FFF7FEFF 		bl	gfxSemSignal
 282              	.LVL31:
 283              		.loc 1 42 0
 284 0136 2068     		ldr	r0, [r4]
 285 0138 1030     		add	r0, r0, #16
ARM GAS  /tmp/cclC07rx.s 			page 6


 286 013a FFF7FEFF 		bl	gfxSemSignal
 287              	.LVL32:
 288 013e BFE7     		b	.L14
 289              	.LVL33:
 290              	.L43:
 291              		.loc 1 39 0
 292 0140 0121     		mov	r1, #1
 293 0142 4942     		neg	r1, r1
 294 0144 1030     		add	r0, r0, #16
 295 0146 FFF7FEFF 		bl	gfxSemWait
 296              	.LVL34:
 297              		.loc 1 40 0
 298 014a 2668     		ldr	r6, [r4]
 299              	.LVL35:
 300 014c 5046     		mov	r0, sl
 301 014e 3085     		strh	r0, [r6, #40]
 302              		.loc 1 41 0
 303 0150 2068     		ldr	r0, [r4]
 304 0152 FFF7FEFF 		bl	gfxSemSignal
 305              	.LVL36:
 306              		.loc 1 42 0
 307 0156 2068     		ldr	r0, [r4]
 308 0158 1030     		add	r0, r0, #16
 309 015a FFF7FEFF 		bl	gfxSemSignal
 310              	.LVL37:
 311 015e BCE7     		b	.L19
 312              	.L51:
 313              		.align	2
 314              	.L50:
 315 0160 00000000 		.word	.LANCHOR0
 316              		.cfi_endproc
 317              	.LFE40:
 318              		.size	deleteAssignments, .-deleteAssignments
 319 0164 C046C046 		.section	.text._geventInit,"ax",%progbits
 319      C046C046 
 319      C046C046 
 320              		.align	2
 321              		.p2align 4,,15
 322              		.global	_geventInit
 323              		.code	16
 324              		.thumb_func
 325              		.type	_geventInit, %function
 326              	_geventInit:
 327              	.LFB41:
 328              		.loc 1 49 0
 329              		.cfi_startproc
 330 0000 08B5     		push	{r3, lr}
 331              	.LCFI2:
 332              		.cfi_def_cfa_offset 8
 333              		.cfi_offset 3, -8
 334              		.cfi_offset 14, -4
 335              		.loc 1 50 0
 336 0002 0248     		ldr	r0, .L53
 337 0004 FFF7FEFF 		bl	chMtxInit
 338              	.LVL38:
 339              		.loc 1 51 0
 340              		@ sp needed for prologue
ARM GAS  /tmp/cclC07rx.s 			page 7


 341 0008 08BD     		pop	{r3, pc}
 342              	.L54:
 343 000a C046     		.align	2
 344              	.L53:
 345 000c 00000000 		.word	.LANCHOR1
 346              		.cfi_endproc
 347              	.LFE41:
 348              		.size	_geventInit, .-_geventInit
 349              		.section	.text.geventListenerInit,"ax",%progbits
 350              		.align	2
 351              		.p2align 4,,15
 352              		.global	geventListenerInit
 353              		.code	16
 354              		.thumb_func
 355              		.type	geventListenerInit, %function
 356              	geventListenerInit:
 357              	.LFB42:
 358              		.loc 1 53 0
 359              		.cfi_startproc
 360              	.LVL39:
 361 0000 10B5     		push	{r4, lr}
 362              	.LCFI3:
 363              		.cfi_def_cfa_offset 8
 364              		.cfi_offset 4, -8
 365              		.cfi_offset 14, -4
 366              		.loc 1 54 0
 367 0002 0021     		mov	r1, #0
 368              		.loc 1 53 0
 369 0004 041C     		mov	r4, r0
 370              		.loc 1 54 0
 371 0006 064A     		ldr	r2, .L56
 372 0008 FFF7FEFF 		bl	gfxSemInit
 373              	.LVL40:
 374              		.loc 1 55 0
 375 000c 201C     		mov	r0, r4
 376 000e 1030     		add	r0, r0, #16
 377 0010 0121     		mov	r1, #1
 378 0012 0122     		mov	r2, #1
 379 0014 FFF7FEFF 		bl	gfxSemInit
 380              	.LVL41:
 381              		.loc 1 56 0
 382 0018 0023     		mov	r3, #0
 383 001a 2362     		str	r3, [r4, #32]
 384              		.loc 1 57 0
 385 001c 2385     		strh	r3, [r4, #40]
 386              		.loc 1 58 0
 387              		@ sp needed for prologue
 388              	.LVL42:
 389 001e 10BD     		pop	{r4, pc}
 390              	.L57:
 391              		.align	2
 392              	.L56:
 393 0020 FFFFFF7F 		.word	2147483647
 394              		.cfi_endproc
 395              	.LFE42:
 396              		.size	geventListenerInit, .-geventListenerInit
 397 0024 C046C046 		.section	.text.geventAttachSource,"ax",%progbits
ARM GAS  /tmp/cclC07rx.s 			page 8


 397      C046C046 
 397      C046C046 
 398              		.align	2
 399              		.p2align 4,,15
 400              		.global	geventAttachSource
 401              		.code	16
 402              		.thumb_func
 403              		.type	geventAttachSource, %function
 404              	geventAttachSource:
 405              	.LFB43:
 406              		.loc 1 60 0
 407              		.cfi_startproc
 408              	.LVL43:
 409 0000 F0B5     		push	{r4, r5, r6, r7, lr}
 410              	.LCFI4:
 411              		.cfi_def_cfa_offset 20
 412              		.cfi_offset 4, -20
 413              		.cfi_offset 5, -16
 414              		.cfi_offset 6, -12
 415              		.cfi_offset 7, -8
 416              		.cfi_offset 14, -4
 417 0002 4746     		mov	r7, r8
 418 0004 80B4     		push	{r7}
 419              	.LCFI5:
 420              		.cfi_def_cfa_offset 24
 421              		.cfi_offset 8, -24
 422              		.loc 1 60 0
 423 0006 061C     		mov	r6, r0
 424 0008 0F1C     		mov	r7, r1
 425 000a 9046     		mov	r8, r2
 426              		.loc 1 64 0
 427 000c 0028     		cmp	r0, #0
 428 000e 57D0     		beq	.L67
 429              		.loc 1 64 0 is_stmt 0 discriminator 1
 430 0010 0029     		cmp	r1, #0
 431 0012 55D0     		beq	.L67
 432              		.loc 1 69 0 is_stmt 1
 433 0014 3448     		ldr	r0, .L114
 434              	.LVL44:
 435 0016 FFF7FEFF 		bl	chMtxLock
 436              	.LVL45:
 437              		.loc 1 73 0
 438 001a 344C     		ldr	r4, .L114+4
 439 001c 8021     		mov	r1, #128
 440              		.loc 1 75 0
 441 001e 2368     		ldr	r3, [r4]
 442              		.loc 1 73 0
 443 0020 8800     		lsl	r0, r1, #2
 444 0022 2218     		add	r2, r4, r0
 445              		.loc 1 75 0
 446 0024 B342     		cmp	r3, r6
 447 0026 4DD0     		beq	.L109
 448              		.loc 1 83 0
 449 0028 251C     		mov	r5, r4
 450 002a 002B     		cmp	r3, #0
 451 002c 00D0     		beq	.L75
 452              	.L78:
ARM GAS  /tmp/cclC07rx.s 			page 9


 453              		.loc 1 73 0
 454 002e 0025     		mov	r5, #0
 455              	.L75:
 456              	.LVL46:
 457 0030 231C     		mov	r3, r4
 458 0032 1033     		add	r3, r3, #16
 459 0034 1C1C     		mov	r4, r3
 460              	.LVL47:
 461 0036 9A42     		cmp	r2, r3
 462 0038 1CD9     		bls	.L103
 463              		.loc 1 75 0
 464 003a 1968     		ldr	r1, [r3]
 465 003c B142     		cmp	r1, r6
 466 003e 29D0     		beq	.L101
 467              		.loc 1 83 0
 468 0040 002D     		cmp	r5, #0
 469 0042 39D0     		beq	.L110
 470              	.LVL48:
 471              	.L87:
 472              		.loc 1 73 0
 473 0044 1C1C     		mov	r4, r3
 474 0046 1034     		add	r4, r4, #16
 475              	.LVL49:
 476 0048 9442     		cmp	r4, r2
 477 004a 13D2     		bcs	.L103
 478              	.L63:
 479              		.loc 1 75 0
 480 004c 2368     		ldr	r3, [r4]
 481 004e B342     		cmp	r3, r6
 482 0050 27D0     		beq	.L111
 483              		.loc 1 83 0
 484 0052 002D     		cmp	r5, #0
 485 0054 2CD0     		beq	.L112
 486              	.LVL50:
 487              	.L62:
 488              		.loc 1 73 0
 489 0056 231C     		mov	r3, r4
 490 0058 1033     		add	r3, r3, #16
 491              		.loc 1 75 0
 492 005a 1868     		ldr	r0, [r3]
 493              		.loc 1 73 0
 494 005c 1C1C     		mov	r4, r3
 495              	.LVL51:
 496              		.loc 1 75 0
 497 005e B042     		cmp	r0, r6
 498 0060 18D0     		beq	.L101
 499              		.loc 1 83 0
 500 0062 002D     		cmp	r5, #0
 501 0064 EED1     		bne	.L87
 502 0066 0028     		cmp	r0, #0
 503 0068 28D0     		beq	.L105
 504              	.L90:
 505              		.loc 1 73 0
 506 006a 0025     		mov	r5, #0
 507              	.LVL52:
 508              	.L113:
 509 006c 1C1C     		mov	r4, r3
ARM GAS  /tmp/cclC07rx.s 			page 10


 510 006e 1034     		add	r4, r4, #16
 511              	.LVL53:
 512 0070 9442     		cmp	r4, r2
 513 0072 EBD3     		bcc	.L63
 514              	.L103:
 515              		.loc 1 88 0
 516 0074 002D     		cmp	r5, #0
 517 0076 05D0     		beq	.L64
 518              		.loc 1 89 0
 519 0078 2E60     		str	r6, [r5]
 520              		.loc 1 90 0
 521 007a 6F60     		str	r7, [r5, #4]
 522              		.loc 1 91 0
 523 007c 4646     		mov	r6, r8
 524              	.LVL54:
 525              		.loc 1 92 0
 526 007e 0027     		mov	r7, #0
 527              	.LVL55:
 528              		.loc 1 91 0
 529 0080 AE60     		str	r6, [r5, #8]
 530              		.loc 1 92 0
 531 0082 EF60     		str	r7, [r5, #12]
 532              	.LVL56:
 533              	.L64:
 534              		.loc 1 94 0
 535 0084 FFF7FEFF 		bl	chMtxUnlock
 536              	.LVL57:
 537              		.loc 1 96 0
 538 0088 281C     		mov	r0, r5
 539 008a 451E     		sub	r5, r0, #1
 540 008c A841     		sbc	r0, r0, r5
 541              	.LVL58:
 542              	.L100:
 543              		.loc 1 97 0
 544              		@ sp needed for prologue
 545              	.LVL59:
 546 008e 04BC     		pop	{r2}
 547 0090 9046     		mov	r8, r2
 548 0092 F0BD     		pop	{r4, r5, r6, r7, pc}
 549              	.LVL60:
 550              	.L101:
 551              		.loc 1 75 0
 552 0094 5868     		ldr	r0, [r3, #4]
 553 0096 B842     		cmp	r0, r7
 554 0098 17D0     		beq	.L102
 555              		.loc 1 83 0
 556 009a 002D     		cmp	r5, #0
 557 009c D2D1     		bne	.L87
 558              		.loc 1 73 0
 559 009e 0025     		mov	r5, #0
 560              	.LVL61:
 561 00a0 E4E7     		b	.L113
 562              	.LVL62:
 563              	.L111:
 564              		.loc 1 75 0 discriminator 1
 565 00a2 6168     		ldr	r1, [r4, #4]
 566 00a4 B942     		cmp	r1, r7
ARM GAS  /tmp/cclC07rx.s 			page 11


 567 00a6 10D0     		beq	.L102
 568              		.loc 1 83 0
 569 00a8 002D     		cmp	r5, #0
 570 00aa D4D1     		bne	.L62
 571              	.L65:
 572              		.loc 1 73 0
 573 00ac 0025     		mov	r5, #0
 574              	.LVL63:
 575 00ae D2E7     		b	.L62
 576              	.LVL64:
 577              	.L112:
 578              		.loc 1 83 0 discriminator 1
 579 00b0 002B     		cmp	r3, #0
 580 00b2 FBD1     		bne	.L65
 581              		.loc 1 83 0 is_stmt 0
 582 00b4 251C     		mov	r5, r4
 583              	.LVL65:
 584 00b6 CEE7     		b	.L62
 585              	.LVL66:
 586              	.L110:
 587 00b8 0029     		cmp	r1, #0
 588 00ba D6D1     		bne	.L90
 589              	.L105:
 590 00bc 251C     		mov	r5, r4
 591              	.LVL67:
 592 00be C1E7     		b	.L87
 593              	.LVL68:
 594              	.L67:
 595              		.loc 1 66 0 is_stmt 1
 596 00c0 0020     		mov	r0, #0
 597              	.LVL69:
 598 00c2 E4E7     		b	.L100
 599              	.LVL70:
 600              	.L109:
 601              		.loc 1 75 0
 602 00c4 6568     		ldr	r5, [r4, #4]
 603 00c6 BD42     		cmp	r5, r7
 604 00c8 B1D1     		bne	.L78
 605              	.LVL71:
 606              	.L102:
 607              		.loc 1 77 0
 608 00ca 0122     		mov	r2, #1
 609 00cc 1036     		add	r6, r6, #16
 610              	.LVL72:
 611 00ce 5142     		neg	r1, r2
 612 00d0 301C     		mov	r0, r6
 613              		.loc 1 78 0
 614 00d2 4746     		mov	r7, r8
 615              	.LVL73:
 616              		.loc 1 77 0
 617 00d4 FFF7FEFF 		bl	gfxSemWait
 618              	.LVL74:
 619              		.loc 1 79 0
 620 00d8 301C     		mov	r0, r6
 621              		.loc 1 78 0
 622 00da A760     		str	r7, [r4, #8]
 623              		.loc 1 79 0
ARM GAS  /tmp/cclC07rx.s 			page 12


 624 00dc FFF7FEFF 		bl	gfxSemSignal
 625              	.LVL75:
 626              		.loc 1 80 0
 627 00e0 FFF7FEFF 		bl	chMtxUnlock
 628              	.LVL76:
 629              		.loc 1 81 0
 630 00e4 0120     		mov	r0, #1
 631 00e6 D2E7     		b	.L100
 632              	.L115:
 633              		.align	2
 634              	.L114:
 635 00e8 00000000 		.word	.LANCHOR1
 636 00ec 00000000 		.word	.LANCHOR0
 637              		.cfi_endproc
 638              	.LFE43:
 639              		.size	geventAttachSource, .-geventAttachSource
 640              		.section	.text.geventDetachSource,"ax",%progbits
 641              		.align	2
 642              		.p2align 4,,15
 643              		.global	geventDetachSource
 644              		.code	16
 645              		.thumb_func
 646              		.type	geventDetachSource, %function
 647              	geventDetachSource:
 648              	.LFB44:
 649              		.loc 1 99 0
 650              		.cfi_startproc
 651              	.LVL77:
 652 0000 38B5     		push	{r3, r4, r5, lr}
 653              	.LCFI6:
 654              		.cfi_def_cfa_offset 16
 655              		.cfi_offset 3, -16
 656              		.cfi_offset 4, -12
 657              		.cfi_offset 5, -8
 658              		.cfi_offset 14, -4
 659              		.loc 1 99 0
 660 0002 041C     		mov	r4, r0
 661 0004 0D1C     		mov	r5, r1
 662              		.loc 1 100 0
 663 0006 0028     		cmp	r0, #0
 664 0008 0AD0     		beq	.L116
 665              		.loc 1 101 0
 666 000a 0F48     		ldr	r0, .L123
 667              	.LVL78:
 668 000c FFF7FEFF 		bl	chMtxLock
 669              	.LVL79:
 670              		.loc 1 102 0
 671 0010 201C     		mov	r0, r4
 672 0012 291C     		mov	r1, r5
 673 0014 FFF7FEFF 		bl	deleteAssignments
 674              	.LVL80:
 675              		.loc 1 103 0
 676 0018 002D     		cmp	r5, #0
 677 001a 02D0     		beq	.L122
 678              	.LVL81:
 679              	.L118:
 680              		.loc 1 109 0
ARM GAS  /tmp/cclC07rx.s 			page 13


 681 001c FFF7FEFF 		bl	chMtxUnlock
 682              	.LVL82:
 683              	.L116:
 684              		.loc 1 111 0
 685              		@ sp needed for prologue
 686              	.LVL83:
 687 0020 38BD     		pop	{r3, r4, r5, pc}
 688              	.LVL84:
 689              	.L122:
 690              		.loc 1 103 0 discriminator 1
 691 0022 A368     		ldr	r3, [r4, #8]
 692 0024 002B     		cmp	r3, #0
 693 0026 F9DA     		bge	.L118
 694              		.loc 1 104 0
 695 0028 251C     		mov	r5, r4
 696              	.LVL85:
 697 002a 1035     		add	r5, r5, #16
 698 002c 0121     		mov	r1, #1
 699 002e 4942     		neg	r1, r1
 700 0030 281C     		mov	r0, r5
 701 0032 FFF7FEFF 		bl	gfxSemWait
 702              	.LVL86:
 703              		.loc 1 105 0
 704 0036 0120     		mov	r0, #1
 705 0038 2085     		strh	r0, [r4, #40]
 706              		.loc 1 106 0
 707 003a 201C     		mov	r0, r4
 708 003c FFF7FEFF 		bl	gfxSemSignal
 709              	.LVL87:
 710              		.loc 1 107 0
 711 0040 281C     		mov	r0, r5
 712 0042 FFF7FEFF 		bl	gfxSemSignal
 713              	.LVL88:
 714 0046 E9E7     		b	.L118
 715              	.L124:
 716              		.align	2
 717              	.L123:
 718 0048 00000000 		.word	.LANCHOR1
 719              		.cfi_endproc
 720              	.LFE44:
 721              		.size	geventDetachSource, .-geventDetachSource
 722 004c C046C046 		.section	.text.geventEventWait,"ax",%progbits
 723              		.align	2
 724              		.p2align 4,,15
 725              		.global	geventEventWait
 726              		.code	16
 727              		.thumb_func
 728              		.type	geventEventWait, %function
 729              	geventEventWait:
 730              	.LFB45:
 731              		.loc 1 113 0
 732              		.cfi_startproc
 733              	.LVL89:
 734              		.loc 1 114 0
 735 0000 036A     		ldr	r3, [r0, #32]
 736              		.loc 1 113 0
 737 0002 10B5     		push	{r4, lr}
ARM GAS  /tmp/cclC07rx.s 			page 14


 738              	.LCFI7:
 739              		.cfi_def_cfa_offset 8
 740              		.cfi_offset 4, -8
 741              		.cfi_offset 14, -4
 742              		.loc 1 113 0
 743 0004 041C     		mov	r4, r0
 744              		.loc 1 114 0
 745 0006 002B     		cmp	r3, #0
 746 0008 07D1     		bne	.L128
 747              		.loc 1 114 0 is_stmt 0 discriminator 1
 748 000a 8068     		ldr	r0, [r0, #8]
 749              	.LVL90:
 750 000c 0028     		cmp	r0, #0
 751 000e 04DB     		blt	.L128
 752              		.loc 1 116 0 is_stmt 1
 753 0010 201C     		mov	r0, r4
 754 0012 FFF7FEFF 		bl	gfxSemWait
 755              	.LVL91:
 756 0016 0028     		cmp	r0, #0
 757 0018 01D1     		bne	.L132
 758              	.L128:
 759              		.loc 1 115 0
 760 001a 0020     		mov	r0, #0
 761              	.L127:
 762              		.loc 1 117 0
 763              		@ sp needed for prologue
 764              	.LVL92:
 765 001c 10BD     		pop	{r4, pc}
 766              	.LVL93:
 767              	.L132:
 768              		.loc 1 116 0 discriminator 1
 769 001e 201C     		mov	r0, r4
 770 0020 2830     		add	r0, r0, #40
 771 0022 FBE7     		b	.L127
 772              		.cfi_endproc
 773              	.LFE45:
 774              		.size	geventEventWait, .-geventEventWait
 775 0024 C046C046 		.section	.text.geventRegisterCallback,"ax",%progbits
 775      C046C046 
 775      C046C046 
 776              		.align	2
 777              		.p2align 4,,15
 778              		.global	geventRegisterCallback
 779              		.code	16
 780              		.thumb_func
 781              		.type	geventRegisterCallback, %function
 782              	geventRegisterCallback:
 783              	.LFB46:
 784              		.loc 1 119 0
 785              		.cfi_startproc
 786              	.LVL94:
 787 0000 F8B5     		push	{r3, r4, r5, r6, r7, lr}
 788              	.LCFI8:
 789              		.cfi_def_cfa_offset 24
 790              		.cfi_offset 3, -24
 791              		.cfi_offset 4, -20
 792              		.cfi_offset 5, -16
ARM GAS  /tmp/cclC07rx.s 			page 15


 793              		.cfi_offset 6, -12
 794              		.cfi_offset 7, -8
 795              		.cfi_offset 14, -4
 796              		.loc 1 119 0
 797 0002 041C     		mov	r4, r0
 798 0004 0E1C     		mov	r6, r1
 799 0006 171C     		mov	r7, r2
 800              		.loc 1 120 0
 801 0008 0028     		cmp	r0, #0
 802 000a 13D0     		beq	.L133
 803              		.loc 1 121 0
 804 000c 0D48     		ldr	r0, .L140
 805              	.LVL95:
 806              		.loc 1 122 0
 807 000e 251C     		mov	r5, r4
 808              		.loc 1 121 0
 809 0010 FFF7FEFF 		bl	chMtxLock
 810              	.LVL96:
 811              		.loc 1 122 0
 812 0014 1035     		add	r5, r5, #16
 813 0016 0121     		mov	r1, #1
 814 0018 281C     		mov	r0, r5
 815 001a 4942     		neg	r1, r1
 816 001c FFF7FEFF 		bl	gfxSemWait
 817              	.LVL97:
 818              		.loc 1 125 0
 819 0020 A368     		ldr	r3, [r4, #8]
 820              		.loc 1 123 0
 821 0022 6762     		str	r7, [r4, #36]
 822              		.loc 1 124 0
 823 0024 2662     		str	r6, [r4, #32]
 824              		.loc 1 125 0
 825 0026 002B     		cmp	r3, #0
 826 0028 05DB     		blt	.L139
 827              	.L135:
 828              		.loc 1 129 0
 829 002a 281C     		mov	r0, r5
 830 002c FFF7FEFF 		bl	gfxSemSignal
 831              	.LVL98:
 832              		.loc 1 130 0
 833 0030 FFF7FEFF 		bl	chMtxUnlock
 834              	.LVL99:
 835              	.L133:
 836              		.loc 1 132 0
 837              		@ sp needed for prologue
 838              	.LVL100:
 839              	.LVL101:
 840              	.LVL102:
 841 0034 F8BD     		pop	{r3, r4, r5, r6, r7, pc}
 842              	.LVL103:
 843              	.L139:
 844              		.loc 1 126 0
 845 0036 0120     		mov	r0, #1
 846 0038 2085     		strh	r0, [r4, #40]
 847              		.loc 1 127 0
 848 003a 201C     		mov	r0, r4
 849 003c FFF7FEFF 		bl	gfxSemSignal
ARM GAS  /tmp/cclC07rx.s 			page 16


 850              	.LVL104:
 851 0040 F3E7     		b	.L135
 852              	.L141:
 853 0042 C046     		.align	2
 854              	.L140:
 855 0044 00000000 		.word	.LANCHOR1
 856              		.cfi_endproc
 857              	.LFE46:
 858              		.size	geventRegisterCallback, .-geventRegisterCallback
 859 0048 C046C046 		.section	.text.geventGetSourceListener,"ax",%progbits
 859      C046C046 
 860              		.align	2
 861              		.p2align 4,,15
 862              		.global	geventGetSourceListener
 863              		.code	16
 864              		.thumb_func
 865              		.type	geventGetSourceListener, %function
 866              	geventGetSourceListener:
 867              	.LFB47:
 868              		.loc 1 134 0
 869              		.cfi_startproc
 870              	.LVL105:
 871 0000 38B5     		push	{r3, r4, r5, lr}
 872              	.LCFI9:
 873              		.cfi_def_cfa_offset 16
 874              		.cfi_offset 3, -16
 875              		.cfi_offset 4, -12
 876              		.cfi_offset 5, -8
 877              		.cfi_offset 14, -4
 878              		.loc 1 134 0
 879 0002 051C     		mov	r5, r0
 880 0004 0C1C     		mov	r4, r1
 881              		.loc 1 138 0
 882 0006 0028     		cmp	r0, #0
 883 0008 3AD0     		beq	.L150
 884              		.loc 1 141 0
 885 000a 1E48     		ldr	r0, .L163
 886              	.LVL106:
 887 000c FFF7FEFF 		bl	chMtxLock
 888              	.LVL107:
 889              		.loc 1 144 0
 890 0010 002C     		cmp	r4, #0
 891 0012 32D0     		beq	.L151
 892              		.loc 1 145 0
 893 0014 2068     		ldr	r0, [r4]
 894              		.loc 1 148 0
 895 0016 1034     		add	r4, r4, #16
 896              	.LVL108:
 897              		.loc 1 145 0
 898 0018 1030     		add	r0, r0, #16
 899 001a FFF7FEFF 		bl	gfxSemSignal
 900              	.LVL109:
 901              		.loc 1 148 0
 902 001e 1A4B     		ldr	r3, .L163+4
 903 0020 8021     		mov	r1, #128
 904 0022 8800     		lsl	r0, r1, #2
 905 0024 1A18     		add	r2, r3, r0
ARM GAS  /tmp/cclC07rx.s 			page 17


 906 0026 9442     		cmp	r4, r2
 907 0028 22D2     		bcs	.L149
 908              	.LVL110:
 909              	.L144:
 910              		.loc 1 149 0
 911 002a 6168     		ldr	r1, [r4, #4]
 912 002c A942     		cmp	r1, r5
 913 002e 0CD0     		beq	.L145
 914              		.loc 1 148 0
 915 0030 8020     		mov	r0, #128
 916 0032 8200     		lsl	r2, r0, #2
 917 0034 9B18     		add	r3, r3, r2
 918 0036 E143     		mvn	r1, r4
 919 0038 5818     		add	r0, r3, r1
 920 003a C106     		lsl	r1, r0, #27
 921 003c 15D5     		bpl	.L152
 922 003e 1034     		add	r4, r4, #16
 923              	.LVL111:
 924 0040 9C42     		cmp	r4, r3
 925 0042 15D2     		bcs	.L149
 926              		.loc 1 149 0
 927 0044 6268     		ldr	r2, [r4, #4]
 928 0046 AA42     		cmp	r2, r5
 929 0048 0FD1     		bne	.L152
 930              	.LVL112:
 931              	.L145:
 932              		.loc 1 150 0
 933 004a 2068     		ldr	r0, [r4]
 934 004c 0125     		mov	r5, #1
 935              	.LVL113:
 936 004e 6942     		neg	r1, r5
 937 0050 1030     		add	r0, r0, #16
 938 0052 FFF7FEFF 		bl	gfxSemWait
 939              	.LVL114:
 940              		.loc 1 151 0
 941 0056 FFF7FEFF 		bl	chMtxUnlock
 942              	.LVL115:
 943              		.loc 1 152 0
 944 005a 0CE0     		b	.L143
 945              	.LVL116:
 946              	.L148:
 947              		.loc 1 149 0
 948 005c 6168     		ldr	r1, [r4, #4]
 949 005e A942     		cmp	r1, r5
 950 0060 F3D0     		beq	.L145
 951              		.loc 1 148 0
 952 0062 1034     		add	r4, r4, #16
 953              	.LVL117:
 954              		.loc 1 149 0
 955 0064 6068     		ldr	r0, [r4, #4]
 956 0066 A842     		cmp	r0, r5
 957 0068 EFD0     		beq	.L145
 958              	.LVL118:
 959              	.L152:
 960              		.loc 1 148 0
 961 006a 1034     		add	r4, r4, #16
 962              	.LVL119:
ARM GAS  /tmp/cclC07rx.s 			page 18


 963 006c A342     		cmp	r3, r4
 964 006e F5D8     		bhi	.L148
 965              	.L149:
 966              		.loc 1 155 0
 967 0070 FFF7FEFF 		bl	chMtxUnlock
 968              	.LVL120:
 969              		.loc 1 156 0
 970 0074 0024     		mov	r4, #0
 971              	.LVL121:
 972              	.L143:
 973              		.loc 1 157 0
 974 0076 201C     		mov	r0, r4
 975              		@ sp needed for prologue
 976 0078 38BD     		pop	{r3, r4, r5, pc}
 977              	.LVL122:
 978              	.L151:
 979              		.loc 1 148 0
 980 007a 034B     		ldr	r3, .L163+4
 981 007c 1C1C     		mov	r4, r3
 982              	.LVL123:
 983 007e D4E7     		b	.L144
 984              	.LVL124:
 985              	.L150:
 986              		.loc 1 139 0
 987 0080 0024     		mov	r4, #0
 988 0082 F8E7     		b	.L143
 989              	.L164:
 990              		.align	2
 991              	.L163:
 992 0084 00000000 		.word	.LANCHOR1
 993 0088 00000000 		.word	.LANCHOR0
 994              		.cfi_endproc
 995              	.LFE47:
 996              		.size	geventGetSourceListener, .-geventGetSourceListener
 997 008c C046C046 		.section	.text.geventGetEventBuffer,"ax",%progbits
 998              		.align	2
 999              		.p2align 4,,15
 1000              		.global	geventGetEventBuffer
 1001              		.code	16
 1002              		.thumb_func
 1003              		.type	geventGetEventBuffer, %function
 1004              	geventGetEventBuffer:
 1005              	.LFB48:
 1006              		.loc 1 159 0
 1007              		.cfi_startproc
 1008              	.LVL125:
 1009              		.loc 1 161 0
 1010 0000 0068     		ldr	r0, [r0]
 1011              	.LVL126:
 1012 0002 031C     		mov	r3, r0
 1013 0004 2033     		add	r3, r3, #32
 1014 0006 01D0     		beq	.L169
 1015              	.L166:
 1016              		.loc 1 161 0 is_stmt 0 discriminator 1
 1017 0008 2830     		add	r0, r0, #40
 1018              	.L167:
 1019              		.loc 1 162 0 is_stmt 1 discriminator 3
ARM GAS  /tmp/cclC07rx.s 			page 19


 1020              		@ sp needed for prologue
 1021 000a 7047     		bx	lr
 1022              	.L169:
 1023              		.loc 1 161 0 discriminator 2
 1024 000c 8168     		ldr	r1, [r0, #8]
 1025 000e 0029     		cmp	r1, #0
 1026 0010 FADB     		blt	.L166
 1027              		.loc 1 161 0 is_stmt 0
 1028 0012 0020     		mov	r0, #0
 1029 0014 F9E7     		b	.L167
 1030              		.cfi_endproc
 1031              	.LFE48:
 1032              		.size	geventGetEventBuffer, .-geventGetEventBuffer
 1033 0016 C046C046 		.section	.text.geventSendEvent,"ax",%progbits
 1033      C046C046 
 1033      C046
 1034              		.align	2
 1035              		.p2align 4,,15
 1036              		.global	geventSendEvent
 1037              		.code	16
 1038              		.thumb_func
 1039              		.type	geventSendEvent, %function
 1040              	geventSendEvent:
 1041              	.LFB49:
 1042              		.loc 1 164 0 is_stmt 1
 1043              		.cfi_startproc
 1044              	.LVL127:
 1045 0000 10B5     		push	{r4, lr}
 1046              	.LCFI10:
 1047              		.cfi_def_cfa_offset 8
 1048              		.cfi_offset 4, -8
 1049              		.cfi_offset 14, -4
 1050              		.loc 1 164 0
 1051 0002 041C     		mov	r4, r0
 1052              		.loc 1 165 0
 1053 0004 0C48     		ldr	r0, .L175
 1054              	.LVL128:
 1055 0006 FFF7FEFF 		bl	chMtxLock
 1056              	.LVL129:
 1057              		.loc 1 166 0
 1058 000a 2068     		ldr	r0, [r4]
 1059 000c 036A     		ldr	r3, [r0, #32]
 1060 000e 002B     		cmp	r3, #0
 1061 0010 08D0     		beq	.L171
 1062              		.loc 1 167 0
 1063 0012 FFF7FEFF 		bl	chMtxUnlock
 1064              	.LVL130:
 1065              		.loc 1 169 0
 1066 0016 2268     		ldr	r2, [r4]
 1067 0018 111C     		mov	r1, r2
 1068 001a 506A     		ldr	r0, [r2, #36]
 1069 001c 2831     		add	r1, r1, #40
 1070 001e 146A     		ldr	r4, [r2, #32]
 1071              	.LVL131:
 1072 0020 A047     		blx	r4
 1073              	.LVL132:
 1074              	.L170:
ARM GAS  /tmp/cclC07rx.s 			page 20


 1075              		.loc 1 177 0
 1076              		@ sp needed for prologue
 1077 0022 10BD     		pop	{r4, pc}
 1078              	.LVL133:
 1079              	.L171:
 1080              		.loc 1 173 0
 1081 0024 8168     		ldr	r1, [r0, #8]
 1082 0026 0029     		cmp	r1, #0
 1083 0028 02DD     		ble	.L174
 1084              	.L173:
 1085              		.loc 1 175 0
 1086 002a FFF7FEFF 		bl	chMtxUnlock
 1087              	.LVL134:
 1088 002e F8E7     		b	.L170
 1089              	.L174:
 1090              		.loc 1 174 0
 1091 0030 FFF7FEFF 		bl	gfxSemSignal
 1092              	.LVL135:
 1093 0034 F9E7     		b	.L173
 1094              	.L176:
 1095 0036 C046     		.align	2
 1096              	.L175:
 1097 0038 00000000 		.word	.LANCHOR1
 1098              		.cfi_endproc
 1099              	.LFE49:
 1100              		.size	geventSendEvent, .-geventSendEvent
 1101 003c C046C046 		.section	.text.geventDetachSourceListeners,"ax",%progbits
 1102              		.align	2
 1103              		.p2align 4,,15
 1104              		.global	geventDetachSourceListeners
 1105              		.code	16
 1106              		.thumb_func
 1107              		.type	geventDetachSourceListeners, %function
 1108              	geventDetachSourceListeners:
 1109              	.LFB50:
 1110              		.loc 1 179 0
 1111              		.cfi_startproc
 1112              	.LVL136:
 1113 0000 10B5     		push	{r4, lr}
 1114              	.LCFI11:
 1115              		.cfi_def_cfa_offset 8
 1116              		.cfi_offset 4, -8
 1117              		.cfi_offset 14, -4
 1118              		.loc 1 179 0
 1119 0002 041C     		mov	r4, r0
 1120              		.loc 1 180 0
 1121 0004 0448     		ldr	r0, .L178
 1122              	.LVL137:
 1123 0006 FFF7FEFF 		bl	chMtxLock
 1124              	.LVL138:
 1125              		.loc 1 181 0
 1126 000a 211C     		mov	r1, r4
 1127 000c 0020     		mov	r0, #0
 1128 000e FFF7FEFF 		bl	deleteAssignments
 1129              	.LVL139:
 1130              		.loc 1 183 0
 1131              		@ sp needed for prologue
ARM GAS  /tmp/cclC07rx.s 			page 21


 1132              		.loc 1 182 0
 1133 0012 FFF7FEFF 		bl	chMtxUnlock
 1134              	.LVL140:
 1135              	.LVL141:
 1136              		.loc 1 183 0
 1137 0016 10BD     		pop	{r4, pc}
 1138              	.L179:
 1139              		.align	2
 1140              	.L178:
 1141 0018 00000000 		.word	.LANCHOR1
 1142              		.cfi_endproc
 1143              	.LFE50:
 1144              		.size	geventDetachSourceListeners, .-geventDetachSourceListeners
 1145 001c C046C046 		.section	.bss.Assignments,"aw",%nobits
 1146              		.align	2
 1147              		.set	.LANCHOR0,. + 0
 1148              		.type	Assignments, %object
 1149              		.size	Assignments, 512
 1150              	Assignments:
 1151 0000 00000000 		.space	512
 1151      00000000 
 1151      00000000 
 1151      00000000 
 1151      00000000 
 1152              		.section	.bss.geventMutex,"aw",%nobits
 1153              		.align	2
 1154              		.set	.LANCHOR1,. + 0
 1155              		.type	geventMutex, %object
 1156              		.size	geventMutex, 16
 1157              	geventMutex:
 1158 0000 00000000 		.space	16
 1158      00000000 
 1158      00000000 
 1158      00000000 
 1159              		.text
 1160              	.Letext0:
 1161              		.file 2 "/home/matt/arm_cortex/gcc-arm-none-eabi/bin/../lib/gcc/arm-none-eabi/4.7.4/../../../../ar
 1162              		.file 3 "/home/matt/arm_cortex/ChibiOS/os/ports/GCC/ARMCMx/chtypes.h"
 1163              		.file 4 "/home/matt/arm_cortex/ChibiOS/os/kernel/include/chlists.h"
 1164              		.file 5 "/home/matt/arm_cortex/ChibiOS/os/kernel/include/chthreads.h"
 1165              		.file 6 "/home/matt/arm_cortex/ChibiOS/os/ports/GCC/ARMCMx/chcore_v6m.h"
 1166              		.file 7 "/home/matt/arm_cortex/ChibiOS/os/kernel/include/chsem.h"
 1167              		.file 8 "/home/matt/arm_cortex/ChibiOS/os/kernel/include/chmtx.h"
 1168              		.file 9 "/home/matt/arm_cortex/ChibiOS/ext/ugfx/include/gos/chibios.h"
 1169              		.file 10 "/home/matt/arm_cortex/ChibiOS/ext/ugfx/include/gevent/gevent.h"
 1170              		.section	.debug_info,"",%progbits
 1171              	.Ldebug_info0:
 1172 0000 DC0B0000 		.4byte	0xbdc
 1173 0004 0200     		.2byte	0x2
 1174 0006 00000000 		.4byte	.Ldebug_abbrev0
 1175 000a 04       		.byte	0x4
 1176 000b 01       		.uleb128 0x1
 1177 000c 16000000 		.4byte	.LASF105
 1178 0010 01       		.byte	0x1
 1179 0011 CC010000 		.4byte	.LASF106
 1180 0015 00000000 		.4byte	.Ldebug_ranges0+0
 1181 0019 00000000 		.4byte	0
ARM GAS  /tmp/cclC07rx.s 			page 22


 1182 001d 00000000 		.4byte	0
 1183 0021 00000000 		.4byte	.Ldebug_line0
 1184 0025 02       		.uleb128 0x2
 1185 0026 04       		.byte	0x4
 1186 0027 05       		.byte	0x5
 1187 0028 696E7400 		.ascii	"int\000"
 1188 002c 03       		.uleb128 0x3
 1189 002d 04       		.byte	0x4
 1190 002e 07       		.byte	0x7
 1191 002f 94000000 		.4byte	.LASF0
 1192 0033 03       		.uleb128 0x3
 1193 0034 01       		.byte	0x1
 1194 0035 06       		.byte	0x6
 1195 0036 94040000 		.4byte	.LASF1
 1196 003a 04       		.uleb128 0x4
 1197 003b 68020000 		.4byte	.LASF4
 1198 003f 02       		.byte	0x2
 1199 0040 2A       		.byte	0x2a
 1200 0041 45000000 		.4byte	0x45
 1201 0045 03       		.uleb128 0x3
 1202 0046 01       		.byte	0x1
 1203 0047 08       		.byte	0x8
 1204 0048 0F040000 		.4byte	.LASF2
 1205 004c 03       		.uleb128 0x3
 1206 004d 02       		.byte	0x2
 1207 004e 05       		.byte	0x5
 1208 004f 2C030000 		.4byte	.LASF3
 1209 0053 04       		.uleb128 0x4
 1210 0054 06030000 		.4byte	.LASF5
 1211 0058 02       		.byte	0x2
 1212 0059 36       		.byte	0x36
 1213 005a 5E000000 		.4byte	0x5e
 1214 005e 03       		.uleb128 0x3
 1215 005f 02       		.byte	0x2
 1216 0060 07       		.byte	0x7
 1217 0061 B1040000 		.4byte	.LASF6
 1218 0065 04       		.uleb128 0x4
 1219 0066 E5030000 		.4byte	.LASF7
 1220 006a 02       		.byte	0x2
 1221 006b 4F       		.byte	0x4f
 1222 006c 70000000 		.4byte	0x70
 1223 0070 03       		.uleb128 0x3
 1224 0071 04       		.byte	0x4
 1225 0072 05       		.byte	0x5
 1226 0073 49030000 		.4byte	.LASF8
 1227 0077 04       		.uleb128 0x4
 1228 0078 05010000 		.4byte	.LASF9
 1229 007c 02       		.byte	0x2
 1230 007d 50       		.byte	0x50
 1231 007e 82000000 		.4byte	0x82
 1232 0082 03       		.uleb128 0x3
 1233 0083 04       		.byte	0x4
 1234 0084 07       		.byte	0x7
 1235 0085 D3030000 		.4byte	.LASF10
 1236 0089 03       		.uleb128 0x3
 1237 008a 08       		.byte	0x8
 1238 008b 05       		.byte	0x5
ARM GAS  /tmp/cclC07rx.s 			page 23


 1239 008c 82020000 		.4byte	.LASF11
 1240 0090 03       		.uleb128 0x3
 1241 0091 08       		.byte	0x8
 1242 0092 07       		.byte	0x7
 1243 0093 41010000 		.4byte	.LASF12
 1244 0097 04       		.uleb128 0x4
 1245 0098 8F010000 		.4byte	.LASF13
 1246 009c 03       		.byte	0x3
 1247 009d 2B       		.byte	0x2b
 1248 009e A2000000 		.4byte	0xa2
 1249 00a2 03       		.uleb128 0x3
 1250 00a3 01       		.byte	0x1
 1251 00a4 02       		.byte	0x2
 1252 00a5 96010000 		.4byte	.LASF14
 1253 00a9 04       		.uleb128 0x4
 1254 00aa EB020000 		.4byte	.LASF15
 1255 00ae 03       		.byte	0x3
 1256 00af 2C       		.byte	0x2c
 1257 00b0 3A000000 		.4byte	0x3a
 1258 00b4 04       		.uleb128 0x4
 1259 00b5 3D020000 		.4byte	.LASF16
 1260 00b9 03       		.byte	0x3
 1261 00ba 2D       		.byte	0x2d
 1262 00bb 3A000000 		.4byte	0x3a
 1263 00bf 04       		.uleb128 0x4
 1264 00c0 CB030000 		.4byte	.LASF17
 1265 00c4 03       		.byte	0x3
 1266 00c5 2E       		.byte	0x2e
 1267 00c6 3A000000 		.4byte	0x3a
 1268 00ca 04       		.uleb128 0x4
 1269 00cb CE020000 		.4byte	.LASF18
 1270 00cf 03       		.byte	0x3
 1271 00d0 2F       		.byte	0x2f
 1272 00d1 3A000000 		.4byte	0x3a
 1273 00d5 04       		.uleb128 0x4
 1274 00d6 27010000 		.4byte	.LASF19
 1275 00da 03       		.byte	0x3
 1276 00db 30       		.byte	0x30
 1277 00dc 77000000 		.4byte	0x77
 1278 00e0 04       		.uleb128 0x4
 1279 00e1 9C020000 		.4byte	.LASF20
 1280 00e5 03       		.byte	0x3
 1281 00e6 31       		.byte	0x31
 1282 00e7 65000000 		.4byte	0x65
 1283 00eb 04       		.uleb128 0x4
 1284 00ec 0E010000 		.4byte	.LASF21
 1285 00f0 03       		.byte	0x3
 1286 00f1 33       		.byte	0x33
 1287 00f2 77000000 		.4byte	0x77
 1288 00f6 04       		.uleb128 0x4
 1289 00f7 65000000 		.4byte	.LASF22
 1290 00fb 03       		.byte	0x3
 1291 00fc 35       		.byte	0x35
 1292 00fd 77000000 		.4byte	0x77
 1293 0101 04       		.uleb128 0x4
 1294 0102 66010000 		.4byte	.LASF23
 1295 0106 03       		.byte	0x3
ARM GAS  /tmp/cclC07rx.s 			page 24


 1296 0107 36       		.byte	0x36
 1297 0108 65000000 		.4byte	0x65
 1298 010c 04       		.uleb128 0x4
 1299 010d 36020000 		.4byte	.LASF24
 1300 0111 04       		.byte	0x4
 1301 0112 2A       		.byte	0x2a
 1302 0113 17010000 		.4byte	0x117
 1303 0117 05       		.uleb128 0x5
 1304 0118 36020000 		.4byte	.LASF24
 1305 011c 48       		.byte	0x48
 1306 011d 05       		.byte	0x5
 1307 011e 5E       		.byte	0x5e
 1308 011f 3C020000 		.4byte	0x23c
 1309 0123 06       		.uleb128 0x6
 1310 0124 76030000 		.4byte	.LASF25
 1311 0128 05       		.byte	0x5
 1312 0129 5F       		.byte	0x5f
 1313 012a 61020000 		.4byte	0x261
 1314 012e 02       		.byte	0x2
 1315 012f 23       		.byte	0x23
 1316 0130 00       		.uleb128 0
 1317 0131 06       		.uleb128 0x6
 1318 0132 B2030000 		.4byte	.LASF26
 1319 0136 05       		.byte	0x5
 1320 0137 61       		.byte	0x61
 1321 0138 61020000 		.4byte	0x261
 1322 013c 02       		.byte	0x2
 1323 013d 23       		.byte	0x23
 1324 013e 04       		.uleb128 0x4
 1325 013f 06       		.uleb128 0x6
 1326 0140 58000000 		.4byte	.LASF27
 1327 0144 05       		.byte	0x5
 1328 0145 63       		.byte	0x63
 1329 0146 D5000000 		.4byte	0xd5
 1330 014a 02       		.byte	0x2
 1331 014b 23       		.byte	0x23
 1332 014c 08       		.uleb128 0x8
 1333 014d 06       		.uleb128 0x6
 1334 014e 7D030000 		.4byte	.LASF28
 1335 0152 05       		.byte	0x5
 1336 0153 64       		.byte	0x64
 1337 0154 25030000 		.4byte	0x325
 1338 0158 02       		.byte	0x2
 1339 0159 23       		.byte	0x23
 1340 015a 0C       		.uleb128 0xc
 1341 015b 06       		.uleb128 0x6
 1342 015c 6C010000 		.4byte	.LASF29
 1343 0160 05       		.byte	0x5
 1344 0161 66       		.byte	0x66
 1345 0162 61020000 		.4byte	0x261
 1346 0166 02       		.byte	0x2
 1347 0167 23       		.byte	0x23
 1348 0168 10       		.uleb128 0x10
 1349 0169 06       		.uleb128 0x6
 1350 016a 58020000 		.4byte	.LASF30
 1351 016e 05       		.byte	0x5
 1352 016f 67       		.byte	0x67
ARM GAS  /tmp/cclC07rx.s 			page 25


 1353 0170 61020000 		.4byte	0x261
 1354 0174 02       		.byte	0x2
 1355 0175 23       		.byte	0x23
 1356 0176 14       		.uleb128 0x14
 1357 0177 06       		.uleb128 0x6
 1358 0178 07020000 		.4byte	.LASF31
 1359 017c 05       		.byte	0x5
 1360 017d 6E       		.byte	0x6e
 1361 017e 03040000 		.4byte	0x403
 1362 0182 02       		.byte	0x2
 1363 0183 23       		.byte	0x23
 1364 0184 18       		.uleb128 0x18
 1365 0185 06       		.uleb128 0x6
 1366 0186 60020000 		.4byte	.LASF32
 1367 018a 05       		.byte	0x5
 1368 018b 79       		.byte	0x79
 1369 018c B4000000 		.4byte	0xb4
 1370 0190 02       		.byte	0x2
 1371 0191 23       		.byte	0x23
 1372 0192 1C       		.uleb128 0x1c
 1373 0193 06       		.uleb128 0x6
 1374 0194 AA020000 		.4byte	.LASF33
 1375 0198 05       		.byte	0x5
 1376 0199 7D       		.byte	0x7d
 1377 019a A9000000 		.4byte	0xa9
 1378 019e 02       		.byte	0x2
 1379 019f 23       		.byte	0x23
 1380 01a0 1D       		.uleb128 0x1d
 1381 01a1 06       		.uleb128 0x6
 1382 01a2 1D040000 		.4byte	.LASF34
 1383 01a6 05       		.byte	0x5
 1384 01a7 82       		.byte	0x82
 1385 01a8 BF000000 		.4byte	0xbf
 1386 01ac 02       		.byte	0x2
 1387 01ad 23       		.byte	0x23
 1388 01ae 1E       		.uleb128 0x1e
 1389 01af 06       		.uleb128 0x6
 1390 01b0 57040000 		.4byte	.LASF35
 1391 01b4 05       		.byte	0x5
 1392 01b5 88       		.byte	0x88
 1393 01b6 CA000000 		.4byte	0xca
 1394 01ba 02       		.byte	0x2
 1395 01bb 23       		.byte	0x23
 1396 01bc 1F       		.uleb128 0x1f
 1397 01bd 06       		.uleb128 0x6
 1398 01be 38000000 		.4byte	.LASF36
 1399 01c2 05       		.byte	0x5
 1400 01c3 8F       		.byte	0x8f
 1401 01c4 4D030000 		.4byte	0x34d
 1402 01c8 02       		.byte	0x2
 1403 01c9 23       		.byte	0x23
 1404 01ca 20       		.uleb128 0x20
 1405 01cb 07       		.uleb128 0x7
 1406 01cc 705F7500 		.ascii	"p_u\000"
 1407 01d0 05       		.byte	0x5
 1408 01d1 B4       		.byte	0xb4
 1409 01d2 CE030000 		.4byte	0x3ce
ARM GAS  /tmp/cclC07rx.s 			page 26


 1410 01d6 02       		.byte	0x2
 1411 01d7 23       		.byte	0x23
 1412 01d8 24       		.uleb128 0x24
 1413 01d9 06       		.uleb128 0x6
 1414 01da 0C000000 		.4byte	.LASF37
 1415 01de 05       		.byte	0x5
 1416 01df B9       		.byte	0xb9
 1417 01e0 89020000 		.4byte	0x289
 1418 01e4 02       		.byte	0x2
 1419 01e5 23       		.byte	0x23
 1420 01e6 28       		.uleb128 0x28
 1421 01e7 06       		.uleb128 0x6
 1422 01e8 7F000000 		.4byte	.LASF38
 1423 01ec 05       		.byte	0x5
 1424 01ed BF       		.byte	0xbf
 1425 01ee 67020000 		.4byte	0x267
 1426 01f2 02       		.byte	0x2
 1427 01f3 23       		.byte	0x23
 1428 01f4 2C       		.uleb128 0x2c
 1429 01f5 06       		.uleb128 0x6
 1430 01f6 E5020000 		.4byte	.LASF39
 1431 01fa 05       		.byte	0x5
 1432 01fb C3       		.byte	0xc3
 1433 01fc E0000000 		.4byte	0xe0
 1434 0200 02       		.byte	0x2
 1435 0201 23       		.byte	0x23
 1436 0202 34       		.uleb128 0x34
 1437 0203 06       		.uleb128 0x6
 1438 0204 36030000 		.4byte	.LASF40
 1439 0208 05       		.byte	0x5
 1440 0209 C9       		.byte	0xc9
 1441 020a EB000000 		.4byte	0xeb
 1442 020e 02       		.byte	0x2
 1443 020f 23       		.byte	0x23
 1444 0210 38       		.uleb128 0x38
 1445 0211 06       		.uleb128 0x6
 1446 0212 78020000 		.4byte	.LASF41
 1447 0216 05       		.byte	0x5
 1448 0217 D0       		.byte	0xd0
 1449 0218 15040000 		.4byte	0x415
 1450 021c 02       		.byte	0x2
 1451 021d 23       		.byte	0x23
 1452 021e 3C       		.uleb128 0x3c
 1453 021f 06       		.uleb128 0x6
 1454 0220 21030000 		.4byte	.LASF42
 1455 0224 05       		.byte	0x5
 1456 0225 D4       		.byte	0xd4
 1457 0226 D5000000 		.4byte	0xd5
 1458 022a 02       		.byte	0x2
 1459 022b 23       		.byte	0x23
 1460 022c 40       		.uleb128 0x40
 1461 022d 06       		.uleb128 0x6
 1462 022e 70020000 		.4byte	.LASF43
 1463 0232 05       		.byte	0x5
 1464 0233 DA       		.byte	0xda
 1465 0234 9F020000 		.4byte	0x29f
 1466 0238 02       		.byte	0x2
ARM GAS  /tmp/cclC07rx.s 			page 27


 1467 0239 23       		.byte	0x23
 1468 023a 44       		.uleb128 0x44
 1469 023b 00       		.byte	0
 1470 023c 08       		.uleb128 0x8
 1471 023d 08       		.byte	0x8
 1472 023e 04       		.byte	0x4
 1473 023f 61       		.byte	0x61
 1474 0240 61020000 		.4byte	0x261
 1475 0244 06       		.uleb128 0x6
 1476 0245 76030000 		.4byte	.LASF25
 1477 0249 04       		.byte	0x4
 1478 024a 62       		.byte	0x62
 1479 024b 61020000 		.4byte	0x261
 1480 024f 02       		.byte	0x2
 1481 0250 23       		.byte	0x23
 1482 0251 00       		.uleb128 0
 1483 0252 06       		.uleb128 0x6
 1484 0253 B2030000 		.4byte	.LASF26
 1485 0257 04       		.byte	0x4
 1486 0258 64       		.byte	0x64
 1487 0259 61020000 		.4byte	0x261
 1488 025d 02       		.byte	0x2
 1489 025e 23       		.byte	0x23
 1490 025f 04       		.uleb128 0x4
 1491 0260 00       		.byte	0
 1492 0261 09       		.uleb128 0x9
 1493 0262 04       		.byte	0x4
 1494 0263 0C010000 		.4byte	0x10c
 1495 0267 04       		.uleb128 0x4
 1496 0268 0E020000 		.4byte	.LASF44
 1497 026c 04       		.byte	0x4
 1498 026d 66       		.byte	0x66
 1499 026e 3C020000 		.4byte	0x23c
 1500 0272 08       		.uleb128 0x8
 1501 0273 04       		.byte	0x4
 1502 0274 04       		.byte	0x4
 1503 0275 6B       		.byte	0x6b
 1504 0276 89020000 		.4byte	0x289
 1505 027a 06       		.uleb128 0x6
 1506 027b 76030000 		.4byte	.LASF25
 1507 027f 04       		.byte	0x4
 1508 0280 6D       		.byte	0x6d
 1509 0281 61020000 		.4byte	0x261
 1510 0285 02       		.byte	0x2
 1511 0286 23       		.byte	0x23
 1512 0287 00       		.uleb128 0
 1513 0288 00       		.byte	0
 1514 0289 04       		.uleb128 0x4
 1515 028a 00000000 		.4byte	.LASF45
 1516 028e 04       		.byte	0x4
 1517 028f 70       		.byte	0x70
 1518 0290 72020000 		.4byte	0x272
 1519 0294 04       		.uleb128 0x4
 1520 0295 4F000000 		.4byte	.LASF46
 1521 0299 06       		.byte	0x6
 1522 029a A7       		.byte	0xa7
 1523 029b 9F020000 		.4byte	0x29f
ARM GAS  /tmp/cclC07rx.s 			page 28


 1524 029f 0A       		.uleb128 0xa
 1525 02a0 04       		.byte	0x4
 1526 02a1 05       		.uleb128 0x5
 1527 02a2 0F030000 		.4byte	.LASF47
 1528 02a6 24       		.byte	0x24
 1529 02a7 06       		.byte	0x6
 1530 02a8 BA       		.byte	0xba
 1531 02a9 25030000 		.4byte	0x325
 1532 02ad 07       		.uleb128 0x7
 1533 02ae 723800   		.ascii	"r8\000"
 1534 02b1 06       		.byte	0x6
 1535 02b2 BB       		.byte	0xbb
 1536 02b3 94020000 		.4byte	0x294
 1537 02b7 02       		.byte	0x2
 1538 02b8 23       		.byte	0x23
 1539 02b9 00       		.uleb128 0
 1540 02ba 07       		.uleb128 0x7
 1541 02bb 723900   		.ascii	"r9\000"
 1542 02be 06       		.byte	0x6
 1543 02bf BC       		.byte	0xbc
 1544 02c0 94020000 		.4byte	0x294
 1545 02c4 02       		.byte	0x2
 1546 02c5 23       		.byte	0x23
 1547 02c6 04       		.uleb128 0x4
 1548 02c7 07       		.uleb128 0x7
 1549 02c8 72313000 		.ascii	"r10\000"
 1550 02cc 06       		.byte	0x6
 1551 02cd BD       		.byte	0xbd
 1552 02ce 94020000 		.4byte	0x294
 1553 02d2 02       		.byte	0x2
 1554 02d3 23       		.byte	0x23
 1555 02d4 08       		.uleb128 0x8
 1556 02d5 07       		.uleb128 0x7
 1557 02d6 72313100 		.ascii	"r11\000"
 1558 02da 06       		.byte	0x6
 1559 02db BE       		.byte	0xbe
 1560 02dc 94020000 		.4byte	0x294
 1561 02e0 02       		.byte	0x2
 1562 02e1 23       		.byte	0x23
 1563 02e2 0C       		.uleb128 0xc
 1564 02e3 07       		.uleb128 0x7
 1565 02e4 723400   		.ascii	"r4\000"
 1566 02e7 06       		.byte	0x6
 1567 02e8 BF       		.byte	0xbf
 1568 02e9 94020000 		.4byte	0x294
 1569 02ed 02       		.byte	0x2
 1570 02ee 23       		.byte	0x23
 1571 02ef 10       		.uleb128 0x10
 1572 02f0 07       		.uleb128 0x7
 1573 02f1 723500   		.ascii	"r5\000"
 1574 02f4 06       		.byte	0x6
 1575 02f5 C0       		.byte	0xc0
 1576 02f6 94020000 		.4byte	0x294
 1577 02fa 02       		.byte	0x2
 1578 02fb 23       		.byte	0x23
 1579 02fc 14       		.uleb128 0x14
 1580 02fd 07       		.uleb128 0x7
ARM GAS  /tmp/cclC07rx.s 			page 29


 1581 02fe 723600   		.ascii	"r6\000"
 1582 0301 06       		.byte	0x6
 1583 0302 C1       		.byte	0xc1
 1584 0303 94020000 		.4byte	0x294
 1585 0307 02       		.byte	0x2
 1586 0308 23       		.byte	0x23
 1587 0309 18       		.uleb128 0x18
 1588 030a 07       		.uleb128 0x7
 1589 030b 723700   		.ascii	"r7\000"
 1590 030e 06       		.byte	0x6
 1591 030f C2       		.byte	0xc2
 1592 0310 94020000 		.4byte	0x294
 1593 0314 02       		.byte	0x2
 1594 0315 23       		.byte	0x23
 1595 0316 1C       		.uleb128 0x1c
 1596 0317 07       		.uleb128 0x7
 1597 0318 6C7200   		.ascii	"lr\000"
 1598 031b 06       		.byte	0x6
 1599 031c C3       		.byte	0xc3
 1600 031d 94020000 		.4byte	0x294
 1601 0321 02       		.byte	0x2
 1602 0322 23       		.byte	0x23
 1603 0323 20       		.uleb128 0x20
 1604 0324 00       		.byte	0
 1605 0325 05       		.uleb128 0x5
 1606 0326 A2020000 		.4byte	.LASF48
 1607 032a 04       		.byte	0x4
 1608 032b 06       		.byte	0x6
 1609 032c CD       		.byte	0xcd
 1610 032d 40030000 		.4byte	0x340
 1611 0331 07       		.uleb128 0x7
 1612 0332 72313300 		.ascii	"r13\000"
 1613 0336 06       		.byte	0x6
 1614 0337 CE       		.byte	0xce
 1615 0338 40030000 		.4byte	0x340
 1616 033c 02       		.byte	0x2
 1617 033d 23       		.byte	0x23
 1618 033e 00       		.uleb128 0
 1619 033f 00       		.byte	0
 1620 0340 09       		.uleb128 0x9
 1621 0341 04       		.byte	0x4
 1622 0342 A1020000 		.4byte	0x2a1
 1623 0346 03       		.uleb128 0x3
 1624 0347 04       		.byte	0x4
 1625 0348 07       		.byte	0x7
 1626 0349 C2030000 		.4byte	.LASF49
 1627 034d 0B       		.uleb128 0xb
 1628 034e F6000000 		.4byte	0xf6
 1629 0352 05       		.uleb128 0x5
 1630 0353 83030000 		.4byte	.LASF50
 1631 0357 0C       		.byte	0xc
 1632 0358 07       		.byte	0x7
 1633 0359 2C       		.byte	0x2c
 1634 035a 7B030000 		.4byte	0x37b
 1635 035e 06       		.uleb128 0x6
 1636 035f 77000000 		.4byte	.LASF51
 1637 0363 07       		.byte	0x7
ARM GAS  /tmp/cclC07rx.s 			page 30


 1638 0364 2D       		.byte	0x2d
 1639 0365 67020000 		.4byte	0x267
 1640 0369 02       		.byte	0x2
 1641 036a 23       		.byte	0x23
 1642 036b 00       		.uleb128 0
 1643 036c 06       		.uleb128 0x6
 1644 036d F5000000 		.4byte	.LASF52
 1645 0371 07       		.byte	0x7
 1646 0372 2F       		.byte	0x2f
 1647 0373 01010000 		.4byte	0x101
 1648 0377 02       		.byte	0x2
 1649 0378 23       		.byte	0x23
 1650 0379 08       		.uleb128 0x8
 1651 037a 00       		.byte	0
 1652 037b 04       		.uleb128 0x4
 1653 037c 83030000 		.4byte	.LASF50
 1654 0380 07       		.byte	0x7
 1655 0381 30       		.byte	0x30
 1656 0382 52030000 		.4byte	0x352
 1657 0386 05       		.uleb128 0x5
 1658 0387 C6010000 		.4byte	.LASF53
 1659 038b 10       		.byte	0x10
 1660 038c 08       		.byte	0x8
 1661 038d 2C       		.byte	0x2c
 1662 038e BD030000 		.4byte	0x3bd
 1663 0392 06       		.uleb128 0x6
 1664 0393 41030000 		.4byte	.LASF54
 1665 0397 08       		.byte	0x8
 1666 0398 2D       		.byte	0x2d
 1667 0399 67020000 		.4byte	0x267
 1668 039d 02       		.byte	0x2
 1669 039e 23       		.byte	0x23
 1670 039f 00       		.uleb128 0
 1671 03a0 06       		.uleb128 0x6
 1672 03a1 6F000000 		.4byte	.LASF55
 1673 03a5 08       		.byte	0x8
 1674 03a6 2F       		.byte	0x2f
 1675 03a7 61020000 		.4byte	0x261
 1676 03ab 02       		.byte	0x2
 1677 03ac 23       		.byte	0x23
 1678 03ad 08       		.uleb128 0x8
 1679 03ae 06       		.uleb128 0x6
 1680 03af 8D040000 		.4byte	.LASF56
 1681 03b3 08       		.byte	0x8
 1682 03b4 31       		.byte	0x31
 1683 03b5 BD030000 		.4byte	0x3bd
 1684 03b9 02       		.byte	0x2
 1685 03ba 23       		.byte	0x23
 1686 03bb 0C       		.uleb128 0xc
 1687 03bc 00       		.byte	0
 1688 03bd 09       		.uleb128 0x9
 1689 03be 04       		.byte	0x4
 1690 03bf 86030000 		.4byte	0x386
 1691 03c3 04       		.uleb128 0x4
 1692 03c4 C6010000 		.4byte	.LASF53
 1693 03c8 08       		.byte	0x8
 1694 03c9 33       		.byte	0x33
ARM GAS  /tmp/cclC07rx.s 			page 31


 1695 03ca 86030000 		.4byte	0x386
 1696 03ce 0C       		.uleb128 0xc
 1697 03cf 04       		.byte	0x4
 1698 03d0 05       		.byte	0x5
 1699 03d1 96       		.byte	0x96
 1700 03d2 03040000 		.4byte	0x403
 1701 03d6 0D       		.uleb128 0xd
 1702 03d7 88010000 		.4byte	.LASF57
 1703 03db 05       		.byte	0x5
 1704 03dc 9D       		.byte	0x9d
 1705 03dd E0000000 		.4byte	0xe0
 1706 03e1 0D       		.uleb128 0xd
 1707 03e2 CB040000 		.4byte	.LASF58
 1708 03e6 05       		.byte	0x5
 1709 03e7 A4       		.byte	0xa4
 1710 03e8 E0000000 		.4byte	0xe0
 1711 03ec 0D       		.uleb128 0xd
 1712 03ed B4000000 		.4byte	.LASF59
 1713 03f1 05       		.byte	0x5
 1714 03f2 AB       		.byte	0xab
 1715 03f3 9F020000 		.4byte	0x29f
 1716 03f7 0D       		.uleb128 0xd
 1717 03f8 E2000000 		.4byte	.LASF60
 1718 03fc 05       		.byte	0x5
 1719 03fd B2       		.byte	0xb2
 1720 03fe EB000000 		.4byte	0xeb
 1721 0402 00       		.byte	0
 1722 0403 09       		.uleb128 0x9
 1723 0404 04       		.byte	0x4
 1724 0405 09040000 		.4byte	0x409
 1725 0409 0E       		.uleb128 0xe
 1726 040a 0E040000 		.4byte	0x40e
 1727 040e 03       		.uleb128 0x3
 1728 040f 01       		.byte	0x1
 1729 0410 08       		.byte	0x8
 1730 0411 1B020000 		.4byte	.LASF61
 1731 0415 09       		.uleb128 0x9
 1732 0416 04       		.byte	0x4
 1733 0417 C3030000 		.4byte	0x3c3
 1734 041b 04       		.uleb128 0x4
 1735 041c BB000000 		.4byte	.LASF62
 1736 0420 09       		.byte	0x9
 1737 0421 24       		.byte	0x24
 1738 0422 F6000000 		.4byte	0xf6
 1739 0426 04       		.uleb128 0x4
 1740 0427 B2020000 		.4byte	.LASF63
 1741 042b 09       		.byte	0x9
 1742 042c 26       		.byte	0x26
 1743 042d 01010000 		.4byte	0x101
 1744 0431 08       		.uleb128 0x8
 1745 0432 10       		.byte	0x10
 1746 0433 09       		.byte	0x9
 1747 0434 32       		.byte	0x32
 1748 0435 56040000 		.4byte	0x456
 1749 0439 07       		.uleb128 0x7
 1750 043a 73656D00 		.ascii	"sem\000"
 1751 043e 09       		.byte	0x9
ARM GAS  /tmp/cclC07rx.s 			page 32


 1752 043f 33       		.byte	0x33
 1753 0440 7B030000 		.4byte	0x37b
 1754 0444 02       		.byte	0x2
 1755 0445 23       		.byte	0x23
 1756 0446 00       		.uleb128 0
 1757 0447 06       		.uleb128 0x6
 1758 0448 C7000000 		.4byte	.LASF64
 1759 044c 09       		.byte	0x9
 1760 044d 34       		.byte	0x34
 1761 044e 26040000 		.4byte	0x426
 1762 0452 02       		.byte	0x2
 1763 0453 23       		.byte	0x23
 1764 0454 0C       		.uleb128 0xc
 1765 0455 00       		.byte	0
 1766 0456 04       		.uleb128 0x4
 1767 0457 1A010000 		.4byte	.LASF65
 1768 045b 09       		.byte	0x9
 1769 045c 35       		.byte	0x35
 1770 045d 31040000 		.4byte	0x431
 1771 0461 04       		.uleb128 0x4
 1772 0462 B9030000 		.4byte	.LASF66
 1773 0466 09       		.byte	0x9
 1774 0467 37       		.byte	0x37
 1775 0468 C3030000 		.4byte	0x3c3
 1776 046c 04       		.uleb128 0x4
 1777 046d CD000000 		.4byte	.LASF67
 1778 0471 0A       		.byte	0xa
 1779 0472 21       		.byte	0x21
 1780 0473 53000000 		.4byte	0x53
 1781 0477 0F       		.uleb128 0xf
 1782 0478 01040000 		.4byte	.LASF107
 1783 047c 20       		.byte	0x20
 1784 047d 0A       		.byte	0xa
 1785 047e 31       		.byte	0x31
 1786 047f 9A040000 		.4byte	0x49a
 1787 0483 0D       		.uleb128 0xd
 1788 0484 0A040000 		.4byte	.LASF68
 1789 0488 0A       		.byte	0xa
 1790 0489 32       		.byte	0x32
 1791 048a 6C040000 		.4byte	0x46c
 1792 048e 10       		.uleb128 0x10
 1793 048f 70616400 		.ascii	"pad\000"
 1794 0493 0A       		.byte	0xa
 1795 0494 33       		.byte	0x33
 1796 0495 9A040000 		.4byte	0x49a
 1797 0499 00       		.byte	0
 1798 049a 11       		.uleb128 0x11
 1799 049b 0E040000 		.4byte	0x40e
 1800 049f AA040000 		.4byte	0x4aa
 1801 04a3 12       		.uleb128 0x12
 1802 04a4 46030000 		.4byte	0x346
 1803 04a8 1F       		.byte	0x1f
 1804 04a9 00       		.byte	0
 1805 04aa 04       		.uleb128 0x4
 1806 04ab C4040000 		.4byte	.LASF69
 1807 04af 0A       		.byte	0xa
 1808 04b0 34       		.byte	0x34
ARM GAS  /tmp/cclC07rx.s 			page 33


 1809 04b1 77040000 		.4byte	0x477
 1810 04b5 04       		.uleb128 0x4
 1811 04b6 A0040000 		.4byte	.LASF70
 1812 04ba 0A       		.byte	0xa
 1813 04bb 37       		.byte	0x37
 1814 04bc C0040000 		.4byte	0x4c0
 1815 04c0 09       		.uleb128 0x9
 1816 04c1 04       		.byte	0x4
 1817 04c2 C6040000 		.4byte	0x4c6
 1818 04c6 13       		.uleb128 0x13
 1819 04c7 01       		.byte	0x1
 1820 04c8 D7040000 		.4byte	0x4d7
 1821 04cc 14       		.uleb128 0x14
 1822 04cd 9F020000 		.4byte	0x29f
 1823 04d1 14       		.uleb128 0x14
 1824 04d2 D7040000 		.4byte	0x4d7
 1825 04d6 00       		.byte	0
 1826 04d7 09       		.uleb128 0x9
 1827 04d8 04       		.byte	0x4
 1828 04d9 AA040000 		.4byte	0x4aa
 1829 04dd 05       		.uleb128 0x5
 1830 04de 20020000 		.4byte	.LASF71
 1831 04e2 48       		.byte	0x48
 1832 04e3 0A       		.byte	0xa
 1833 04e4 3A       		.byte	0x3a
 1834 04e5 30050000 		.4byte	0x530
 1835 04e9 06       		.uleb128 0x6
 1836 04ea D8000000 		.4byte	.LASF72
 1837 04ee 0A       		.byte	0xa
 1838 04ef 3B       		.byte	0x3b
 1839 04f0 56040000 		.4byte	0x456
 1840 04f4 02       		.byte	0x2
 1841 04f5 23       		.byte	0x23
 1842 04f6 00       		.uleb128 0
 1843 04f7 06       		.uleb128 0x6
 1844 04f8 7E010000 		.4byte	.LASF73
 1845 04fc 0A       		.byte	0xa
 1846 04fd 3C       		.byte	0x3c
 1847 04fe 56040000 		.4byte	0x456
 1848 0502 02       		.byte	0x2
 1849 0503 23       		.byte	0x23
 1850 0504 10       		.uleb128 0x10
 1851 0505 06       		.uleb128 0x6
 1852 0506 74040000 		.4byte	.LASF74
 1853 050a 0A       		.byte	0xa
 1854 050b 3D       		.byte	0x3d
 1855 050c B5040000 		.4byte	0x4b5
 1856 0510 02       		.byte	0x2
 1857 0511 23       		.byte	0x23
 1858 0512 20       		.uleb128 0x20
 1859 0513 06       		.uleb128 0x6
 1860 0514 C8020000 		.4byte	.LASF75
 1861 0518 0A       		.byte	0xa
 1862 0519 3E       		.byte	0x3e
 1863 051a 9F020000 		.4byte	0x29f
 1864 051e 02       		.byte	0x2
 1865 051f 23       		.byte	0x23
ARM GAS  /tmp/cclC07rx.s 			page 34


 1866 0520 24       		.uleb128 0x24
 1867 0521 06       		.uleb128 0x6
 1868 0522 21010000 		.4byte	.LASF76
 1869 0526 0A       		.byte	0xa
 1870 0527 3F       		.byte	0x3f
 1871 0528 AA040000 		.4byte	0x4aa
 1872 052c 02       		.byte	0x2
 1873 052d 23       		.byte	0x23
 1874 052e 28       		.uleb128 0x28
 1875 052f 00       		.byte	0
 1876 0530 04       		.uleb128 0x4
 1877 0531 20020000 		.4byte	.LASF71
 1878 0535 0A       		.byte	0xa
 1879 0536 40       		.byte	0x40
 1880 0537 DD040000 		.4byte	0x4dd
 1881 053b 04       		.uleb128 0x4
 1882 053c D4040000 		.4byte	.LASF77
 1883 0540 0A       		.byte	0xa
 1884 0541 43       		.byte	0x43
 1885 0542 46050000 		.4byte	0x546
 1886 0546 15       		.uleb128 0x15
 1887 0547 8A000000 		.4byte	.LASF108
 1888 054b 01       		.byte	0x1
 1889 054c 04       		.uleb128 0x4
 1890 054d 58010000 		.4byte	.LASF78
 1891 0551 0A       		.byte	0xa
 1892 0552 43       		.byte	0x43
 1893 0553 57050000 		.4byte	0x557
 1894 0557 09       		.uleb128 0x9
 1895 0558 04       		.byte	0x4
 1896 0559 46050000 		.4byte	0x546
 1897 055d 05       		.uleb128 0x5
 1898 055e 46020000 		.4byte	.LASF79
 1899 0562 10       		.byte	0x10
 1900 0563 0A       		.byte	0xa
 1901 0564 46       		.byte	0x46
 1902 0565 A2050000 		.4byte	0x5a2
 1903 0569 06       		.uleb128 0x6
 1904 056a FB000000 		.4byte	.LASF80
 1905 056e 0A       		.byte	0xa
 1906 056f 47       		.byte	0x47
 1907 0570 A2050000 		.4byte	0x5a2
 1908 0574 02       		.byte	0x2
 1909 0575 23       		.byte	0x23
 1910 0576 00       		.uleb128 0
 1911 0577 06       		.uleb128 0x6
 1912 0578 ED030000 		.4byte	.LASF81
 1913 057c 0A       		.byte	0xa
 1914 057d 48       		.byte	0x48
 1915 057e A8050000 		.4byte	0x5a8
 1916 0582 02       		.byte	0x2
 1917 0583 23       		.byte	0x23
 1918 0584 04       		.uleb128 0x4
 1919 0585 06       		.uleb128 0x6
 1920 0586 E9000000 		.4byte	.LASF82
 1921 058a 0A       		.byte	0xa
 1922 058b 49       		.byte	0x49
ARM GAS  /tmp/cclC07rx.s 			page 35


 1923 058c 2C000000 		.4byte	0x2c
 1924 0590 02       		.byte	0x2
 1925 0591 23       		.byte	0x23
 1926 0592 08       		.uleb128 0x8
 1927 0593 06       		.uleb128 0x6
 1928 0594 4E040000 		.4byte	.LASF83
 1929 0598 0A       		.byte	0xa
 1930 0599 4A       		.byte	0x4a
 1931 059a 2C000000 		.4byte	0x2c
 1932 059e 02       		.byte	0x2
 1933 059f 23       		.byte	0x23
 1934 05a0 0C       		.uleb128 0xc
 1935 05a1 00       		.byte	0
 1936 05a2 09       		.uleb128 0x9
 1937 05a3 04       		.byte	0x4
 1938 05a4 30050000 		.4byte	0x530
 1939 05a8 09       		.uleb128 0x9
 1940 05a9 04       		.byte	0x4
 1941 05aa 3B050000 		.4byte	0x53b
 1942 05ae 04       		.uleb128 0x4
 1943 05af A2030000 		.4byte	.LASF84
 1944 05b3 0A       		.byte	0xa
 1945 05b4 4B       		.byte	0x4b
 1946 05b5 5D050000 		.4byte	0x55d
 1947 05b9 16       		.uleb128 0x16
 1948 05ba 2F010000 		.4byte	.LASF109
 1949 05be 01       		.byte	0x1
 1950 05bf 21       		.byte	0x21
 1951 05c0 01       		.byte	0x1
 1952 05c1 00000000 		.4byte	.LFB40
 1953 05c5 64010000 		.4byte	.LFE40
 1954 05c9 00000000 		.4byte	.LLST0
 1955 05cd 01       		.byte	0x1
 1956 05ce 9B060000 		.4byte	0x69b
 1957 05d2 17       		.uleb128 0x17
 1958 05d3 706C00   		.ascii	"pl\000"
 1959 05d6 01       		.byte	0x1
 1960 05d7 21       		.byte	0x21
 1961 05d8 A2050000 		.4byte	0x5a2
 1962 05dc 2C000000 		.4byte	.LLST1
 1963 05e0 17       		.uleb128 0x17
 1964 05e1 67736800 		.ascii	"gsh\000"
 1965 05e5 01       		.byte	0x1
 1966 05e6 21       		.byte	0x21
 1967 05e7 4C050000 		.4byte	0x54c
 1968 05eb 63000000 		.4byte	.LLST2
 1969 05ef 18       		.uleb128 0x18
 1970 05f0 70736C00 		.ascii	"psl\000"
 1971 05f4 01       		.byte	0x1
 1972 05f5 22       		.byte	0x22
 1973 05f6 9B060000 		.4byte	0x69b
 1974 05fa 60010000 		.4byte	.LLST3
 1975 05fe 19       		.uleb128 0x19
 1976 05ff EA000000 		.4byte	.LVL21
 1977 0603 540B0000 		.4byte	0xb54
 1978 0607 13060000 		.4byte	0x613
 1979 060b 1A       		.uleb128 0x1a
ARM GAS  /tmp/cclC07rx.s 			page 36


 1980 060c 01       		.byte	0x1
 1981 060d 51       		.byte	0x51
 1982 060e 03       		.byte	0x3
 1983 060f 7A       		.byte	0x7a
 1984 0610 00       		.sleb128 0
 1985 0611 1F       		.byte	0x1f
 1986 0612 00       		.byte	0
 1987 0613 1B       		.uleb128 0x1b
 1988 0614 F6000000 		.4byte	.LVL22
 1989 0618 770B0000 		.4byte	0xb77
 1990 061c 1B       		.uleb128 0x1b
 1991 061d FE000000 		.4byte	.LVL23
 1992 0621 770B0000 		.4byte	0xb77
 1993 0625 19       		.uleb128 0x19
 1994 0626 0A010000 		.4byte	.LVL25
 1995 062a 540B0000 		.4byte	0xb54
 1996 062e 3A060000 		.4byte	0x63a
 1997 0632 1A       		.uleb128 0x1a
 1998 0633 01       		.byte	0x1
 1999 0634 51       		.byte	0x51
 2000 0635 03       		.byte	0x3
 2001 0636 7A       		.byte	0x7a
 2002 0637 00       		.sleb128 0
 2003 0638 1F       		.byte	0x1f
 2004 0639 00       		.byte	0
 2005 063a 1B       		.uleb128 0x1b
 2006 063b 16010000 		.4byte	.LVL26
 2007 063f 770B0000 		.4byte	0xb77
 2008 0643 1B       		.uleb128 0x1b
 2009 0644 1E010000 		.4byte	.LVL27
 2010 0648 770B0000 		.4byte	0xb77
 2011 064c 19       		.uleb128 0x19
 2012 064d 2A010000 		.4byte	.LVL30
 2013 0651 540B0000 		.4byte	0xb54
 2014 0655 61060000 		.4byte	0x661
 2015 0659 1A       		.uleb128 0x1a
 2016 065a 01       		.byte	0x1
 2017 065b 51       		.byte	0x51
 2018 065c 03       		.byte	0x3
 2019 065d 7A       		.byte	0x7a
 2020 065e 00       		.sleb128 0
 2021 065f 1F       		.byte	0x1f
 2022 0660 00       		.byte	0
 2023 0661 1B       		.uleb128 0x1b
 2024 0662 36010000 		.4byte	.LVL31
 2025 0666 770B0000 		.4byte	0xb77
 2026 066a 1B       		.uleb128 0x1b
 2027 066b 3E010000 		.4byte	.LVL32
 2028 066f 770B0000 		.4byte	0xb77
 2029 0673 19       		.uleb128 0x19
 2030 0674 4A010000 		.4byte	.LVL34
 2031 0678 540B0000 		.4byte	0xb54
 2032 067c 88060000 		.4byte	0x688
 2033 0680 1A       		.uleb128 0x1a
 2034 0681 01       		.byte	0x1
 2035 0682 51       		.byte	0x51
 2036 0683 03       		.byte	0x3
ARM GAS  /tmp/cclC07rx.s 			page 37


 2037 0684 7A       		.byte	0x7a
 2038 0685 00       		.sleb128 0
 2039 0686 1F       		.byte	0x1f
 2040 0687 00       		.byte	0
 2041 0688 1B       		.uleb128 0x1b
 2042 0689 56010000 		.4byte	.LVL36
 2043 068d 770B0000 		.4byte	0xb77
 2044 0691 1B       		.uleb128 0x1b
 2045 0692 5E010000 		.4byte	.LVL37
 2046 0696 770B0000 		.4byte	0xb77
 2047 069a 00       		.byte	0
 2048 069b 09       		.uleb128 0x9
 2049 069c 04       		.byte	0x4
 2050 069d AE050000 		.4byte	0x5ae
 2051 06a1 1C       		.uleb128 0x1c
 2052 06a2 01       		.byte	0x1
 2053 06a3 F5030000 		.4byte	.LASF85
 2054 06a7 01       		.byte	0x1
 2055 06a8 31       		.byte	0x31
 2056 06a9 01       		.byte	0x1
 2057 06aa 00000000 		.4byte	.LFB41
 2058 06ae 10000000 		.4byte	.LFE41
 2059 06b2 B9010000 		.4byte	.LLST4
 2060 06b6 01       		.byte	0x1
 2061 06b7 CF060000 		.4byte	0x6cf
 2062 06bb 1D       		.uleb128 0x1d
 2063 06bc 08000000 		.4byte	.LVL38
 2064 06c0 8B0B0000 		.4byte	0xb8b
 2065 06c4 1A       		.uleb128 0x1a
 2066 06c5 01       		.byte	0x1
 2067 06c6 50       		.byte	0x50
 2068 06c7 05       		.byte	0x5
 2069 06c8 03       		.byte	0x3
 2070 06c9 00000000 		.4byte	.LANCHOR1
 2071 06cd 00       		.byte	0
 2072 06ce 00       		.byte	0
 2073 06cf 1C       		.uleb128 0x1c
 2074 06d0 01       		.byte	0x1
 2075 06d1 61040000 		.4byte	.LASF86
 2076 06d5 01       		.byte	0x1
 2077 06d6 35       		.byte	0x35
 2078 06d7 01       		.byte	0x1
 2079 06d8 00000000 		.4byte	.LFB42
 2080 06dc 24000000 		.4byte	.LFE42
 2081 06e0 D9010000 		.4byte	.LLST5
 2082 06e4 01       		.byte	0x1
 2083 06e5 34070000 		.4byte	0x734
 2084 06e9 17       		.uleb128 0x17
 2085 06ea 706C00   		.ascii	"pl\000"
 2086 06ed 01       		.byte	0x1
 2087 06ee 35       		.byte	0x35
 2088 06ef A2050000 		.4byte	0x5a2
 2089 06f3 F9010000 		.4byte	.LLST6
 2090 06f7 19       		.uleb128 0x19
 2091 06f8 0C000000 		.4byte	.LVL40
 2092 06fc 9F0B0000 		.4byte	0xb9f
 2093 0700 19070000 		.4byte	0x719
ARM GAS  /tmp/cclC07rx.s 			page 38


 2094 0704 1A       		.uleb128 0x1a
 2095 0705 01       		.byte	0x1
 2096 0706 52       		.byte	0x52
 2097 0707 05       		.byte	0x5
 2098 0708 0C       		.byte	0xc
 2099 0709 FFFFFF7F 		.4byte	0x7fffffff
 2100 070d 1A       		.uleb128 0x1a
 2101 070e 01       		.byte	0x1
 2102 070f 51       		.byte	0x51
 2103 0710 01       		.byte	0x1
 2104 0711 30       		.byte	0x30
 2105 0712 1A       		.uleb128 0x1a
 2106 0713 01       		.byte	0x1
 2107 0714 50       		.byte	0x50
 2108 0715 02       		.byte	0x2
 2109 0716 74       		.byte	0x74
 2110 0717 00       		.sleb128 0
 2111 0718 00       		.byte	0
 2112 0719 1D       		.uleb128 0x1d
 2113 071a 18000000 		.4byte	.LVL41
 2114 071e 9F0B0000 		.4byte	0xb9f
 2115 0722 1A       		.uleb128 0x1a
 2116 0723 01       		.byte	0x1
 2117 0724 52       		.byte	0x52
 2118 0725 01       		.byte	0x1
 2119 0726 31       		.byte	0x31
 2120 0727 1A       		.uleb128 0x1a
 2121 0728 01       		.byte	0x1
 2122 0729 51       		.byte	0x51
 2123 072a 01       		.byte	0x1
 2124 072b 31       		.byte	0x31
 2125 072c 1A       		.uleb128 0x1a
 2126 072d 01       		.byte	0x1
 2127 072e 50       		.byte	0x50
 2128 072f 02       		.byte	0x2
 2129 0730 74       		.byte	0x74
 2130 0731 10       		.sleb128 16
 2131 0732 00       		.byte	0
 2132 0733 00       		.byte	0
 2133 0734 1E       		.uleb128 0x1e
 2134 0735 01       		.byte	0x1
 2135 0736 B3010000 		.4byte	.LASF90
 2136 073a 01       		.byte	0x1
 2137 073b 3C       		.byte	0x3c
 2138 073c 01       		.byte	0x1
 2139 073d 97000000 		.4byte	0x97
 2140 0741 00000000 		.4byte	.LFB43
 2141 0745 F0000000 		.4byte	.LFE43
 2142 0749 25020000 		.4byte	.LLST7
 2143 074d 01       		.byte	0x1
 2144 074e F4070000 		.4byte	0x7f4
 2145 0752 17       		.uleb128 0x17
 2146 0753 706C00   		.ascii	"pl\000"
 2147 0756 01       		.byte	0x1
 2148 0757 3C       		.byte	0x3c
 2149 0758 A2050000 		.4byte	0x5a2
 2150 075c 51020000 		.4byte	.LLST8
ARM GAS  /tmp/cclC07rx.s 			page 39


 2151 0760 17       		.uleb128 0x17
 2152 0761 67736800 		.ascii	"gsh\000"
 2153 0765 01       		.byte	0x1
 2154 0766 3C       		.byte	0x3c
 2155 0767 4C050000 		.4byte	0x54c
 2156 076b B7020000 		.4byte	.LLST9
 2157 076f 1F       		.uleb128 0x1f
 2158 0770 5F000000 		.4byte	.LASF87
 2159 0774 01       		.byte	0x1
 2160 0775 3C       		.byte	0x3c
 2161 0776 2C000000 		.4byte	0x2c
 2162 077a 1E030000 		.4byte	.LLST10
 2163 077e 18       		.uleb128 0x18
 2164 077f 70736C00 		.ascii	"psl\000"
 2165 0783 01       		.byte	0x1
 2166 0784 3D       		.byte	0x3d
 2167 0785 9B060000 		.4byte	0x69b
 2168 0789 6B030000 		.4byte	.LLST11
 2169 078d 20       		.uleb128 0x20
 2170 078e 6E030000 		.4byte	.LASF88
 2171 0792 01       		.byte	0x1
 2172 0793 3D       		.byte	0x3d
 2173 0794 9B060000 		.4byte	0x69b
 2174 0798 E0030000 		.4byte	.LLST12
 2175 079c 19       		.uleb128 0x19
 2176 079d 1A000000 		.4byte	.LVL45
 2177 07a1 BD0B0000 		.4byte	0xbbd
 2178 07a5 B3070000 		.4byte	0x7b3
 2179 07a9 1A       		.uleb128 0x1a
 2180 07aa 01       		.byte	0x1
 2181 07ab 50       		.byte	0x50
 2182 07ac 05       		.byte	0x5
 2183 07ad 03       		.byte	0x3
 2184 07ae 00000000 		.4byte	.LANCHOR1
 2185 07b2 00       		.byte	0
 2186 07b3 1B       		.uleb128 0x1b
 2187 07b4 88000000 		.4byte	.LVL57
 2188 07b8 D10B0000 		.4byte	0xbd1
 2189 07bc 19       		.uleb128 0x19
 2190 07bd D8000000 		.4byte	.LVL74
 2191 07c1 540B0000 		.4byte	0xb54
 2192 07c5 D6070000 		.4byte	0x7d6
 2193 07c9 1A       		.uleb128 0x1a
 2194 07ca 01       		.byte	0x1
 2195 07cb 51       		.byte	0x51
 2196 07cc 02       		.byte	0x2
 2197 07cd 09       		.byte	0x9
 2198 07ce FF       		.byte	0xff
 2199 07cf 1A       		.uleb128 0x1a
 2200 07d0 01       		.byte	0x1
 2201 07d1 50       		.byte	0x50
 2202 07d2 02       		.byte	0x2
 2203 07d3 76       		.byte	0x76
 2204 07d4 00       		.sleb128 0
 2205 07d5 00       		.byte	0
 2206 07d6 19       		.uleb128 0x19
 2207 07d7 E0000000 		.4byte	.LVL75
ARM GAS  /tmp/cclC07rx.s 			page 40


 2208 07db 770B0000 		.4byte	0xb77
 2209 07df EA070000 		.4byte	0x7ea
 2210 07e3 1A       		.uleb128 0x1a
 2211 07e4 01       		.byte	0x1
 2212 07e5 50       		.byte	0x50
 2213 07e6 02       		.byte	0x2
 2214 07e7 76       		.byte	0x76
 2215 07e8 00       		.sleb128 0
 2216 07e9 00       		.byte	0
 2217 07ea 1B       		.uleb128 0x1b
 2218 07eb E4000000 		.4byte	.LVL76
 2219 07ef D10B0000 		.4byte	0xbd1
 2220 07f3 00       		.byte	0
 2221 07f4 1C       		.uleb128 0x1c
 2222 07f5 01       		.byte	0x1
 2223 07f6 A1000000 		.4byte	.LASF89
 2224 07fa 01       		.byte	0x1
 2225 07fb 63       		.byte	0x63
 2226 07fc 01       		.byte	0x1
 2227 07fd 00000000 		.4byte	.LFB44
 2228 0801 4C000000 		.4byte	.LFE44
 2229 0805 37040000 		.4byte	.LLST13
 2230 0809 01       		.byte	0x1
 2231 080a A4080000 		.4byte	0x8a4
 2232 080e 17       		.uleb128 0x17
 2233 080f 706C00   		.ascii	"pl\000"
 2234 0812 01       		.byte	0x1
 2235 0813 63       		.byte	0x63
 2236 0814 A2050000 		.4byte	0x5a2
 2237 0818 57040000 		.4byte	.LLST14
 2238 081c 17       		.uleb128 0x17
 2239 081d 67736800 		.ascii	"gsh\000"
 2240 0821 01       		.byte	0x1
 2241 0822 63       		.byte	0x63
 2242 0823 4C050000 		.4byte	0x54c
 2243 0827 8E040000 		.4byte	.LLST15
 2244 082b 19       		.uleb128 0x19
 2245 082c 10000000 		.4byte	.LVL79
 2246 0830 BD0B0000 		.4byte	0xbbd
 2247 0834 42080000 		.4byte	0x842
 2248 0838 1A       		.uleb128 0x1a
 2249 0839 01       		.byte	0x1
 2250 083a 50       		.byte	0x50
 2251 083b 05       		.byte	0x5
 2252 083c 03       		.byte	0x3
 2253 083d 00000000 		.4byte	.LANCHOR1
 2254 0841 00       		.byte	0
 2255 0842 19       		.uleb128 0x19
 2256 0843 18000000 		.4byte	.LVL80
 2257 0847 B9050000 		.4byte	0x5b9
 2258 084b 5C080000 		.4byte	0x85c
 2259 084f 1A       		.uleb128 0x1a
 2260 0850 01       		.byte	0x1
 2261 0851 51       		.byte	0x51
 2262 0852 02       		.byte	0x2
 2263 0853 75       		.byte	0x75
 2264 0854 00       		.sleb128 0
ARM GAS  /tmp/cclC07rx.s 			page 41


 2265 0855 1A       		.uleb128 0x1a
 2266 0856 01       		.byte	0x1
 2267 0857 50       		.byte	0x50
 2268 0858 02       		.byte	0x2
 2269 0859 74       		.byte	0x74
 2270 085a 00       		.sleb128 0
 2271 085b 00       		.byte	0
 2272 085c 1B       		.uleb128 0x1b
 2273 085d 20000000 		.4byte	.LVL82
 2274 0861 D10B0000 		.4byte	0xbd1
 2275 0865 19       		.uleb128 0x19
 2276 0866 36000000 		.4byte	.LVL86
 2277 086a 540B0000 		.4byte	0xb54
 2278 086e 7F080000 		.4byte	0x87f
 2279 0872 1A       		.uleb128 0x1a
 2280 0873 01       		.byte	0x1
 2281 0874 51       		.byte	0x51
 2282 0875 02       		.byte	0x2
 2283 0876 09       		.byte	0x9
 2284 0877 FF       		.byte	0xff
 2285 0878 1A       		.uleb128 0x1a
 2286 0879 01       		.byte	0x1
 2287 087a 50       		.byte	0x50
 2288 087b 02       		.byte	0x2
 2289 087c 75       		.byte	0x75
 2290 087d 00       		.sleb128 0
 2291 087e 00       		.byte	0
 2292 087f 19       		.uleb128 0x19
 2293 0880 40000000 		.4byte	.LVL87
 2294 0884 770B0000 		.4byte	0xb77
 2295 0888 93080000 		.4byte	0x893
 2296 088c 1A       		.uleb128 0x1a
 2297 088d 01       		.byte	0x1
 2298 088e 50       		.byte	0x50
 2299 088f 02       		.byte	0x2
 2300 0890 74       		.byte	0x74
 2301 0891 00       		.sleb128 0
 2302 0892 00       		.byte	0
 2303 0893 1D       		.uleb128 0x1d
 2304 0894 46000000 		.4byte	.LVL88
 2305 0898 770B0000 		.4byte	0xb77
 2306 089c 1A       		.uleb128 0x1a
 2307 089d 01       		.byte	0x1
 2308 089e 50       		.byte	0x50
 2309 089f 02       		.byte	0x2
 2310 08a0 75       		.byte	0x75
 2311 08a1 00       		.sleb128 0
 2312 08a2 00       		.byte	0
 2313 08a3 00       		.byte	0
 2314 08a4 1E       		.uleb128 0x1e
 2315 08a5 01       		.byte	0x1
 2316 08a6 3F000000 		.4byte	.LASF91
 2317 08aa 01       		.byte	0x1
 2318 08ab 71       		.byte	0x71
 2319 08ac 01       		.byte	0x1
 2320 08ad D7040000 		.4byte	0x4d7
 2321 08b1 00000000 		.4byte	.LFB45
ARM GAS  /tmp/cclC07rx.s 			page 42


 2322 08b5 24000000 		.4byte	.LFE45
 2323 08b9 D3040000 		.4byte	.LLST16
 2324 08bd 01       		.byte	0x1
 2325 08be F7080000 		.4byte	0x8f7
 2326 08c2 17       		.uleb128 0x17
 2327 08c3 706C00   		.ascii	"pl\000"
 2328 08c6 01       		.byte	0x1
 2329 08c7 71       		.byte	0x71
 2330 08c8 A2050000 		.4byte	0x5a2
 2331 08cc F3040000 		.4byte	.LLST17
 2332 08d0 1F       		.uleb128 0x1f
 2333 08d1 2E040000 		.4byte	.LASF92
 2334 08d5 01       		.byte	0x1
 2335 08d6 71       		.byte	0x71
 2336 08d7 1B040000 		.4byte	0x41b
 2337 08db 2A050000 		.4byte	.LLST18
 2338 08df 1D       		.uleb128 0x1d
 2339 08e0 16000000 		.4byte	.LVL91
 2340 08e4 540B0000 		.4byte	0xb54
 2341 08e8 1A       		.uleb128 0x1a
 2342 08e9 01       		.byte	0x1
 2343 08ea 51       		.byte	0x51
 2344 08eb 03       		.byte	0x3
 2345 08ec F3       		.byte	0xf3
 2346 08ed 01       		.uleb128 0x1
 2347 08ee 51       		.byte	0x51
 2348 08ef 1A       		.uleb128 0x1a
 2349 08f0 01       		.byte	0x1
 2350 08f1 50       		.byte	0x50
 2351 08f2 02       		.byte	0x2
 2352 08f3 74       		.byte	0x74
 2353 08f4 00       		.sleb128 0
 2354 08f5 00       		.byte	0
 2355 08f6 00       		.byte	0
 2356 08f7 1C       		.uleb128 0x1c
 2357 08f8 01       		.byte	0x1
 2358 08f9 9C010000 		.4byte	.LASF93
 2359 08fd 01       		.byte	0x1
 2360 08fe 77       		.byte	0x77
 2361 08ff 01       		.byte	0x1
 2362 0900 00000000 		.4byte	.LFB46
 2363 0904 48000000 		.4byte	.LFE46
 2364 0908 4B050000 		.4byte	.LLST19
 2365 090c 01       		.byte	0x1
 2366 090d 9B090000 		.4byte	0x99b
 2367 0911 17       		.uleb128 0x17
 2368 0912 706C00   		.ascii	"pl\000"
 2369 0915 01       		.byte	0x1
 2370 0916 77       		.byte	0x77
 2371 0917 A2050000 		.4byte	0x5a2
 2372 091b 6B050000 		.4byte	.LLST20
 2373 091f 17       		.uleb128 0x17
 2374 0920 666E00   		.ascii	"fn\000"
 2375 0923 01       		.byte	0x1
 2376 0924 77       		.byte	0x77
 2377 0925 B5040000 		.4byte	0x4b5
 2378 0929 A2050000 		.4byte	.LLST21
ARM GAS  /tmp/cclC07rx.s 			page 43


 2379 092d 1F       		.uleb128 0x1f
 2380 092e C8020000 		.4byte	.LASF75
 2381 0932 01       		.byte	0x1
 2382 0933 77       		.byte	0x77
 2383 0934 9F020000 		.4byte	0x29f
 2384 0938 D9050000 		.4byte	.LLST22
 2385 093c 19       		.uleb128 0x19
 2386 093d 14000000 		.4byte	.LVL96
 2387 0941 BD0B0000 		.4byte	0xbbd
 2388 0945 53090000 		.4byte	0x953
 2389 0949 1A       		.uleb128 0x1a
 2390 094a 01       		.byte	0x1
 2391 094b 50       		.byte	0x50
 2392 094c 05       		.byte	0x5
 2393 094d 03       		.byte	0x3
 2394 094e 00000000 		.4byte	.LANCHOR1
 2395 0952 00       		.byte	0
 2396 0953 19       		.uleb128 0x19
 2397 0954 20000000 		.4byte	.LVL97
 2398 0958 540B0000 		.4byte	0xb54
 2399 095c 6D090000 		.4byte	0x96d
 2400 0960 1A       		.uleb128 0x1a
 2401 0961 01       		.byte	0x1
 2402 0962 51       		.byte	0x51
 2403 0963 02       		.byte	0x2
 2404 0964 09       		.byte	0x9
 2405 0965 FF       		.byte	0xff
 2406 0966 1A       		.uleb128 0x1a
 2407 0967 01       		.byte	0x1
 2408 0968 50       		.byte	0x50
 2409 0969 02       		.byte	0x2
 2410 096a 75       		.byte	0x75
 2411 096b 00       		.sleb128 0
 2412 096c 00       		.byte	0
 2413 096d 19       		.uleb128 0x19
 2414 096e 30000000 		.4byte	.LVL98
 2415 0972 770B0000 		.4byte	0xb77
 2416 0976 81090000 		.4byte	0x981
 2417 097a 1A       		.uleb128 0x1a
 2418 097b 01       		.byte	0x1
 2419 097c 50       		.byte	0x50
 2420 097d 02       		.byte	0x2
 2421 097e 75       		.byte	0x75
 2422 097f 00       		.sleb128 0
 2423 0980 00       		.byte	0
 2424 0981 1B       		.uleb128 0x1b
 2425 0982 34000000 		.4byte	.LVL99
 2426 0986 D10B0000 		.4byte	0xbd1
 2427 098a 1D       		.uleb128 0x1d
 2428 098b 40000000 		.4byte	.LVL104
 2429 098f 770B0000 		.4byte	0xb77
 2430 0993 1A       		.uleb128 0x1a
 2431 0994 01       		.byte	0x1
 2432 0995 50       		.byte	0x50
 2433 0996 02       		.byte	0x2
 2434 0997 74       		.byte	0x74
 2435 0998 00       		.sleb128 0
ARM GAS  /tmp/cclC07rx.s 			page 44


 2436 0999 00       		.byte	0
 2437 099a 00       		.byte	0
 2438 099b 1E       		.uleb128 0x1e
 2439 099c 01       		.byte	0x1
 2440 099d 36040000 		.4byte	.LASF94
 2441 09a1 01       		.byte	0x1
 2442 09a2 86       		.byte	0x86
 2443 09a3 01       		.byte	0x1
 2444 09a4 9B060000 		.4byte	0x69b
 2445 09a8 00000000 		.4byte	.LFB47
 2446 09ac 8C000000 		.4byte	.LFE47
 2447 09b0 10060000 		.4byte	.LLST23
 2448 09b4 01       		.byte	0x1
 2449 09b5 2E0A0000 		.4byte	0xa2e
 2450 09b9 17       		.uleb128 0x17
 2451 09ba 67736800 		.ascii	"gsh\000"
 2452 09be 01       		.byte	0x1
 2453 09bf 86       		.byte	0x86
 2454 09c0 4C050000 		.4byte	0x54c
 2455 09c4 30060000 		.4byte	.LLST24
 2456 09c8 1F       		.uleb128 0x1f
 2457 09c9 F3020000 		.4byte	.LASF95
 2458 09cd 01       		.byte	0x1
 2459 09ce 86       		.byte	0x86
 2460 09cf 9B060000 		.4byte	0x69b
 2461 09d3 8B060000 		.4byte	.LLST25
 2462 09d7 18       		.uleb128 0x18
 2463 09d8 70736C00 		.ascii	"psl\000"
 2464 09dc 01       		.byte	0x1
 2465 09dd 87       		.byte	0x87
 2466 09de 9B060000 		.4byte	0x69b
 2467 09e2 E8060000 		.4byte	.LLST26
 2468 09e6 19       		.uleb128 0x19
 2469 09e7 10000000 		.4byte	.LVL107
 2470 09eb BD0B0000 		.4byte	0xbbd
 2471 09ef FD090000 		.4byte	0x9fd
 2472 09f3 1A       		.uleb128 0x1a
 2473 09f4 01       		.byte	0x1
 2474 09f5 50       		.byte	0x50
 2475 09f6 05       		.byte	0x5
 2476 09f7 03       		.byte	0x3
 2477 09f8 00000000 		.4byte	.LANCHOR1
 2478 09fc 00       		.byte	0
 2479 09fd 1B       		.uleb128 0x1b
 2480 09fe 1E000000 		.4byte	.LVL109
 2481 0a02 770B0000 		.4byte	0xb77
 2482 0a06 19       		.uleb128 0x19
 2483 0a07 56000000 		.4byte	.LVL114
 2484 0a0b 540B0000 		.4byte	0xb54
 2485 0a0f 1B0A0000 		.4byte	0xa1b
 2486 0a13 1A       		.uleb128 0x1a
 2487 0a14 01       		.byte	0x1
 2488 0a15 51       		.byte	0x51
 2489 0a16 03       		.byte	0x3
 2490 0a17 75       		.byte	0x75
 2491 0a18 00       		.sleb128 0
 2492 0a19 1F       		.byte	0x1f
ARM GAS  /tmp/cclC07rx.s 			page 45


 2493 0a1a 00       		.byte	0
 2494 0a1b 1B       		.uleb128 0x1b
 2495 0a1c 5A000000 		.4byte	.LVL115
 2496 0a20 D10B0000 		.4byte	0xbd1
 2497 0a24 1B       		.uleb128 0x1b
 2498 0a25 74000000 		.4byte	.LVL120
 2499 0a29 D10B0000 		.4byte	0xbd1
 2500 0a2d 00       		.byte	0
 2501 0a2e 21       		.uleb128 0x21
 2502 0a2f 01       		.byte	0x1
 2503 0a30 8D030000 		.4byte	.LASF96
 2504 0a34 01       		.byte	0x1
 2505 0a35 9F       		.byte	0x9f
 2506 0a36 01       		.byte	0x1
 2507 0a37 D7040000 		.4byte	0x4d7
 2508 0a3b 00000000 		.4byte	.LFB48
 2509 0a3f 16000000 		.4byte	.LFE48
 2510 0a43 02       		.byte	0x2
 2511 0a44 7D       		.byte	0x7d
 2512 0a45 00       		.sleb128 0
 2513 0a46 01       		.byte	0x1
 2514 0a47 5B0A0000 		.4byte	0xa5b
 2515 0a4b 17       		.uleb128 0x17
 2516 0a4c 70736C00 		.ascii	"psl\000"
 2517 0a50 01       		.byte	0x1
 2518 0a51 9F       		.byte	0x9f
 2519 0a52 9B060000 		.4byte	0x69b
 2520 0a56 1C070000 		.4byte	.LLST27
 2521 0a5a 00       		.byte	0
 2522 0a5b 1C       		.uleb128 0x1c
 2523 0a5c 01       		.byte	0x1
 2524 0a5d 7D040000 		.4byte	.LASF97
 2525 0a61 01       		.byte	0x1
 2526 0a62 A4       		.byte	0xa4
 2527 0a63 01       		.byte	0x1
 2528 0a64 00000000 		.4byte	.LFB49
 2529 0a68 3C000000 		.4byte	.LFE49
 2530 0a6c 3D070000 		.4byte	.LLST28
 2531 0a70 01       		.byte	0x1
 2532 0a71 BF0A0000 		.4byte	0xabf
 2533 0a75 17       		.uleb128 0x17
 2534 0a76 70736C00 		.ascii	"psl\000"
 2535 0a7a 01       		.byte	0x1
 2536 0a7b A4       		.byte	0xa4
 2537 0a7c 9B060000 		.4byte	0x69b
 2538 0a80 5D070000 		.4byte	.LLST29
 2539 0a84 19       		.uleb128 0x19
 2540 0a85 0A000000 		.4byte	.LVL129
 2541 0a89 BD0B0000 		.4byte	0xbbd
 2542 0a8d 9B0A0000 		.4byte	0xa9b
 2543 0a91 1A       		.uleb128 0x1a
 2544 0a92 01       		.byte	0x1
 2545 0a93 50       		.byte	0x50
 2546 0a94 05       		.byte	0x5
 2547 0a95 03       		.byte	0x3
 2548 0a96 00000000 		.4byte	.LANCHOR1
 2549 0a9a 00       		.byte	0
ARM GAS  /tmp/cclC07rx.s 			page 46


 2550 0a9b 1B       		.uleb128 0x1b
 2551 0a9c 16000000 		.4byte	.LVL130
 2552 0aa0 D10B0000 		.4byte	0xbd1
 2553 0aa4 22       		.uleb128 0x22
 2554 0aa5 22000000 		.4byte	.LVL132
 2555 0aa9 02       		.byte	0x2
 2556 0aaa 74       		.byte	0x74
 2557 0aab 00       		.sleb128 0
 2558 0aac 1B       		.uleb128 0x1b
 2559 0aad 2E000000 		.4byte	.LVL134
 2560 0ab1 D10B0000 		.4byte	0xbd1
 2561 0ab5 1B       		.uleb128 0x1b
 2562 0ab6 34000000 		.4byte	.LVL135
 2563 0aba 770B0000 		.4byte	0xb77
 2564 0abe 00       		.byte	0
 2565 0abf 1C       		.uleb128 0x1c
 2566 0ac0 01       		.byte	0x1
 2567 0ac1 52030000 		.4byte	.LASF98
 2568 0ac5 01       		.byte	0x1
 2569 0ac6 B3       		.byte	0xb3
 2570 0ac7 01       		.byte	0x1
 2571 0ac8 00000000 		.4byte	.LFB50
 2572 0acc 1C000000 		.4byte	.LFE50
 2573 0ad0 94070000 		.4byte	.LLST30
 2574 0ad4 01       		.byte	0x1
 2575 0ad5 220B0000 		.4byte	0xb22
 2576 0ad9 17       		.uleb128 0x17
 2577 0ada 67736800 		.ascii	"gsh\000"
 2578 0ade 01       		.byte	0x1
 2579 0adf B3       		.byte	0xb3
 2580 0ae0 4C050000 		.4byte	0x54c
 2581 0ae4 B4070000 		.4byte	.LLST31
 2582 0ae8 19       		.uleb128 0x19
 2583 0ae9 0A000000 		.4byte	.LVL138
 2584 0aed BD0B0000 		.4byte	0xbbd
 2585 0af1 FF0A0000 		.4byte	0xaff
 2586 0af5 1A       		.uleb128 0x1a
 2587 0af6 01       		.byte	0x1
 2588 0af7 50       		.byte	0x50
 2589 0af8 05       		.byte	0x5
 2590 0af9 03       		.byte	0x3
 2591 0afa 00000000 		.4byte	.LANCHOR1
 2592 0afe 00       		.byte	0
 2593 0aff 19       		.uleb128 0x19
 2594 0b00 12000000 		.4byte	.LVL139
 2595 0b04 B9050000 		.4byte	0x5b9
 2596 0b08 180B0000 		.4byte	0xb18
 2597 0b0c 1A       		.uleb128 0x1a
 2598 0b0d 01       		.byte	0x1
 2599 0b0e 51       		.byte	0x51
 2600 0b0f 02       		.byte	0x2
 2601 0b10 74       		.byte	0x74
 2602 0b11 00       		.sleb128 0
 2603 0b12 1A       		.uleb128 0x1a
 2604 0b13 01       		.byte	0x1
 2605 0b14 50       		.byte	0x50
 2606 0b15 01       		.byte	0x1
ARM GAS  /tmp/cclC07rx.s 			page 47


 2607 0b16 30       		.byte	0x30
 2608 0b17 00       		.byte	0
 2609 0b18 1B       		.uleb128 0x1b
 2610 0b19 16000000 		.4byte	.LVL140
 2611 0b1d D10B0000 		.4byte	0xbd1
 2612 0b21 00       		.byte	0
 2613 0b22 23       		.uleb128 0x23
 2614 0b23 2A020000 		.4byte	.LASF99
 2615 0b27 01       		.byte	0x1
 2616 0b28 1A       		.byte	0x1a
 2617 0b29 61040000 		.4byte	0x461
 2618 0b2d 05       		.byte	0x5
 2619 0b2e 03       		.byte	0x3
 2620 0b2f 00000000 		.4byte	geventMutex
 2621 0b33 11       		.uleb128 0x11
 2622 0b34 AE050000 		.4byte	0x5ae
 2623 0b38 430B0000 		.4byte	0xb43
 2624 0b3c 12       		.uleb128 0x12
 2625 0b3d 46030000 		.4byte	0x346
 2626 0b41 1F       		.byte	0x1f
 2627 0b42 00       		.byte	0
 2628 0b43 23       		.uleb128 0x23
 2629 0b44 FA020000 		.4byte	.LASF100
 2630 0b48 01       		.byte	0x1
 2631 0b49 1D       		.byte	0x1d
 2632 0b4a 330B0000 		.4byte	0xb33
 2633 0b4e 05       		.byte	0x5
 2634 0b4f 03       		.byte	0x3
 2635 0b50 00000000 		.4byte	Assignments
 2636 0b54 24       		.uleb128 0x24
 2637 0b55 01       		.byte	0x1
 2638 0b56 BD020000 		.4byte	.LASF110
 2639 0b5a 09       		.byte	0x9
 2640 0b5b 54       		.byte	0x54
 2641 0b5c 01       		.byte	0x1
 2642 0b5d 97000000 		.4byte	0x97
 2643 0b61 01       		.byte	0x1
 2644 0b62 710B0000 		.4byte	0xb71
 2645 0b66 14       		.uleb128 0x14
 2646 0b67 710B0000 		.4byte	0xb71
 2647 0b6b 14       		.uleb128 0x14
 2648 0b6c 1B040000 		.4byte	0x41b
 2649 0b70 00       		.byte	0
 2650 0b71 09       		.uleb128 0x9
 2651 0b72 04       		.byte	0x4
 2652 0b73 56040000 		.4byte	0x456
 2653 0b77 25       		.uleb128 0x25
 2654 0b78 01       		.byte	0x1
 2655 0b79 D8020000 		.4byte	.LASF101
 2656 0b7d 09       		.byte	0x9
 2657 0b7e 55       		.byte	0x55
 2658 0b7f 01       		.byte	0x1
 2659 0b80 01       		.byte	0x1
 2660 0b81 8B0B0000 		.4byte	0xb8b
 2661 0b85 14       		.uleb128 0x14
 2662 0b86 710B0000 		.4byte	0xb71
 2663 0b8a 00       		.byte	0
ARM GAS  /tmp/cclC07rx.s 			page 48


 2664 0b8b 25       		.uleb128 0x25
 2665 0b8c 01       		.byte	0x1
 2666 0b8d 74010000 		.4byte	.LASF102
 2667 0b91 08       		.byte	0x8
 2668 0b92 38       		.byte	0x38
 2669 0b93 01       		.byte	0x1
 2670 0b94 01       		.byte	0x1
 2671 0b95 9F0B0000 		.4byte	0xb9f
 2672 0b99 14       		.uleb128 0x14
 2673 0b9a 15040000 		.4byte	0x415
 2674 0b9e 00       		.byte	0
 2675 0b9f 25       		.uleb128 0x25
 2676 0ba0 01       		.byte	0x1
 2677 0ba1 16030000 		.4byte	.LASF103
 2678 0ba5 09       		.byte	0x9
 2679 0ba6 52       		.byte	0x52
 2680 0ba7 01       		.byte	0x1
 2681 0ba8 01       		.byte	0x1
 2682 0ba9 BD0B0000 		.4byte	0xbbd
 2683 0bad 14       		.uleb128 0x14
 2684 0bae 710B0000 		.4byte	0xb71
 2685 0bb2 14       		.uleb128 0x14
 2686 0bb3 26040000 		.4byte	0x426
 2687 0bb7 14       		.uleb128 0x14
 2688 0bb8 26040000 		.4byte	0x426
 2689 0bbc 00       		.byte	0
 2690 0bbd 25       		.uleb128 0x25
 2691 0bbe 01       		.byte	0x1
 2692 0bbf 24040000 		.4byte	.LASF104
 2693 0bc3 08       		.byte	0x8
 2694 0bc4 39       		.byte	0x39
 2695 0bc5 01       		.byte	0x1
 2696 0bc6 01       		.byte	0x1
 2697 0bc7 D10B0000 		.4byte	0xbd1
 2698 0bcb 14       		.uleb128 0x14
 2699 0bcc 15040000 		.4byte	0x415
 2700 0bd0 00       		.byte	0
 2701 0bd1 26       		.uleb128 0x26
 2702 0bd2 01       		.byte	0x1
 2703 0bd3 90020000 		.4byte	.LASF111
 2704 0bd7 08       		.byte	0x8
 2705 0bd8 3D       		.byte	0x3d
 2706 0bd9 01       		.byte	0x1
 2707 0bda 15040000 		.4byte	0x415
 2708 0bde 01       		.byte	0x1
 2709 0bdf 00       		.byte	0
 2710              		.section	.debug_abbrev,"",%progbits
 2711              	.Ldebug_abbrev0:
 2712 0000 01       		.uleb128 0x1
 2713 0001 11       		.uleb128 0x11
 2714 0002 01       		.byte	0x1
 2715 0003 25       		.uleb128 0x25
 2716 0004 0E       		.uleb128 0xe
 2717 0005 13       		.uleb128 0x13
 2718 0006 0B       		.uleb128 0xb
 2719 0007 03       		.uleb128 0x3
 2720 0008 0E       		.uleb128 0xe
ARM GAS  /tmp/cclC07rx.s 			page 49


 2721 0009 55       		.uleb128 0x55
 2722 000a 06       		.uleb128 0x6
 2723 000b 11       		.uleb128 0x11
 2724 000c 01       		.uleb128 0x1
 2725 000d 52       		.uleb128 0x52
 2726 000e 01       		.uleb128 0x1
 2727 000f 10       		.uleb128 0x10
 2728 0010 06       		.uleb128 0x6
 2729 0011 00       		.byte	0
 2730 0012 00       		.byte	0
 2731 0013 02       		.uleb128 0x2
 2732 0014 24       		.uleb128 0x24
 2733 0015 00       		.byte	0
 2734 0016 0B       		.uleb128 0xb
 2735 0017 0B       		.uleb128 0xb
 2736 0018 3E       		.uleb128 0x3e
 2737 0019 0B       		.uleb128 0xb
 2738 001a 03       		.uleb128 0x3
 2739 001b 08       		.uleb128 0x8
 2740 001c 00       		.byte	0
 2741 001d 00       		.byte	0
 2742 001e 03       		.uleb128 0x3
 2743 001f 24       		.uleb128 0x24
 2744 0020 00       		.byte	0
 2745 0021 0B       		.uleb128 0xb
 2746 0022 0B       		.uleb128 0xb
 2747 0023 3E       		.uleb128 0x3e
 2748 0024 0B       		.uleb128 0xb
 2749 0025 03       		.uleb128 0x3
 2750 0026 0E       		.uleb128 0xe
 2751 0027 00       		.byte	0
 2752 0028 00       		.byte	0
 2753 0029 04       		.uleb128 0x4
 2754 002a 16       		.uleb128 0x16
 2755 002b 00       		.byte	0
 2756 002c 03       		.uleb128 0x3
 2757 002d 0E       		.uleb128 0xe
 2758 002e 3A       		.uleb128 0x3a
 2759 002f 0B       		.uleb128 0xb
 2760 0030 3B       		.uleb128 0x3b
 2761 0031 0B       		.uleb128 0xb
 2762 0032 49       		.uleb128 0x49
 2763 0033 13       		.uleb128 0x13
 2764 0034 00       		.byte	0
 2765 0035 00       		.byte	0
 2766 0036 05       		.uleb128 0x5
 2767 0037 13       		.uleb128 0x13
 2768 0038 01       		.byte	0x1
 2769 0039 03       		.uleb128 0x3
 2770 003a 0E       		.uleb128 0xe
 2771 003b 0B       		.uleb128 0xb
 2772 003c 0B       		.uleb128 0xb
 2773 003d 3A       		.uleb128 0x3a
 2774 003e 0B       		.uleb128 0xb
 2775 003f 3B       		.uleb128 0x3b
 2776 0040 0B       		.uleb128 0xb
 2777 0041 01       		.uleb128 0x1
ARM GAS  /tmp/cclC07rx.s 			page 50


 2778 0042 13       		.uleb128 0x13
 2779 0043 00       		.byte	0
 2780 0044 00       		.byte	0
 2781 0045 06       		.uleb128 0x6
 2782 0046 0D       		.uleb128 0xd
 2783 0047 00       		.byte	0
 2784 0048 03       		.uleb128 0x3
 2785 0049 0E       		.uleb128 0xe
 2786 004a 3A       		.uleb128 0x3a
 2787 004b 0B       		.uleb128 0xb
 2788 004c 3B       		.uleb128 0x3b
 2789 004d 0B       		.uleb128 0xb
 2790 004e 49       		.uleb128 0x49
 2791 004f 13       		.uleb128 0x13
 2792 0050 38       		.uleb128 0x38
 2793 0051 0A       		.uleb128 0xa
 2794 0052 00       		.byte	0
 2795 0053 00       		.byte	0
 2796 0054 07       		.uleb128 0x7
 2797 0055 0D       		.uleb128 0xd
 2798 0056 00       		.byte	0
 2799 0057 03       		.uleb128 0x3
 2800 0058 08       		.uleb128 0x8
 2801 0059 3A       		.uleb128 0x3a
 2802 005a 0B       		.uleb128 0xb
 2803 005b 3B       		.uleb128 0x3b
 2804 005c 0B       		.uleb128 0xb
 2805 005d 49       		.uleb128 0x49
 2806 005e 13       		.uleb128 0x13
 2807 005f 38       		.uleb128 0x38
 2808 0060 0A       		.uleb128 0xa
 2809 0061 00       		.byte	0
 2810 0062 00       		.byte	0
 2811 0063 08       		.uleb128 0x8
 2812 0064 13       		.uleb128 0x13
 2813 0065 01       		.byte	0x1
 2814 0066 0B       		.uleb128 0xb
 2815 0067 0B       		.uleb128 0xb
 2816 0068 3A       		.uleb128 0x3a
 2817 0069 0B       		.uleb128 0xb
 2818 006a 3B       		.uleb128 0x3b
 2819 006b 0B       		.uleb128 0xb
 2820 006c 01       		.uleb128 0x1
 2821 006d 13       		.uleb128 0x13
 2822 006e 00       		.byte	0
 2823 006f 00       		.byte	0
 2824 0070 09       		.uleb128 0x9
 2825 0071 0F       		.uleb128 0xf
 2826 0072 00       		.byte	0
 2827 0073 0B       		.uleb128 0xb
 2828 0074 0B       		.uleb128 0xb
 2829 0075 49       		.uleb128 0x49
 2830 0076 13       		.uleb128 0x13
 2831 0077 00       		.byte	0
 2832 0078 00       		.byte	0
 2833 0079 0A       		.uleb128 0xa
 2834 007a 0F       		.uleb128 0xf
ARM GAS  /tmp/cclC07rx.s 			page 51


 2835 007b 00       		.byte	0
 2836 007c 0B       		.uleb128 0xb
 2837 007d 0B       		.uleb128 0xb
 2838 007e 00       		.byte	0
 2839 007f 00       		.byte	0
 2840 0080 0B       		.uleb128 0xb
 2841 0081 35       		.uleb128 0x35
 2842 0082 00       		.byte	0
 2843 0083 49       		.uleb128 0x49
 2844 0084 13       		.uleb128 0x13
 2845 0085 00       		.byte	0
 2846 0086 00       		.byte	0
 2847 0087 0C       		.uleb128 0xc
 2848 0088 17       		.uleb128 0x17
 2849 0089 01       		.byte	0x1
 2850 008a 0B       		.uleb128 0xb
 2851 008b 0B       		.uleb128 0xb
 2852 008c 3A       		.uleb128 0x3a
 2853 008d 0B       		.uleb128 0xb
 2854 008e 3B       		.uleb128 0x3b
 2855 008f 0B       		.uleb128 0xb
 2856 0090 01       		.uleb128 0x1
 2857 0091 13       		.uleb128 0x13
 2858 0092 00       		.byte	0
 2859 0093 00       		.byte	0
 2860 0094 0D       		.uleb128 0xd
 2861 0095 0D       		.uleb128 0xd
 2862 0096 00       		.byte	0
 2863 0097 03       		.uleb128 0x3
 2864 0098 0E       		.uleb128 0xe
 2865 0099 3A       		.uleb128 0x3a
 2866 009a 0B       		.uleb128 0xb
 2867 009b 3B       		.uleb128 0x3b
 2868 009c 0B       		.uleb128 0xb
 2869 009d 49       		.uleb128 0x49
 2870 009e 13       		.uleb128 0x13
 2871 009f 00       		.byte	0
 2872 00a0 00       		.byte	0
 2873 00a1 0E       		.uleb128 0xe
 2874 00a2 26       		.uleb128 0x26
 2875 00a3 00       		.byte	0
 2876 00a4 49       		.uleb128 0x49
 2877 00a5 13       		.uleb128 0x13
 2878 00a6 00       		.byte	0
 2879 00a7 00       		.byte	0
 2880 00a8 0F       		.uleb128 0xf
 2881 00a9 17       		.uleb128 0x17
 2882 00aa 01       		.byte	0x1
 2883 00ab 03       		.uleb128 0x3
 2884 00ac 0E       		.uleb128 0xe
 2885 00ad 0B       		.uleb128 0xb
 2886 00ae 0B       		.uleb128 0xb
 2887 00af 3A       		.uleb128 0x3a
 2888 00b0 0B       		.uleb128 0xb
 2889 00b1 3B       		.uleb128 0x3b
 2890 00b2 0B       		.uleb128 0xb
 2891 00b3 01       		.uleb128 0x1
ARM GAS  /tmp/cclC07rx.s 			page 52


 2892 00b4 13       		.uleb128 0x13
 2893 00b5 00       		.byte	0
 2894 00b6 00       		.byte	0
 2895 00b7 10       		.uleb128 0x10
 2896 00b8 0D       		.uleb128 0xd
 2897 00b9 00       		.byte	0
 2898 00ba 03       		.uleb128 0x3
 2899 00bb 08       		.uleb128 0x8
 2900 00bc 3A       		.uleb128 0x3a
 2901 00bd 0B       		.uleb128 0xb
 2902 00be 3B       		.uleb128 0x3b
 2903 00bf 0B       		.uleb128 0xb
 2904 00c0 49       		.uleb128 0x49
 2905 00c1 13       		.uleb128 0x13
 2906 00c2 00       		.byte	0
 2907 00c3 00       		.byte	0
 2908 00c4 11       		.uleb128 0x11
 2909 00c5 01       		.uleb128 0x1
 2910 00c6 01       		.byte	0x1
 2911 00c7 49       		.uleb128 0x49
 2912 00c8 13       		.uleb128 0x13
 2913 00c9 01       		.uleb128 0x1
 2914 00ca 13       		.uleb128 0x13
 2915 00cb 00       		.byte	0
 2916 00cc 00       		.byte	0
 2917 00cd 12       		.uleb128 0x12
 2918 00ce 21       		.uleb128 0x21
 2919 00cf 00       		.byte	0
 2920 00d0 49       		.uleb128 0x49
 2921 00d1 13       		.uleb128 0x13
 2922 00d2 2F       		.uleb128 0x2f
 2923 00d3 0B       		.uleb128 0xb
 2924 00d4 00       		.byte	0
 2925 00d5 00       		.byte	0
 2926 00d6 13       		.uleb128 0x13
 2927 00d7 15       		.uleb128 0x15
 2928 00d8 01       		.byte	0x1
 2929 00d9 27       		.uleb128 0x27
 2930 00da 0C       		.uleb128 0xc
 2931 00db 01       		.uleb128 0x1
 2932 00dc 13       		.uleb128 0x13
 2933 00dd 00       		.byte	0
 2934 00de 00       		.byte	0
 2935 00df 14       		.uleb128 0x14
 2936 00e0 05       		.uleb128 0x5
 2937 00e1 00       		.byte	0
 2938 00e2 49       		.uleb128 0x49
 2939 00e3 13       		.uleb128 0x13
 2940 00e4 00       		.byte	0
 2941 00e5 00       		.byte	0
 2942 00e6 15       		.uleb128 0x15
 2943 00e7 13       		.uleb128 0x13
 2944 00e8 00       		.byte	0
 2945 00e9 03       		.uleb128 0x3
 2946 00ea 0E       		.uleb128 0xe
 2947 00eb 3C       		.uleb128 0x3c
 2948 00ec 0C       		.uleb128 0xc
ARM GAS  /tmp/cclC07rx.s 			page 53


 2949 00ed 00       		.byte	0
 2950 00ee 00       		.byte	0
 2951 00ef 16       		.uleb128 0x16
 2952 00f0 2E       		.uleb128 0x2e
 2953 00f1 01       		.byte	0x1
 2954 00f2 03       		.uleb128 0x3
 2955 00f3 0E       		.uleb128 0xe
 2956 00f4 3A       		.uleb128 0x3a
 2957 00f5 0B       		.uleb128 0xb
 2958 00f6 3B       		.uleb128 0x3b
 2959 00f7 0B       		.uleb128 0xb
 2960 00f8 27       		.uleb128 0x27
 2961 00f9 0C       		.uleb128 0xc
 2962 00fa 11       		.uleb128 0x11
 2963 00fb 01       		.uleb128 0x1
 2964 00fc 12       		.uleb128 0x12
 2965 00fd 01       		.uleb128 0x1
 2966 00fe 40       		.uleb128 0x40
 2967 00ff 06       		.uleb128 0x6
 2968 0100 9742     		.uleb128 0x2117
 2969 0102 0C       		.uleb128 0xc
 2970 0103 01       		.uleb128 0x1
 2971 0104 13       		.uleb128 0x13
 2972 0105 00       		.byte	0
 2973 0106 00       		.byte	0
 2974 0107 17       		.uleb128 0x17
 2975 0108 05       		.uleb128 0x5
 2976 0109 00       		.byte	0
 2977 010a 03       		.uleb128 0x3
 2978 010b 08       		.uleb128 0x8
 2979 010c 3A       		.uleb128 0x3a
 2980 010d 0B       		.uleb128 0xb
 2981 010e 3B       		.uleb128 0x3b
 2982 010f 0B       		.uleb128 0xb
 2983 0110 49       		.uleb128 0x49
 2984 0111 13       		.uleb128 0x13
 2985 0112 02       		.uleb128 0x2
 2986 0113 06       		.uleb128 0x6
 2987 0114 00       		.byte	0
 2988 0115 00       		.byte	0
 2989 0116 18       		.uleb128 0x18
 2990 0117 34       		.uleb128 0x34
 2991 0118 00       		.byte	0
 2992 0119 03       		.uleb128 0x3
 2993 011a 08       		.uleb128 0x8
 2994 011b 3A       		.uleb128 0x3a
 2995 011c 0B       		.uleb128 0xb
 2996 011d 3B       		.uleb128 0x3b
 2997 011e 0B       		.uleb128 0xb
 2998 011f 49       		.uleb128 0x49
 2999 0120 13       		.uleb128 0x13
 3000 0121 02       		.uleb128 0x2
 3001 0122 06       		.uleb128 0x6
 3002 0123 00       		.byte	0
 3003 0124 00       		.byte	0
 3004 0125 19       		.uleb128 0x19
 3005 0126 898201   		.uleb128 0x4109
ARM GAS  /tmp/cclC07rx.s 			page 54


 3006 0129 01       		.byte	0x1
 3007 012a 11       		.uleb128 0x11
 3008 012b 01       		.uleb128 0x1
 3009 012c 31       		.uleb128 0x31
 3010 012d 13       		.uleb128 0x13
 3011 012e 01       		.uleb128 0x1
 3012 012f 13       		.uleb128 0x13
 3013 0130 00       		.byte	0
 3014 0131 00       		.byte	0
 3015 0132 1A       		.uleb128 0x1a
 3016 0133 8A8201   		.uleb128 0x410a
 3017 0136 00       		.byte	0
 3018 0137 02       		.uleb128 0x2
 3019 0138 0A       		.uleb128 0xa
 3020 0139 9142     		.uleb128 0x2111
 3021 013b 0A       		.uleb128 0xa
 3022 013c 00       		.byte	0
 3023 013d 00       		.byte	0
 3024 013e 1B       		.uleb128 0x1b
 3025 013f 898201   		.uleb128 0x4109
 3026 0142 00       		.byte	0
 3027 0143 11       		.uleb128 0x11
 3028 0144 01       		.uleb128 0x1
 3029 0145 31       		.uleb128 0x31
 3030 0146 13       		.uleb128 0x13
 3031 0147 00       		.byte	0
 3032 0148 00       		.byte	0
 3033 0149 1C       		.uleb128 0x1c
 3034 014a 2E       		.uleb128 0x2e
 3035 014b 01       		.byte	0x1
 3036 014c 3F       		.uleb128 0x3f
 3037 014d 0C       		.uleb128 0xc
 3038 014e 03       		.uleb128 0x3
 3039 014f 0E       		.uleb128 0xe
 3040 0150 3A       		.uleb128 0x3a
 3041 0151 0B       		.uleb128 0xb
 3042 0152 3B       		.uleb128 0x3b
 3043 0153 0B       		.uleb128 0xb
 3044 0154 27       		.uleb128 0x27
 3045 0155 0C       		.uleb128 0xc
 3046 0156 11       		.uleb128 0x11
 3047 0157 01       		.uleb128 0x1
 3048 0158 12       		.uleb128 0x12
 3049 0159 01       		.uleb128 0x1
 3050 015a 40       		.uleb128 0x40
 3051 015b 06       		.uleb128 0x6
 3052 015c 9742     		.uleb128 0x2117
 3053 015e 0C       		.uleb128 0xc
 3054 015f 01       		.uleb128 0x1
 3055 0160 13       		.uleb128 0x13
 3056 0161 00       		.byte	0
 3057 0162 00       		.byte	0
 3058 0163 1D       		.uleb128 0x1d
 3059 0164 898201   		.uleb128 0x4109
 3060 0167 01       		.byte	0x1
 3061 0168 11       		.uleb128 0x11
 3062 0169 01       		.uleb128 0x1
ARM GAS  /tmp/cclC07rx.s 			page 55


 3063 016a 31       		.uleb128 0x31
 3064 016b 13       		.uleb128 0x13
 3065 016c 00       		.byte	0
 3066 016d 00       		.byte	0
 3067 016e 1E       		.uleb128 0x1e
 3068 016f 2E       		.uleb128 0x2e
 3069 0170 01       		.byte	0x1
 3070 0171 3F       		.uleb128 0x3f
 3071 0172 0C       		.uleb128 0xc
 3072 0173 03       		.uleb128 0x3
 3073 0174 0E       		.uleb128 0xe
 3074 0175 3A       		.uleb128 0x3a
 3075 0176 0B       		.uleb128 0xb
 3076 0177 3B       		.uleb128 0x3b
 3077 0178 0B       		.uleb128 0xb
 3078 0179 27       		.uleb128 0x27
 3079 017a 0C       		.uleb128 0xc
 3080 017b 49       		.uleb128 0x49
 3081 017c 13       		.uleb128 0x13
 3082 017d 11       		.uleb128 0x11
 3083 017e 01       		.uleb128 0x1
 3084 017f 12       		.uleb128 0x12
 3085 0180 01       		.uleb128 0x1
 3086 0181 40       		.uleb128 0x40
 3087 0182 06       		.uleb128 0x6
 3088 0183 9742     		.uleb128 0x2117
 3089 0185 0C       		.uleb128 0xc
 3090 0186 01       		.uleb128 0x1
 3091 0187 13       		.uleb128 0x13
 3092 0188 00       		.byte	0
 3093 0189 00       		.byte	0
 3094 018a 1F       		.uleb128 0x1f
 3095 018b 05       		.uleb128 0x5
 3096 018c 00       		.byte	0
 3097 018d 03       		.uleb128 0x3
 3098 018e 0E       		.uleb128 0xe
 3099 018f 3A       		.uleb128 0x3a
 3100 0190 0B       		.uleb128 0xb
 3101 0191 3B       		.uleb128 0x3b
 3102 0192 0B       		.uleb128 0xb
 3103 0193 49       		.uleb128 0x49
 3104 0194 13       		.uleb128 0x13
 3105 0195 02       		.uleb128 0x2
 3106 0196 06       		.uleb128 0x6
 3107 0197 00       		.byte	0
 3108 0198 00       		.byte	0
 3109 0199 20       		.uleb128 0x20
 3110 019a 34       		.uleb128 0x34
 3111 019b 00       		.byte	0
 3112 019c 03       		.uleb128 0x3
 3113 019d 0E       		.uleb128 0xe
 3114 019e 3A       		.uleb128 0x3a
 3115 019f 0B       		.uleb128 0xb
 3116 01a0 3B       		.uleb128 0x3b
 3117 01a1 0B       		.uleb128 0xb
 3118 01a2 49       		.uleb128 0x49
 3119 01a3 13       		.uleb128 0x13
ARM GAS  /tmp/cclC07rx.s 			page 56


 3120 01a4 02       		.uleb128 0x2
 3121 01a5 06       		.uleb128 0x6
 3122 01a6 00       		.byte	0
 3123 01a7 00       		.byte	0
 3124 01a8 21       		.uleb128 0x21
 3125 01a9 2E       		.uleb128 0x2e
 3126 01aa 01       		.byte	0x1
 3127 01ab 3F       		.uleb128 0x3f
 3128 01ac 0C       		.uleb128 0xc
 3129 01ad 03       		.uleb128 0x3
 3130 01ae 0E       		.uleb128 0xe
 3131 01af 3A       		.uleb128 0x3a
 3132 01b0 0B       		.uleb128 0xb
 3133 01b1 3B       		.uleb128 0x3b
 3134 01b2 0B       		.uleb128 0xb
 3135 01b3 27       		.uleb128 0x27
 3136 01b4 0C       		.uleb128 0xc
 3137 01b5 49       		.uleb128 0x49
 3138 01b6 13       		.uleb128 0x13
 3139 01b7 11       		.uleb128 0x11
 3140 01b8 01       		.uleb128 0x1
 3141 01b9 12       		.uleb128 0x12
 3142 01ba 01       		.uleb128 0x1
 3143 01bb 40       		.uleb128 0x40
 3144 01bc 0A       		.uleb128 0xa
 3145 01bd 9742     		.uleb128 0x2117
 3146 01bf 0C       		.uleb128 0xc
 3147 01c0 01       		.uleb128 0x1
 3148 01c1 13       		.uleb128 0x13
 3149 01c2 00       		.byte	0
 3150 01c3 00       		.byte	0
 3151 01c4 22       		.uleb128 0x22
 3152 01c5 898201   		.uleb128 0x4109
 3153 01c8 00       		.byte	0
 3154 01c9 11       		.uleb128 0x11
 3155 01ca 01       		.uleb128 0x1
 3156 01cb 9342     		.uleb128 0x2113
 3157 01cd 0A       		.uleb128 0xa
 3158 01ce 00       		.byte	0
 3159 01cf 00       		.byte	0
 3160 01d0 23       		.uleb128 0x23
 3161 01d1 34       		.uleb128 0x34
 3162 01d2 00       		.byte	0
 3163 01d3 03       		.uleb128 0x3
 3164 01d4 0E       		.uleb128 0xe
 3165 01d5 3A       		.uleb128 0x3a
 3166 01d6 0B       		.uleb128 0xb
 3167 01d7 3B       		.uleb128 0x3b
 3168 01d8 0B       		.uleb128 0xb
 3169 01d9 49       		.uleb128 0x49
 3170 01da 13       		.uleb128 0x13
 3171 01db 02       		.uleb128 0x2
 3172 01dc 0A       		.uleb128 0xa
 3173 01dd 00       		.byte	0
 3174 01de 00       		.byte	0
 3175 01df 24       		.uleb128 0x24
 3176 01e0 2E       		.uleb128 0x2e
ARM GAS  /tmp/cclC07rx.s 			page 57


 3177 01e1 01       		.byte	0x1
 3178 01e2 3F       		.uleb128 0x3f
 3179 01e3 0C       		.uleb128 0xc
 3180 01e4 03       		.uleb128 0x3
 3181 01e5 0E       		.uleb128 0xe
 3182 01e6 3A       		.uleb128 0x3a
 3183 01e7 0B       		.uleb128 0xb
 3184 01e8 3B       		.uleb128 0x3b
 3185 01e9 0B       		.uleb128 0xb
 3186 01ea 27       		.uleb128 0x27
 3187 01eb 0C       		.uleb128 0xc
 3188 01ec 49       		.uleb128 0x49
 3189 01ed 13       		.uleb128 0x13
 3190 01ee 3C       		.uleb128 0x3c
 3191 01ef 0C       		.uleb128 0xc
 3192 01f0 01       		.uleb128 0x1
 3193 01f1 13       		.uleb128 0x13
 3194 01f2 00       		.byte	0
 3195 01f3 00       		.byte	0
 3196 01f4 25       		.uleb128 0x25
 3197 01f5 2E       		.uleb128 0x2e
 3198 01f6 01       		.byte	0x1
 3199 01f7 3F       		.uleb128 0x3f
 3200 01f8 0C       		.uleb128 0xc
 3201 01f9 03       		.uleb128 0x3
 3202 01fa 0E       		.uleb128 0xe
 3203 01fb 3A       		.uleb128 0x3a
 3204 01fc 0B       		.uleb128 0xb
 3205 01fd 3B       		.uleb128 0x3b
 3206 01fe 0B       		.uleb128 0xb
 3207 01ff 27       		.uleb128 0x27
 3208 0200 0C       		.uleb128 0xc
 3209 0201 3C       		.uleb128 0x3c
 3210 0202 0C       		.uleb128 0xc
 3211 0203 01       		.uleb128 0x1
 3212 0204 13       		.uleb128 0x13
 3213 0205 00       		.byte	0
 3214 0206 00       		.byte	0
 3215 0207 26       		.uleb128 0x26
 3216 0208 2E       		.uleb128 0x2e
 3217 0209 00       		.byte	0
 3218 020a 3F       		.uleb128 0x3f
 3219 020b 0C       		.uleb128 0xc
 3220 020c 03       		.uleb128 0x3
 3221 020d 0E       		.uleb128 0xe
 3222 020e 3A       		.uleb128 0x3a
 3223 020f 0B       		.uleb128 0xb
 3224 0210 3B       		.uleb128 0x3b
 3225 0211 0B       		.uleb128 0xb
 3226 0212 27       		.uleb128 0x27
 3227 0213 0C       		.uleb128 0xc
 3228 0214 49       		.uleb128 0x49
 3229 0215 13       		.uleb128 0x13
 3230 0216 3C       		.uleb128 0x3c
 3231 0217 0C       		.uleb128 0xc
 3232 0218 00       		.byte	0
 3233 0219 00       		.byte	0
ARM GAS  /tmp/cclC07rx.s 			page 58


 3234 021a 00       		.byte	0
 3235              		.section	.debug_loc,"",%progbits
 3236              	.Ldebug_loc0:
 3237              	.LLST0:
 3238 0000 00000000 		.4byte	.LFB40
 3239 0004 02000000 		.4byte	.LCFI0
 3240 0008 0200     		.2byte	0x2
 3241 000a 7D       		.byte	0x7d
 3242 000b 00       		.sleb128 0
 3243 000c 02000000 		.4byte	.LCFI0
 3244 0010 0A000000 		.4byte	.LCFI1
 3245 0014 0200     		.2byte	0x2
 3246 0016 7D       		.byte	0x7d
 3247 0017 14       		.sleb128 20
 3248 0018 0A000000 		.4byte	.LCFI1
 3249 001c 64010000 		.4byte	.LFE40
 3250 0020 0200     		.2byte	0x2
 3251 0022 7D       		.byte	0x7d
 3252 0023 20       		.sleb128 32
 3253 0024 00000000 		.4byte	0
 3254 0028 00000000 		.4byte	0
 3255              	.LLST1:
 3256 002c 00000000 		.4byte	.LVL0
 3257 0030 20000000 		.4byte	.LVL1
 3258 0034 0100     		.2byte	0x1
 3259 0036 50       		.byte	0x50
 3260 0037 20000000 		.4byte	.LVL1
 3261 003b 6C000000 		.4byte	.LVL5
 3262 003f 0100     		.2byte	0x1
 3263 0041 55       		.byte	0x55
 3264 0042 6C000000 		.4byte	.LVL5
 3265 0046 76000000 		.4byte	.LVL7
 3266 004a 0400     		.2byte	0x4
 3267 004c F3       		.byte	0xf3
 3268 004d 01       		.uleb128 0x1
 3269 004e 50       		.byte	0x50
 3270 004f 9F       		.byte	0x9f
 3271 0050 76000000 		.4byte	.LVL7
 3272 0054 64010000 		.4byte	.LFE40
 3273 0058 0100     		.2byte	0x1
 3274 005a 55       		.byte	0x55
 3275 005b 00000000 		.4byte	0
 3276 005f 00000000 		.4byte	0
 3277              	.LLST2:
 3278 0063 00000000 		.4byte	.LVL0
 3279 0067 24000000 		.4byte	.LVL2
 3280 006b 0100     		.2byte	0x1
 3281 006d 51       		.byte	0x51
 3282 006e 24000000 		.4byte	.LVL2
 3283 0072 6C000000 		.4byte	.LVL6
 3284 0076 0100     		.2byte	0x1
 3285 0078 58       		.byte	0x58
 3286 0079 6C000000 		.4byte	.LVL6
 3287 007d 76000000 		.4byte	.LVL7
 3288 0081 0400     		.2byte	0x4
 3289 0083 F3       		.byte	0xf3
 3290 0084 01       		.uleb128 0x1
ARM GAS  /tmp/cclC07rx.s 			page 59


 3291 0085 51       		.byte	0x51
 3292 0086 9F       		.byte	0x9f
 3293 0087 76000000 		.4byte	.LVL7
 3294 008b 7C000000 		.4byte	.LVL8
 3295 008f 0100     		.2byte	0x1
 3296 0091 58       		.byte	0x58
 3297 0092 7C000000 		.4byte	.LVL8
 3298 0096 8A000000 		.4byte	.LVL9
 3299 009a 0100     		.2byte	0x1
 3300 009c 51       		.byte	0x51
 3301 009d 8A000000 		.4byte	.LVL9
 3302 00a1 98000000 		.4byte	.LVL10
 3303 00a5 0100     		.2byte	0x1
 3304 00a7 58       		.byte	0x58
 3305 00a8 98000000 		.4byte	.LVL10
 3306 00ac A6000000 		.4byte	.LVL11
 3307 00b0 0100     		.2byte	0x1
 3308 00b2 52       		.byte	0x52
 3309 00b3 A6000000 		.4byte	.LVL11
 3310 00b7 AC000000 		.4byte	.LVL12
 3311 00bb 0100     		.2byte	0x1
 3312 00bd 58       		.byte	0x58
 3313 00be AC000000 		.4byte	.LVL12
 3314 00c2 AE000000 		.4byte	.LVL13
 3315 00c6 0100     		.2byte	0x1
 3316 00c8 51       		.byte	0x51
 3317 00c9 AE000000 		.4byte	.LVL13
 3318 00cd B2000000 		.4byte	.LVL14
 3319 00d1 0100     		.2byte	0x1
 3320 00d3 58       		.byte	0x58
 3321 00d4 B2000000 		.4byte	.LVL14
 3322 00d8 C0000000 		.4byte	.LVL15
 3323 00dc 0100     		.2byte	0x1
 3324 00de 51       		.byte	0x51
 3325 00df C0000000 		.4byte	.LVL15
 3326 00e3 CC000000 		.4byte	.LVL17
 3327 00e7 0100     		.2byte	0x1
 3328 00e9 58       		.byte	0x58
 3329 00ea CC000000 		.4byte	.LVL17
 3330 00ee DA000000 		.4byte	.LVL18
 3331 00f2 0100     		.2byte	0x1
 3332 00f4 56       		.byte	0x56
 3333 00f5 DA000000 		.4byte	.LVL18
 3334 00f9 E0000000 		.4byte	.LVL19
 3335 00fd 0100     		.2byte	0x1
 3336 00ff 58       		.byte	0x58
 3337 0100 E0000000 		.4byte	.LVL19
 3338 0104 E4000000 		.4byte	.LVL20
 3339 0108 0100     		.2byte	0x1
 3340 010a 51       		.byte	0x51
 3341 010b E4000000 		.4byte	.LVL20
 3342 010f 00010000 		.4byte	.LVL24
 3343 0113 0100     		.2byte	0x1
 3344 0115 58       		.byte	0x58
 3345 0116 00010000 		.4byte	.LVL24
 3346 011a 09010000 		.4byte	.LVL25-1
 3347 011e 0100     		.2byte	0x1
ARM GAS  /tmp/cclC07rx.s 			page 60


 3348 0120 52       		.byte	0x52
 3349 0121 09010000 		.4byte	.LVL25-1
 3350 0125 20010000 		.4byte	.LVL28
 3351 0129 0100     		.2byte	0x1
 3352 012b 58       		.byte	0x58
 3353 012c 20010000 		.4byte	.LVL28
 3354 0130 24010000 		.4byte	.LVL29
 3355 0134 0100     		.2byte	0x1
 3356 0136 51       		.byte	0x51
 3357 0137 24010000 		.4byte	.LVL29
 3358 013b 40010000 		.4byte	.LVL33
 3359 013f 0100     		.2byte	0x1
 3360 0141 58       		.byte	0x58
 3361 0142 40010000 		.4byte	.LVL33
 3362 0146 4C010000 		.4byte	.LVL35
 3363 014a 0100     		.2byte	0x1
 3364 014c 56       		.byte	0x56
 3365 014d 4C010000 		.4byte	.LVL35
 3366 0151 64010000 		.4byte	.LFE40
 3367 0155 0100     		.2byte	0x1
 3368 0157 58       		.byte	0x58
 3369 0158 00000000 		.4byte	0
 3370 015c 00000000 		.4byte	0
 3371              	.LLST3:
 3372 0160 00000000 		.4byte	.LVL0
 3373 0164 2A000000 		.4byte	.LVL3
 3374 0168 0600     		.2byte	0x6
 3375 016a 03       		.byte	0x3
 3376 016b 00000000 		.4byte	Assignments
 3377 016f 9F       		.byte	0x9f
 3378 0170 2A000000 		.4byte	.LVL3
 3379 0174 40000000 		.4byte	.LVL4
 3380 0178 0100     		.2byte	0x1
 3381 017a 57       		.byte	0x57
 3382 017b AC000000 		.4byte	.LVL12
 3383 017f C6000000 		.4byte	.LVL16
 3384 0183 0600     		.2byte	0x6
 3385 0185 03       		.byte	0x3
 3386 0186 00000000 		.4byte	Assignments
 3387 018a 9F       		.byte	0x9f
 3388 018b C6000000 		.4byte	.LVL16
 3389 018f E0000000 		.4byte	.LVL19
 3390 0193 0100     		.2byte	0x1
 3391 0195 57       		.byte	0x57
 3392 0196 20010000 		.4byte	.LVL28
 3393 019a 40010000 		.4byte	.LVL33
 3394 019e 0600     		.2byte	0x6
 3395 01a0 03       		.byte	0x3
 3396 01a1 00000000 		.4byte	Assignments
 3397 01a5 9F       		.byte	0x9f
 3398 01a6 40010000 		.4byte	.LVL33
 3399 01aa 64010000 		.4byte	.LFE40
 3400 01ae 0100     		.2byte	0x1
 3401 01b0 57       		.byte	0x57
 3402 01b1 00000000 		.4byte	0
 3403 01b5 00000000 		.4byte	0
 3404              	.LLST4:
ARM GAS  /tmp/cclC07rx.s 			page 61


 3405 01b9 00000000 		.4byte	.LFB41
 3406 01bd 02000000 		.4byte	.LCFI2
 3407 01c1 0200     		.2byte	0x2
 3408 01c3 7D       		.byte	0x7d
 3409 01c4 00       		.sleb128 0
 3410 01c5 02000000 		.4byte	.LCFI2
 3411 01c9 10000000 		.4byte	.LFE41
 3412 01cd 0200     		.2byte	0x2
 3413 01cf 7D       		.byte	0x7d
 3414 01d0 08       		.sleb128 8
 3415 01d1 00000000 		.4byte	0
 3416 01d5 00000000 		.4byte	0
 3417              	.LLST5:
 3418 01d9 00000000 		.4byte	.LFB42
 3419 01dd 02000000 		.4byte	.LCFI3
 3420 01e1 0200     		.2byte	0x2
 3421 01e3 7D       		.byte	0x7d
 3422 01e4 00       		.sleb128 0
 3423 01e5 02000000 		.4byte	.LCFI3
 3424 01e9 24000000 		.4byte	.LFE42
 3425 01ed 0200     		.2byte	0x2
 3426 01ef 7D       		.byte	0x7d
 3427 01f0 08       		.sleb128 8
 3428 01f1 00000000 		.4byte	0
 3429 01f5 00000000 		.4byte	0
 3430              	.LLST6:
 3431 01f9 00000000 		.4byte	.LVL39
 3432 01fd 0B000000 		.4byte	.LVL40-1
 3433 0201 0100     		.2byte	0x1
 3434 0203 50       		.byte	0x50
 3435 0204 0B000000 		.4byte	.LVL40-1
 3436 0208 1E000000 		.4byte	.LVL42
 3437 020c 0100     		.2byte	0x1
 3438 020e 54       		.byte	0x54
 3439 020f 1E000000 		.4byte	.LVL42
 3440 0213 24000000 		.4byte	.LFE42
 3441 0217 0400     		.2byte	0x4
 3442 0219 F3       		.byte	0xf3
 3443 021a 01       		.uleb128 0x1
 3444 021b 50       		.byte	0x50
 3445 021c 9F       		.byte	0x9f
 3446 021d 00000000 		.4byte	0
 3447 0221 00000000 		.4byte	0
 3448              	.LLST7:
 3449 0225 00000000 		.4byte	.LFB43
 3450 0229 02000000 		.4byte	.LCFI4
 3451 022d 0200     		.2byte	0x2
 3452 022f 7D       		.byte	0x7d
 3453 0230 00       		.sleb128 0
 3454 0231 02000000 		.4byte	.LCFI4
 3455 0235 06000000 		.4byte	.LCFI5
 3456 0239 0200     		.2byte	0x2
 3457 023b 7D       		.byte	0x7d
 3458 023c 14       		.sleb128 20
 3459 023d 06000000 		.4byte	.LCFI5
 3460 0241 F0000000 		.4byte	.LFE43
 3461 0245 0200     		.2byte	0x2
ARM GAS  /tmp/cclC07rx.s 			page 62


 3462 0247 7D       		.byte	0x7d
 3463 0248 18       		.sleb128 24
 3464 0249 00000000 		.4byte	0
 3465 024d 00000000 		.4byte	0
 3466              	.LLST8:
 3467 0251 00000000 		.4byte	.LVL43
 3468 0255 16000000 		.4byte	.LVL44
 3469 0259 0100     		.2byte	0x1
 3470 025b 50       		.byte	0x50
 3471 025c 16000000 		.4byte	.LVL44
 3472 0260 7E000000 		.4byte	.LVL54
 3473 0264 0100     		.2byte	0x1
 3474 0266 56       		.byte	0x56
 3475 0267 7E000000 		.4byte	.LVL54
 3476 026b 84000000 		.4byte	.LVL56
 3477 026f 0200     		.2byte	0x2
 3478 0271 75       		.byte	0x75
 3479 0272 00       		.sleb128 0
 3480 0273 84000000 		.4byte	.LVL56
 3481 0277 94000000 		.4byte	.LVL60
 3482 027b 0400     		.2byte	0x4
 3483 027d F3       		.byte	0xf3
 3484 027e 01       		.uleb128 0x1
 3485 027f 50       		.byte	0x50
 3486 0280 9F       		.byte	0x9f
 3487 0281 94000000 		.4byte	.LVL60
 3488 0285 C0000000 		.4byte	.LVL68
 3489 0289 0100     		.2byte	0x1
 3490 028b 56       		.byte	0x56
 3491 028c C0000000 		.4byte	.LVL68
 3492 0290 C2000000 		.4byte	.LVL69
 3493 0294 0100     		.2byte	0x1
 3494 0296 50       		.byte	0x50
 3495 0297 C2000000 		.4byte	.LVL69
 3496 029b CE000000 		.4byte	.LVL72
 3497 029f 0100     		.2byte	0x1
 3498 02a1 56       		.byte	0x56
 3499 02a2 CE000000 		.4byte	.LVL72
 3500 02a6 F0000000 		.4byte	.LFE43
 3501 02aa 0300     		.2byte	0x3
 3502 02ac 76       		.byte	0x76
 3503 02ad 70       		.sleb128 -16
 3504 02ae 9F       		.byte	0x9f
 3505 02af 00000000 		.4byte	0
 3506 02b3 00000000 		.4byte	0
 3507              	.LLST9:
 3508 02b7 00000000 		.4byte	.LVL43
 3509 02bb 19000000 		.4byte	.LVL45-1
 3510 02bf 0100     		.2byte	0x1
 3511 02c1 51       		.byte	0x51
 3512 02c2 19000000 		.4byte	.LVL45-1
 3513 02c6 80000000 		.4byte	.LVL55
 3514 02ca 0100     		.2byte	0x1
 3515 02cc 57       		.byte	0x57
 3516 02cd 80000000 		.4byte	.LVL55
 3517 02d1 84000000 		.4byte	.LVL56
 3518 02d5 0200     		.2byte	0x2
ARM GAS  /tmp/cclC07rx.s 			page 63


 3519 02d7 75       		.byte	0x75
 3520 02d8 04       		.sleb128 4
 3521 02d9 84000000 		.4byte	.LVL56
 3522 02dd 94000000 		.4byte	.LVL60
 3523 02e1 0400     		.2byte	0x4
 3524 02e3 F3       		.byte	0xf3
 3525 02e4 01       		.uleb128 0x1
 3526 02e5 51       		.byte	0x51
 3527 02e6 9F       		.byte	0x9f
 3528 02e7 94000000 		.4byte	.LVL60
 3529 02eb C0000000 		.4byte	.LVL68
 3530 02ef 0100     		.2byte	0x1
 3531 02f1 57       		.byte	0x57
 3532 02f2 C0000000 		.4byte	.LVL68
 3533 02f6 C4000000 		.4byte	.LVL70
 3534 02fa 0100     		.2byte	0x1
 3535 02fc 51       		.byte	0x51
 3536 02fd C4000000 		.4byte	.LVL70
 3537 0301 D4000000 		.4byte	.LVL73
 3538 0305 0100     		.2byte	0x1
 3539 0307 57       		.byte	0x57
 3540 0308 D4000000 		.4byte	.LVL73
 3541 030c F0000000 		.4byte	.LFE43
 3542 0310 0400     		.2byte	0x4
 3543 0312 F3       		.byte	0xf3
 3544 0313 01       		.uleb128 0x1
 3545 0314 51       		.byte	0x51
 3546 0315 9F       		.byte	0x9f
 3547 0316 00000000 		.4byte	0
 3548 031a 00000000 		.4byte	0
 3549              	.LLST10:
 3550 031e 00000000 		.4byte	.LVL43
 3551 0322 19000000 		.4byte	.LVL45-1
 3552 0326 0100     		.2byte	0x1
 3553 0328 52       		.byte	0x52
 3554 0329 19000000 		.4byte	.LVL45-1
 3555 032d 8E000000 		.4byte	.LVL59
 3556 0331 0100     		.2byte	0x1
 3557 0333 58       		.byte	0x58
 3558 0334 8E000000 		.4byte	.LVL59
 3559 0338 94000000 		.4byte	.LVL60
 3560 033c 0400     		.2byte	0x4
 3561 033e F3       		.byte	0xf3
 3562 033f 01       		.uleb128 0x1
 3563 0340 52       		.byte	0x52
 3564 0341 9F       		.byte	0x9f
 3565 0342 94000000 		.4byte	.LVL60
 3566 0346 C0000000 		.4byte	.LVL68
 3567 034a 0100     		.2byte	0x1
 3568 034c 58       		.byte	0x58
 3569 034d C0000000 		.4byte	.LVL68
 3570 0351 C4000000 		.4byte	.LVL70
 3571 0355 0100     		.2byte	0x1
 3572 0357 52       		.byte	0x52
 3573 0358 C4000000 		.4byte	.LVL70
 3574 035c F0000000 		.4byte	.LFE43
 3575 0360 0100     		.2byte	0x1
ARM GAS  /tmp/cclC07rx.s 			page 64


 3576 0362 58       		.byte	0x58
 3577 0363 00000000 		.4byte	0
 3578 0367 00000000 		.4byte	0
 3579              	.LLST11:
 3580 036b 1A000000 		.4byte	.LVL45
 3581 036f 36000000 		.4byte	.LVL47
 3582 0373 0600     		.2byte	0x6
 3583 0375 03       		.byte	0x3
 3584 0376 00000000 		.4byte	Assignments
 3585 037a 9F       		.byte	0x9f
 3586 037b 36000000 		.4byte	.LVL47
 3587 037f 48000000 		.4byte	.LVL49
 3588 0383 0100     		.2byte	0x1
 3589 0385 53       		.byte	0x53
 3590 0386 48000000 		.4byte	.LVL49
 3591 038a 5E000000 		.4byte	.LVL51
 3592 038e 0100     		.2byte	0x1
 3593 0390 54       		.byte	0x54
 3594 0391 5E000000 		.4byte	.LVL51
 3595 0395 70000000 		.4byte	.LVL53
 3596 0399 0100     		.2byte	0x1
 3597 039b 53       		.byte	0x53
 3598 039c 70000000 		.4byte	.LVL53
 3599 03a0 8E000000 		.4byte	.LVL58
 3600 03a4 0100     		.2byte	0x1
 3601 03a6 54       		.byte	0x54
 3602 03a7 94000000 		.4byte	.LVL60
 3603 03ab A2000000 		.4byte	.LVL62
 3604 03af 0100     		.2byte	0x1
 3605 03b1 53       		.byte	0x53
 3606 03b2 A2000000 		.4byte	.LVL62
 3607 03b6 B8000000 		.4byte	.LVL66
 3608 03ba 0100     		.2byte	0x1
 3609 03bc 54       		.byte	0x54
 3610 03bd B8000000 		.4byte	.LVL66
 3611 03c1 C0000000 		.4byte	.LVL68
 3612 03c5 0100     		.2byte	0x1
 3613 03c7 53       		.byte	0x53
 3614 03c8 C4000000 		.4byte	.LVL70
 3615 03cc CA000000 		.4byte	.LVL71
 3616 03d0 0600     		.2byte	0x6
 3617 03d2 03       		.byte	0x3
 3618 03d3 00000000 		.4byte	Assignments
 3619 03d7 9F       		.byte	0x9f
 3620 03d8 00000000 		.4byte	0
 3621 03dc 00000000 		.4byte	0
 3622              	.LLST12:
 3623 03e0 1A000000 		.4byte	.LVL45
 3624 03e4 30000000 		.4byte	.LVL46
 3625 03e8 0200     		.2byte	0x2
 3626 03ea 30       		.byte	0x30
 3627 03eb 9F       		.byte	0x9f
 3628 03ec 30000000 		.4byte	.LVL46
 3629 03f0 8E000000 		.4byte	.LVL58
 3630 03f4 0100     		.2byte	0x1
 3631 03f6 55       		.byte	0x55
 3632 03f7 94000000 		.4byte	.LVL60
ARM GAS  /tmp/cclC07rx.s 			page 65


 3633 03fb A0000000 		.4byte	.LVL61
 3634 03ff 0100     		.2byte	0x1
 3635 0401 55       		.byte	0x55
 3636 0402 A2000000 		.4byte	.LVL62
 3637 0406 AE000000 		.4byte	.LVL63
 3638 040a 0100     		.2byte	0x1
 3639 040c 55       		.byte	0x55
 3640 040d B0000000 		.4byte	.LVL64
 3641 0411 B6000000 		.4byte	.LVL65
 3642 0415 0100     		.2byte	0x1
 3643 0417 55       		.byte	0x55
 3644 0418 B8000000 		.4byte	.LVL66
 3645 041c BE000000 		.4byte	.LVL67
 3646 0420 0100     		.2byte	0x1
 3647 0422 55       		.byte	0x55
 3648 0423 C4000000 		.4byte	.LVL70
 3649 0427 CA000000 		.4byte	.LVL71
 3650 042b 0200     		.2byte	0x2
 3651 042d 30       		.byte	0x30
 3652 042e 9F       		.byte	0x9f
 3653 042f 00000000 		.4byte	0
 3654 0433 00000000 		.4byte	0
 3655              	.LLST13:
 3656 0437 00000000 		.4byte	.LFB44
 3657 043b 02000000 		.4byte	.LCFI6
 3658 043f 0200     		.2byte	0x2
 3659 0441 7D       		.byte	0x7d
 3660 0442 00       		.sleb128 0
 3661 0443 02000000 		.4byte	.LCFI6
 3662 0447 4C000000 		.4byte	.LFE44
 3663 044b 0200     		.2byte	0x2
 3664 044d 7D       		.byte	0x7d
 3665 044e 10       		.sleb128 16
 3666 044f 00000000 		.4byte	0
 3667 0453 00000000 		.4byte	0
 3668              	.LLST14:
 3669 0457 00000000 		.4byte	.LVL77
 3670 045b 0C000000 		.4byte	.LVL78
 3671 045f 0100     		.2byte	0x1
 3672 0461 50       		.byte	0x50
 3673 0462 0C000000 		.4byte	.LVL78
 3674 0466 20000000 		.4byte	.LVL83
 3675 046a 0100     		.2byte	0x1
 3676 046c 54       		.byte	0x54
 3677 046d 20000000 		.4byte	.LVL83
 3678 0471 22000000 		.4byte	.LVL84
 3679 0475 0400     		.2byte	0x4
 3680 0477 F3       		.byte	0xf3
 3681 0478 01       		.uleb128 0x1
 3682 0479 50       		.byte	0x50
 3683 047a 9F       		.byte	0x9f
 3684 047b 22000000 		.4byte	.LVL84
 3685 047f 4C000000 		.4byte	.LFE44
 3686 0483 0100     		.2byte	0x1
 3687 0485 54       		.byte	0x54
 3688 0486 00000000 		.4byte	0
 3689 048a 00000000 		.4byte	0
ARM GAS  /tmp/cclC07rx.s 			page 66


 3690              	.LLST15:
 3691 048e 00000000 		.4byte	.LVL77
 3692 0492 0F000000 		.4byte	.LVL79-1
 3693 0496 0100     		.2byte	0x1
 3694 0498 51       		.byte	0x51
 3695 0499 0F000000 		.4byte	.LVL79-1
 3696 049d 1C000000 		.4byte	.LVL81
 3697 04a1 0100     		.2byte	0x1
 3698 04a3 55       		.byte	0x55
 3699 04a4 1C000000 		.4byte	.LVL81
 3700 04a8 22000000 		.4byte	.LVL84
 3701 04ac 0400     		.2byte	0x4
 3702 04ae F3       		.byte	0xf3
 3703 04af 01       		.uleb128 0x1
 3704 04b0 51       		.byte	0x51
 3705 04b1 9F       		.byte	0x9f
 3706 04b2 22000000 		.4byte	.LVL84
 3707 04b6 2A000000 		.4byte	.LVL85
 3708 04ba 0100     		.2byte	0x1
 3709 04bc 55       		.byte	0x55
 3710 04bd 2A000000 		.4byte	.LVL85
 3711 04c1 4C000000 		.4byte	.LFE44
 3712 04c5 0400     		.2byte	0x4
 3713 04c7 F3       		.byte	0xf3
 3714 04c8 01       		.uleb128 0x1
 3715 04c9 51       		.byte	0x51
 3716 04ca 9F       		.byte	0x9f
 3717 04cb 00000000 		.4byte	0
 3718 04cf 00000000 		.4byte	0
 3719              	.LLST16:
 3720 04d3 00000000 		.4byte	.LFB45
 3721 04d7 04000000 		.4byte	.LCFI7
 3722 04db 0200     		.2byte	0x2
 3723 04dd 7D       		.byte	0x7d
 3724 04de 00       		.sleb128 0
 3725 04df 04000000 		.4byte	.LCFI7
 3726 04e3 24000000 		.4byte	.LFE45
 3727 04e7 0200     		.2byte	0x2
 3728 04e9 7D       		.byte	0x7d
 3729 04ea 08       		.sleb128 8
 3730 04eb 00000000 		.4byte	0
 3731 04ef 00000000 		.4byte	0
 3732              	.LLST17:
 3733 04f3 00000000 		.4byte	.LVL89
 3734 04f7 0C000000 		.4byte	.LVL90
 3735 04fb 0100     		.2byte	0x1
 3736 04fd 50       		.byte	0x50
 3737 04fe 0C000000 		.4byte	.LVL90
 3738 0502 1C000000 		.4byte	.LVL92
 3739 0506 0100     		.2byte	0x1
 3740 0508 54       		.byte	0x54
 3741 0509 1C000000 		.4byte	.LVL92
 3742 050d 1E000000 		.4byte	.LVL93
 3743 0511 0400     		.2byte	0x4
 3744 0513 F3       		.byte	0xf3
 3745 0514 01       		.uleb128 0x1
 3746 0515 50       		.byte	0x50
ARM GAS  /tmp/cclC07rx.s 			page 67


 3747 0516 9F       		.byte	0x9f
 3748 0517 1E000000 		.4byte	.LVL93
 3749 051b 24000000 		.4byte	.LFE45
 3750 051f 0100     		.2byte	0x1
 3751 0521 54       		.byte	0x54
 3752 0522 00000000 		.4byte	0
 3753 0526 00000000 		.4byte	0
 3754              	.LLST18:
 3755 052a 00000000 		.4byte	.LVL89
 3756 052e 15000000 		.4byte	.LVL91-1
 3757 0532 0100     		.2byte	0x1
 3758 0534 51       		.byte	0x51
 3759 0535 15000000 		.4byte	.LVL91-1
 3760 0539 24000000 		.4byte	.LFE45
 3761 053d 0400     		.2byte	0x4
 3762 053f F3       		.byte	0xf3
 3763 0540 01       		.uleb128 0x1
 3764 0541 51       		.byte	0x51
 3765 0542 9F       		.byte	0x9f
 3766 0543 00000000 		.4byte	0
 3767 0547 00000000 		.4byte	0
 3768              	.LLST19:
 3769 054b 00000000 		.4byte	.LFB46
 3770 054f 02000000 		.4byte	.LCFI8
 3771 0553 0200     		.2byte	0x2
 3772 0555 7D       		.byte	0x7d
 3773 0556 00       		.sleb128 0
 3774 0557 02000000 		.4byte	.LCFI8
 3775 055b 48000000 		.4byte	.LFE46
 3776 055f 0200     		.2byte	0x2
 3777 0561 7D       		.byte	0x7d
 3778 0562 18       		.sleb128 24
 3779 0563 00000000 		.4byte	0
 3780 0567 00000000 		.4byte	0
 3781              	.LLST20:
 3782 056b 00000000 		.4byte	.LVL94
 3783 056f 0E000000 		.4byte	.LVL95
 3784 0573 0100     		.2byte	0x1
 3785 0575 50       		.byte	0x50
 3786 0576 0E000000 		.4byte	.LVL95
 3787 057a 34000000 		.4byte	.LVL100
 3788 057e 0100     		.2byte	0x1
 3789 0580 54       		.byte	0x54
 3790 0581 34000000 		.4byte	.LVL100
 3791 0585 36000000 		.4byte	.LVL103
 3792 0589 0400     		.2byte	0x4
 3793 058b F3       		.byte	0xf3
 3794 058c 01       		.uleb128 0x1
 3795 058d 50       		.byte	0x50
 3796 058e 9F       		.byte	0x9f
 3797 058f 36000000 		.4byte	.LVL103
 3798 0593 48000000 		.4byte	.LFE46
 3799 0597 0100     		.2byte	0x1
 3800 0599 54       		.byte	0x54
 3801 059a 00000000 		.4byte	0
 3802 059e 00000000 		.4byte	0
 3803              	.LLST21:
ARM GAS  /tmp/cclC07rx.s 			page 68


 3804 05a2 00000000 		.4byte	.LVL94
 3805 05a6 13000000 		.4byte	.LVL96-1
 3806 05aa 0100     		.2byte	0x1
 3807 05ac 51       		.byte	0x51
 3808 05ad 13000000 		.4byte	.LVL96-1
 3809 05b1 34000000 		.4byte	.LVL101
 3810 05b5 0100     		.2byte	0x1
 3811 05b7 56       		.byte	0x56
 3812 05b8 34000000 		.4byte	.LVL101
 3813 05bc 36000000 		.4byte	.LVL103
 3814 05c0 0400     		.2byte	0x4
 3815 05c2 F3       		.byte	0xf3
 3816 05c3 01       		.uleb128 0x1
 3817 05c4 51       		.byte	0x51
 3818 05c5 9F       		.byte	0x9f
 3819 05c6 36000000 		.4byte	.LVL103
 3820 05ca 48000000 		.4byte	.LFE46
 3821 05ce 0100     		.2byte	0x1
 3822 05d0 56       		.byte	0x56
 3823 05d1 00000000 		.4byte	0
 3824 05d5 00000000 		.4byte	0
 3825              	.LLST22:
 3826 05d9 00000000 		.4byte	.LVL94
 3827 05dd 13000000 		.4byte	.LVL96-1
 3828 05e1 0100     		.2byte	0x1
 3829 05e3 52       		.byte	0x52
 3830 05e4 13000000 		.4byte	.LVL96-1
 3831 05e8 34000000 		.4byte	.LVL102
 3832 05ec 0100     		.2byte	0x1
 3833 05ee 57       		.byte	0x57
 3834 05ef 34000000 		.4byte	.LVL102
 3835 05f3 36000000 		.4byte	.LVL103
 3836 05f7 0400     		.2byte	0x4
 3837 05f9 F3       		.byte	0xf3
 3838 05fa 01       		.uleb128 0x1
 3839 05fb 52       		.byte	0x52
 3840 05fc 9F       		.byte	0x9f
 3841 05fd 36000000 		.4byte	.LVL103
 3842 0601 48000000 		.4byte	.LFE46
 3843 0605 0100     		.2byte	0x1
 3844 0607 57       		.byte	0x57
 3845 0608 00000000 		.4byte	0
 3846 060c 00000000 		.4byte	0
 3847              	.LLST23:
 3848 0610 00000000 		.4byte	.LFB47
 3849 0614 02000000 		.4byte	.LCFI9
 3850 0618 0200     		.2byte	0x2
 3851 061a 7D       		.byte	0x7d
 3852 061b 00       		.sleb128 0
 3853 061c 02000000 		.4byte	.LCFI9
 3854 0620 8C000000 		.4byte	.LFE47
 3855 0624 0200     		.2byte	0x2
 3856 0626 7D       		.byte	0x7d
 3857 0627 10       		.sleb128 16
 3858 0628 00000000 		.4byte	0
 3859 062c 00000000 		.4byte	0
 3860              	.LLST24:
ARM GAS  /tmp/cclC07rx.s 			page 69


 3861 0630 00000000 		.4byte	.LVL105
 3862 0634 0C000000 		.4byte	.LVL106
 3863 0638 0100     		.2byte	0x1
 3864 063a 50       		.byte	0x50
 3865 063b 0C000000 		.4byte	.LVL106
 3866 063f 4E000000 		.4byte	.LVL113
 3867 0643 0100     		.2byte	0x1
 3868 0645 55       		.byte	0x55
 3869 0646 4E000000 		.4byte	.LVL113
 3870 064a 5C000000 		.4byte	.LVL116
 3871 064e 0400     		.2byte	0x4
 3872 0650 F3       		.byte	0xf3
 3873 0651 01       		.uleb128 0x1
 3874 0652 50       		.byte	0x50
 3875 0653 9F       		.byte	0x9f
 3876 0654 5C000000 		.4byte	.LVL116
 3877 0658 76000000 		.4byte	.LVL121
 3878 065c 0100     		.2byte	0x1
 3879 065e 55       		.byte	0x55
 3880 065f 76000000 		.4byte	.LVL121
 3881 0663 7A000000 		.4byte	.LVL122
 3882 0667 0400     		.2byte	0x4
 3883 0669 F3       		.byte	0xf3
 3884 066a 01       		.uleb128 0x1
 3885 066b 50       		.byte	0x50
 3886 066c 9F       		.byte	0x9f
 3887 066d 7A000000 		.4byte	.LVL122
 3888 0671 80000000 		.4byte	.LVL124
 3889 0675 0100     		.2byte	0x1
 3890 0677 55       		.byte	0x55
 3891 0678 80000000 		.4byte	.LVL124
 3892 067c 8C000000 		.4byte	.LFE47
 3893 0680 0100     		.2byte	0x1
 3894 0682 50       		.byte	0x50
 3895 0683 00000000 		.4byte	0
 3896 0687 00000000 		.4byte	0
 3897              	.LLST25:
 3898 068b 00000000 		.4byte	.LVL105
 3899 068f 0F000000 		.4byte	.LVL107-1
 3900 0693 0100     		.2byte	0x1
 3901 0695 51       		.byte	0x51
 3902 0696 0F000000 		.4byte	.LVL107-1
 3903 069a 18000000 		.4byte	.LVL108
 3904 069e 0100     		.2byte	0x1
 3905 06a0 54       		.byte	0x54
 3906 06a1 18000000 		.4byte	.LVL108
 3907 06a5 2A000000 		.4byte	.LVL110
 3908 06a9 0300     		.2byte	0x3
 3909 06ab 74       		.byte	0x74
 3910 06ac 70       		.sleb128 -16
 3911 06ad 9F       		.byte	0x9f
 3912 06ae 2A000000 		.4byte	.LVL110
 3913 06b2 7A000000 		.4byte	.LVL122
 3914 06b6 0400     		.2byte	0x4
 3915 06b8 F3       		.byte	0xf3
 3916 06b9 01       		.uleb128 0x1
 3917 06ba 51       		.byte	0x51
ARM GAS  /tmp/cclC07rx.s 			page 70


 3918 06bb 9F       		.byte	0x9f
 3919 06bc 7A000000 		.4byte	.LVL122
 3920 06c0 7E000000 		.4byte	.LVL123
 3921 06c4 0100     		.2byte	0x1
 3922 06c6 54       		.byte	0x54
 3923 06c7 7E000000 		.4byte	.LVL123
 3924 06cb 80000000 		.4byte	.LVL124
 3925 06cf 0400     		.2byte	0x4
 3926 06d1 F3       		.byte	0xf3
 3927 06d2 01       		.uleb128 0x1
 3928 06d3 51       		.byte	0x51
 3929 06d4 9F       		.byte	0x9f
 3930 06d5 80000000 		.4byte	.LVL124
 3931 06d9 8C000000 		.4byte	.LFE47
 3932 06dd 0100     		.2byte	0x1
 3933 06df 51       		.byte	0x51
 3934 06e0 00000000 		.4byte	0
 3935 06e4 00000000 		.4byte	0
 3936              	.LLST26:
 3937 06e8 1E000000 		.4byte	.LVL109
 3938 06ec 2A000000 		.4byte	.LVL110
 3939 06f0 0100     		.2byte	0x1
 3940 06f2 54       		.byte	0x54
 3941 06f3 40000000 		.4byte	.LVL111
 3942 06f7 4A000000 		.4byte	.LVL112
 3943 06fb 0100     		.2byte	0x1
 3944 06fd 54       		.byte	0x54
 3945 06fe 5C000000 		.4byte	.LVL116
 3946 0702 6A000000 		.4byte	.LVL118
 3947 0706 0100     		.2byte	0x1
 3948 0708 54       		.byte	0x54
 3949 0709 6C000000 		.4byte	.LVL119
 3950 070d 76000000 		.4byte	.LVL121
 3951 0711 0100     		.2byte	0x1
 3952 0713 54       		.byte	0x54
 3953 0714 00000000 		.4byte	0
 3954 0718 00000000 		.4byte	0
 3955              	.LLST27:
 3956 071c 00000000 		.4byte	.LVL125
 3957 0720 02000000 		.4byte	.LVL126
 3958 0724 0100     		.2byte	0x1
 3959 0726 50       		.byte	0x50
 3960 0727 02000000 		.4byte	.LVL126
 3961 072b 16000000 		.4byte	.LFE48
 3962 072f 0400     		.2byte	0x4
 3963 0731 F3       		.byte	0xf3
 3964 0732 01       		.uleb128 0x1
 3965 0733 50       		.byte	0x50
 3966 0734 9F       		.byte	0x9f
 3967 0735 00000000 		.4byte	0
 3968 0739 00000000 		.4byte	0
 3969              	.LLST28:
 3970 073d 00000000 		.4byte	.LFB49
 3971 0741 02000000 		.4byte	.LCFI10
 3972 0745 0200     		.2byte	0x2
 3973 0747 7D       		.byte	0x7d
 3974 0748 00       		.sleb128 0
ARM GAS  /tmp/cclC07rx.s 			page 71


 3975 0749 02000000 		.4byte	.LCFI10
 3976 074d 3C000000 		.4byte	.LFE49
 3977 0751 0200     		.2byte	0x2
 3978 0753 7D       		.byte	0x7d
 3979 0754 08       		.sleb128 8
 3980 0755 00000000 		.4byte	0
 3981 0759 00000000 		.4byte	0
 3982              	.LLST29:
 3983 075d 00000000 		.4byte	.LVL127
 3984 0761 06000000 		.4byte	.LVL128
 3985 0765 0100     		.2byte	0x1
 3986 0767 50       		.byte	0x50
 3987 0768 06000000 		.4byte	.LVL128
 3988 076c 20000000 		.4byte	.LVL131
 3989 0770 0100     		.2byte	0x1
 3990 0772 54       		.byte	0x54
 3991 0773 20000000 		.4byte	.LVL131
 3992 0777 24000000 		.4byte	.LVL133
 3993 077b 0400     		.2byte	0x4
 3994 077d F3       		.byte	0xf3
 3995 077e 01       		.uleb128 0x1
 3996 077f 50       		.byte	0x50
 3997 0780 9F       		.byte	0x9f
 3998 0781 24000000 		.4byte	.LVL133
 3999 0785 3C000000 		.4byte	.LFE49
 4000 0789 0100     		.2byte	0x1
 4001 078b 54       		.byte	0x54
 4002 078c 00000000 		.4byte	0
 4003 0790 00000000 		.4byte	0
 4004              	.LLST30:
 4005 0794 00000000 		.4byte	.LFB50
 4006 0798 02000000 		.4byte	.LCFI11
 4007 079c 0200     		.2byte	0x2
 4008 079e 7D       		.byte	0x7d
 4009 079f 00       		.sleb128 0
 4010 07a0 02000000 		.4byte	.LCFI11
 4011 07a4 1C000000 		.4byte	.LFE50
 4012 07a8 0200     		.2byte	0x2
 4013 07aa 7D       		.byte	0x7d
 4014 07ab 08       		.sleb128 8
 4015 07ac 00000000 		.4byte	0
 4016 07b0 00000000 		.4byte	0
 4017              	.LLST31:
 4018 07b4 00000000 		.4byte	.LVL136
 4019 07b8 06000000 		.4byte	.LVL137
 4020 07bc 0100     		.2byte	0x1
 4021 07be 50       		.byte	0x50
 4022 07bf 06000000 		.4byte	.LVL137
 4023 07c3 16000000 		.4byte	.LVL141
 4024 07c7 0100     		.2byte	0x1
 4025 07c9 54       		.byte	0x54
 4026 07ca 16000000 		.4byte	.LVL141
 4027 07ce 1C000000 		.4byte	.LFE50
 4028 07d2 0400     		.2byte	0x4
 4029 07d4 F3       		.byte	0xf3
 4030 07d5 01       		.uleb128 0x1
 4031 07d6 50       		.byte	0x50
ARM GAS  /tmp/cclC07rx.s 			page 72


 4032 07d7 9F       		.byte	0x9f
 4033 07d8 00000000 		.4byte	0
 4034 07dc 00000000 		.4byte	0
 4035              		.section	.debug_aranges,"",%progbits
 4036 0000 6C000000 		.4byte	0x6c
 4037 0004 0200     		.2byte	0x2
 4038 0006 00000000 		.4byte	.Ldebug_info0
 4039 000a 04       		.byte	0x4
 4040 000b 00       		.byte	0
 4041 000c 0000     		.2byte	0
 4042 000e 0000     		.2byte	0
 4043 0010 00000000 		.4byte	.LFB40
 4044 0014 64010000 		.4byte	.LFE40-.LFB40
 4045 0018 00000000 		.4byte	.LFB41
 4046 001c 10000000 		.4byte	.LFE41-.LFB41
 4047 0020 00000000 		.4byte	.LFB42
 4048 0024 24000000 		.4byte	.LFE42-.LFB42
 4049 0028 00000000 		.4byte	.LFB43
 4050 002c F0000000 		.4byte	.LFE43-.LFB43
 4051 0030 00000000 		.4byte	.LFB44
 4052 0034 4C000000 		.4byte	.LFE44-.LFB44
 4053 0038 00000000 		.4byte	.LFB45
 4054 003c 24000000 		.4byte	.LFE45-.LFB45
 4055 0040 00000000 		.4byte	.LFB46
 4056 0044 48000000 		.4byte	.LFE46-.LFB46
 4057 0048 00000000 		.4byte	.LFB47
 4058 004c 8C000000 		.4byte	.LFE47-.LFB47
 4059 0050 00000000 		.4byte	.LFB48
 4060 0054 16000000 		.4byte	.LFE48-.LFB48
 4061 0058 00000000 		.4byte	.LFB49
 4062 005c 3C000000 		.4byte	.LFE49-.LFB49
 4063 0060 00000000 		.4byte	.LFB50
 4064 0064 1C000000 		.4byte	.LFE50-.LFB50
 4065 0068 00000000 		.4byte	0
 4066 006c 00000000 		.4byte	0
 4067              		.section	.debug_ranges,"",%progbits
 4068              	.Ldebug_ranges0:
 4069 0000 00000000 		.4byte	.LFB40
 4070 0004 64010000 		.4byte	.LFE40
 4071 0008 00000000 		.4byte	.LFB41
 4072 000c 10000000 		.4byte	.LFE41
 4073 0010 00000000 		.4byte	.LFB42
 4074 0014 24000000 		.4byte	.LFE42
 4075 0018 00000000 		.4byte	.LFB43
 4076 001c F0000000 		.4byte	.LFE43
 4077 0020 00000000 		.4byte	.LFB44
 4078 0024 4C000000 		.4byte	.LFE44
 4079 0028 00000000 		.4byte	.LFB45
 4080 002c 24000000 		.4byte	.LFE45
 4081 0030 00000000 		.4byte	.LFB46
 4082 0034 48000000 		.4byte	.LFE46
 4083 0038 00000000 		.4byte	.LFB47
 4084 003c 8C000000 		.4byte	.LFE47
 4085 0040 00000000 		.4byte	.LFB48
 4086 0044 16000000 		.4byte	.LFE48
 4087 0048 00000000 		.4byte	.LFB49
 4088 004c 3C000000 		.4byte	.LFE49
ARM GAS  /tmp/cclC07rx.s 			page 73


 4089 0050 00000000 		.4byte	.LFB50
 4090 0054 1C000000 		.4byte	.LFE50
 4091 0058 00000000 		.4byte	0
 4092 005c 00000000 		.4byte	0
 4093              		.section	.debug_line,"",%progbits
 4094              	.Ldebug_line0:
 4095 0000 C7030000 		.section	.debug_str,"MS",%progbits,1
 4095      0200FD01 
 4095      00000201 
 4095      FB0E0D00 
 4095      01010101 
 4096              	.LASF45:
 4097 0000 54687265 		.ascii	"ThreadsList\000"
 4097      6164734C 
 4097      69737400 
 4098              	.LASF37:
 4099 000c 705F7761 		.ascii	"p_waiting\000"
 4099      6974696E 
 4099      6700
 4100              	.LASF105:
 4101 0016 474E5520 		.ascii	"GNU C 4.7.4 20130913 (prerelease)\000"
 4101      4320342E 
 4101      372E3420 
 4101      32303133 
 4101      30393133 
 4102              	.LASF36:
 4103 0038 705F7469 		.ascii	"p_time\000"
 4103      6D6500
 4104              	.LASF91:
 4105 003f 67657665 		.ascii	"geventEventWait\000"
 4105      6E744576 
 4105      656E7457 
 4105      61697400 
 4106              	.LASF46:
 4107 004f 72656761 		.ascii	"regarm_t\000"
 4107      726D5F74 
 4107      00
 4108              	.LASF27:
 4109 0058 705F7072 		.ascii	"p_prio\000"
 4109      696F00
 4110              	.LASF87:
 4111 005f 666C6167 		.ascii	"flags\000"
 4111      7300
 4112              	.LASF22:
 4113 0065 73797374 		.ascii	"systime_t\000"
 4113      696D655F 
 4113      7400
 4114              	.LASF55:
 4115 006f 6D5F6F77 		.ascii	"m_owner\000"
 4115      6E657200 
 4116              	.LASF51:
 4117 0077 735F7175 		.ascii	"s_queue\000"
 4117      65756500 
 4118              	.LASF38:
 4119 007f 705F6D73 		.ascii	"p_msgqueue\000"
 4119      67717565 
 4119      756500
ARM GAS  /tmp/cclC07rx.s 			page 74


 4120              	.LASF108:
 4121 008a 47536F75 		.ascii	"GSource_t\000"
 4121      7263655F 
 4121      7400
 4122              	.LASF0:
 4123 0094 756E7369 		.ascii	"unsigned int\000"
 4123      676E6564 
 4123      20696E74 
 4123      00
 4124              	.LASF89:
 4125 00a1 67657665 		.ascii	"geventDetachSource\000"
 4125      6E744465 
 4125      74616368 
 4125      536F7572 
 4125      636500
 4126              	.LASF59:
 4127 00b4 77746F62 		.ascii	"wtobjp\000"
 4127      6A7000
 4128              	.LASF62:
 4129 00bb 64656C61 		.ascii	"delaytime_t\000"
 4129      7974696D 
 4129      655F7400 
 4130              	.LASF64:
 4131 00c7 6C696D69 		.ascii	"limit\000"
 4131      7400
 4132              	.LASF67:
 4133 00cd 47457665 		.ascii	"GEventType\000"
 4133      6E745479 
 4133      706500
 4134              	.LASF72:
 4135 00d8 77616974 		.ascii	"waitqueue\000"
 4135      71756575 
 4135      6500
 4136              	.LASF60:
 4137 00e2 65776D61 		.ascii	"ewmask\000"
 4137      736B00
 4138              	.LASF82:
 4139 00e9 6C697374 		.ascii	"listenflags\000"
 4139      656E666C 
 4139      61677300 
 4140              	.LASF52:
 4141 00f5 735F636E 		.ascii	"s_cnt\000"
 4141      7400
 4142              	.LASF80:
 4143 00fb 704C6973 		.ascii	"pListener\000"
 4143      74656E65 
 4143      7200
 4144              	.LASF9:
 4145 0105 75696E74 		.ascii	"uint32_t\000"
 4145      33325F74 
 4145      00
 4146              	.LASF21:
 4147 010e 6576656E 		.ascii	"eventmask_t\000"
 4147      746D6173 
 4147      6B5F7400 
 4148              	.LASF65:
 4149 011a 67667853 		.ascii	"gfxSem\000"
ARM GAS  /tmp/cclC07rx.s 			page 75


 4149      656D00
 4150              	.LASF76:
 4151 0121 6576656E 		.ascii	"event\000"
 4151      7400
 4152              	.LASF19:
 4153 0127 74707269 		.ascii	"tprio_t\000"
 4153      6F5F7400 
 4154              	.LASF109:
 4155 012f 64656C65 		.ascii	"deleteAssignments\000"
 4155      74654173 
 4155      7369676E 
 4155      6D656E74 
 4155      7300
 4156              	.LASF12:
 4157 0141 6C6F6E67 		.ascii	"long long unsigned int\000"
 4157      206C6F6E 
 4157      6720756E 
 4157      7369676E 
 4157      65642069 
 4158              	.LASF78:
 4159 0158 47536F75 		.ascii	"GSourceHandle\000"
 4159      72636548 
 4159      616E646C 
 4159      6500
 4160              	.LASF23:
 4161 0166 636E745F 		.ascii	"cnt_t\000"
 4161      7400
 4162              	.LASF29:
 4163 016c 705F6E65 		.ascii	"p_newer\000"
 4163      77657200 
 4164              	.LASF102:
 4165 0174 63684D74 		.ascii	"chMtxInit\000"
 4165      78496E69 
 4165      7400
 4166              	.LASF73:
 4167 017e 6576656E 		.ascii	"eventlock\000"
 4167      746C6F63 
 4167      6B00
 4168              	.LASF57:
 4169 0188 7264796D 		.ascii	"rdymsg\000"
 4169      736700
 4170              	.LASF13:
 4171 018f 626F6F6C 		.ascii	"bool_t\000"
 4171      5F7400
 4172              	.LASF14:
 4173 0196 5F426F6F 		.ascii	"_Bool\000"
 4173      6C00
 4174              	.LASF93:
 4175 019c 67657665 		.ascii	"geventRegisterCallback\000"
 4175      6E745265 
 4175      67697374 
 4175      65724361 
 4175      6C6C6261 
 4176              	.LASF90:
 4177 01b3 67657665 		.ascii	"geventAttachSource\000"
 4177      6E744174 
 4177      74616368 
ARM GAS  /tmp/cclC07rx.s 			page 76


 4177      536F7572 
 4177      636500
 4178              	.LASF53:
 4179 01c6 4D757465 		.ascii	"Mutex\000"
 4179      7800
 4180              	.LASF106:
 4181 01cc 2F686F6D 		.ascii	"/home/matt/arm_cortex/ChibiOS/ext/ugfx/src/gevent/g"
 4181      652F6D61 
 4181      74742F61 
 4181      726D5F63 
 4181      6F727465 
 4182 01ff 6576656E 		.ascii	"event.c\000"
 4182      742E6300 
 4183              	.LASF31:
 4184 0207 705F6E61 		.ascii	"p_name\000"
 4184      6D6500
 4185              	.LASF44:
 4186 020e 54687265 		.ascii	"ThreadsQueue\000"
 4186      61647351 
 4186      75657565 
 4186      00
 4187              	.LASF61:
 4188 021b 63686172 		.ascii	"char\000"
 4188      00
 4189              	.LASF71:
 4190 0220 474C6973 		.ascii	"GListener\000"
 4190      74656E65 
 4190      7200
 4191              	.LASF99:
 4192 022a 67657665 		.ascii	"geventMutex\000"
 4192      6E744D75 
 4192      74657800 
 4193              	.LASF24:
 4194 0236 54687265 		.ascii	"Thread\000"
 4194      616400
 4195              	.LASF16:
 4196 023d 74737461 		.ascii	"tstate_t\000"
 4196      74655F74 
 4196      00
 4197              	.LASF79:
 4198 0246 47536F75 		.ascii	"GSourceListener_t\000"
 4198      7263654C 
 4198      69737465 
 4198      6E65725F 
 4198      7400
 4199              	.LASF30:
 4200 0258 705F6F6C 		.ascii	"p_older\000"
 4200      64657200 
 4201              	.LASF32:
 4202 0260 705F7374 		.ascii	"p_state\000"
 4202      61746500 
 4203              	.LASF4:
 4204 0268 75696E74 		.ascii	"uint8_t\000"
 4204      385F7400 
 4205              	.LASF43:
 4206 0270 705F6D70 		.ascii	"p_mpool\000"
 4206      6F6F6C00 
ARM GAS  /tmp/cclC07rx.s 			page 77


 4207              	.LASF41:
 4208 0278 705F6D74 		.ascii	"p_mtxlist\000"
 4208      786C6973 
 4208      7400
 4209              	.LASF11:
 4210 0282 6C6F6E67 		.ascii	"long long int\000"
 4210      206C6F6E 
 4210      6720696E 
 4210      7400
 4211              	.LASF111:
 4212 0290 63684D74 		.ascii	"chMtxUnlock\000"
 4212      78556E6C 
 4212      6F636B00 
 4213              	.LASF20:
 4214 029c 6D73675F 		.ascii	"msg_t\000"
 4214      7400
 4215              	.LASF48:
 4216 02a2 636F6E74 		.ascii	"context\000"
 4216      65787400 
 4217              	.LASF33:
 4218 02aa 705F666C 		.ascii	"p_flags\000"
 4218      61677300 
 4219              	.LASF63:
 4220 02b2 73656D63 		.ascii	"semcount_t\000"
 4220      6F756E74 
 4220      5F7400
 4221              	.LASF110:
 4222 02bd 67667853 		.ascii	"gfxSemWait\000"
 4222      656D5761 
 4222      697400
 4223              	.LASF75:
 4224 02c8 70617261 		.ascii	"param\000"
 4224      6D00
 4225              	.LASF18:
 4226 02ce 74736C69 		.ascii	"tslices_t\000"
 4226      6365735F 
 4226      7400
 4227              	.LASF101:
 4228 02d8 67667853 		.ascii	"gfxSemSignal\000"
 4228      656D5369 
 4228      676E616C 
 4228      00
 4229              	.LASF39:
 4230 02e5 705F6D73 		.ascii	"p_msg\000"
 4230      6700
 4231              	.LASF15:
 4232 02eb 746D6F64 		.ascii	"tmode_t\000"
 4232      655F7400 
 4233              	.LASF95:
 4234 02f3 6C617374 		.ascii	"lastlr\000"
 4234      6C7200
 4235              	.LASF100:
 4236 02fa 41737369 		.ascii	"Assignments\000"
 4236      676E6D65 
 4236      6E747300 
 4237              	.LASF5:
 4238 0306 75696E74 		.ascii	"uint16_t\000"
ARM GAS  /tmp/cclC07rx.s 			page 78


 4238      31365F74 
 4238      00
 4239              	.LASF47:
 4240 030f 696E7463 		.ascii	"intctx\000"
 4240      747800
 4241              	.LASF103:
 4242 0316 67667853 		.ascii	"gfxSemInit\000"
 4242      656D496E 
 4242      697400
 4243              	.LASF42:
 4244 0321 705F7265 		.ascii	"p_realprio\000"
 4244      616C7072 
 4244      696F00
 4245              	.LASF3:
 4246 032c 73686F72 		.ascii	"short int\000"
 4246      7420696E 
 4246      7400
 4247              	.LASF40:
 4248 0336 705F6570 		.ascii	"p_epending\000"
 4248      656E6469 
 4248      6E6700
 4249              	.LASF54:
 4250 0341 6D5F7175 		.ascii	"m_queue\000"
 4250      65756500 
 4251              	.LASF8:
 4252 0349 6C6F6E67 		.ascii	"long int\000"
 4252      20696E74 
 4252      00
 4253              	.LASF98:
 4254 0352 67657665 		.ascii	"geventDetachSourceListeners\000"
 4254      6E744465 
 4254      74616368 
 4254      536F7572 
 4254      63654C69 
 4255              	.LASF88:
 4256 036e 70736C66 		.ascii	"pslfree\000"
 4256      72656500 
 4257              	.LASF25:
 4258 0376 705F6E65 		.ascii	"p_next\000"
 4258      787400
 4259              	.LASF28:
 4260 037d 705F6374 		.ascii	"p_ctx\000"
 4260      7800
 4261              	.LASF50:
 4262 0383 53656D61 		.ascii	"Semaphore\000"
 4262      70686F72 
 4262      6500
 4263              	.LASF96:
 4264 038d 67657665 		.ascii	"geventGetEventBuffer\000"
 4264      6E744765 
 4264      74457665 
 4264      6E744275 
 4264      66666572 
 4265              	.LASF84:
 4266 03a2 47536F75 		.ascii	"GSourceListener\000"
 4266      7263654C 
 4266      69737465 
ARM GAS  /tmp/cclC07rx.s 			page 79


 4266      6E657200 
 4267              	.LASF26:
 4268 03b2 705F7072 		.ascii	"p_prev\000"
 4268      657600
 4269              	.LASF66:
 4270 03b9 6766784D 		.ascii	"gfxMutex\000"
 4270      75746578 
 4270      00
 4271              	.LASF49:
 4272 03c2 73697A65 		.ascii	"sizetype\000"
 4272      74797065 
 4272      00
 4273              	.LASF17:
 4274 03cb 74726566 		.ascii	"trefs_t\000"
 4274      735F7400 
 4275              	.LASF10:
 4276 03d3 6C6F6E67 		.ascii	"long unsigned int\000"
 4276      20756E73 
 4276      69676E65 
 4276      6420696E 
 4276      7400
 4277              	.LASF7:
 4278 03e5 696E7433 		.ascii	"int32_t\000"
 4278      325F7400 
 4279              	.LASF81:
 4280 03ed 70536F75 		.ascii	"pSource\000"
 4280      72636500 
 4281              	.LASF85:
 4282 03f5 5F676576 		.ascii	"_geventInit\000"
 4282      656E7449 
 4282      6E697400 
 4283              	.LASF107:
 4284 0401 47457665 		.ascii	"GEvent_u\000"
 4284      6E745F75 
 4284      00
 4285              	.LASF68:
 4286 040a 74797065 		.ascii	"type\000"
 4286      00
 4287              	.LASF2:
 4288 040f 756E7369 		.ascii	"unsigned char\000"
 4288      676E6564 
 4288      20636861 
 4288      7200
 4289              	.LASF34:
 4290 041d 705F7265 		.ascii	"p_refs\000"
 4290      667300
 4291              	.LASF104:
 4292 0424 63684D74 		.ascii	"chMtxLock\000"
 4292      784C6F63 
 4292      6B00
 4293              	.LASF92:
 4294 042e 74696D65 		.ascii	"timeout\000"
 4294      6F757400 
 4295              	.LASF94:
 4296 0436 67657665 		.ascii	"geventGetSourceListener\000"
 4296      6E744765 
 4296      74536F75 
ARM GAS  /tmp/cclC07rx.s 			page 80


 4296      7263654C 
 4296      69737465 
 4297              	.LASF83:
 4298 044e 73726366 		.ascii	"srcflags\000"
 4298      6C616773 
 4298      00
 4299              	.LASF35:
 4300 0457 705F7072 		.ascii	"p_preempt\000"
 4300      65656D70 
 4300      7400
 4301              	.LASF86:
 4302 0461 67657665 		.ascii	"geventListenerInit\000"
 4302      6E744C69 
 4302      7374656E 
 4302      6572496E 
 4302      697400
 4303              	.LASF74:
 4304 0474 63616C6C 		.ascii	"callback\000"
 4304      6261636B 
 4304      00
 4305              	.LASF97:
 4306 047d 67657665 		.ascii	"geventSendEvent\000"
 4306      6E745365 
 4306      6E644576 
 4306      656E7400 
 4307              	.LASF56:
 4308 048d 6D5F6E65 		.ascii	"m_next\000"
 4308      787400
 4309              	.LASF1:
 4310 0494 7369676E 		.ascii	"signed char\000"
 4310      65642063 
 4310      68617200 
 4311              	.LASF70:
 4312 04a0 47457665 		.ascii	"GEventCallbackFn\000"
 4312      6E744361 
 4312      6C6C6261 
 4312      636B466E 
 4312      00
 4313              	.LASF6:
 4314 04b1 73686F72 		.ascii	"short unsigned int\000"
 4314      7420756E 
 4314      7369676E 
 4314      65642069 
 4314      6E7400
 4315              	.LASF69:
 4316 04c4 47457665 		.ascii	"GEvent\000"
 4316      6E7400
 4317              	.LASF58:
 4318 04cb 65786974 		.ascii	"exitcode\000"
 4318      636F6465 
 4318      00
 4319              	.LASF77:
 4320 04d4 47536F75 		.ascii	"GSource\000"
 4320      72636500 
 4321              		.ident	"GCC: (GNU Tools for ARM Embedded Processors / bleeding-edge-toolchain-131005) 4.7.4 201309
ARM GAS  /tmp/cclC07rx.s 			page 81


DEFINED SYMBOLS
                            *ABS*:0000000000000000 gevent.c
     /tmp/cclC07rx.s:18     .text.deleteAssignments:0000000000000000 $t
     /tmp/cclC07rx.s:23     .text.deleteAssignments:0000000000000000 deleteAssignments
     /tmp/cclC07rx.s:315    .text.deleteAssignments:0000000000000160 $d
     /tmp/cclC07rx.s:320    .text._geventInit:0000000000000000 $t
     /tmp/cclC07rx.s:326    .text._geventInit:0000000000000000 _geventInit
     /tmp/cclC07rx.s:345    .text._geventInit:000000000000000c $d
     /tmp/cclC07rx.s:350    .text.geventListenerInit:0000000000000000 $t
     /tmp/cclC07rx.s:356    .text.geventListenerInit:0000000000000000 geventListenerInit
     /tmp/cclC07rx.s:393    .text.geventListenerInit:0000000000000020 $d
     /tmp/cclC07rx.s:398    .text.geventAttachSource:0000000000000000 $t
     /tmp/cclC07rx.s:404    .text.geventAttachSource:0000000000000000 geventAttachSource
     /tmp/cclC07rx.s:635    .text.geventAttachSource:00000000000000e8 $d
     /tmp/cclC07rx.s:641    .text.geventDetachSource:0000000000000000 $t
     /tmp/cclC07rx.s:647    .text.geventDetachSource:0000000000000000 geventDetachSource
     /tmp/cclC07rx.s:718    .text.geventDetachSource:0000000000000048 $d
     /tmp/cclC07rx.s:723    .text.geventEventWait:0000000000000000 $t
     /tmp/cclC07rx.s:729    .text.geventEventWait:0000000000000000 geventEventWait
     /tmp/cclC07rx.s:776    .text.geventRegisterCallback:0000000000000000 $t
     /tmp/cclC07rx.s:782    .text.geventRegisterCallback:0000000000000000 geventRegisterCallback
     /tmp/cclC07rx.s:855    .text.geventRegisterCallback:0000000000000044 $d
     /tmp/cclC07rx.s:860    .text.geventGetSourceListener:0000000000000000 $t
     /tmp/cclC07rx.s:866    .text.geventGetSourceListener:0000000000000000 geventGetSourceListener
     /tmp/cclC07rx.s:992    .text.geventGetSourceListener:0000000000000084 $d
     /tmp/cclC07rx.s:998    .text.geventGetEventBuffer:0000000000000000 $t
     /tmp/cclC07rx.s:1004   .text.geventGetEventBuffer:0000000000000000 geventGetEventBuffer
     /tmp/cclC07rx.s:1034   .text.geventSendEvent:0000000000000000 $t
     /tmp/cclC07rx.s:1040   .text.geventSendEvent:0000000000000000 geventSendEvent
     /tmp/cclC07rx.s:1097   .text.geventSendEvent:0000000000000038 $d
     /tmp/cclC07rx.s:1102   .text.geventDetachSourceListeners:0000000000000000 $t
     /tmp/cclC07rx.s:1108   .text.geventDetachSourceListeners:0000000000000000 geventDetachSourceListeners
     /tmp/cclC07rx.s:1141   .text.geventDetachSourceListeners:0000000000000018 $d
     /tmp/cclC07rx.s:1146   .bss.Assignments:0000000000000000 $d
     /tmp/cclC07rx.s:1150   .bss.Assignments:0000000000000000 Assignments
     /tmp/cclC07rx.s:1153   .bss.geventMutex:0000000000000000 $d
     /tmp/cclC07rx.s:1157   .bss.geventMutex:0000000000000000 geventMutex
                     .debug_frame:0000000000000010 $d
     /tmp/cclC07rx.s:319    .text.deleteAssignments:0000000000000164 $t
     /tmp/cclC07rx.s:397    .text.geventListenerInit:0000000000000024 $t
     /tmp/cclC07rx.s:722    .text.geventDetachSource:000000000000004c $t
     /tmp/cclC07rx.s:859    .text.geventRegisterCallback:0000000000000048 $t
     /tmp/cclC07rx.s:997    .text.geventGetSourceListener:000000000000008c $t
     /tmp/cclC07rx.s:1101   .text.geventSendEvent:000000000000003c $t
     /tmp/cclC07rx.s:1145   .text.geventDetachSourceListeners:000000000000001c $t

UNDEFINED SYMBOLS
gfxSemWait
gfxSemSignal
chMtxInit
gfxSemInit
chMtxLock
chMtxUnlock
