ARM GAS  /tmp/cclC07rx.s 			page 1


   1              		.cpu cortex-m0
   2              		.fpu softvfp
   3              		.eabi_attribute 20, 1
   4              		.eabi_attribute 21, 1
   5              		.eabi_attribute 23, 3
   6              		.eabi_attribute 24, 1
   7              		.eabi_attribute 25, 1
   8              		.eabi_attribute 26, 1
   9              		.eabi_attribute 30, 2
  10              		.eabi_attribute 34, 0
  11              		.eabi_attribute 18, 4
  12              		.code	16
  13              		.file	"gevent.c"
  14              		.text
  15              	.Ltext0:
  16              		.cfi_sections	.debug_frame
  17              		.section	.text.deleteAssignments,"ax",%progbits
  18              		.align	2
  19              		.p2align 4,,15
  20              		.code	16
  21              		.thumb_func
  22              		.type	deleteAssignments, %function
  23              	deleteAssignments:
  24              	.LFB40:
  25              		.file 1 "/home/matt/arm_cortex/ChibiOS/ext/ugfx/src/gevent/gevent.c"
  26              		.loc 1 33 0
  27              		.cfi_startproc
  28              	.LVL0:
  29 0000 F0B5     		push	{r4, r5, r6, r7, lr}
  30              	.LCFI0:
  31              		.cfi_def_cfa_offset 20
  32              		.cfi_offset 4, -20
  33              		.cfi_offset 5, -16
  34              		.cfi_offset 6, -12
  35              		.cfi_offset 7, -8
  36              		.cfi_offset 14, -4
  37 0002 5746     		mov	r7, sl
  38 0004 4546     		mov	r5, r8
  39 0006 4E46     		mov	r6, r9
  40 0008 E0B4     		push	{r5, r6, r7}
  41              	.LCFI1:
  42              		.cfi_def_cfa_offset 32
  43              		.cfi_offset 8, -32
  44              		.cfi_offset 9, -28
  45              		.cfi_offset 10, -24
  46              		.loc 1 36 0
  47 000a 554F     		ldr	r7, .L50
  48              		.loc 1 44 0
  49 000c 0022     		mov	r2, #0
  50              		.loc 1 40 0
  51 000e 0123     		mov	r3, #1
  52              		.loc 1 33 0
  53 0010 051C     		mov	r5, r0
  54 0012 8846     		mov	r8, r1
  55              		.loc 1 36 0
  56 0014 3C1C     		mov	r4, r7
  57              		.loc 1 44 0
ARM GAS  /tmp/cclC07rx.s 			page 2


  58 0016 9146     		mov	r9, r2
  59              		.loc 1 40 0
  60 0018 9A46     		mov	sl, r3
  61              		.loc 1 37 0
  62 001a 0028     		cmp	r0, #0
  63 001c 46D0     		beq	.L12
  64 001e 3868     		ldr	r0, [r7]
  65              	.LVL1:
  66 0020 A842     		cmp	r0, r5
  67 0022 43D0     		beq	.L12
  68              	.LVL2:
  69              	.L15:
  70              		.loc 1 36 0
  71 0024 8022     		mov	r2, #128
  72 0026 9300     		lsl	r3, r2, #2
  73 0028 1034     		add	r4, r4, #16
  74              	.LVL3:
  75 002a F818     		add	r0, r7, r3
  76 002c A042     		cmp	r0, r4
  77 002e 1DD9     		bls	.L40
  78              		.loc 1 37 0
  79 0030 002D     		cmp	r5, #0
  80 0032 48D0     		beq	.L17
  81 0034 2168     		ldr	r1, [r4]
  82 0036 A942     		cmp	r1, r5
  83 0038 45D0     		beq	.L17
  84              	.L46:
  85              		.loc 1 36 0
  86 003a 8023     		mov	r3, #128
  87 003c 9900     		lsl	r1, r3, #2
  88 003e 1034     		add	r4, r4, #16
  89              	.LVL4:
  90 0040 7818     		add	r0, r7, r1
  91 0042 8442     		cmp	r4, r0
  92 0044 12D2     		bcs	.L40
  93              	.L6:
  94              		.loc 1 37 0
  95 0046 002D     		cmp	r5, #0
  96 0048 23D0     		beq	.L2
  97              		.loc 1 37 0 is_stmt 0 discriminator 2
  98 004a 2668     		ldr	r6, [r4]
  99 004c AE42     		cmp	r6, r5
 100 004e 20D0     		beq	.L2
 101              	.L3:
 102              		.loc 1 36 0 is_stmt 1
 103 0050 261C     		mov	r6, r4
 104 0052 1036     		add	r6, r6, #16
 105              		.loc 1 37 0
 106 0054 002D     		cmp	r5, #0
 107 0056 0ED0     		beq	.L22
 108 0058 2469     		ldr	r4, [r4, #16]
 109 005a AC42     		cmp	r4, r5
 110 005c 0BD0     		beq	.L22
 111              	.L25:
 112              		.loc 1 36 0
 113 005e 341C     		mov	r4, r6
 114              	.L48:
ARM GAS  /tmp/cclC07rx.s 			page 3


 115 0060 8023     		mov	r3, #128
 116 0062 9900     		lsl	r1, r3, #2
 117 0064 1034     		add	r4, r4, #16
 118 0066 7818     		add	r0, r7, r1
 119 0068 8442     		cmp	r4, r0
 120 006a ECD3     		bcc	.L6
 121              	.L40:
 122              		.loc 1 47 0
 123              		@ sp needed for prologue
 124              	.LVL5:
 125              	.LVL6:
 126 006c 1CBC     		pop	{r2, r3, r4}
 127 006e 9046     		mov	r8, r2
 128 0070 9946     		mov	r9, r3
 129 0072 A246     		mov	sl, r4
 130 0074 F0BD     		pop	{r4, r5, r6, r7, pc}
 131              	.LVL7:
 132              	.L22:
 133              		.loc 1 37 0
 134 0076 4146     		mov	r1, r8
 135 0078 0029     		cmp	r1, #0
 136 007a 02D0     		beq	.L23
 137              	.LVL8:
 138 007c 7068     		ldr	r0, [r6, #4]
 139 007e 4045     		cmp	r0, r8
 140 0080 EDD1     		bne	.L25
 141              	.L23:
 142              		.loc 1 38 0
 143 0082 3068     		ldr	r0, [r6]
 144 0084 8268     		ldr	r2, [r0, #8]
 145 0086 002A     		cmp	r2, #0
 146 0088 2ADB     		blt	.L45
 147              	.LVL9:
 148              	.L24:
 149              		.loc 1 44 0
 150 008a 4846     		mov	r0, r9
 151 008c 3060     		str	r0, [r6]
 152              		.loc 1 36 0
 153 008e 341C     		mov	r4, r6
 154 0090 E6E7     		b	.L48
 155              	.L2:
 156              		.loc 1 37 0 discriminator 1
 157 0092 4246     		mov	r2, r8
 158 0094 002A     		cmp	r2, #0
 159 0096 02D0     		beq	.L4
 160              	.LVL10:
 161 0098 6368     		ldr	r3, [r4, #4]
 162 009a 4345     		cmp	r3, r8
 163 009c D8D1     		bne	.L3
 164              	.L4:
 165              		.loc 1 38 0
 166 009e 2068     		ldr	r0, [r4]
 167 00a0 8168     		ldr	r1, [r0, #8]
 168 00a2 0029     		cmp	r1, #0
 169 00a4 2CDB     		blt	.L49
 170              	.LVL11:
 171              	.L5:
ARM GAS  /tmp/cclC07rx.s 			page 4


 172              		.loc 1 44 0
 173 00a6 4B46     		mov	r3, r9
 174 00a8 2360     		str	r3, [r4]
 175 00aa D1E7     		b	.L3
 176              	.LVL12:
 177              	.L12:
 178              		.loc 1 37 0
 179 00ac 4146     		mov	r1, r8
 180              	.LVL13:
 181 00ae 0029     		cmp	r1, #0
 182 00b0 02D0     		beq	.L13
 183              	.LVL14:
 184 00b2 6668     		ldr	r6, [r4, #4]
 185 00b4 4645     		cmp	r6, r8
 186 00b6 B5D1     		bne	.L15
 187              	.L13:
 188              		.loc 1 38 0
 189 00b8 2068     		ldr	r0, [r4]
 190 00ba 8268     		ldr	r2, [r0, #8]
 191 00bc 002A     		cmp	r2, #0
 192 00be 2FDB     		blt	.L39
 193              	.LVL15:
 194              	.L14:
 195              		.loc 1 44 0
 196 00c0 4E46     		mov	r6, r9
 197 00c2 2660     		str	r6, [r4]
 198 00c4 AEE7     		b	.L15
 199              	.LVL16:
 200              	.L17:
 201              		.loc 1 37 0
 202 00c6 4646     		mov	r6, r8
 203 00c8 002E     		cmp	r6, #0
 204 00ca 02D0     		beq	.L18
 205              	.LVL17:
 206 00cc 6268     		ldr	r2, [r4, #4]
 207 00ce 4245     		cmp	r2, r8
 208 00d0 B3D1     		bne	.L46
 209              	.L18:
 210              		.loc 1 38 0
 211 00d2 2068     		ldr	r0, [r4]
 212 00d4 8368     		ldr	r3, [r0, #8]
 213 00d6 002B     		cmp	r3, #0
 214 00d8 32DB     		blt	.L43
 215              	.LVL18:
 216              	.L19:
 217              		.loc 1 44 0
 218 00da 4A46     		mov	r2, r9
 219 00dc 2260     		str	r2, [r4]
 220 00de ACE7     		b	.L46
 221              	.LVL19:
 222              	.L45:
 223              		.loc 1 39 0
 224 00e0 0123     		mov	r3, #1
 225 00e2 5942     		neg	r1, r3
 226              	.LVL20:
 227 00e4 1030     		add	r0, r0, #16
 228 00e6 FFF7FEFF 		bl	gfxSemWait
ARM GAS  /tmp/cclC07rx.s 			page 5


 229              	.LVL21:
 230              		.loc 1 40 0
 231 00ea 3168     		ldr	r1, [r6]
 232 00ec 5446     		mov	r4, sl
 233 00ee 0C85     		strh	r4, [r1, #40]
 234              		.loc 1 41 0
 235 00f0 3068     		ldr	r0, [r6]
 236 00f2 FFF7FEFF 		bl	gfxSemSignal
 237              	.LVL22:
 238              		.loc 1 42 0
 239 00f6 3068     		ldr	r0, [r6]
 240 00f8 1030     		add	r0, r0, #16
 241 00fa FFF7FEFF 		bl	gfxSemSignal
 242              	.LVL23:
 243 00fe C4E7     		b	.L24
 244              	.LVL24:
 245              	.L49:
 246              		.loc 1 39 0
 247 0100 0126     		mov	r6, #1
 248 0102 7142     		neg	r1, r6
 249 0104 1030     		add	r0, r0, #16
 250 0106 FFF7FEFF 		bl	gfxSemWait
 251              	.LVL25:
 252              		.loc 1 40 0
 253 010a 2268     		ldr	r2, [r4]
 254 010c 5046     		mov	r0, sl
 255 010e 1085     		strh	r0, [r2, #40]
 256              		.loc 1 41 0
 257 0110 2068     		ldr	r0, [r4]
 258 0112 FFF7FEFF 		bl	gfxSemSignal
 259              	.LVL26:
 260              		.loc 1 42 0
 261 0116 2068     		ldr	r0, [r4]
 262 0118 1030     		add	r0, r0, #16
 263 011a FFF7FEFF 		bl	gfxSemSignal
 264              	.LVL27:
 265 011e C2E7     		b	.L5
 266              	.LVL28:
 267              	.L39:
 268              		.loc 1 39 0
 269 0120 0123     		mov	r3, #1
 270 0122 5942     		neg	r1, r3
 271              	.LVL29:
 272 0124 1030     		add	r0, r0, #16
 273 0126 FFF7FEFF 		bl	gfxSemWait
 274              	.LVL30:
 275              		.loc 1 40 0
 276 012a 2168     		ldr	r1, [r4]
 277 012c 5046     		mov	r0, sl
 278 012e 0885     		strh	r0, [r1, #40]
 279              		.loc 1 41 0
 280 0130 2068     		ldr	r0, [r4]
 281 0132 FFF7FEFF 		bl	gfxSemSignal
 282              	.LVL31:
 283              		.loc 1 42 0
 284 0136 2068     		ldr	r0, [r4]
 285 0138 1030     		add	r0, r0, #16
ARM GAS  /tmp/cclC07rx.s 			page 6


 286 013a FFF7FEFF 		bl	gfxSemSignal
 287              	.LVL32:
 288 013e BFE7     		b	.L14
 289              	.LVL33:
 290              	.L43:
 291              		.loc 1 39 0
 292 0140 0121     		mov	r1, #1
 293 0142 4942     		neg	r1, r1
 294 0144 1030     		add	r0, r0, #16
 295 0146 FFF7FEFF 		bl	gfxSemWait
 296              	.LVL34:
 297              		.loc 1 40 0
 298 014a 2668     		ldr	r6, [r4]
 299              	.LVL35:
 300 014c 5046     		mov	r0, sl
 301 014e 3085     		strh	r0, [r6, #40]
 302              		.loc 1 41 0
 303 0150 2068     		ldr	r0, [r4]
 304 0152 FFF7FEFF 		bl	gfxSemSignal
 305              	.LVL36:
 306              		.loc 1 42 0
 307 0156 2068     		ldr	r0, [r4]
 308 0158 1030     		add	r0, r0, #16
 309 015a FFF7FEFF 		bl	gfxSemSignal
 310              	.LVL37:
 311 015e BCE7     		b	.L19
 312              	.L51:
 313              		.align	2
 314              	.L50:
 315 0160 00000000 		.word	.LANCHOR0
 316              		.cfi_endproc
 317              	.LFE40:
 318              		.size	deleteAssignments, .-deleteAssignments
 319 0164 C046C046 		.section	.text._geventInit,"ax",%progbits
 319      C046C046 
 319      C046C046 
 320              		.align	2
 321              		.p2align 4,,15
 322              		.global	_geventInit
 323              		.code	16
 324              		.thumb_func
 325              		.type	_geventInit, %function
 326              	_geventInit:
 327              	.LFB41:
 328              		.loc 1 49 0
 329              		.cfi_startproc
 330 0000 08B5     		push	{r3, lr}
 331              	.LCFI2:
 332              		.cfi_def_cfa_offset 8
 333              		.cfi_offset 3, -8
 334              		.cfi_offset 14, -4
 335              		.loc 1 50 0
 336 0002 0248     		ldr	r0, .L53
 337 0004 FFF7FEFF 		bl	chMtxInit
 338              	.LVL38:
 339              		.loc 1 51 0
 340              		@ sp needed for prologue
ARM GAS  /tmp/cclC07rx.s 			page 7


 341 0008 08BD     		pop	{r3, pc}
 342              	.L54:
 343 000a C046     		.align	2
 344              	.L53:
 345 000c 00000000 		.word	.LANCHOR1
 346              		.cfi_endproc
 347              	.LFE41:
 348              		.size	_geventInit, .-_geventInit
 349              		.section	.text.geventListenerInit,"ax",%progbits
 350              		.align	2
 351              		.p2align 4,,15
 352              		.global	geventListenerInit
 353              		.code	16
 354              		.thumb_func
 355              		.type	geventListenerInit, %function
 356              	geventListenerInit:
 357              	.LFB42:
 358              		.loc 1 53 0
 359              		.cfi_startproc
 360              	.LVL39:
 361 0000 10B5     		push	{r4, lr}
 362              	.LCFI3:
 363              		.cfi_def_cfa_offset 8
 364              		.cfi_offset 4, -8
 365              		.cfi_offset 14, -4
 366              		.loc 1 54 0
 367 0002 0021     		mov	r1, #0
 368              		.loc 1 53 0
 369 0004 041C     		mov	r4, r0
 370              		.loc 1 54 0
 371 0006 064A     		ldr	r2, .L56
 372 0008 FFF7FEFF 		bl	gfxSemInit
 373              	.LVL40:
 374              		.loc 1 55 0
 375 000c 201C     		mov	r0, r4
 376 000e 1030     		add	r0, r0, #16
 377 0010 0121     		mov	r1, #1
 378 0012 0122     		mov	r2, #1
 379 0014 FFF7FEFF 		bl	gfxSemInit
 380              	.LVL41:
 381              		.loc 1 56 0
 382 0018 0023     		mov	r3, #0
 383 001a 2362     		str	r3, [r4, #32]
 384              		.loc 1 57 0
 385 001c 2385     		strh	r3, [r4, #40]
 386              		.loc 1 58 0
 387              		@ sp needed for prologue
 388              	.LVL42:
 389 001e 10BD     		pop	{r4, pc}
 390              	.L57:
 391              		.align	2
 392              	.L56:
 393 0020 FFFFFF7F 		.word	2147483647
 394              		.cfi_endproc
 395              	.LFE42:
 396              		.size	geventListenerInit, .-geventListenerInit
 397 0024 C046C046 		.section	.text.geventAttachSource,"ax",%progbits
ARM GAS  /tmp/cclC07rx.s 			page 8


 397      C046C046 
 397      C046C046 
 398              		.align	2
 399              		.p2align 4,,15
 400              		.global	geventAttachSource
 401              		.code	16
 402              		.thumb_func
 403              		.type	geventAttachSource, %function
 404              	geventAttachSource:
 405              	.LFB43:
 406              		.loc 1 60 0
 407              		.cfi_startproc
 408              	.LVL43:
 409 0000 F0B5     		push	{r4, r5, r6, r7, lr}
 410              	.LCFI4:
 411              		.cfi_def_cfa_offset 20
 412              		.cfi_offset 4, -20
 413              		.cfi_offset 5, -16
 414              		.cfi_offset 6, -12
 415              		.cfi_offset 7, -8
 416              		.cfi_offset 14, -4
 417 0002 4746     		mov	r7, r8
 418 0004 80B4     		push	{r7}
 419              	.LCFI5:
 420              		.cfi_def_cfa_offset 24
 421              		.cfi_offset 8, -24
 422              		.loc 1 60 0
 423 0006 061C     		mov	r6, r0
 424 0008 0F1C     		mov	r7, r1
 425 000a 9046     		mov	r8, r2
 426              		.loc 1 64 0
 427 000c 0028     		cmp	r0, #0
 428 000e 57D0     		beq	.L67
 429              		.loc 1 64 0 is_stmt 0 discriminator 1
 430 0010 0029     		cmp	r1, #0
 431 0012 55D0     		beq	.L67
 432              		.loc 1 69 0 is_stmt 1
 433 0014 3448     		ldr	r0, .L114
 434              	.LVL44:
 435 0016 FFF7FEFF 		bl	chMtxLock
 436              	.LVL45:
 437              		.loc 1 73 0
 438 001a 344C     		ldr	r4, .L114+4
 439 001c 8021     		mov	r1, #128
 440              		.loc 1 75 0
 441 001e 2368     		ldr	r3, [r4]
 442              		.loc 1 73 0
 443 0020 8800     		lsl	r0, r1, #2
 444 0022 2218     		add	r2, r4, r0
 445              		.loc 1 75 0
 446 0024 B342     		cmp	r3, r6
 447 0026 4DD0     		beq	.L109
 448              		.loc 1 83 0
 449 0028 251C     		mov	r5, r4
 450 002a 002B     		cmp	r3, #0
 451 002c 00D0     		beq	.L75
 452              	.L78:
ARM GAS  /tmp/cclC07rx.s 			page 9


 453              		.loc 1 73 0
 454 002e 0025     		mov	r5, #0
 455              	.L75:
 456              	.LVL46:
 457 0030 231C     		mov	r3, r4
 458 0032 1033     		add	r3, r3, #16
 459 0034 1C1C     		mov	r4, r3
 460              	.LVL47:
 461 0036 9A42     		cmp	r2, r3
 462 0038 1CD9     		bls	.L103
 463              		.loc 1 75 0
 464 003a 1968     		ldr	r1, [r3]
 465 003c B142     		cmp	r1, r6
 466 003e 29D0     		beq	.L101
 467              		.loc 1 83 0
 468 0040 002D     		cmp	r5, #0
 469 0042 39D0     		beq	.L110
 470              	.LVL48:
 471              	.L87:
 472              		.loc 1 73 0
 473 0044 1C1C     		mov	r4, r3
 474 0046 1034     		add	r4, r4, #16
 475              	.LVL49:
 476 0048 9442     		cmp	r4, r2
 477 004a 13D2     		bcs	.L103
 478              	.L63:
 479              		.loc 1 75 0
 480 004c 2368     		ldr	r3, [r4]
 481 004e B342     		cmp	r3, r6
 482 0050 27D0     		beq	.L111
 483              		.loc 1 83 0
 484 0052 002D     		cmp	r5, #0
 485 0054 2CD0     		beq	.L112
 486              	.LVL50:
 487              	.L62:
 488              		.loc 1 73 0
 489 0056 231C     		mov	r3, r4
 490 0058 1033     		add	r3, r3, #16
 491              		.loc 1 75 0
 492 005a 1868     		ldr	r0, [r3]
 493              		.loc 1 73 0
 494 005c 1C1C     		mov	r4, r3
 495              	.LVL51:
 496              		.loc 1 75 0
 497 005e B042     		cmp	r0, r6
 498 0060 18D0     		beq	.L101
 499              		.loc 1 83 0
 500 0062 002D     		cmp	r5, #0
 501 0064 EED1     		bne	.L87
 502 0066 0028     		cmp	r0, #0
 503 0068 28D0     		beq	.L105
 504              	.L90:
 505              		.loc 1 73 0
 506 006a 0025     		mov	r5, #0
 507              	.LVL52:
 508              	.L113:
 509 006c 1C1C     		mov	r4, r3
ARM GAS  /tmp/cclC07rx.s 			page 10


 510 006e 1034     		add	r4, r4, #16
 511              	.LVL53:
 512 0070 9442     		cmp	r4, r2
 513 0072 EBD3     		bcc	.L63
 514              	.L103:
 515              		.loc 1 88 0
 516 0074 002D     		cmp	r5, #0
 517 0076 05D0     		beq	.L64
 518              		.loc 1 89 0
 519 0078 2E60     		str	r6, [r5]
 520              		.loc 1 90 0
 521 007a 6F60     		str	r7, [r5, #4]
 522              		.loc 1 91 0
 523 007c 4646     		mov	r6, r8
 524              	.LVL54:
 525              		.loc 1 92 0
 526 007e 0027     		mov	r7, #0
 527              	.LVL55:
 528              		.loc 1 91 0
 529 0080 AE60     		str	r6, [r5, #8]
 530              		.loc 1 92 0
 531 0082 EF60     		str	r7, [r5, #12]
 532              	.LVL56:
 533              	.L64:
 534              		.loc 1 94 0
 535 0084 FFF7FEFF 		bl	chMtxUnlock
 536              	.LVL57:
 537              		.loc 1 96 0
 538 0088 281C     		mov	r0, r5
 539 008a 451E     		sub	r5, r0, #1
 540 008c A841     		sbc	r0, r0, r5
 541              	.LVL58:
 542              	.L100:
 543              		.loc 1 97 0
 544              		@ sp needed for prologue
 545              	.LVL59:
 546 008e 04BC     		pop	{r2}
 547 0090 9046     		mov	r8, r2
 548 0092 F0BD     		pop	{r4, r5, r6, r7, pc}
 549              	.LVL60:
 550              	.L101:
 551              		.loc 1 75 0
 552 0094 5868     		ldr	r0, [r3, #4]
 553 0096 B842     		cmp	r0, r7
 554 0098 17D0     		beq	.L102
 555              		.loc 1 83 0
 556 009a 002D     		cmp	r5, #0
 557 009c D2D1     		bne	.L87
 558              		.loc 1 73 0
 559 009e 0025     		mov	r5, #0
 560              	.LVL61:
 561 00a0 E4E7     		b	.L113
 562              	.LVL62:
 563              	.L111:
 564              		.loc 1 75 0 discriminator 1
 565 00a2 6168     		ldr	r1, [r4, #4]
 566 00a4 B942     		cmp	r1, r7
ARM GAS  /tmp/cclC07rx.s 			page 11


 567 00a6 10D0     		beq	.L102
 568              		.loc 1 83 0
 569 00a8 002D     		cmp	r5, #0
 570 00aa D4D1     		bne	.L62
 571              	.L65:
 572              		.loc 1 73 0
 573 00ac 0025     		mov	r5, #0
 574              	.LVL63:
 575 00ae D2E7     		b	.L62
 576              	.LVL64:
 577              	.L112:
 578              		.loc 1 83 0 discriminator 1
 579 00b0 002B     		cmp	r3, #0
 580 00b2 FBD1     		bne	.L65
 581              		.loc 1 83 0 is_stmt 0
 582 00b4 251C     		mov	r5, r4
 583              	.LVL65:
 584 00b6 CEE7     		b	.L62
 585              	.LVL66:
 586              	.L110:
 587 00b8 0029     		cmp	r1, #0
 588 00ba D6D1     		bne	.L90
 589              	.L105:
 590 00bc 251C     		mov	r5, r4
 591              	.LVL67:
 592 00be C1E7     		b	.L87
 593              	.LVL68:
 594              	.L67:
 595              		.loc 1 66 0 is_stmt 1
 596 00c0 0020     		mov	r0, #0
 597              	.LVL69:
 598 00c2 E4E7     		b	.L100
 599              	.LVL70:
 600              	.L109:
 601              		.loc 1 75 0
 602 00c4 6568     		ldr	r5, [r4, #4]
 603 00c6 BD42     		cmp	r5, r7
 604 00c8 B1D1     		bne	.L78
 605              	.LVL71:
 606              	.L102:
 607              		.loc 1 77 0
 608 00ca 0122     		mov	r2, #1
 609 00cc 1036     		add	r6, r6, #16
 610              	.LVL72:
 611 00ce 5142     		neg	r1, r2
 612 00d0 301C     		mov	r0, r6
 613              		.loc 1 78 0
 614 00d2 4746     		mov	r7, r8
 615              	.LVL73:
 616              		.loc 1 77 0
 617 00d4 FFF7FEFF 		bl	gfxSemWait
 618              	.LVL74:
 619              		.loc 1 79 0
 620 00d8 301C     		mov	r0, r6
 621              		.loc 1 78 0
 622 00da A760     		str	r7, [r4, #8]
 623              		.loc 1 79 0
ARM GAS  /tmp/cclC07rx.s 			page 12


 624 00dc FFF7FEFF 		bl	gfxSemSignal
 625              	.LVL75:
 626              		.loc 1 80 0
 627 00e0 FFF7FEFF 		bl	chMtxUnlock
 628              	.LVL76:
 629              		.loc 1 81 0
 630 00e4 0120     		mov	r0, #1
 631 00e6 D2E7     		b	.L100
 632              	.L115:
 633              		.align	2
 634              	.L114:
 635 00e8 00000000 		.word	.LANCHOR1
 636 00ec 00000000 		.word	.LANCHOR0
 637              		.cfi_endproc
 638              	.LFE43:
 639              		.size	geventAttachSource, .-geventAttachSource
 640              		.section	.text.geventDetachSource,"ax",%progbits
 641              		.align	2
 642              		.p2align 4,,15
 643              		.global	geventDetachSource
 644              		.code	16
 645              		.thumb_func
 646              		.type	geventDetachSource, %function
 647              	geventDetachSource:
 648              	.LFB44:
 649              		.loc 1 99 0
 650              		.cfi_startproc
 651              	.LVL77:
 652 0000 38B5     		push	{r3, r4, r5, lr}
 653              	.LCFI6:
 654              		.cfi_def_cfa_offset 16
 655              		.cfi_offset 3, -16
 656              		.cfi_offset 4, -12
 657              		.cfi_offset 5, -8
 658              		.cfi_offset 14, -4
 659              		.loc 1 99 0
 660 0002 041C     		mov	r4, r0
 661 0004 0D1C     		mov	r5, r1
 662              		.loc 1 100 0
 663 0006 0028     		cmp	r0, #0
 664 0008 0AD0     		beq	.L116
 665              		.loc 1 101 0
 666 000a 0F48     		ldr	r0, .L123
 667              	.LVL78:
 668 000c FFF7FEFF 		bl	chMtxLock
 669              	.LVL79:
 670              		.loc 1 102 0
 671 0010 201C     		mov	r0, r4
 672 0012 291C     		mov	r1, r5
 673 0014 FFF7FEFF 		bl	deleteAssignments
 674              	.LVL80:
 675              		.loc 1 103 0
 676 0018 002D     		cmp	r5, #0
 677 001a 02D0     		beq	.L122
 678              	.LVL81:
 679              	.L118:
 680              		.loc 1 109 0
ARM GAS  /tmp/cclC07rx.s 			page 13


 681 001c FFF7FEFF 		bl	chMtxUnlock
 682              	.LVL82:
 683              	.L116:
 684              		.loc 1 111 0
 685              		@ sp needed for prologue
 686              	.LVL83:
 687 0020 38BD     		pop	{r3, r4, r5, pc}
 688              	.LVL84:
 689              	.L122:
 690              		.loc 1 103 0 discriminator 1
 691 0022 A368     		ldr	r3, [r4, #8]
 692 0024 002B     		cmp	r3, #0
 693 0026 F9DA     		bge	.L118
 694              		.loc 1 104 0
 695 0028 251C     		mov	r5, r4
 696              	.LVL85:
 697 002a 1035     		add	r5, r5, #16
 698 002c 0121     		mov	r1, #1
 699 002e 4942     		neg	r1, r1
 700 0030 281C     		mov	r0, r5
 701 0032 FFF7FEFF 		bl	gfxSemWait
 702              	.LVL86:
 703              		.loc 1 105 0
 704 0036 0120     		mov	r0, #1
 705 0038 2085     		strh	r0, [r4, #40]
 706              		.loc 1 106 0
 707 003a 201C     		mov	r0, r4
 708 003c FFF7FEFF 		bl	gfxSemSignal
 709              	.LVL87:
 710              		.loc 1 107 0
 711 0040 281C     		mov	r0, r5
 712 0042 FFF7FEFF 		bl	gfxSemSignal
 713              	.LVL88:
 714 0046 E9E7     		b	.L118
 715              	.L124:
 716              		.align	2
 717              	.L123:
 718 0048 00000000 		.word	.LANCHOR1
 719              		.cfi_endproc
 720              	.LFE44:
 721              		.size	geventDetachSource, .-geventDetachSource
 722 004c C046C046 		.section	.text.geventEventWait,"ax",%progbits
 723              		.align	2
 724              		.p2align 4,,15
 725              		.global	geventEventWait
 726              		.code	16
 727              		.thumb_func
 728              		.type	geventEventWait, %function
 729              	geventEventWait:
 730              	.LFB45:
 731              		.loc 1 113 0
 732              		.cfi_startproc
 733              	.LVL89:
 734              		.loc 1 114 0
 735 0000 036A     		ldr	r3, [r0, #32]
 736              		.loc 1 113 0
 737 0002 10B5     		push	{r4, lr}
ARM GAS  /tmp/cclC07rx.s 			page 14


 738              	.LCFI7:
 739              		.cfi_def_cfa_offset 8
 740              		.cfi_offset 4, -8
 741              		.cfi_offset 14, -4
 742              		.loc 1 113 0
 743 0004 041C     		mov	r4, r0
 744              		.loc 1 114 0
 745 0006 002B     		cmp	r3, #0
 746 0008 07D1     		bne	.L128
 747              		.loc 1 114 0 is_stmt 0 discriminator 1
 748 000a 8068     		ldr	r0, [r0, #8]
 749              	.LVL90:
 750 000c 0028     		cmp	r0, #0
 751 000e 04DB     		blt	.L128
 752              		.loc 1 116 0 is_stmt 1
 753 0010 201C     		mov	r0, r4
 754 0012 FFF7FEFF 		bl	gfxSemWait
 755              	.LVL91:
 756 0016 0028     		cmp	r0, #0
 757 0018 01D1     		bne	.L132
 758              	.L128:
 759              		.loc 1 115 0
 760 001a 0020     		mov	r0, #0
 761              	.L127:
 762              		.loc 1 117 0
 763              		@ sp needed for prologue
 764              	.LVL92:
 765 001c 10BD     		pop	{r4, pc}
 766              	.LVL93:
 767              	.L132:
 768              		.loc 1 116 0 discriminator 1
 769 001e 201C     		mov	r0, r4
 770 0020 2830     		add	r0, r0, #40
 771 0022 FBE7     		b	.L127
 772              		.cfi_endproc
 773              	.LFE45:
 774              		.size	geventEventWait, .-geventEventWait
 775 0024 C046C046 		.section	.text.geventRegisterCallback,"ax",%progbits
 775      C046C046 
 775      C046C046 
 776              		.align	2
 777              		.p2align 4,,15
 778              		.global	geventRegisterCallback
 779              		.code	16
 780              		.thumb_func
 781              		.type	geventRegisterCallback, %function
 782              	geventRegisterCallback:
 783              	.LFB46:
 784              		.loc 1 119 0
 785              		.cfi_startproc
 786              	.LVL94:
 787 0000 F8B5     		push	{r3, r4, r5, r6, r7, lr}
 788              	.LCFI8:
 789              		.cfi_def_cfa_offset 24
 790              		.cfi_offset 3, -24
 791              		.cfi_offset 4, -20
 792              		.cfi_offset 5, -16
ARM GAS  /tmp/cclC07rx.s 			page 15


 793              		.cfi_offset 6, -12
 794              		.cfi_offset 7, -8
 795              		.cfi_offset 14, -4
 796              		.loc 1 119 0
 797 0002 041C     		mov	r4, r0
 798 0004 0E1C     		mov	r6, r1
 799 0006 171C     		mov	r7, r2
 800              		.loc 1 120 0
 801 0008 0028     		cmp	r0, #0
 802 000a 13D0     		beq	.L133
 803              		.loc 1 121 0
 804 000c 0D48     		ldr	r0, .L140
 805              	.LVL95:
 806              		.loc 1 122 0
 807 000e 251C     		mov	r5, r4
 808              		.loc 1 121 0
 809 0010 FFF7FEFF 		bl	chMtxLock
 810              	.LVL96:
 811              		.loc 1 122 0
 812 0014 1035     		add	r5, r5, #16
 813 0016 0121     		mov	r1, #1
 814 0018 281C     		mov	r0, r5
 815 001a 4942     		neg	r1, r1
 816 001c FFF7FEFF 		bl	gfxSemWait
 817              	.LVL97:
 818              		.loc 1 125 0
 819 0020 A368     		ldr	r3, [r4, #8]
 820              		.loc 1 123 0
 821 0022 6762     		str	r7, [r4, #36]
 822              		.loc 1 124 0
 823 0024 2662     		str	r6, [r4, #32]
 824              		.loc 1 125 0
 825 0026 002B     		cmp	r3, #0
 826 0028 05DB     		blt	.L139
 827              	.L135:
 828              		.loc 1 129 0
 829 002a 281C     		mov	r0, r5
 830 002c FFF7FEFF 		bl	gfxSemSignal
 831              	.LVL98:
 832              		.loc 1 130 0
 833 0030 FFF7FEFF 		bl	chMtxUnlock
 834              	.LVL99:
 835              	.L133:
 836              		.loc 1 132 0
 837              		@ sp needed for prologue
 838              	.LVL100:
 839              	.LVL101:
 840              	.LVL102:
 841 0034 F8BD     		pop	{r3, r4, r5, r6, r7, pc}
 842              	.LVL103:
 843              	.L139:
 844              		.loc 1 126 0
 845 0036 0120     		mov	r0, #1
 846 0038 2085     		strh	r0, [r4, #40]
 847              		.loc 1 127 0
 848 003a 201C     		mov	r0, r4
 849 003c FFF7FEFF 		bl	gfxSemSignal
ARM GAS  /tmp/cclC07rx.s 			page 16


 850              	.LVL104:
 851 0040 F3E7     		b	.L135
 852              	.L141:
 853 0042 C046     		.align	2
 854              	.L140:
 855 0044 00000000 		.word	.LANCHOR1
 856              		.cfi_endproc
 857              	.LFE46:
 858              		.size	geventRegisterCallback, .-geventRegisterCallback
 859 0048 C046C046 		.section	.text.geventGetSourceListener,"ax",%progbits
 859      C046C046 
 860              		.align	2
 861              		.p2align 4,,15
 862              		.global	geventGetSourceListener
 863              		.code	16
 864              		.thumb_func
 865              		.type	geventGetSourceListener, %function
 866              	geventGetSourceListener:
 867              	.LFB47:
 868              		.loc 1 134 0
 869              		.cfi_startproc
 870              	.LVL105:
 871 0000 38B5     		push	{r3, r4, r5, lr}
 872              	.LCFI9:
 873              		.cfi_def_cfa_offset 16
 874              		.cfi_offset 3, -16
 875              		.cfi_offset 4, -12
 876              		.cfi_offset 5, -8
 877              		.cfi_offset 14, -4
 878              		.loc 1 134 0
 879 0002 051C     		mov	r5, r0
 880 0004 0C1C     		mov	r4, r1
 881              		.loc 1 138 0
 882 0006 0028     		cmp	r0, #0
 883 0008 3AD0     		beq	.L150
 884              		.loc 1 141 0
 885 000a 1E48     		ldr	r0, .L163
 886              	.LVL106:
 887 000c FFF7FEFF 		bl	chMtxLock
 888              	.LVL107:
 889              		.loc 1 144 0
 890 0010 002C     		cmp	r4, #0
 891 0012 32D0     		beq	.L151
 892              		.loc 1 145 0
 893 0014 2068     		ldr	r0, [r4]
 894              		.loc 1 148 0
 895 0016 1034     		add	r4, r4, #16
 896              	.LVL108:
 897              		.loc 1 145 0
 898 0018 1030     		add	r0, r0, #16
 899 001a FFF7FEFF 		bl	gfxSemSignal
 900              	.LVL109:
 901              		.loc 1 148 0
 902 001e 1A4B     		ldr	r3, .L163+4
 903 0020 8021     		mov	r1, #128
 904 0022 8800     		lsl	r0, r1, #2
 905 0024 1A18     		add	r2, r3, r0
ARM GAS  /tmp/cclC07rx.s 			page 17


 906 0026 9442     		cmp	r4, r2
 907 0028 22D2     		bcs	.L149
 908              	.LVL110:
 909              	.L144:
 910              		.loc 1 149 0
 911 002a 6168     		ldr	r1, [r4, #4]
 912 002c A942     		cmp	r1, r5
 913 002e 0CD0     		beq	.L145
 914              		.loc 1 148 0
 915 0030 8020     		mov	r0, #128
 916 0032 8200     		lsl	r2, r0, #2
 917 0034 9B18     		add	r3, r3, r2
 918 0036 E143     		mvn	r1, r4
 919 0038 5818     		add	r0, r3, r1
 920 003a C106     		lsl	r1, r0, #27
 921 003c 15D5     		bpl	.L152
 922 003e 1034     		add	r4, r4, #16
 923              	.LVL111:
 924 0040 9C42     		cmp	r4, r3
 925 0042 15D2     		bcs	.L149
 926              		.loc 1 149 0
 927 0044 6268     		ldr	r2, [r4, #4]
 928 0046 AA42     		cmp	r2, r5
 929 0048 0FD1     		bne	.L152
 930              	.LVL112:
 931              	.L145:
 932              		.loc 1 150 0
 933 004a 2068     		ldr	r0, [r4]
 934 004c 0125     		mov	r5, #1
 935              	.LVL113:
 936 004e 6942     		neg	r1, r5
 937 0050 1030     		add	r0, r0, #16
 938 0052 FFF7FEFF 		bl	gfxSemWait
 939              	.LVL114:
 940              		.loc 1 151 0
 941 0056 FFF7FEFF 		bl	chMtxUnlock
 942              	.LVL115:
 943              		.loc 1 152 0
 944 005a 0CE0     		b	.L143
 945              	.LVL116:
 946              	.L148:
 947              		.loc 1 149 0
 948 005c 6168     		ldr	r1, [r4, #4]
 949 005e A942     		cmp	r1, r5
 950 0060 F3D0     		beq	.L145
 951              		.loc 1 148 0
 952 0062 1034     		add	r4, r4, #16
 953              	.LVL117:
 954              		.loc 1 149 0
 955 0064 6068     		ldr	r0, [r4, #4]
 956 0066 A842     		cmp	r0, r5
 957 0068 EFD0     		beq	.L145
 958              	.LVL118:
 959              	.L152:
 960              		.loc 1 148 0
 961 006a 1034     		add	r4, r4, #16
 962              	.LVL119:
ARM GAS  /tmp/cclC07rx.s 			page 18


 963 006c A342     		cmp	r3, r4
 964 006e F5D8     		bhi	.L148
 965              	.L149:
 966              		.loc 1 155 0
 967 0070 FFF7FEFF 		bl	chMtxUnlock
 968              	.LVL120:
 969              		.loc 1 156 0
 970 0074 0024     		mov	r4, #0
 971              	.LVL121:
 972              	.L143:
 973              		.loc 1 157 0
 974 0076 201C     		mov	r0, r4
 975              		@ sp needed for prologue
 976 0078 38BD     		pop	{r3, r4, r5, pc}
 977              	.LVL122:
 978              	.L151:
 979              		.loc 1 148 0
 980 007a 034B     		ldr	r3, .L163+4
 981 007c 1C1C     		mov	r4, r3
 982              	.LVL123:
 983 007e D4E7     		b	.L144
 984              	.LVL124:
 985              	.L150:
 986              		.loc 1 139 0
 987 0080 0024     		mov	r4, #0
 988 0082 F8E7     		b	.L143
 989              	.L164:
 990              		.align	2
 991              	.L163:
 992 0084 00000000 		.word	.LANCHOR1
 993 0088 00000000 		.word	.LANCHOR0
 994              		.cfi_endproc
 995              	.LFE47:
 996              		.size	geventGetSourceListener, .-geventGetSourceListener
 997 008c C046C046 		.section	.text.geventGetEventBuffer,"ax",%progbits
 998              		.align	2
 999              		.p2align 4,,15
 1000              		.global	geventGetEventBuffer
 1001              		.code	16
 1002              		.thumb_func
 1003              		.type	geventGetEventBuffer, %function
 1004              	geventGetEventBuffer:
 1005              	.LFB48:
 1006              		.loc 1 159 0
 1007              		.cfi_startproc
 1008              	.LVL125:
 1009              		.loc 1 161 0
 1010 0000 0068     		ldr	r0, [r0]
 1011              	.LVL126:
 1012 0002 031C     		mov	r3, r0
 1013 0004 2033     		add	r3, r3, #32
 1014 0006 01D0     		beq	.L169
 1015              	.L166:
 1016              		.loc 1 161 0 is_stmt 0 discriminator 1
 1017 0008 2830     		add	r0, r0, #40
 1018              	.L167:
 1019              		.loc 1 162 0 is_stmt 1 discriminator 3
ARM GAS  /tmp/cclC07rx.s 			page 19


 1020              		@ sp needed for prologue
 1021 000a 7047     		bx	lr
 1022              	.L169:
 1023              		.loc 1 161 0 discriminator 2
 1024 000c 8168     		ldr	r1, [r0, #8]
 1025 000e 0029     		cmp	r1, #0
 1026 0010 FADB     		blt	.L166
 1027              		.loc 1 161 0 is_stmt 0
 1028 0012 0020     		mov	r0, #0
 1029 0014 F9E7     		b	.L167
 1030              		.cfi_endproc
 1031              	.LFE48:
 1032              		.size	geventGetEventBuffer, .-geventGetEventBuffer
 1033 0016 C046C046 		.section	.text.geventSendEvent,"ax",%progbits
 1033      C046C046 
 1033      C046
 1034              		.align	2
 1035              		.p2align 4,,15
 1036              		.global	geventSendEvent
 1037              		.code	16
 1038              		.thumb_func
 1039              		.type	geventSendEvent, %function
 1040              	geventSendEvent:
 1041              	.LFB49:
 1042              		.loc 1 164 0 is_stmt 1
 1043              		.cfi_startproc
 1044              	.LVL127:
 1045 0000 10B5     		push	{r4, lr}
 1046              	.LCFI10:
 1047              		.cfi_def_cfa_offset 8
 1048              		.cfi_offset 4, -8
 1049              		.cfi_offset 14, -4
 1050              		.loc 1 164 0
 1051 0002 041C     		mov	r4, r0
 1052              		.loc 1 165 0
 1053 0004 0C48     		ldr	r0, .L175
 1054              	.LVL128:
 1055 0006 FFF7FEFF 		bl	chMtxLock
 1056              	.LVL129:
 1057              		.loc 1 166 0
 1058 000a 2068     		ldr	r0, [r4]
 1059 000c 036A     		ldr	r3, [r0, #32]
 1060 000e 002B     		cmp	r3, #0
 1061 0010 08D0     		beq	.L171
 1062              		.loc 1 167 0
 1063 0012 FFF7FEFF 		bl	chMtxUnlock
 1064              	.LVL130:
 1065              		.loc 1 169 0
 1066 0016 2268     		ldr	r2, [r4]
 1067 0018 111C     		mov	r1, r2
 1068 001a 506A     		ldr	r0, [r2, #36]
 1069 001c 2831     		add	r1, r1, #40
 1070 001e 146A     		ldr	r4, [r2, #32]
 1071              	.LVL131:
 1072 0020 A047     		blx	r4
 1073              	.LVL132:
 1074              	.L170:
ARM GAS  /tmp/cclC07rx.s 			page 20


 1075              		.loc 1 177 0
 1076              		@ sp needed for prologue
 1077 0022 10BD     		pop	{r4, pc}
 1078              	.LVL133:
 1079              	.L171:
 1080              		.loc 1 173 0
 1081 0024 8168     		ldr	r1, [r0, #8]
 1082 0026 0029     		cmp	r1, #0
 1083 0028 02DD     		ble	.L174
 1084              	.L173:
 1085              		.loc 1 175 0
 1086 002a FFF7FEFF 		bl	chMtxUnlock
 1087              	.LVL134:
 1088 002e F8E7     		b	.L170
 1089              	.L174:
 1090              		.loc 1 174 0
 1091 0030 FFF7FEFF 		bl	gfxSemSignal
 1092              	.LVL135:
 1093 0034 F9E7     		b	.L173
 1094              	.L176:
 1095 0036 C046     		.align	2
 1096              	.L175:
 1097 0038 00000000 		.word	.LANCHOR1
 1098              		.cfi_endproc
 1099              	.LFE49:
 1100              		.size	geventSendEvent, .-geventSendEvent
 1101 003c C046C046 		.section	.text.geventDetachSourceListeners,"ax",%progbits
 1102              		.align	2
 1103              		.p2align 4,,15
 1104              		.global	geventDetachSourceListeners
 1105              		.code	16
 1106              		.thumb_func
 1107              		.type	geventDetachSourceListeners, %function
 1108              	geventDetachSourceListeners:
 1109              	.LFB50:
 1110              		.loc 1 179 0
 1111              		.cfi_startproc
 1112              	.LVL136:
 1113 0000 10B5     		push	{r4, lr}
 1114              	.LCFI11:
 1115              		.cfi_def_cfa_offset 8
 1116              		.cfi_offset 4, -8
 1117              		.cfi_offset 14, -4
 1118              		.loc 1 179 0
 1119 0002 041C     		mov	r4, r0
 1120              		.loc 1 180 0
 1121 0004 0448     		ldr	r0, .L178
 1122              	.LVL137:
 1123 0006 FFF7FEFF 		bl	chMtxLock
 1124              	.LVL138:
 1125              		.loc 1 181 0
 1126 000a 211C     		mov	r1, r4
 1127 000c 0020     		mov	r0, #0
 1128 000e FFF7FEFF 		bl	deleteAssignments
 1129              	.LVL139:
 1130              		.loc 1 183 0
 1131              		@ sp needed for prologue
ARM GAS  /tmp/cclC07rx.s 			page 21


 1132              		.loc 1 182 0
 1133 0012 FFF7FEFF 		bl	chMtxUnlock
 1134              	.LVL140:
 1135              	.LVL141:
 1136              		.loc 1 183 0
 1137 0016 10BD     		pop	{r4, pc}
 1138              	.L179:
 1139              		.align	2
 1140              	.L178:
 1141 0018 00000000 		.word	.LANCHOR1
 1142              		.cfi_endproc
 1143              	.LFE50:
 1144              		.size	geventDetachSourceListeners, .-geventDetachSourceListeners
 1145 001c C046C046 		.section	.bss.Assignments,"aw",%nobits
 1146              		.align	2
 1147              		.set	.LANCHOR0,. + 0
 1148              		.type	Assignments, %object
 1149              		.size	Assignments, 512
 1150              	Assignments:
 1151 0000 00000000 		.space	512
 1151      00000000 
 1151      00000000 
 1151      00000000 
 1151      00000000 
 1152              		.section	.bss.geventMutex,"aw",%nobits
 1153              		.align	2
 1154              		.set	.LANCHOR1,. + 0
 1155              		.type	geventMutex, %object
 1156              		.size	geventMutex, 16
 1157              	geventMutex:
 1158 0000 00000000 		.space	16
 1158      00000000 
 1158      00000000 
 1158      00000000 
 1159              		.text
 1160              	.Letext0:
 1161              		.file 2 "/home/matt/arm_cortex/gcc-arm-none-eabi/bin/../lib/gcc/arm-none-eabi/4.7.4/../../../../ar
 1162              		.file 3 "/home/matt/arm_cortex/ChibiOS/os/ports/GCC/ARMCMx/chtypes.h"
 1163              		.file 4 "/home/matt/arm_cortex/ChibiOS/os/kernel/include/chlists.h"
 1164              		.file 5 "/home/matt/arm_cortex/ChibiOS/os/kernel/include/chthreads.h"
 1165              		.file 6 "/home/matt/arm_cortex/ChibiOS/os/ports/GCC/ARMCMx/chcore_v6m.h"
 1166              		.file 7 "/home/matt/arm_cortex/ChibiOS/os/kernel/include/chsem.h"
 1167              		.file 8 "/home/matt/arm_cortex/ChibiOS/os/kernel/include/chmtx.h"
 1168              		.file 9 "/home/matt/arm_cortex/ChibiOS/ext/ugfx/include/gos/chibios.h"
 1169              		.file 10 "/home/matt/arm_cortex/ChibiOS/ext/ugfx/include/gevent/gevent.h"