ARM GAS  /tmp/ccWGpzPx.s 			page 1


   1              		.cpu cortex-m0
   2              		.fpu softvfp
   3              		.eabi_attribute 20, 1
   4              		.eabi_attribute 21, 1
   5              		.eabi_attribute 23, 3
   6              		.eabi_attribute 24, 1
   7              		.eabi_attribute 25, 1
   8              		.eabi_attribute 26, 1
   9              		.eabi_attribute 30, 2
  10              		.eabi_attribute 34, 0
  11              		.eabi_attribute 18, 4
  12              		.code	16
  13              		.file	"gfx.c"
  14              		.text
  15              	.Ltext0:
  16              		.cfi_sections	.debug_frame
  17              		.section	.text.gfxInit,"ax",%progbits
  18              		.align	2
  19              		.p2align 4,,15
  20              		.global	gfxInit
  21              		.code	16
  22              		.thumb_func
  23              		.type	gfxInit, %function
  24              	gfxInit:
  25              	.LFB41:
  26              		.file 1 "/home/matt/arm_cortex/ChibiOS/ext/ugfx/src/gfx.c"
  27              		.loc 1 53 0
  28              		.cfi_startproc
  29 0000 08B5     		push	{r3, lr}
  30              	.LCFI0:
  31              		.cfi_def_cfa_offset 8
  32              		.cfi_offset 3, -8
  33              		.cfi_offset 14, -4
  34              		.loc 1 57 0
  35 0002 0B4B     		ldr	r3, .L4
  36 0004 1A78     		ldrb	r2, [r3]
  37 0006 002A     		cmp	r2, #0
  38 0008 10D1     		bne	.L1
  39              		.loc 1 59 0
  40 000a 0120     		mov	r0, #1
  41 000c 1870     		strb	r0, [r3]
  42              		.loc 1 62 0
  43 000e FFF7FEFF 		bl	_gosInit
  44              	.LVL0:
  45              		.loc 1 67 0
  46 0012 FFF7FEFF 		bl	_geventInit
  47              	.LVL1:
  48              		.loc 1 70 0
  49 0016 FFF7FEFF 		bl	_gtimerInit
  50              	.LVL2:
  51              		.loc 1 73 0
  52 001a FFF7FEFF 		bl	_gdispInit
  53              	.LVL3:
  54              		.loc 1 74 0
  55 001e 0020     		mov	r0, #0
  56 0020 FFF7FEFF 		bl	gdisp_lld_clear
  57              	.LVL4:
ARM GAS  /tmp/ccWGpzPx.s 			page 2


  58              		.loc 1 77 0
  59 0024 FFF7FEFF 		bl	_gwinInit
  60              	.LVL5:
  61              		.loc 1 80 0
  62 0028 FFF7FEFF 		bl	_ginputInit
  63              	.LVL6:
  64              	.L1:
  65              		.loc 1 96 0
  66              		@ sp needed for prologue
  67 002c 08BD     		pop	{r3, pc}
  68              	.L5:
  69 002e C046     		.align	2
  70              	.L4:
  71 0030 00000000 		.word	.LANCHOR0
  72              		.cfi_endproc
  73              	.LFE41:
  74              		.size	gfxInit, .-gfxInit
  75 0034 C046C046 		.section	.text.gdispInit,"ax",%progbits
  75      C046C046 
  75      C046C046 
  76              		.align	2
  77              		.p2align 4,,15
  78              		.global	gdispInit
  79              		.code	16
  80              		.thumb_func
  81              		.type	gdispInit, %function
  82              	gdispInit:
  83              	.LFB40:
  84              		.loc 1 18 0
  85              		.cfi_startproc
  86 0000 08B5     		push	{r3, lr}
  87              	.LCFI1:
  88              		.cfi_def_cfa_offset 8
  89              		.cfi_offset 3, -8
  90              		.cfi_offset 14, -4
  91              		.loc 1 18 0
  92 0002 FFF7FEFF 		bl	gfxInit
  93              	.LVL7:
  94              		@ sp needed for prologue
  95 0006 08BD     		pop	{r3, pc}
  96              		.cfi_endproc
  97              	.LFE40:
  98              		.size	gdispInit, .-gdispInit
  99 0008 C046C046 		.section	.bss.initDone.6037,"aw",%nobits
  99      C046C046 
 100              		.set	.LANCHOR0,. + 0
 101              		.type	initDone.6037, %object
 102              		.size	initDone.6037, 1
 103              	initDone.6037:
 104 0000 00       		.space	1
 105              		.text
 106              	.Letext0:
 107              		.file 2 "/home/matt/arm_cortex/gcc-arm-none-eabi/bin/../lib/gcc/arm-none-eabi/4.7.4/../../../../ar
 108              		.file 3 "/home/matt/arm_cortex/ChibiOS/os/ports/GCC/ARMCMx/chtypes.h"
 109              		.file 4 "/home/matt/arm_cortex/ChibiOS/ext/ugfx/include/gdisp/gdisp.h"
 110              		.file 5 "/home/matt/arm_cortex/ChibiOS/ext/ugfx/include/gdisp/lld/gdisp_lld.h"
 111              		.section	.debug_info,"",%progbits
ARM GAS  /tmp/ccWGpzPx.s 			page 3


 112              	.Ldebug_info0:
 113 0000 87010000 		.4byte	0x187
 114 0004 0200     		.2byte	0x2
 115 0006 00000000 		.4byte	.Ldebug_abbrev0
 116 000a 04       		.byte	0x4
 117 000b 01       		.uleb128 0x1
 118 000c 35010000 		.4byte	.LASF23
 119 0010 01       		.byte	0x1
 120 0011 1B000000 		.4byte	.LASF24
 121 0015 00000000 		.4byte	.Ldebug_ranges0+0
 122 0019 00000000 		.4byte	0
 123 001d 00000000 		.4byte	0
 124 0021 00000000 		.4byte	.Ldebug_line0
 125 0025 02       		.uleb128 0x2
 126 0026 04       		.byte	0x4
 127 0027 05       		.byte	0x5
 128 0028 696E7400 		.ascii	"int\000"
 129 002c 03       		.uleb128 0x3
 130 002d 04       		.byte	0x4
 131 002e 07       		.byte	0x7
 132 002f 0E000000 		.4byte	.LASF0
 133 0033 03       		.uleb128 0x3
 134 0034 01       		.byte	0x1
 135 0035 06       		.byte	0x6
 136 0036 4C000000 		.4byte	.LASF1
 137 003a 03       		.uleb128 0x3
 138 003b 01       		.byte	0x1
 139 003c 08       		.byte	0x8
 140 003d 9F000000 		.4byte	.LASF2
 141 0041 03       		.uleb128 0x3
 142 0042 02       		.byte	0x2
 143 0043 05       		.byte	0x5
 144 0044 23010000 		.4byte	.LASF3
 145 0048 04       		.uleb128 0x4
 146 0049 0F010000 		.4byte	.LASF9
 147 004d 02       		.byte	0x2
 148 004e 36       		.byte	0x36
 149 004f 53000000 		.4byte	0x53
 150 0053 03       		.uleb128 0x3
 151 0054 02       		.byte	0x2
 152 0055 07       		.byte	0x7
 153 0056 ED000000 		.4byte	.LASF4
 154 005a 03       		.uleb128 0x3
 155 005b 04       		.byte	0x4
 156 005c 05       		.byte	0x5
 157 005d CE000000 		.4byte	.LASF5
 158 0061 03       		.uleb128 0x3
 159 0062 04       		.byte	0x4
 160 0063 07       		.byte	0x7
 161 0064 58000000 		.4byte	.LASF6
 162 0068 03       		.uleb128 0x3
 163 0069 08       		.byte	0x8
 164 006a 05       		.byte	0x5
 165 006b 00000000 		.4byte	.LASF7
 166 006f 03       		.uleb128 0x3
 167 0070 08       		.byte	0x8
 168 0071 07       		.byte	0x7
ARM GAS  /tmp/ccWGpzPx.s 			page 4


 169 0072 6A000000 		.4byte	.LASF8
 170 0076 04       		.uleb128 0x4
 171 0077 08010000 		.4byte	.LASF10
 172 007b 03       		.byte	0x3
 173 007c 2B       		.byte	0x2b
 174 007d 81000000 		.4byte	0x81
 175 0081 03       		.uleb128 0x3
 176 0082 01       		.byte	0x1
 177 0083 02       		.byte	0x2
 178 0084 C8000000 		.4byte	.LASF11
 179 0088 03       		.uleb128 0x3
 180 0089 04       		.byte	0x4
 181 008a 07       		.byte	0x7
 182 008b 57010000 		.4byte	.LASF12
 183 008f 03       		.uleb128 0x3
 184 0090 01       		.byte	0x1
 185 0091 08       		.byte	0x8
 186 0092 AD000000 		.4byte	.LASF13
 187 0096 04       		.uleb128 0x4
 188 0097 2D010000 		.4byte	.LASF14
 189 009b 04       		.byte	0x4
 190 009c D9       		.byte	0xd9
 191 009d 48000000 		.4byte	0x48
 192 00a1 05       		.uleb128 0x5
 193 00a2 01       		.byte	0x1
 194 00a3 00010000 		.4byte	.LASF15
 195 00a7 01       		.byte	0x1
 196 00a8 35       		.byte	0x35
 197 00a9 01       		.byte	0x1
 198 00aa 00000000 		.4byte	.LFB41
 199 00ae 34000000 		.4byte	.LFE41
 200 00b2 00000000 		.4byte	.LLST0
 201 00b6 01       		.byte	0x1
 202 00b7 16010000 		.4byte	0x116
 203 00bb 06       		.uleb128 0x6
 204 00bc 8A000000 		.4byte	.LASF25
 205 00c0 01       		.byte	0x1
 206 00c1 36       		.byte	0x36
 207 00c2 76000000 		.4byte	0x76
 208 00c6 05       		.byte	0x5
 209 00c7 03       		.byte	0x3
 210 00c8 00000000 		.4byte	initDone.6037
 211 00cc 07       		.uleb128 0x7
 212 00cd 12000000 		.4byte	.LVL0
 213 00d1 3A010000 		.4byte	0x13a
 214 00d5 07       		.uleb128 0x7
 215 00d6 16000000 		.4byte	.LVL1
 216 00da 44010000 		.4byte	0x144
 217 00de 07       		.uleb128 0x7
 218 00df 1A000000 		.4byte	.LVL2
 219 00e3 4E010000 		.4byte	0x14e
 220 00e7 07       		.uleb128 0x7
 221 00e8 1E000000 		.4byte	.LVL3
 222 00ec 58010000 		.4byte	0x158
 223 00f0 08       		.uleb128 0x8
 224 00f1 24000000 		.4byte	.LVL4
 225 00f5 62010000 		.4byte	0x162
ARM GAS  /tmp/ccWGpzPx.s 			page 5


 226 00f9 03010000 		.4byte	0x103
 227 00fd 09       		.uleb128 0x9
 228 00fe 01       		.byte	0x1
 229 00ff 50       		.byte	0x50
 230 0100 01       		.byte	0x1
 231 0101 30       		.byte	0x30
 232 0102 00       		.byte	0
 233 0103 07       		.uleb128 0x7
 234 0104 28000000 		.4byte	.LVL5
 235 0108 76010000 		.4byte	0x176
 236 010c 07       		.uleb128 0x7
 237 010d 2C000000 		.4byte	.LVL6
 238 0111 80010000 		.4byte	0x180
 239 0115 00       		.byte	0
 240 0116 05       		.uleb128 0x5
 241 0117 01       		.byte	0x1
 242 0118 E3000000 		.4byte	.LASF16
 243 011c 01       		.byte	0x1
 244 011d 12       		.byte	0x12
 245 011e 01       		.byte	0x1
 246 011f 00000000 		.4byte	.LFB40
 247 0123 08000000 		.4byte	.LFE40
 248 0127 20000000 		.4byte	.LLST1
 249 012b 01       		.byte	0x1
 250 012c 3A010000 		.4byte	0x13a
 251 0130 07       		.uleb128 0x7
 252 0131 06000000 		.4byte	.LVL7
 253 0135 A1000000 		.4byte	0xa1
 254 0139 00       		.byte	0
 255 013a 0A       		.uleb128 0xa
 256 013b 01       		.byte	0x1
 257 013c 81000000 		.4byte	.LASF17
 258 0140 01       		.byte	0x1
 259 0141 15       		.byte	0x15
 260 0142 01       		.byte	0x1
 261 0143 01       		.byte	0x1
 262 0144 0A       		.uleb128 0xa
 263 0145 01       		.byte	0x1
 264 0146 D7000000 		.4byte	.LASF18
 265 014a 01       		.byte	0x1
 266 014b 20       		.byte	0x20
 267 014c 01       		.byte	0x1
 268 014d 01       		.byte	0x1
 269 014e 0A       		.uleb128 0xa
 270 014f 01       		.byte	0x1
 271 0150 B2000000 		.4byte	.LASF19
 272 0154 01       		.byte	0x1
 273 0155 23       		.byte	0x23
 274 0156 01       		.byte	0x1
 275 0157 01       		.byte	0x1
 276 0158 0A       		.uleb128 0xa
 277 0159 01       		.byte	0x1
 278 015a 18010000 		.4byte	.LASF20
 279 015e 01       		.byte	0x1
 280 015f 17       		.byte	0x17
 281 0160 01       		.byte	0x1
 282 0161 01       		.byte	0x1
ARM GAS  /tmp/ccWGpzPx.s 			page 6


 283 0162 0B       		.uleb128 0xb
 284 0163 01       		.byte	0x1
 285 0164 60010000 		.4byte	.LASF26
 286 0168 05       		.byte	0x5
 287 0169 DF       		.byte	0xdf
 288 016a 01       		.byte	0x1
 289 016b 01       		.byte	0x1
 290 016c 76010000 		.4byte	0x176
 291 0170 0C       		.uleb128 0xc
 292 0171 96000000 		.4byte	0x96
 293 0175 00       		.byte	0
 294 0176 0A       		.uleb128 0xa
 295 0177 01       		.byte	0x1
 296 0178 BE000000 		.4byte	.LASF21
 297 017c 01       		.byte	0x1
 298 017d 1D       		.byte	0x1d
 299 017e 01       		.byte	0x1
 300 017f 01       		.byte	0x1
 301 0180 0A       		.uleb128 0xa
 302 0181 01       		.byte	0x1
 303 0182 93000000 		.4byte	.LASF22
 304 0186 01       		.byte	0x1
 305 0187 26       		.byte	0x26
 306 0188 01       		.byte	0x1
 307 0189 01       		.byte	0x1
 308 018a 00       		.byte	0
 309              		.section	.debug_abbrev,"",%progbits
 310              	.Ldebug_abbrev0:
 311 0000 01       		.uleb128 0x1
 312 0001 11       		.uleb128 0x11
 313 0002 01       		.byte	0x1
 314 0003 25       		.uleb128 0x25
 315 0004 0E       		.uleb128 0xe
 316 0005 13       		.uleb128 0x13
 317 0006 0B       		.uleb128 0xb
 318 0007 03       		.uleb128 0x3
 319 0008 0E       		.uleb128 0xe
 320 0009 55       		.uleb128 0x55
 321 000a 06       		.uleb128 0x6
 322 000b 11       		.uleb128 0x11
 323 000c 01       		.uleb128 0x1
 324 000d 52       		.uleb128 0x52
 325 000e 01       		.uleb128 0x1
 326 000f 10       		.uleb128 0x10
 327 0010 06       		.uleb128 0x6
 328 0011 00       		.byte	0
 329 0012 00       		.byte	0
 330 0013 02       		.uleb128 0x2
 331 0014 24       		.uleb128 0x24
 332 0015 00       		.byte	0
 333 0016 0B       		.uleb128 0xb
 334 0017 0B       		.uleb128 0xb
 335 0018 3E       		.uleb128 0x3e
 336 0019 0B       		.uleb128 0xb
 337 001a 03       		.uleb128 0x3
 338 001b 08       		.uleb128 0x8
 339 001c 00       		.byte	0
ARM GAS  /tmp/ccWGpzPx.s 			page 7


 340 001d 00       		.byte	0
 341 001e 03       		.uleb128 0x3
 342 001f 24       		.uleb128 0x24
 343 0020 00       		.byte	0
 344 0021 0B       		.uleb128 0xb
 345 0022 0B       		.uleb128 0xb
 346 0023 3E       		.uleb128 0x3e
 347 0024 0B       		.uleb128 0xb
 348 0025 03       		.uleb128 0x3
 349 0026 0E       		.uleb128 0xe
 350 0027 00       		.byte	0
 351 0028 00       		.byte	0
 352 0029 04       		.uleb128 0x4
 353 002a 16       		.uleb128 0x16
 354 002b 00       		.byte	0
 355 002c 03       		.uleb128 0x3
 356 002d 0E       		.uleb128 0xe
 357 002e 3A       		.uleb128 0x3a
 358 002f 0B       		.uleb128 0xb
 359 0030 3B       		.uleb128 0x3b
 360 0031 0B       		.uleb128 0xb
 361 0032 49       		.uleb128 0x49
 362 0033 13       		.uleb128 0x13
 363 0034 00       		.byte	0
 364 0035 00       		.byte	0
 365 0036 05       		.uleb128 0x5
 366 0037 2E       		.uleb128 0x2e
 367 0038 01       		.byte	0x1
 368 0039 3F       		.uleb128 0x3f
 369 003a 0C       		.uleb128 0xc
 370 003b 03       		.uleb128 0x3
 371 003c 0E       		.uleb128 0xe
 372 003d 3A       		.uleb128 0x3a
 373 003e 0B       		.uleb128 0xb
 374 003f 3B       		.uleb128 0x3b
 375 0040 0B       		.uleb128 0xb
 376 0041 27       		.uleb128 0x27
 377 0042 0C       		.uleb128 0xc
 378 0043 11       		.uleb128 0x11
 379 0044 01       		.uleb128 0x1
 380 0045 12       		.uleb128 0x12
 381 0046 01       		.uleb128 0x1
 382 0047 40       		.uleb128 0x40
 383 0048 06       		.uleb128 0x6
 384 0049 9742     		.uleb128 0x2117
 385 004b 0C       		.uleb128 0xc
 386 004c 01       		.uleb128 0x1
 387 004d 13       		.uleb128 0x13
 388 004e 00       		.byte	0
 389 004f 00       		.byte	0
 390 0050 06       		.uleb128 0x6
 391 0051 34       		.uleb128 0x34
 392 0052 00       		.byte	0
 393 0053 03       		.uleb128 0x3
 394 0054 0E       		.uleb128 0xe
 395 0055 3A       		.uleb128 0x3a
 396 0056 0B       		.uleb128 0xb
ARM GAS  /tmp/ccWGpzPx.s 			page 8


 397 0057 3B       		.uleb128 0x3b
 398 0058 0B       		.uleb128 0xb
 399 0059 49       		.uleb128 0x49
 400 005a 13       		.uleb128 0x13
 401 005b 02       		.uleb128 0x2
 402 005c 0A       		.uleb128 0xa
 403 005d 00       		.byte	0
 404 005e 00       		.byte	0
 405 005f 07       		.uleb128 0x7
 406 0060 898201   		.uleb128 0x4109
 407 0063 00       		.byte	0
 408 0064 11       		.uleb128 0x11
 409 0065 01       		.uleb128 0x1
 410 0066 31       		.uleb128 0x31
 411 0067 13       		.uleb128 0x13
 412 0068 00       		.byte	0
 413 0069 00       		.byte	0
 414 006a 08       		.uleb128 0x8
 415 006b 898201   		.uleb128 0x4109
 416 006e 01       		.byte	0x1
 417 006f 11       		.uleb128 0x11
 418 0070 01       		.uleb128 0x1
 419 0071 31       		.uleb128 0x31
 420 0072 13       		.uleb128 0x13
 421 0073 01       		.uleb128 0x1
 422 0074 13       		.uleb128 0x13
 423 0075 00       		.byte	0
 424 0076 00       		.byte	0
 425 0077 09       		.uleb128 0x9
 426 0078 8A8201   		.uleb128 0x410a
 427 007b 00       		.byte	0
 428 007c 02       		.uleb128 0x2
 429 007d 0A       		.uleb128 0xa
 430 007e 9142     		.uleb128 0x2111
 431 0080 0A       		.uleb128 0xa
 432 0081 00       		.byte	0
 433 0082 00       		.byte	0
 434 0083 0A       		.uleb128 0xa
 435 0084 2E       		.uleb128 0x2e
 436 0085 00       		.byte	0
 437 0086 3F       		.uleb128 0x3f
 438 0087 0C       		.uleb128 0xc
 439 0088 03       		.uleb128 0x3
 440 0089 0E       		.uleb128 0xe
 441 008a 3A       		.uleb128 0x3a
 442 008b 0B       		.uleb128 0xb
 443 008c 3B       		.uleb128 0x3b
 444 008d 0B       		.uleb128 0xb
 445 008e 27       		.uleb128 0x27
 446 008f 0C       		.uleb128 0xc
 447 0090 3C       		.uleb128 0x3c
 448 0091 0C       		.uleb128 0xc
 449 0092 00       		.byte	0
 450 0093 00       		.byte	0
 451 0094 0B       		.uleb128 0xb
 452 0095 2E       		.uleb128 0x2e
 453 0096 01       		.byte	0x1
ARM GAS  /tmp/ccWGpzPx.s 			page 9


 454 0097 3F       		.uleb128 0x3f
 455 0098 0C       		.uleb128 0xc
 456 0099 03       		.uleb128 0x3
 457 009a 0E       		.uleb128 0xe
 458 009b 3A       		.uleb128 0x3a
 459 009c 0B       		.uleb128 0xb
 460 009d 3B       		.uleb128 0x3b
 461 009e 0B       		.uleb128 0xb
 462 009f 27       		.uleb128 0x27
 463 00a0 0C       		.uleb128 0xc
 464 00a1 3C       		.uleb128 0x3c
 465 00a2 0C       		.uleb128 0xc
 466 00a3 01       		.uleb128 0x1
 467 00a4 13       		.uleb128 0x13
 468 00a5 00       		.byte	0
 469 00a6 00       		.byte	0
 470 00a7 0C       		.uleb128 0xc
 471 00a8 05       		.uleb128 0x5
 472 00a9 00       		.byte	0
 473 00aa 49       		.uleb128 0x49
 474 00ab 13       		.uleb128 0x13
 475 00ac 00       		.byte	0
 476 00ad 00       		.byte	0
 477 00ae 00       		.byte	0
 478              		.section	.debug_loc,"",%progbits
 479              	.Ldebug_loc0:
 480              	.LLST0:
 481 0000 00000000 		.4byte	.LFB41
 482 0004 02000000 		.4byte	.LCFI0
 483 0008 0200     		.2byte	0x2
 484 000a 7D       		.byte	0x7d
 485 000b 00       		.sleb128 0
 486 000c 02000000 		.4byte	.LCFI0
 487 0010 34000000 		.4byte	.LFE41
 488 0014 0200     		.2byte	0x2
 489 0016 7D       		.byte	0x7d
 490 0017 08       		.sleb128 8
 491 0018 00000000 		.4byte	0
 492 001c 00000000 		.4byte	0
 493              	.LLST1:
 494 0020 00000000 		.4byte	.LFB40
 495 0024 02000000 		.4byte	.LCFI1
 496 0028 0200     		.2byte	0x2
 497 002a 7D       		.byte	0x7d
 498 002b 00       		.sleb128 0
 499 002c 02000000 		.4byte	.LCFI1
 500 0030 08000000 		.4byte	.LFE40
 501 0034 0200     		.2byte	0x2
 502 0036 7D       		.byte	0x7d
 503 0037 08       		.sleb128 8
 504 0038 00000000 		.4byte	0
 505 003c 00000000 		.4byte	0
 506              		.section	.debug_aranges,"",%progbits
 507 0000 24000000 		.4byte	0x24
 508 0004 0200     		.2byte	0x2
 509 0006 00000000 		.4byte	.Ldebug_info0
 510 000a 04       		.byte	0x4
ARM GAS  /tmp/ccWGpzPx.s 			page 10


 511 000b 00       		.byte	0
 512 000c 0000     		.2byte	0
 513 000e 0000     		.2byte	0
 514 0010 00000000 		.4byte	.LFB41
 515 0014 34000000 		.4byte	.LFE41-.LFB41
 516 0018 00000000 		.4byte	.LFB40
 517 001c 08000000 		.4byte	.LFE40-.LFB40
 518 0020 00000000 		.4byte	0
 519 0024 00000000 		.4byte	0
 520              		.section	.debug_ranges,"",%progbits
 521              	.Ldebug_ranges0:
 522 0000 00000000 		.4byte	.LFB41
 523 0004 34000000 		.4byte	.LFE41
 524 0008 00000000 		.4byte	.LFB40
 525 000c 08000000 		.4byte	.LFE40
 526 0010 00000000 		.4byte	0
 527 0014 00000000 		.4byte	0
 528              		.section	.debug_line,"",%progbits
 529              	.Ldebug_line0:
 530 0000 B8010000 		.section	.debug_str,"MS",%progbits,1
 530      02008701 
 530      00000201 
 530      FB0E0D00 
 530      01010101 
 531              	.LASF7:
 532 0000 6C6F6E67 		.ascii	"long long int\000"
 532      206C6F6E 
 532      6720696E 
 532      7400
 533              	.LASF0:
 534 000e 756E7369 		.ascii	"unsigned int\000"
 534      676E6564 
 534      20696E74 
 534      00
 535              	.LASF24:
 536 001b 2F686F6D 		.ascii	"/home/matt/arm_cortex/ChibiOS/ext/ugfx/src/gfx.c\000"
 536      652F6D61 
 536      74742F61 
 536      726D5F63 
 536      6F727465 
 537              	.LASF1:
 538 004c 7369676E 		.ascii	"signed char\000"
 538      65642063 
 538      68617200 
 539              	.LASF6:
 540 0058 6C6F6E67 		.ascii	"long unsigned int\000"
 540      20756E73 
 540      69676E65 
 540      6420696E 
 540      7400
 541              	.LASF8:
 542 006a 6C6F6E67 		.ascii	"long long unsigned int\000"
 542      206C6F6E 
 542      6720756E 
 542      7369676E 
 542      65642069 
 543              	.LASF17:
ARM GAS  /tmp/ccWGpzPx.s 			page 11


 544 0081 5F676F73 		.ascii	"_gosInit\000"
 544      496E6974 
 544      00
 545              	.LASF25:
 546 008a 696E6974 		.ascii	"initDone\000"
 546      446F6E65 
 546      00
 547              	.LASF22:
 548 0093 5F67696E 		.ascii	"_ginputInit\000"
 548      70757449 
 548      6E697400 
 549              	.LASF2:
 550 009f 756E7369 		.ascii	"unsigned char\000"
 550      676E6564 
 550      20636861 
 550      7200
 551              	.LASF13:
 552 00ad 63686172 		.ascii	"char\000"
 552      00
 553              	.LASF19:
 554 00b2 5F677469 		.ascii	"_gtimerInit\000"
 554      6D657249 
 554      6E697400 
 555              	.LASF21:
 556 00be 5F677769 		.ascii	"_gwinInit\000"
 556      6E496E69 
 556      7400
 557              	.LASF11:
 558 00c8 5F426F6F 		.ascii	"_Bool\000"
 558      6C00
 559              	.LASF5:
 560 00ce 6C6F6E67 		.ascii	"long int\000"
 560      20696E74 
 560      00
 561              	.LASF18:
 562 00d7 5F676576 		.ascii	"_geventInit\000"
 562      656E7449 
 562      6E697400 
 563              	.LASF16:
 564 00e3 67646973 		.ascii	"gdispInit\000"
 564      70496E69 
 564      7400
 565              	.LASF4:
 566 00ed 73686F72 		.ascii	"short unsigned int\000"
 566      7420756E 
 566      7369676E 
 566      65642069 
 566      6E7400
 567              	.LASF15:
 568 0100 67667849 		.ascii	"gfxInit\000"
 568      6E697400 
 569              	.LASF10:
 570 0108 626F6F6C 		.ascii	"bool_t\000"
 570      5F7400
 571              	.LASF9:
 572 010f 75696E74 		.ascii	"uint16_t\000"
 572      31365F74 
ARM GAS  /tmp/ccWGpzPx.s 			page 12


 572      00
 573              	.LASF20:
 574 0118 5F676469 		.ascii	"_gdispInit\000"
 574      7370496E 
 574      697400
 575              	.LASF3:
 576 0123 73686F72 		.ascii	"short int\000"
 576      7420696E 
 576      7400
 577              	.LASF14:
 578 012d 636F6C6F 		.ascii	"color_t\000"
 578      725F7400 
 579              	.LASF23:
 580 0135 474E5520 		.ascii	"GNU C 4.7.4 20130913 (prerelease)\000"
 580      4320342E 
 580      372E3420 
 580      32303133 
 580      30393133 
 581              	.LASF12:
 582 0157 73697A65 		.ascii	"sizetype\000"
 582      74797065 
 582      00
 583              	.LASF26:
 584 0160 67646973 		.ascii	"gdisp_lld_clear\000"
 584      705F6C6C 
 584      645F636C 
 584      65617200 
 585              		.ident	"GCC: (GNU Tools for ARM Embedded Processors / bleeding-edge-toolchain-131005) 4.7.4 201309
ARM GAS  /tmp/ccWGpzPx.s 			page 13


DEFINED SYMBOLS
                            *ABS*:0000000000000000 gfx.c
     /tmp/ccWGpzPx.s:18     .text.gfxInit:0000000000000000 $t
     /tmp/ccWGpzPx.s:24     .text.gfxInit:0000000000000000 gfxInit
     /tmp/ccWGpzPx.s:71     .text.gfxInit:0000000000000030 $d
     /tmp/ccWGpzPx.s:76     .text.gdispInit:0000000000000000 $t
     /tmp/ccWGpzPx.s:82     .text.gdispInit:0000000000000000 gdispInit
     /tmp/ccWGpzPx.s:103    .bss.initDone.6037:0000000000000000 initDone.6037
     /tmp/ccWGpzPx.s:104    .bss.initDone.6037:0000000000000000 $d
                     .debug_frame:0000000000000010 $d
     /tmp/ccWGpzPx.s:75     .text.gfxInit:0000000000000034 $t

UNDEFINED SYMBOLS
_gosInit
_geventInit
_gtimerInit
_gdispInit
gdisp_lld_clear
_gwinInit
_ginputInit
