ARM GAS  /tmp/ccWGpzPx.s 			page 1


   1              		.cpu cortex-m0
   2              		.fpu softvfp
   3              		.eabi_attribute 20, 1
   4              		.eabi_attribute 21, 1
   5              		.eabi_attribute 23, 3
   6              		.eabi_attribute 24, 1
   7              		.eabi_attribute 25, 1
   8              		.eabi_attribute 26, 1
   9              		.eabi_attribute 30, 2
  10              		.eabi_attribute 34, 0
  11              		.eabi_attribute 18, 4
  12              		.code	16
  13              		.file	"gfx.c"
  14              		.text
  15              	.Ltext0:
  16              		.cfi_sections	.debug_frame
  17              		.section	.text.gfxInit,"ax",%progbits
  18              		.align	2
  19              		.p2align 4,,15
  20              		.global	gfxInit
  21              		.code	16
  22              		.thumb_func
  23              		.type	gfxInit, %function
  24              	gfxInit:
  25              	.LFB41:
  26              		.file 1 "/home/matt/arm_cortex/ChibiOS/ext/ugfx/src/gfx.c"
  27              		.loc 1 53 0
  28              		.cfi_startproc
  29 0000 08B5     		push	{r3, lr}
  30              	.LCFI0:
  31              		.cfi_def_cfa_offset 8
  32              		.cfi_offset 3, -8
  33              		.cfi_offset 14, -4
  34              		.loc 1 57 0
  35 0002 0B4B     		ldr	r3, .L4
  36 0004 1A78     		ldrb	r2, [r3]
  37 0006 002A     		cmp	r2, #0
  38 0008 10D1     		bne	.L1
  39              		.loc 1 59 0
  40 000a 0120     		mov	r0, #1
  41 000c 1870     		strb	r0, [r3]
  42              		.loc 1 62 0
  43 000e FFF7FEFF 		bl	_gosInit
  44              	.LVL0:
  45              		.loc 1 67 0
  46 0012 FFF7FEFF 		bl	_geventInit
  47              	.LVL1:
  48              		.loc 1 70 0
  49 0016 FFF7FEFF 		bl	_gtimerInit
  50              	.LVL2:
  51              		.loc 1 73 0
  52 001a FFF7FEFF 		bl	_gdispInit
  53              	.LVL3:
  54              		.loc 1 74 0
  55 001e 0020     		mov	r0, #0
  56 0020 FFF7FEFF 		bl	gdisp_lld_clear
  57              	.LVL4:
ARM GAS  /tmp/ccWGpzPx.s 			page 2


  58              		.loc 1 77 0
  59 0024 FFF7FEFF 		bl	_gwinInit
  60              	.LVL5:
  61              		.loc 1 80 0
  62 0028 FFF7FEFF 		bl	_ginputInit
  63              	.LVL6:
  64              	.L1:
  65              		.loc 1 96 0
  66              		@ sp needed for prologue
  67 002c 08BD     		pop	{r3, pc}
  68              	.L5:
  69 002e C046     		.align	2
  70              	.L4:
  71 0030 00000000 		.word	.LANCHOR0
  72              		.cfi_endproc
  73              	.LFE41:
  74              		.size	gfxInit, .-gfxInit
  75 0034 C046C046 		.section	.text.gdispInit,"ax",%progbits
  75      C046C046 
  75      C046C046 
  76              		.align	2
  77              		.p2align 4,,15
  78              		.global	gdispInit
  79              		.code	16
  80              		.thumb_func
  81              		.type	gdispInit, %function
  82              	gdispInit:
  83              	.LFB40:
  84              		.loc 1 18 0
  85              		.cfi_startproc
  86 0000 08B5     		push	{r3, lr}
  87              	.LCFI1:
  88              		.cfi_def_cfa_offset 8
  89              		.cfi_offset 3, -8
  90              		.cfi_offset 14, -4
  91              		.loc 1 18 0
  92 0002 FFF7FEFF 		bl	gfxInit
  93              	.LVL7:
  94              		@ sp needed for prologue
  95 0006 08BD     		pop	{r3, pc}
  96              		.cfi_endproc
  97              	.LFE40:
  98              		.size	gdispInit, .-gdispInit
  99 0008 C046C046 		.section	.bss.initDone.6037,"aw",%nobits
  99      C046C046 
 100              		.set	.LANCHOR0,. + 0
 101              		.type	initDone.6037, %object
 102              		.size	initDone.6037, 1
 103              	initDone.6037:
 104 0000 00       		.space	1
 105              		.text
 106              	.Letext0:
 107              		.file 2 "/home/matt/arm_cortex/gcc-arm-none-eabi/bin/../lib/gcc/arm-none-eabi/4.7.4/../../../../ar
 108              		.file 3 "/home/matt/arm_cortex/ChibiOS/os/ports/GCC/ARMCMx/chtypes.h"
 109              		.file 4 "/home/matt/arm_cortex/ChibiOS/ext/ugfx/include/gdisp/gdisp.h"
 110              		.file 5 "/home/matt/arm_cortex/ChibiOS/ext/ugfx/include/gdisp/lld/gdisp_lld.h"