ARM GAS  /tmp/ccO08SwI.s 			page 1


   1              		.cpu cortex-m0
   2              		.fpu softvfp
   3              		.eabi_attribute 20, 1
   4              		.eabi_attribute 21, 1
   5              		.eabi_attribute 23, 3
   6              		.eabi_attribute 24, 1
   7              		.eabi_attribute 25, 1
   8              		.eabi_attribute 26, 1
   9              		.eabi_attribute 30, 2
  10              		.eabi_attribute 34, 0
  11              		.eabi_attribute 18, 4
  12              		.code	16
  13              		.file	"gtimer.c"
  14              		.text
  15              	.Ltext0:
  16              		.cfi_sections	.debug_frame
  17              		.global	__aeabi_uidiv
  18              		.section	.text.GTimerThreadHandler,"ax",%progbits
  19              		.align	2
  20              		.p2align 4,,15
  21              		.code	16
  22              		.thumb_func
  23              		.type	GTimerThreadHandler, %function
  24              	GTimerThreadHandler:
  25              	.LFB40:
  26              		.file 1 "/home/matt/arm_cortex/ChibiOS/ext/ugfx/src/gtimer/gtimer.c"
  27              		.loc 1 38 0
  28              		.cfi_startproc
  29              	.LVL0:
  30 0000 F0B5     		push	{r4, r5, r6, r7, lr}
  31              	.LCFI0:
  32              		.cfi_def_cfa_offset 20
  33              		.cfi_offset 4, -20
  34              		.cfi_offset 5, -16
  35              		.cfi_offset 6, -12
  36              		.cfi_offset 7, -8
  37              		.cfi_offset 14, -4
  38 0002 5F46     		mov	r7, fp
  39 0004 4446     		mov	r4, r8
  40 0006 5646     		mov	r6, sl
  41 0008 4D46     		mov	r5, r9
  42 000a F0B4     		push	{r4, r5, r6, r7}
  43              	.LCFI1:
  44              		.cfi_def_cfa_offset 36
  45              		.cfi_offset 8, -36
  46              		.cfi_offset 9, -32
  47              		.cfi_offset 10, -28
  48              		.cfi_offset 11, -24
  49              		.loc 1 47 0
  50 000c 0123     		mov	r3, #1
  51 000e 384A     		ldr	r2, .L29
  52 0010 5842     		neg	r0, r3
  53              	.LVL1:
  54              		.loc 1 67 0
  55 0012 0421     		mov	r1, #4
  56 0014 0224     		mov	r4, #2
  57              		.loc 1 38 0
ARM GAS  /tmp/ccO08SwI.s 			page 2


  58 0016 83B0     		sub	sp, sp, #12
  59              	.LCFI2:
  60              		.cfi_def_cfa_offset 48
  61              		.loc 1 48 0
  62 0018 0027     		mov	r7, #0
  63              		.loc 1 47 0
  64 001a 8046     		mov	r8, r0
  65 001c 9346     		mov	fp, r2
  66              		.loc 1 67 0
  67 001e 8946     		mov	r9, r1
  68 0020 A246     		mov	sl, r4
  69              	.LVL2:
  70              	.L17:
  71              		.loc 1 51 0
  72 0022 FFF7FEFF 		bl	chThdYield
  73              	.LVL3:
  74              		.loc 1 52 0
  75 0026 3348     		ldr	r0, .L29+4
  76 0028 4146     		mov	r1, r8
  77 002a FFF7FEFF 		bl	gfxSemWait
  78              	.LVL4:
  79              	.L2:
  80              		.loc 1 57 0
  81 002e 324D     		ldr	r5, .L29+8
  82              		.loc 1 61 0
  83 0030 3248     		ldr	r0, .L29+12
  84              		.loc 1 57 0
  85 0032 EE68     		ldr	r6, [r5, #12]
  86              	.LVL5:
  87              		.loc 1 61 0
  88 0034 FFF7FEFF 		bl	chMtxLock
  89              	.LVL6:
  90              		.loc 1 63 0
  91 0038 5B46     		mov	r3, fp
  92 003a 1868     		ldr	r0, [r3]
  93 003c 0028     		cmp	r0, #0
  94 003e 3BD0     		beq	.L18
  95 0040 0121     		mov	r1, #1
  96 0042 4D42     		neg	r5, r1
  97 0044 041C     		mov	r4, r0
  98 0046 A846     		mov	r8, r5
  99 0048 0AE0     		b	.L16
 100              	.LVL7:
 101              	.L26:
 102              		.loc 1 67 0 discriminator 1
 103 004a 8F42     		cmp	r7, r1
 104 004c 01D8     		bhi	.L9
 105              	.L24:
 106              		.loc 1 67 0 is_stmt 0 discriminator 3
 107 004e 8E42     		cmp	r6, r1
 108 0050 12D2     		bcs	.L10
 109              	.L9:
 110              		.loc 1 108 0 is_stmt 1 discriminator 1
 111 0052 8D1B     		sub	r5, r1, r6
 112 0054 A845     		cmp	r8, r5
 113 0056 00D9     		bls	.L7
 114 0058 A846     		mov	r8, r5
ARM GAS  /tmp/ccO08SwI.s 			page 3


 115              	.LVL8:
 116              	.L7:
 117              		.loc 1 110 0
 118 005a 6469     		ldr	r4, [r4, #20]
 119              	.LVL9:
 120              		.loc 1 111 0
 121 005c A042     		cmp	r0, r4
 122 005e 2ED0     		beq	.L3
 123              	.LVL10:
 124              	.L16:
 125              		.loc 1 67 0
 126 0060 258A     		ldrh	r5, [r4, #16]
 127 0062 4B46     		mov	r3, r9
 128 0064 2B42     		tst	r3, r5
 129 0066 07D1     		bne	.L10
 130              		.loc 1 67 0 is_stmt 0 discriminator 1
 131 0068 5246     		mov	r2, sl
 132 006a 2A42     		tst	r2, r5
 133 006c F5D1     		bne	.L7
 134 006e A168     		ldr	r1, [r4, #8]
 135 0070 B742     		cmp	r7, r6
 136 0072 EAD9     		bls	.L26
 137              		.loc 1 67 0 discriminator 2
 138 0074 8F42     		cmp	r7, r1
 139 0076 EAD8     		bhi	.L24
 140              	.L10:
 141              		.loc 1 70 0 is_stmt 1
 142 0078 EB07     		lsl	r3, r5, #31
 143 007a 24D5     		bpl	.L6
 144              		.loc 1 70 0 is_stmt 0 discriminator 1
 145 007c E368     		ldr	r3, [r4, #12]
 146 007e 9846     		mov	r8, r3
 147              	.LVL11:
 148 0080 002B     		cmp	r3, #0
 149 0082 20D0     		beq	.L6
 150              		.loc 1 72 0 is_stmt 1
 151 0084 5146     		mov	r1, sl
 152 0086 2942     		tst	r1, r5
 153 0088 0CD1     		bne	.L11
 154              		.loc 1 77 0
 155 008a A368     		ldr	r3, [r4, #8]
 156 008c 4046     		mov	r0, r8
 157 008e 8619     		add	r6, r0, r6
 158              	.LVL12:
 159 0090 F01A     		sub	r0, r6, r3
 160 0092 4146     		mov	r1, r8
 161 0094 0193     		str	r3, [sp, #4]
 162 0096 FFF7FEFF 		bl	__aeabi_uidiv
 163              	.LVL13:
 164 009a 4146     		mov	r1, r8
 165 009c 4143     		mul	r1, r0
 166 009e 019A     		ldr	r2, [sp, #4]
 167 00a0 8B18     		add	r3, r1, r2
 168 00a2 A360     		str	r3, [r4, #8]
 169              	.L11:
 170              		.loc 1 81 0
 171 00a4 4846     		mov	r0, r9
ARM GAS  /tmp/ccO08SwI.s 			page 4


 172 00a6 8543     		bic	r5, r0
 173 00a8 2582     		strh	r5, [r4, #16]
 174              	.L12:
 175              		.loc 1 97 0
 176 00aa 2568     		ldr	r5, [r4]
 177              	.LVL14:
 178              		.loc 1 98 0
 179 00ac 6468     		ldr	r4, [r4, #4]
 180              	.LVL15:
 181              		.loc 1 99 0
 182 00ae FFF7FEFF 		bl	chMtxUnlock
 183              	.LVL16:
 184              		.loc 1 100 0
 185 00b2 201C     		mov	r0, r4
 186 00b4 A847     		blx	r5
 187              	.LVL17:
 188              		.loc 1 104 0
 189 00b6 BAE7     		b	.L2
 190              	.LVL18:
 191              	.L18:
 192              		.loc 1 58 0
 193 00b8 0127     		mov	r7, #1
 194              	.LVL19:
 195 00ba 7A42     		neg	r2, r7
 196 00bc 9046     		mov	r8, r2
 197              	.LVL20:
 198              	.L3:
 199              		.loc 1 116 0
 200 00be FFF7FEFF 		bl	chMtxUnlock
 201              	.LVL21:
 202 00c2 371C     		mov	r7, r6
 203              		.loc 1 117 0
 204 00c4 ADE7     		b	.L17
 205              	.LVL22:
 206              	.L6:
 207              		.loc 1 85 0
 208 00c6 6669     		ldr	r6, [r4, #20]
 209              	.LVL23:
 210 00c8 A269     		ldr	r2, [r4, #24]
 211 00ca 9642     		cmp	r6, r2
 212 00cc 07D0     		beq	.L27
 213              		.loc 1 88 0
 214 00ce B261     		str	r2, [r6, #24]
 215              		.loc 1 89 0
 216 00d0 A169     		ldr	r1, [r4, #24]
 217 00d2 4E61     		str	r6, [r1, #20]
 218              		.loc 1 90 0
 219 00d4 8442     		cmp	r4, r0
 220 00d6 06D0     		beq	.L28
 221              	.L14:
 222              		.loc 1 93 0
 223 00d8 0022     		mov	r2, #0
 224 00da 2282     		strh	r2, [r4, #16]
 225 00dc E5E7     		b	.L12
 226              	.L27:
 227              		.loc 1 86 0
 228 00de 0023     		mov	r3, #0
ARM GAS  /tmp/ccO08SwI.s 			page 5


 229 00e0 5E46     		mov	r6, fp
 230 00e2 3360     		str	r3, [r6]
 231 00e4 F8E7     		b	.L14
 232              	.L28:
 233              		.loc 1 91 0
 234 00e6 6069     		ldr	r0, [r4, #20]
 235 00e8 5D46     		mov	r5, fp
 236 00ea 2860     		str	r0, [r5]
 237 00ec F4E7     		b	.L14
 238              	.L30:
 239 00ee C046     		.align	2
 240              	.L29:
 241 00f0 00000000 		.word	.LANCHOR2
 242 00f4 00000000 		.word	.LANCHOR0
 243 00f8 00000000 		.word	vtlist
 244 00fc 00000000 		.word	.LANCHOR1
 245              		.cfi_endproc
 246              	.LFE40:
 247              		.size	GTimerThreadHandler, .-GTimerThreadHandler
 248              		.section	.text._gtimerInit,"ax",%progbits
 249              		.align	2
 250              		.p2align 4,,15
 251              		.global	_gtimerInit
 252              		.code	16
 253              		.thumb_func
 254              		.type	_gtimerInit, %function
 255              	_gtimerInit:
 256              	.LFB41:
 257              		.loc 1 121 0
 258              		.cfi_startproc
 259 0000 08B5     		push	{r3, lr}
 260              	.LCFI3:
 261              		.cfi_def_cfa_offset 8
 262              		.cfi_offset 3, -8
 263              		.cfi_offset 14, -4
 264              		.loc 1 122 0
 265 0002 0448     		ldr	r0, .L32
 266 0004 0021     		mov	r1, #0
 267 0006 0122     		mov	r2, #1
 268 0008 FFF7FEFF 		bl	gfxSemInit
 269              	.LVL24:
 270              		.loc 1 123 0
 271 000c 0248     		ldr	r0, .L32+4
 272 000e FFF7FEFF 		bl	chMtxInit
 273              	.LVL25:
 274              		.loc 1 124 0
 275              		@ sp needed for prologue
 276 0012 08BD     		pop	{r3, pc}
 277              	.L33:
 278              		.align	2
 279              	.L32:
 280 0014 00000000 		.word	.LANCHOR0
 281 0018 00000000 		.word	.LANCHOR1
 282              		.cfi_endproc
 283              	.LFE41:
 284              		.size	_gtimerInit, .-_gtimerInit
 285 001c C046C046 		.section	.text.gtimerInit,"ax",%progbits
ARM GAS  /tmp/ccO08SwI.s 			page 6


 286              		.align	2
 287              		.p2align 4,,15
 288              		.global	gtimerInit
 289              		.code	16
 290              		.thumb_func
 291              		.type	gtimerInit, %function
 292              	gtimerInit:
 293              	.LFB42:
 294              		.loc 1 126 0
 295              		.cfi_startproc
 296              	.LVL26:
 297              		.loc 1 127 0
 298 0000 0023     		mov	r3, #0
 299 0002 0382     		strh	r3, [r0, #16]
 300              		.loc 1 128 0
 301              		@ sp needed for prologue
 302 0004 7047     		bx	lr
 303              		.cfi_endproc
 304              	.LFE42:
 305              		.size	gtimerInit, .-gtimerInit
 306 0006 C046C046 		.section	.text.gtimerStart,"ax",%progbits
 306      C046C046 
 306      C046
 307              		.align	2
 308              		.p2align 4,,15
 309              		.global	gtimerStart
 310              		.code	16
 311              		.thumb_func
 312              		.type	gtimerStart, %function
 313              	gtimerStart:
 314              	.LFB43:
 315              		.loc 1 130 0
 316              		.cfi_startproc
 317              	.LVL27:
 318 0000 F0B5     		push	{r4, r5, r6, r7, lr}
 319              	.LCFI4:
 320              		.cfi_def_cfa_offset 20
 321              		.cfi_offset 4, -20
 322              		.cfi_offset 5, -16
 323              		.cfi_offset 6, -12
 324              		.cfi_offset 7, -8
 325              		.cfi_offset 14, -4
 326 0002 4F46     		mov	r7, r9
 327 0004 80B4     		push	{r7}
 328              	.LCFI5:
 329              		.cfi_def_cfa_offset 24
 330              		.cfi_offset 9, -24
 331 0006 041C     		mov	r4, r0
 332 0008 82B0     		sub	sp, sp, #8
 333              	.LCFI6:
 334              		.cfi_def_cfa_offset 32
 335              		.loc 1 131 0
 336 000a 3448     		ldr	r0, .L52
 337              	.LVL28:
 338              		.loc 1 130 0
 339 000c 8946     		mov	r9, r1
 340 000e 151C     		mov	r5, r2
ARM GAS  /tmp/ccO08SwI.s 			page 7


 341 0010 1F1C     		mov	r7, r3
 342              		.loc 1 131 0
 343 0012 FFF7FEFF 		bl	chMtxLock
 344              	.LVL29:
 345              		.loc 1 134 0
 346 0016 324E     		ldr	r6, .L52+4
 347 0018 3068     		ldr	r0, [r6]
 348 001a 0028     		cmp	r0, #0
 349 001c 53D0     		beq	.L48
 350              	.L36:
 351              		.loc 1 140 0
 352 001e 238A     		ldrh	r3, [r4, #16]
 353 0020 1A07     		lsl	r2, r3, #28
 354 0022 2CD4     		bmi	.L37
 355 0024 2F4E     		ldr	r6, .L52+8
 356              	.L38:
 357              		.loc 1 153 0
 358 0026 4846     		mov	r0, r9
 359 0028 2060     		str	r0, [r4]
 360              		.loc 1 154 0
 361 002a 6560     		str	r5, [r4, #4]
 362              		.loc 1 156 0
 363 002c 002F     		cmp	r7, #0
 364 002e 34D1     		bne	.L41
 365              	.LVL30:
 366              		.loc 1 158 0
 367 0030 0899     		ldr	r1, [sp, #32]
 368              		.loc 1 155 0
 369 0032 0825     		mov	r5, #8
 370              	.LVL31:
 371 0034 2582     		strh	r5, [r4, #16]
 372              		.loc 1 158 0
 373 0036 4A1C     		add	r2, r1, #1
 374 0038 34D0     		beq	.L49
 375              	.L43:
 376              		.loc 1 162 0
 377 003a FA23     		mov	r3, #250
 378 003c 089A     		ldr	r2, [sp, #32]
 379 003e 9900     		lsl	r1, r3, #2
 380 0040 4A43     		mul	r2, r1
 381 0042 501E     		sub	r0, r2, #1
 382              	.LVL32:
 383 0044 FFF7FEFF 		bl	__aeabi_uidiv
 384              	.LVL33:
 385              		.loc 1 163 0
 386 0048 274D     		ldr	r5, .L52+12
 387              		.loc 1 162 0
 388 004a 0130     		add	r0, r0, #1
 389              		.loc 1 163 0
 390 004c EF68     		ldr	r7, [r5, #12]
 391              		.loc 1 167 0
 392 004e 3568     		ldr	r5, [r6]
 393              		.loc 1 162 0
 394 0050 E060     		str	r0, [r4, #12]
 395              		.loc 1 163 0
 396 0052 C019     		add	r0, r0, r7
 397 0054 A060     		str	r0, [r4, #8]
ARM GAS  /tmp/ccO08SwI.s 			page 8


 398              		.loc 1 167 0
 399 0056 002D     		cmp	r5, #0
 400 0058 2DD0     		beq	.L45
 401              	.L51:
 402              		.loc 1 169 0
 403 005a AE69     		ldr	r6, [r5, #24]
 404              		.loc 1 168 0
 405 005c 6561     		str	r5, [r4, #20]
 406              		.loc 1 170 0
 407 005e 7461     		str	r4, [r6, #20]
 408              		.loc 1 171 0
 409 0060 6769     		ldr	r7, [r4, #20]
 410              		.loc 1 169 0
 411 0062 A661     		str	r6, [r4, #24]
 412              		.loc 1 171 0
 413 0064 BC61     		str	r4, [r7, #24]
 414              	.L46:
 415              		.loc 1 176 0
 416 0066 248A     		ldrh	r4, [r4, #16]
 417              	.LVL34:
 418 0068 A207     		lsl	r2, r4, #30
 419 006a 02D4     		bmi	.L47
 420              		.loc 1 177 0
 421 006c 1F48     		ldr	r0, .L52+16
 422 006e FFF7FEFF 		bl	gfxSemSignal
 423              	.LVL35:
 424              	.L47:
 425              		.loc 1 178 0
 426 0072 FFF7FEFF 		bl	chMtxUnlock
 427              	.LVL36:
 428              		.loc 1 179 0
 429 0076 02B0     		add	sp, sp, #8
 430              		@ sp needed for prologue
 431              	.LVL37:
 432 0078 04BC     		pop	{r2}
 433 007a 9146     		mov	r9, r2
 434 007c F0BD     		pop	{r4, r5, r6, r7, pc}
 435              	.LVL38:
 436              	.L37:
 437              		.loc 1 142 0
 438 007e 6669     		ldr	r6, [r4, #20]
 439 0080 A269     		ldr	r2, [r4, #24]
 440 0082 9642     		cmp	r6, r2
 441 0084 1BD0     		beq	.L50
 442              		.loc 1 145 0
 443 0086 B261     		str	r2, [r6, #24]
 444              		.loc 1 146 0
 445 0088 A069     		ldr	r0, [r4, #24]
 446 008a 4661     		str	r6, [r0, #20]
 447              		.loc 1 147 0
 448 008c 154E     		ldr	r6, .L52+8
 449 008e 3168     		ldr	r1, [r6]
 450 0090 A142     		cmp	r1, r4
 451 0092 C8D1     		bne	.L38
 452              		.loc 1 148 0
 453 0094 6369     		ldr	r3, [r4, #20]
 454 0096 3360     		str	r3, [r6]
ARM GAS  /tmp/ccO08SwI.s 			page 9


 455 0098 C5E7     		b	.L38
 456              	.LVL39:
 457              	.L41:
 458              		.loc 1 158 0
 459 009a 0899     		ldr	r1, [sp, #32]
 460              		.loc 1 157 0
 461 009c 0927     		mov	r7, #9
 462 009e 2782     		strh	r7, [r4, #16]
 463              		.loc 1 158 0
 464 00a0 4A1C     		add	r2, r1, #1
 465 00a2 CAD1     		bne	.L43
 466              	.LVL40:
 467              	.L49:
 468              		.loc 1 159 0
 469 00a4 218A     		ldrh	r1, [r4, #16]
 470 00a6 0223     		mov	r3, #2
 471              		.loc 1 160 0
 472 00a8 089A     		ldr	r2, [sp, #32]
 473              		.loc 1 167 0
 474 00aa 3568     		ldr	r5, [r6]
 475              		.loc 1 159 0
 476 00ac 0B43     		orr	r3, r1
 477 00ae 2382     		strh	r3, [r4, #16]
 478              		.loc 1 160 0
 479 00b0 E260     		str	r2, [r4, #12]
 480              		.loc 1 167 0
 481 00b2 002D     		cmp	r5, #0
 482 00b4 D1D1     		bne	.L51
 483              	.LVL41:
 484              	.L45:
 485              		.loc 1 173 0
 486 00b6 3460     		str	r4, [r6]
 487 00b8 A461     		str	r4, [r4, #24]
 488 00ba 6461     		str	r4, [r4, #20]
 489 00bc D3E7     		b	.L46
 490              	.LVL42:
 491              	.L50:
 492              		.loc 1 143 0
 493 00be 094E     		ldr	r6, .L52+8
 494 00c0 0022     		mov	r2, #0
 495 00c2 3260     		str	r2, [r6]
 496 00c4 AFE7     		b	.L38
 497              	.L48:
 498              		.loc 1 135 0
 499 00c6 9621     		mov	r1, #150
 500 00c8 0090     		str	r0, [sp]
 501 00ca C900     		lsl	r1, r1, #3
 502 00cc 0848     		ldr	r0, .L52+20
 503 00ce 7F22     		mov	r2, #127
 504 00d0 084B     		ldr	r3, .L52+24
 505 00d2 FFF7FEFF 		bl	gfxThreadCreate
 506              	.LVL43:
 507 00d6 3060     		str	r0, [r6]
 508 00d8 A1E7     		b	.L36
 509              	.L53:
 510 00da C046     		.align	2
 511              	.L52:
ARM GAS  /tmp/ccO08SwI.s 			page 10


 512 00dc 00000000 		.word	.LANCHOR1
 513 00e0 00000000 		.word	.LANCHOR3
 514 00e4 00000000 		.word	.LANCHOR2
 515 00e8 00000000 		.word	vtlist
 516 00ec 00000000 		.word	.LANCHOR0
 517 00f0 00000000 		.word	.LANCHOR4
 518 00f4 00000000 		.word	GTimerThreadHandler
 519              		.cfi_endproc
 520              	.LFE43:
 521              		.size	gtimerStart, .-gtimerStart
 522 00f8 C046C046 		.section	.text.gtimerStop,"ax",%progbits
 522      C046C046 
 523              		.align	2
 524              		.p2align 4,,15
 525              		.global	gtimerStop
 526              		.code	16
 527              		.thumb_func
 528              		.type	gtimerStop, %function
 529              	gtimerStop:
 530              	.LFB44:
 531              		.loc 1 181 0
 532              		.cfi_startproc
 533              	.LVL44:
 534 0000 10B5     		push	{r4, lr}
 535              	.LCFI7:
 536              		.cfi_def_cfa_offset 8
 537              		.cfi_offset 4, -8
 538              		.cfi_offset 14, -4
 539              		.loc 1 181 0
 540 0002 041C     		mov	r4, r0
 541              		.loc 1 182 0
 542 0004 0E48     		ldr	r0, .L63
 543              	.LVL45:
 544 0006 FFF7FEFF 		bl	chMtxLock
 545              	.LVL46:
 546              		.loc 1 183 0
 547 000a 238A     		ldrh	r3, [r4, #16]
 548 000c 1A07     		lsl	r2, r3, #28
 549 000e 0CD5     		bpl	.L55
 550              		.loc 1 185 0
 551 0010 6069     		ldr	r0, [r4, #20]
 552 0012 A269     		ldr	r2, [r4, #24]
 553 0014 9042     		cmp	r0, r2
 554 0016 0ED0     		beq	.L61
 555              		.loc 1 188 0
 556 0018 8261     		str	r2, [r0, #24]
 557              		.loc 1 189 0
 558 001a A169     		ldr	r1, [r4, #24]
 559              		.loc 1 190 0
 560 001c 094B     		ldr	r3, .L63+4
 561              		.loc 1 189 0
 562 001e 4861     		str	r0, [r1, #20]
 563              		.loc 1 190 0
 564 0020 1868     		ldr	r0, [r3]
 565 0022 A042     		cmp	r0, r4
 566 0024 04D0     		beq	.L62
 567              	.L57:
ARM GAS  /tmp/ccO08SwI.s 			page 11


 568              		.loc 1 194 0
 569 0026 0020     		mov	r0, #0
 570 0028 2082     		strh	r0, [r4, #16]
 571              	.L55:
 572              		.loc 1 196 0
 573 002a FFF7FEFF 		bl	chMtxUnlock
 574              	.LVL47:
 575              		.loc 1 197 0
 576              		@ sp needed for prologue
 577              	.LVL48:
 578 002e 10BD     		pop	{r4, pc}
 579              	.LVL49:
 580              	.L62:
 581              		.loc 1 191 0
 582 0030 6269     		ldr	r2, [r4, #20]
 583 0032 1A60     		str	r2, [r3]
 584 0034 F7E7     		b	.L57
 585              	.L61:
 586              		.loc 1 186 0
 587 0036 034B     		ldr	r3, .L63+4
 588 0038 0021     		mov	r1, #0
 589 003a 1960     		str	r1, [r3]
 590 003c F3E7     		b	.L57
 591              	.L64:
 592 003e C046     		.align	2
 593              	.L63:
 594 0040 00000000 		.word	.LANCHOR1
 595 0044 00000000 		.word	.LANCHOR2
 596              		.cfi_endproc
 597              	.LFE44:
 598              		.size	gtimerStop, .-gtimerStop
 599 0048 C046C046 		.section	.text.gtimerIsActive,"ax",%progbits
 599      C046C046 
 600              		.align	2
 601              		.p2align 4,,15
 602              		.global	gtimerIsActive
 603              		.code	16
 604              		.thumb_func
 605              		.type	gtimerIsActive, %function
 606              	gtimerIsActive:
 607              	.LFB45:
 608              		.loc 1 199 0
 609              		.cfi_startproc
 610              	.LVL50:
 611              		.loc 1 200 0
 612 0000 008A     		ldrh	r0, [r0, #16]
 613              	.LVL51:
 614              		.loc 1 201 0
 615              		@ sp needed for prologue
 616              		.loc 1 200 0
 617 0002 0107     		lsl	r1, r0, #28
 618 0004 C80F     		lsr	r0, r1, #31
 619              		.loc 1 201 0
 620 0006 7047     		bx	lr
 621              		.cfi_endproc
 622              	.LFE45:
 623              		.size	gtimerIsActive, .-gtimerIsActive
ARM GAS  /tmp/ccO08SwI.s 			page 12


 624 0008 C046C046 		.section	.text.gtimerJab,"ax",%progbits
 624      C046C046 
 625              		.align	2
 626              		.p2align 4,,15
 627              		.global	gtimerJab
 628              		.code	16
 629              		.thumb_func
 630              		.type	gtimerJab, %function
 631              	gtimerJab:
 632              	.LFB46:
 633              		.loc 1 203 0
 634              		.cfi_startproc
 635              	.LVL52:
 636 0000 10B5     		push	{r4, lr}
 637              	.LCFI8:
 638              		.cfi_def_cfa_offset 8
 639              		.cfi_offset 4, -8
 640              		.cfi_offset 14, -4
 641              		.loc 1 203 0
 642 0002 041C     		mov	r4, r0
 643              		.loc 1 204 0
 644 0004 0648     		ldr	r0, .L67
 645              	.LVL53:
 646 0006 FFF7FEFF 		bl	chMtxLock
 647              	.LVL54:
 648              		.loc 1 207 0
 649 000a 228A     		ldrh	r2, [r4, #16]
 650 000c 0423     		mov	r3, #4
 651 000e 1343     		orr	r3, r2
 652 0010 2382     		strh	r3, [r4, #16]
 653              		.loc 1 210 0
 654 0012 0448     		ldr	r0, .L67+4
 655 0014 FFF7FEFF 		bl	gfxSemSignal
 656              	.LVL55:
 657              		.loc 1 212 0
 658              		@ sp needed for prologue
 659              		.loc 1 211 0
 660 0018 FFF7FEFF 		bl	chMtxUnlock
 661              	.LVL56:
 662              	.LVL57:
 663              		.loc 1 212 0
 664 001c 10BD     		pop	{r4, pc}
 665              	.L68:
 666 001e C046     		.align	2
 667              	.L67:
 668 0020 00000000 		.word	.LANCHOR1
 669 0024 00000000 		.word	.LANCHOR0
 670              		.cfi_endproc
 671              	.LFE46:
 672              		.size	gtimerJab, .-gtimerJab
 673 0028 C046C046 		.section	.text.gtimerJabI,"ax",%progbits
 673      C046C046 
 674              		.align	2
 675              		.p2align 4,,15
 676              		.global	gtimerJabI
 677              		.code	16
 678              		.thumb_func
ARM GAS  /tmp/ccO08SwI.s 			page 13


 679              		.type	gtimerJabI, %function
 680              	gtimerJabI:
 681              	.LFB47:
 682              		.loc 1 214 0
 683              		.cfi_startproc
 684              	.LVL58:
 685 0000 08B5     		push	{r3, lr}
 686              	.LCFI9:
 687              		.cfi_def_cfa_offset 8
 688              		.cfi_offset 3, -8
 689              		.cfi_offset 14, -4
 690              		.loc 1 216 0
 691 0002 028A     		ldrh	r2, [r0, #16]
 692 0004 0423     		mov	r3, #4
 693 0006 1343     		orr	r3, r2
 694 0008 0382     		strh	r3, [r0, #16]
 695              		.loc 1 219 0
 696 000a 0248     		ldr	r0, .L70
 697              	.LVL59:
 698 000c FFF7FEFF 		bl	gfxSemSignalI
 699              	.LVL60:
 700              		.loc 1 220 0
 701              		@ sp needed for prologue
 702 0010 08BD     		pop	{r3, pc}
 703              	.L71:
 704 0012 C046     		.align	2
 705              	.L70:
 706 0014 00000000 		.word	.LANCHOR0
 707              		.cfi_endproc
 708              	.LFE47:
 709              		.size	gtimerJabI, .-gtimerJabI
 710 0018 C046C046 		.section	.bss.mutex,"aw",%nobits
 710      C046C046 
 711              		.align	2
 712              		.set	.LANCHOR1,. + 0
 713              		.type	mutex, %object
 714              		.size	mutex, 16
 715              	mutex:
 716 0000 00000000 		.space	16
 716      00000000 
 716      00000000 
 716      00000000 
 717              		.section	.bss.hThread,"aw",%nobits
 718              		.align	2
 719              		.set	.LANCHOR3,. + 0
 720              		.type	hThread, %object
 721              		.size	hThread, 4
 722              	hThread:
 723 0000 00000000 		.space	4
 724              		.section	.bss.waTimerThread,"aw",%nobits
 725              		.align	3
 726              		.set	.LANCHOR4,. + 0
 727              		.type	waTimerThread, %object
 728              		.size	waTimerThread, 1200
 729              	waTimerThread:
 730 0000 00000000 		.space	1200
 730      00000000 
ARM GAS  /tmp/ccO08SwI.s 			page 14


 730      00000000 
 730      00000000 
 730      00000000 
 731              		.section	.bss.pTimerHead,"aw",%nobits
 732              		.align	2
 733              		.set	.LANCHOR2,. + 0
 734              		.type	pTimerHead, %object
 735              		.size	pTimerHead, 4
 736              	pTimerHead:
 737 0000 00000000 		.space	4
 738              		.section	.bss.waitsem,"aw",%nobits
 739              		.align	2
 740              		.set	.LANCHOR0,. + 0
 741              		.type	waitsem, %object
 742              		.size	waitsem, 16
 743              	waitsem:
 744 0000 00000000 		.space	16
 744      00000000 
 744      00000000 
 744      00000000 
 745              		.text
 746              	.Letext0:
 747              		.file 2 "/home/matt/arm_cortex/gcc-arm-none-eabi/bin/../lib/gcc/arm-none-eabi/4.7.4/include/stddef
 748              		.file 3 "/home/matt/arm_cortex/gcc-arm-none-eabi/bin/../lib/gcc/arm-none-eabi/4.7.4/../../../../ar
 749              		.file 4 "/home/matt/arm_cortex/ChibiOS/os/ports/GCC/ARMCMx/chtypes.h"
 750              		.file 5 "/home/matt/arm_cortex/ChibiOS/os/kernel/include/chlists.h"
 751              		.file 6 "/home/matt/arm_cortex/ChibiOS/os/kernel/include/chthreads.h"
 752              		.file 7 "/home/matt/arm_cortex/ChibiOS/os/ports/GCC/ARMCMx/chcore_v6m.h"
 753              		.file 8 "/home/matt/arm_cortex/ChibiOS/os/kernel/include/chvt.h"
 754              		.file 9 "/home/matt/arm_cortex/ChibiOS/os/kernel/include/chsem.h"
 755              		.file 10 "/home/matt/arm_cortex/ChibiOS/os/kernel/include/chmtx.h"
 756              		.file 11 "/home/matt/arm_cortex/ChibiOS/ext/ugfx/include/gos/chibios.h"
 757              		.file 12 "/home/matt/arm_cortex/ChibiOS/ext/ugfx/include/gtimer/gtimer.h"