ARM GAS  /tmp/ccGEw7oO.s 			page 1


   1              		.cpu cortex-m0
   2              		.fpu softvfp
   3              		.eabi_attribute 20, 1
   4              		.eabi_attribute 21, 1
   5              		.eabi_attribute 23, 3
   6              		.eabi_attribute 24, 1
   7              		.eabi_attribute 25, 1
   8              		.eabi_attribute 26, 1
   9              		.eabi_attribute 30, 2
  10              		.eabi_attribute 34, 0
  11              		.eabi_attribute 18, 4
  12              		.code	16
  13              		.file	"gwin.c"
  14              		.text
  15              	.Ltext0:
  16              		.cfi_sections	.debug_frame
  17              		.section	.text._gwm_redim,"ax",%progbits
  18              		.align	2
  19              		.p2align 4,,15
  20              		.code	16
  21              		.thumb_func
  22              		.type	_gwm_redim, %function
  23              	_gwm_redim:
  24              	.LFB41:
  25              		.file 1 "/home/matt/arm_cortex/ChibiOS/ext/ugfx/src/gwin/gwin.c"
  26              		.loc 1 50 0
  27              		.cfi_startproc
  28              	.LVL0:
  29 0000 F8B5     		push	{r3, r4, r5, r6, r7, lr}
  30              	.LCFI0:
  31              		.cfi_def_cfa_offset 24
  32              		.cfi_offset 3, -24
  33              		.cfi_offset 4, -20
  34              		.cfi_offset 5, -16
  35              		.cfi_offset 6, -12
  36              		.cfi_offset 7, -8
  37              		.cfi_offset 14, -4
  38              		.loc 1 50 0
  39 0002 041C     		mov	r4, r0
  40 0004 06A8     		add	r0, sp, #24
  41              	.LVL1:
  42 0006 0025     		mov	r5, #0
  43 0008 405F     		ldrsh	r0, [r0, r5]
  44              		.loc 1 51 0
  45 000a A180     		strh	r1, [r4, #4]
  46 000c E280     		strh	r2, [r4, #6]
  47              		.loc 1 52 0
  48 000e 2381     		strh	r3, [r4, #8]
  49 0010 6081     		strh	r0, [r4, #10]
  50              		.loc 1 53 0
  51 0012 0029     		cmp	r1, #0
  52 0014 40DB     		blt	.L20
  53              	.LVL2:
  54              	.L2:
  55              		.loc 1 54 0
  56 0016 002A     		cmp	r2, #0
  57 0018 38DB     		blt	.L21
ARM GAS  /tmp/ccGEw7oO.s 			page 2


  58              	.LVL3:
  59              	.L3:
  60              		.loc 1 55 0
  61 001a 224D     		ldr	r5, .L24
  62 001c 2F88     		ldrh	r7, [r5]
  63 001e 3EB2     		sxth	r6, r7
  64 0020 B446     		mov	ip, r6
  65 0022 8E42     		cmp	r6, r1
  66 0024 02DC     		bgt	.L4
  67              		.loc 1 55 0 is_stmt 0 discriminator 1
  68 0026 791E     		sub	r1, r7, #1
  69 0028 09B2     		sxth	r1, r1
  70 002a A180     		strh	r1, [r4, #4]
  71              	.L4:
  72              		.loc 1 56 0 is_stmt 1
  73 002c 6D88     		ldrh	r5, [r5, #2]
  74 002e 2EB2     		sxth	r6, r5
  75 0030 9642     		cmp	r6, r2
  76 0032 02DC     		bgt	.L5
  77              		.loc 1 56 0 is_stmt 0 discriminator 1
  78 0034 6A1E     		sub	r2, r5, #1
  79 0036 12B2     		sxth	r2, r2
  80 0038 E280     		strh	r2, [r4, #6]
  81              	.L5:
  82              		.loc 1 57 0 is_stmt 1
  83 003a 002B     		cmp	r3, #0
  84 003c 23DD     		ble	.L22
  85              	.L7:
  86              		.loc 1 58 0
  87 003e 0028     		cmp	r0, #0
  88 0040 1EDD     		ble	.L23
  89              	.L9:
  90              		.loc 1 59 0
  91 0042 CB18     		add	r3, r1, r3
  92 0044 6345     		cmp	r3, ip
  93 0046 01DD     		ble	.L10
  94              		.loc 1 59 0 is_stmt 0 discriminator 1
  95 0048 7F1A     		sub	r7, r7, r1
  96 004a 2781     		strh	r7, [r4, #8]
  97              	.L10:
  98              		.loc 1 60 0 is_stmt 1
  99 004c 1018     		add	r0, r2, r0
 100 004e B042     		cmp	r0, r6
 101 0050 01DD     		ble	.L11
 102              		.loc 1 60 0 is_stmt 0 discriminator 1
 103 0052 AD1A     		sub	r5, r5, r2
 104 0054 6581     		strh	r5, [r4, #10]
 105              	.L11:
 106              		.loc 1 63 0 is_stmt 1
 107 0056 268A     		ldrh	r6, [r4, #16]
 108 0058 B007     		lsl	r0, r6, #30
 109 005a 10D5     		bpl	.L1
 110              		.loc 1 64 0
 111 005c 2368     		ldr	r3, [r4]
 112 005e DF68     		ldr	r7, [r3, #12]
 113 0060 002F     		cmp	r7, #0
 114 0062 0CD0     		beq	.L1
ARM GAS  /tmp/ccGEw7oO.s 			page 3


 115              		.loc 1 66 0
 116 0064 0823     		mov	r3, #8
 117 0066 E55E     		ldrsh	r5, [r4, r3]
 118 0068 081C     		mov	r0, r1
 119 006a 0A26     		mov	r6, #10
 120 006c A35F     		ldrsh	r3, [r4, r6]
 121 006e 111C     		mov	r1, r2
 122 0070 2A1C     		mov	r2, r5
 123 0072 FFF7FEFF 		bl	gdisp_lld_set_clip
 124              	.LVL4:
 125              		.loc 1 68 0
 126 0076 2168     		ldr	r1, [r4]
 127 0078 201C     		mov	r0, r4
 128 007a CA68     		ldr	r2, [r1, #12]
 129 007c 9047     		blx	r2
 130              	.LVL5:
 131              	.L1:
 132              		.loc 1 71 0
 133              		@ sp needed for prologue
 134              	.LVL6:
 135 007e F8BD     		pop	{r3, r4, r5, r6, r7, pc}
 136              	.LVL7:
 137              	.L23:
 138              		.loc 1 58 0 discriminator 1
 139 0080 0120     		mov	r0, #1
 140 0082 6081     		strh	r0, [r4, #10]
 141 0084 DDE7     		b	.L9
 142              	.L22:
 143              		.loc 1 57 0 discriminator 1
 144 0086 0123     		mov	r3, #1
 145 0088 2381     		strh	r3, [r4, #8]
 146 008a D8E7     		b	.L7
 147              	.LVL8:
 148              	.L21:
 149              		.loc 1 54 0 discriminator 1
 150 008c 8218     		add	r2, r0, r2
 151              	.LVL9:
 152 008e 10B2     		sxth	r0, r2
 153 0090 0022     		mov	r2, #0
 154 0092 6081     		strh	r0, [r4, #10]
 155 0094 E280     		strh	r2, [r4, #6]
 156 0096 C0E7     		b	.L3
 157              	.LVL10:
 158              	.L20:
 159              		.loc 1 53 0 discriminator 1
 160 0098 5B18     		add	r3, r3, r1
 161              	.LVL11:
 162 009a 1BB2     		sxth	r3, r3
 163 009c 0021     		mov	r1, #0
 164              	.LVL12:
 165 009e 2381     		strh	r3, [r4, #8]
 166 00a0 A180     		strh	r1, [r4, #4]
 167 00a2 B8E7     		b	.L2
 168              	.L25:
 169              		.align	2
 170              	.L24:
 171 00a4 00000000 		.word	GDISP
ARM GAS  /tmp/ccGEw7oO.s 			page 4


 172              		.cfi_endproc
 173              	.LFE41:
 174              		.size	_gwm_redim, .-_gwm_redim
 175 00a8 C046C046 		.section	.text._gwinInit,"ax",%progbits
 175      C046C046 
 176              		.align	2
 177              		.p2align 4,,15
 178              		.global	_gwinInit
 179              		.code	16
 180              		.thumb_func
 181              		.type	_gwinInit, %function
 182              	_gwinInit:
 183              	.LFB42:
 184              		.loc 1 78 0
 185              		.cfi_startproc
 186              		.loc 1 89 0
 187              		@ sp needed for prologue
 188 0000 7047     		bx	lr
 189              		.cfi_endproc
 190              	.LFE42:
 191              		.size	_gwinInit, .-_gwinInit
 192 0002 C046C046 		.section	.text._gwindowCreate,"ax",%progbits
 192      C046C046 
 192      C046C046 
 192      C046
 193              		.align	2
 194              		.p2align 4,,15
 195              		.global	_gwindowCreate
 196              		.code	16
 197              		.thumb_func
 198              		.type	_gwindowCreate, %function
 199              	_gwindowCreate:
 200              	.LFB43:
 201              		.loc 1 93 0
 202              		.cfi_startproc
 203              	.LVL13:
 204 0000 F0B5     		push	{r4, r5, r6, r7, lr}
 205              	.LCFI1:
 206              		.cfi_def_cfa_offset 20
 207              		.cfi_offset 4, -20
 208              		.cfi_offset 5, -16
 209              		.cfi_offset 6, -12
 210              		.cfi_offset 7, -8
 211              		.cfi_offset 14, -4
 212 0002 041C     		mov	r4, r0
 213 0004 83B0     		sub	sp, sp, #12
 214              	.LCFI2:
 215              		.cfi_def_cfa_offset 32
 216              		.loc 1 93 0
 217 0006 0D1C     		mov	r5, r1
 218 0008 161C     		mov	r6, r2
 219 000a 1F1C     		mov	r7, r3
 220              		.loc 1 95 0
 221 000c 0028     		cmp	r0, #0
 222 000e 19D0     		beq	.L34
 223              		.loc 1 100 0
 224 0010 2382     		strh	r3, [r4, #16]
ARM GAS  /tmp/ccGEw7oO.s 			page 5


 225              	.LVL14:
 226              	.L30:
 227              		.loc 1 104 0
 228 0012 1148     		ldr	r0, .L35
 229              	.LVL15:
 230              		.loc 1 105 0
 231 0014 114A     		ldr	r2, .L35+4
 232              		.loc 1 107 0
 233 0016 124F     		ldr	r7, .L35+8
 234              		.loc 1 103 0
 235 0018 2660     		str	r6, [r4]
 236              		.loc 1 104 0
 237 001a 0188     		ldrh	r1, [r0]
 238              		.loc 1 105 0
 239 001c 1688     		ldrh	r6, [r2]
 240              	.LVL16:
 241              		.loc 1 107 0
 242 001e 3B68     		ldr	r3, [r7]
 243              		.loc 1 104 0
 244 0020 A181     		strh	r1, [r4, #12]
 245              		.loc 1 105 0
 246 0022 E681     		strh	r6, [r4, #14]
 247              		.loc 1 107 0
 248 0024 6361     		str	r3, [r4, #20]
 249              		.loc 1 117 0
 250 0026 0020     		mov	r0, #0
 251 0028 295E     		ldrsh	r1, [r5, r0]
 252 002a 0223     		mov	r3, #2
 253 002c EA5E     		ldrsh	r2, [r5, r3]
 254 002e 0426     		mov	r6, #4
 255 0030 AB5F     		ldrsh	r3, [r5, r6]
 256 0032 0626     		mov	r6, #6
 257 0034 AD5F     		ldrsh	r5, [r5, r6]
 258              	.LVL17:
 259 0036 201C     		mov	r0, r4
 260 0038 0095     		str	r5, [sp]
 261 003a FFF7FEFF 		bl	_gwm_redim
 262              	.LVL18:
 263              	.L29:
 264              		.loc 1 121 0
 265 003e 201C     		mov	r0, r4
 266 0040 03B0     		add	sp, sp, #12
 267              		@ sp needed for prologue
 268              	.LVL19:
 269 0042 F0BD     		pop	{r4, r5, r6, r7, pc}
 270              	.LVL20:
 271              	.L34:
 272              		.loc 1 96 0
 273 0044 0020     		mov	r0, #0
 274              	.LVL21:
 275 0046 5168     		ldr	r1, [r2, #4]
 276              	.LVL22:
 277 0048 FFF7FEFF 		bl	chHeapAlloc
 278              	.LVL23:
 279 004c 041E     		sub	r4, r0, #0
 280              	.LVL24:
 281 004e F6D0     		beq	.L29
ARM GAS  /tmp/ccGEw7oO.s 			page 6


 282              		.loc 1 98 0
 283 0050 0123     		mov	r3, #1
 284 0052 1F43     		orr	r7, r3
 285 0054 0782     		strh	r7, [r0, #16]
 286 0056 DCE7     		b	.L30
 287              	.L36:
 288              		.align	2
 289              	.L35:
 290 0058 00000000 		.word	.LANCHOR0
 291 005c 00000000 		.word	.LANCHOR1
 292 0060 00000000 		.word	.LANCHOR2
 293              		.cfi_endproc
 294              	.LFE43:
 295              		.size	_gwindowCreate, .-_gwindowCreate
 296 0064 C046C046 		.section	.text.gwinSetDefaultColor,"ax",%progbits
 296      C046C046 
 296      C046C046 
 297              		.align	2
 298              		.p2align 4,,15
 299              		.global	gwinSetDefaultColor
 300              		.code	16
 301              		.thumb_func
 302              		.type	gwinSetDefaultColor, %function
 303              	gwinSetDefaultColor:
 304              	.LFB44:
 305              		.loc 1 127 0
 306              		.cfi_startproc
 307              	.LVL25:
 308              		.loc 1 128 0
 309 0000 014B     		ldr	r3, .L38
 310              		.loc 1 129 0
 311              		@ sp needed for prologue
 312              		.loc 1 128 0
 313 0002 1880     		strh	r0, [r3]
 314              		.loc 1 129 0
 315 0004 7047     		bx	lr
 316              	.L39:
 317 0006 C046     		.align	2
 318              	.L38:
 319 0008 00000000 		.word	.LANCHOR0
 320              		.cfi_endproc
 321              	.LFE44:
 322              		.size	gwinSetDefaultColor, .-gwinSetDefaultColor
 323 000c C046C046 		.section	.text.gwinGetDefaultColor,"ax",%progbits
 324              		.align	2
 325              		.p2align 4,,15
 326              		.global	gwinGetDefaultColor
 327              		.code	16
 328              		.thumb_func
 329              		.type	gwinGetDefaultColor, %function
 330              	gwinGetDefaultColor:
 331              	.LFB45:
 332              		.loc 1 131 0
 333              		.cfi_startproc
 334              		.loc 1 132 0
 335 0000 014B     		ldr	r3, .L41
 336              		.loc 1 133 0
ARM GAS  /tmp/ccGEw7oO.s 			page 7


 337              		@ sp needed for prologue
 338              		.loc 1 132 0
 339 0002 1888     		ldrh	r0, [r3]
 340              		.loc 1 133 0
 341 0004 7047     		bx	lr
 342              	.L42:
 343 0006 C046     		.align	2
 344              	.L41:
 345 0008 00000000 		.word	.LANCHOR0
 346              		.cfi_endproc
 347              	.LFE45:
 348              		.size	gwinGetDefaultColor, .-gwinGetDefaultColor
 349 000c C046C046 		.section	.text.gwinSetDefaultBgColor,"ax",%progbits
 350              		.align	2
 351              		.p2align 4,,15
 352              		.global	gwinSetDefaultBgColor
 353              		.code	16
 354              		.thumb_func
 355              		.type	gwinSetDefaultBgColor, %function
 356              	gwinSetDefaultBgColor:
 357              	.LFB46:
 358              		.loc 1 135 0
 359              		.cfi_startproc
 360              	.LVL26:
 361              		.loc 1 136 0
 362 0000 014B     		ldr	r3, .L44
 363              		.loc 1 137 0
 364              		@ sp needed for prologue
 365              		.loc 1 136 0
 366 0002 1880     		strh	r0, [r3]
 367              		.loc 1 137 0
 368 0004 7047     		bx	lr
 369              	.L45:
 370 0006 C046     		.align	2
 371              	.L44:
 372 0008 00000000 		.word	.LANCHOR1
 373              		.cfi_endproc
 374              	.LFE46:
 375              		.size	gwinSetDefaultBgColor, .-gwinSetDefaultBgColor
 376 000c C046C046 		.section	.text.gwinGetDefaultBgColor,"ax",%progbits
 377              		.align	2
 378              		.p2align 4,,15
 379              		.global	gwinGetDefaultBgColor
 380              		.code	16
 381              		.thumb_func
 382              		.type	gwinGetDefaultBgColor, %function
 383              	gwinGetDefaultBgColor:
 384              	.LFB47:
 385              		.loc 1 139 0
 386              		.cfi_startproc
 387              		.loc 1 140 0
 388 0000 014B     		ldr	r3, .L47
 389              		.loc 1 141 0
 390              		@ sp needed for prologue
 391              		.loc 1 140 0
 392 0002 1888     		ldrh	r0, [r3]
 393              		.loc 1 141 0
ARM GAS  /tmp/ccGEw7oO.s 			page 8


 394 0004 7047     		bx	lr
 395              	.L48:
 396 0006 C046     		.align	2
 397              	.L47:
 398 0008 00000000 		.word	.LANCHOR1
 399              		.cfi_endproc
 400              	.LFE47:
 401              		.size	gwinGetDefaultBgColor, .-gwinGetDefaultBgColor
 402 000c C046C046 		.section	.text.gwinSetDefaultFont,"ax",%progbits
 403              		.align	2
 404              		.p2align 4,,15
 405              		.global	gwinSetDefaultFont
 406              		.code	16
 407              		.thumb_func
 408              		.type	gwinSetDefaultFont, %function
 409              	gwinSetDefaultFont:
 410              	.LFB48:
 411              		.loc 1 144 0
 412              		.cfi_startproc
 413              	.LVL27:
 414              		.loc 1 145 0
 415 0000 014B     		ldr	r3, .L50
 416              		.loc 1 146 0
 417              		@ sp needed for prologue
 418              		.loc 1 145 0
 419 0002 1860     		str	r0, [r3]
 420              		.loc 1 146 0
 421 0004 7047     		bx	lr
 422              	.L51:
 423 0006 C046     		.align	2
 424              	.L50:
 425 0008 00000000 		.word	.LANCHOR2
 426              		.cfi_endproc
 427              	.LFE48:
 428              		.size	gwinSetDefaultFont, .-gwinSetDefaultFont
 429 000c C046C046 		.section	.text.gwinGetDefaultFont,"ax",%progbits
 430              		.align	2
 431              		.p2align 4,,15
 432              		.global	gwinGetDefaultFont
 433              		.code	16
 434              		.thumb_func
 435              		.type	gwinGetDefaultFont, %function
 436              	gwinGetDefaultFont:
 437              	.LFB49:
 438              		.loc 1 148 0
 439              		.cfi_startproc
 440              		.loc 1 149 0
 441 0000 014B     		ldr	r3, .L53
 442              		.loc 1 150 0
 443              		@ sp needed for prologue
 444              		.loc 1 149 0
 445 0002 1868     		ldr	r0, [r3]
 446              		.loc 1 150 0
 447 0004 7047     		bx	lr
 448              	.L54:
 449 0006 C046     		.align	2
 450              	.L53:
ARM GAS  /tmp/ccGEw7oO.s 			page 9


 451 0008 00000000 		.word	.LANCHOR2
 452              		.cfi_endproc
 453              	.LFE49:
 454              		.size	gwinGetDefaultFont, .-gwinGetDefaultFont
 455 000c C046C046 		.section	.text.gwinDestroy,"ax",%progbits
 456              		.align	2
 457              		.p2align 4,,15
 458              		.global	gwinDestroy
 459              		.code	16
 460              		.thumb_func
 461              		.type	gwinDestroy, %function
 462              	gwinDestroy:
 463              	.LFB51:
 464              		.loc 1 164 0
 465              		.cfi_startproc
 466              	.LVL28:
 467              		.loc 1 171 0
 468 0000 0368     		ldr	r3, [r0]
 469              		.loc 1 164 0
 470 0002 10B5     		push	{r4, lr}
 471              	.LCFI3:
 472              		.cfi_def_cfa_offset 8
 473              		.cfi_offset 4, -8
 474              		.cfi_offset 14, -4
 475              		.loc 1 171 0
 476 0004 9968     		ldr	r1, [r3, #8]
 477              		.loc 1 164 0
 478 0006 041C     		mov	r4, r0
 479              		.loc 1 171 0
 480 0008 0029     		cmp	r1, #0
 481 000a 00D0     		beq	.L56
 482              		.loc 1 172 0
 483 000c 8847     		blx	r1
 484              	.LVL29:
 485              	.L56:
 486              		.loc 1 175 0
 487 000e 208A     		ldrh	r0, [r4, #16]
 488 0010 0122     		mov	r2, #1
 489 0012 1040     		and	r0, r2
 490 0014 01D1     		bne	.L62
 491              		.loc 1 179 0
 492 0016 2082     		strh	r0, [r4, #16]
 493              	.L55:
 494              		.loc 1 180 0
 495              		@ sp needed for prologue
 496              	.LVL30:
 497 0018 10BD     		pop	{r4, pc}
 498              	.LVL31:
 499              	.L62:
 500              		.loc 1 176 0
 501 001a 0023     		mov	r3, #0
 502 001c 2382     		strh	r3, [r4, #16]
 503              		.loc 1 177 0
 504 001e 201C     		mov	r0, r4
 505 0020 FFF7FEFF 		bl	chHeapFree
 506              	.LVL32:
 507 0024 F8E7     		b	.L55
ARM GAS  /tmp/ccGEw7oO.s 			page 10


 508              		.cfi_endproc
 509              	.LFE51:
 510              		.size	gwinDestroy, .-gwinDestroy
 511 0026 C046C046 		.section	.text.gwinGetClassName,"ax",%progbits
 511      C046C046 
 511      C046
 512              		.align	2
 513              		.p2align 4,,15
 514              		.global	gwinGetClassName
 515              		.code	16
 516              		.thumb_func
 517              		.type	gwinGetClassName, %function
 518              	gwinGetClassName:
 519              	.LFB52:
 520              		.loc 1 182 0
 521              		.cfi_startproc
 522              	.LVL33:
 523              		.loc 1 183 0
 524 0000 0368     		ldr	r3, [r0]
 525              		.loc 1 184 0
 526              		@ sp needed for prologue
 527              		.loc 1 183 0
 528 0002 1868     		ldr	r0, [r3]
 529              	.LVL34:
 530              		.loc 1 184 0
 531 0004 7047     		bx	lr
 532              		.cfi_endproc
 533              	.LFE52:
 534              		.size	gwinGetClassName, .-gwinGetClassName
 535              		.section	.text.gwinGetVisible,"ax",%progbits
 536              		.align	2
 537              		.p2align 4,,15
 538              		.global	gwinGetVisible
 539              		.code	16
 540              		.thumb_func
 541              		.type	gwinGetVisible, %function
 542              	gwinGetVisible:
 543              	.LFB54:
 544              		.loc 1 206 0
 545              		.cfi_startproc
 546              	.LVL35:
 547              		.loc 1 207 0
 548 0000 008A     		ldrh	r0, [r0, #16]
 549              	.LVL36:
 550              		.loc 1 208 0
 551              		@ sp needed for prologue
 552              		.loc 1 207 0
 553 0002 8107     		lsl	r1, r0, #30
 554 0004 C80F     		lsr	r0, r1, #31
 555              		.loc 1 208 0
 556 0006 7047     		bx	lr
 557              		.cfi_endproc
 558              	.LFE54:
 559              		.size	gwinGetVisible, .-gwinGetVisible
 560 0008 C046C046 		.section	.text.gwinSetEnabled,"ax",%progbits
 560      C046C046 
 561              		.align	2
ARM GAS  /tmp/ccGEw7oO.s 			page 11


 562              		.p2align 4,,15
 563              		.global	gwinSetEnabled
 564              		.code	16
 565              		.thumb_func
 566              		.type	gwinSetEnabled, %function
 567              	gwinSetEnabled:
 568              	.LFB55:
 569              		.loc 1 210 0
 570              		.cfi_startproc
 571              	.LVL37:
 572 0000 38B5     		push	{r3, r4, r5, lr}
 573              	.LCFI4:
 574              		.cfi_def_cfa_offset 16
 575              		.cfi_offset 3, -16
 576              		.cfi_offset 4, -12
 577              		.cfi_offset 5, -8
 578              		.cfi_offset 14, -4
 579              		.loc 1 210 0
 580 0002 041C     		mov	r4, r0
 581              		.loc 1 212 0
 582 0004 038A     		ldrh	r3, [r0, #16]
 583              		.loc 1 211 0
 584 0006 0029     		cmp	r1, #0
 585 0008 19D0     		beq	.L66
 586              		.loc 1 212 0
 587 000a D906     		lsl	r1, r3, #27
 588 000c 16D4     		bmi	.L65
 589              	.LVL38:
 590              		.loc 1 213 0
 591 000e 1025     		mov	r5, #16
 592 0010 1D43     		orr	r5, r3
 593 0012 0582     		strh	r5, [r0, #16]
 594              		.loc 1 214 0
 595 0014 9A07     		lsl	r2, r3, #30
 596 0016 11D5     		bpl	.L65
 597              	.L87:
 598              		.loc 1 224 0 discriminator 1
 599 0018 2368     		ldr	r3, [r4]
 600 001a DA68     		ldr	r2, [r3, #12]
 601 001c 002A     		cmp	r2, #0
 602 001e 0DD0     		beq	.L65
 603              		.loc 1 226 0
 604 0020 0423     		mov	r3, #4
 605 0022 E05E     		ldrsh	r0, [r4, r3]
 606              	.LVL39:
 607 0024 0625     		mov	r5, #6
 608 0026 615F     		ldrsh	r1, [r4, r5]
 609 0028 0823     		mov	r3, #8
 610 002a E25E     		ldrsh	r2, [r4, r3]
 611 002c 0A25     		mov	r5, #10
 612 002e 635F     		ldrsh	r3, [r4, r5]
 613 0030 FFF7FEFF 		bl	gdisp_lld_set_clip
 614              	.LVL40:
 615              		.loc 1 228 0
 616 0034 2168     		ldr	r1, [r4]
 617 0036 201C     		mov	r0, r4
 618 0038 CD68     		ldr	r5, [r1, #12]
ARM GAS  /tmp/ccGEw7oO.s 			page 12


 619 003a A847     		blx	r5
 620              	.LVL41:
 621              	.L65:
 622              		.loc 1 232 0
 623              		@ sp needed for prologue
 624              	.LVL42:
 625 003c 38BD     		pop	{r3, r4, r5, pc}
 626              	.LVL43:
 627              	.L66:
 628              		.loc 1 222 0
 629 003e 1022     		mov	r2, #16
 630 0040 1A42     		tst	r2, r3
 631 0042 FBD0     		beq	.L65
 632              		.loc 1 223 0
 633 0044 191C     		mov	r1, r3
 634              	.LVL44:
 635 0046 9143     		bic	r1, r2
 636 0048 2182     		strh	r1, [r4, #16]
 637              		.loc 1 224 0
 638 004a 9A07     		lsl	r2, r3, #30
 639 004c E4D4     		bmi	.L87
 640 004e F5E7     		b	.L65
 641              		.cfi_endproc
 642              	.LFE55:
 643              		.size	gwinSetEnabled, .-gwinSetEnabled
 644              		.section	.text.gwinGetEnabled,"ax",%progbits
 645              		.align	2
 646              		.p2align 4,,15
 647              		.global	gwinGetEnabled
 648              		.code	16
 649              		.thumb_func
 650              		.type	gwinGetEnabled, %function
 651              	gwinGetEnabled:
 652              	.LFB56:
 653              		.loc 1 234 0
 654              		.cfi_startproc
 655              	.LVL45:
 656              		.loc 1 235 0
 657 0000 008A     		ldrh	r0, [r0, #16]
 658              	.LVL46:
 659              		.loc 1 236 0
 660              		@ sp needed for prologue
 661              		.loc 1 235 0
 662 0002 C106     		lsl	r1, r0, #27
 663 0004 C80F     		lsr	r0, r1, #31
 664              		.loc 1 236 0
 665 0006 7047     		bx	lr
 666              		.cfi_endproc
 667              	.LFE56:
 668              		.size	gwinGetEnabled, .-gwinGetEnabled
 669 0008 C046C046 		.section	.text.gwinMove,"ax",%progbits
 669      C046C046 
 670              		.align	2
 671              		.p2align 4,,15
 672              		.global	gwinMove
 673              		.code	16
 674              		.thumb_func
ARM GAS  /tmp/ccGEw7oO.s 			page 13


 675              		.type	gwinMove, %function
 676              	gwinMove:
 677              	.LFB57:
 678              		.loc 1 238 0
 679              		.cfi_startproc
 680              	.LVL47:
 681 0000 30B5     		push	{r4, r5, lr}
 682              	.LCFI5:
 683              		.cfi_def_cfa_offset 12
 684              		.cfi_offset 4, -12
 685              		.cfi_offset 5, -8
 686              		.cfi_offset 14, -4
 687              		.loc 1 242 0
 688 0002 0824     		mov	r4, #8
 689 0004 035F     		ldrsh	r3, [r0, r4]
 690 0006 0A25     		mov	r5, #10
 691 0008 445F     		ldrsh	r4, [r0, r5]
 692              		.loc 1 238 0
 693 000a 83B0     		sub	sp, sp, #12
 694              	.LCFI6:
 695              		.cfi_def_cfa_offset 24
 696              		.loc 1 242 0
 697 000c 0094     		str	r4, [sp]
 698 000e FFF7FEFF 		bl	_gwm_redim
 699              	.LVL48:
 700              		.loc 1 244 0
 701 0012 03B0     		add	sp, sp, #12
 702              		@ sp needed for prologue
 703 0014 30BD     		pop	{r4, r5, pc}
 704              		.cfi_endproc
 705              	.LFE57:
 706              		.size	gwinMove, .-gwinMove
 707 0016 C046C046 		.section	.text.gwinResize,"ax",%progbits
 707      C046C046 
 707      C046
 708              		.align	2
 709              		.p2align 4,,15
 710              		.global	gwinResize
 711              		.code	16
 712              		.thumb_func
 713              		.type	gwinResize, %function
 714              	gwinResize:
 715              	.LFB58:
 716              		.loc 1 246 0
 717              		.cfi_startproc
 718              	.LVL49:
 719 0000 30B5     		push	{r4, r5, lr}
 720              	.LCFI7:
 721              		.cfi_def_cfa_offset 12
 722              		.cfi_offset 4, -12
 723              		.cfi_offset 5, -8
 724              		.cfi_offset 14, -4
 725 0002 141C     		mov	r4, r2
 726 0004 83B0     		sub	sp, sp, #12
 727              	.LCFI8:
 728              		.cfi_def_cfa_offset 24
 729              		.loc 1 246 0
ARM GAS  /tmp/ccGEw7oO.s 			page 14


 730 0006 0B1C     		mov	r3, r1
 731              		.loc 1 250 0
 732 0008 0094     		str	r4, [sp]
 733 000a 0422     		mov	r2, #4
 734 000c 815E     		ldrsh	r1, [r0, r2]
 735              	.LVL50:
 736 000e 0625     		mov	r5, #6
 737 0010 425F     		ldrsh	r2, [r0, r5]
 738 0012 FFF7FEFF 		bl	_gwm_redim
 739              	.LVL51:
 740              		.loc 1 252 0
 741 0016 03B0     		add	sp, sp, #12
 742              		@ sp needed for prologue
 743 0018 30BD     		pop	{r4, r5, pc}
 744              		.cfi_endproc
 745              	.LFE58:
 746              		.size	gwinResize, .-gwinResize
 747 001a C046C046 		.section	.text.gwinSetFont,"ax",%progbits
 747      C046
 748              		.align	2
 749              		.p2align 4,,15
 750              		.global	gwinSetFont
 751              		.code	16
 752              		.thumb_func
 753              		.type	gwinSetFont, %function
 754              	gwinSetFont:
 755              	.LFB60:
 756              		.loc 1 264 0
 757              		.cfi_startproc
 758              	.LVL52:
 759              		.loc 1 265 0
 760 0000 4161     		str	r1, [r0, #20]
 761              		.loc 1 266 0
 762              		@ sp needed for prologue
 763 0002 7047     		bx	lr
 764              		.cfi_endproc
 765              	.LFE60:
 766              		.size	gwinSetFont, .-gwinSetFont
 767 0004 C046C046 		.section	.text.gwinClear,"ax",%progbits
 767      C046C046 
 767      C046C046 
 768              		.align	2
 769              		.p2align 4,,15
 770              		.global	gwinClear
 771              		.code	16
 772              		.thumb_func
 773              		.type	gwinClear, %function
 774              	gwinClear:
 775              	.LFB61:
 776              		.loc 1 269 0
 777              		.cfi_startproc
 778              	.LVL53:
 779 0000 30B5     		push	{r4, r5, lr}
 780              	.LCFI9:
 781              		.cfi_def_cfa_offset 12
 782              		.cfi_offset 4, -12
 783              		.cfi_offset 5, -8
ARM GAS  /tmp/ccGEw7oO.s 			page 15


 784              		.cfi_offset 14, -4
 785              		.loc 1 270 0
 786 0002 038A     		ldrh	r3, [r0, #16]
 787              		.loc 1 269 0
 788 0004 83B0     		sub	sp, sp, #12
 789              	.LCFI10:
 790              		.cfi_def_cfa_offset 24
 791              		.loc 1 269 0
 792 0006 041C     		mov	r4, r0
 793              		.loc 1 270 0
 794 0008 9A07     		lsl	r2, r3, #30
 795 000a 01D4     		bmi	.L99
 796              	.LVL54:
 797              	.L92:
 798              		.loc 1 279 0
 799 000c 03B0     		add	sp, sp, #12
 800              		@ sp needed for prologue
 801              	.LVL55:
 802 000e 30BD     		pop	{r4, r5, pc}
 803              	.LVL56:
 804              	.L99:
 805              		.loc 1 274 0
 806 0010 0823     		mov	r3, #8
 807 0012 E25E     		ldrsh	r2, [r4, r3]
 808 0014 0423     		mov	r3, #4
 809 0016 C05E     		ldrsh	r0, [r0, r3]
 810              	.LVL57:
 811 0018 0625     		mov	r5, #6
 812 001a 615F     		ldrsh	r1, [r4, r5]
 813 001c 0A25     		mov	r5, #10
 814 001e 635F     		ldrsh	r3, [r4, r5]
 815 0020 FFF7FEFF 		bl	gdisp_lld_set_clip
 816              	.LVL58:
 817              		.loc 1 276 0
 818 0024 0422     		mov	r2, #4
 819 0026 A05E     		ldrsh	r0, [r4, r2]
 820 0028 0623     		mov	r3, #6
 821 002a E15E     		ldrsh	r1, [r4, r3]
 822 002c 0825     		mov	r5, #8
 823 002e 625F     		ldrsh	r2, [r4, r5]
 824 0030 0A25     		mov	r5, #10
 825 0032 635F     		ldrsh	r3, [r4, r5]
 826 0034 E589     		ldrh	r5, [r4, #14]
 827 0036 0095     		str	r5, [sp]
 828 0038 FFF7FEFF 		bl	gdisp_lld_fill_area
 829              	.LVL59:
 830              		.loc 1 277 0
 831 003c 2068     		ldr	r0, [r4]
 832 003e 0169     		ldr	r1, [r0, #16]
 833 0040 0029     		cmp	r1, #0
 834 0042 E3D0     		beq	.L92
 835              		.loc 1 278 0
 836 0044 201C     		mov	r0, r4
 837 0046 8847     		blx	r1
 838              	.LVL60:
 839 0048 E0E7     		b	.L92
 840              		.cfi_endproc
ARM GAS  /tmp/ccGEw7oO.s 			page 16


 841              	.LFE61:
 842              		.size	gwinClear, .-gwinClear
 843 004a C046C046 		.section	.text._gwm_vis,"ax",%progbits
 843      C046
 844              		.align	2
 845              		.p2align 4,,15
 846              		.code	16
 847              		.thumb_func
 848              		.type	_gwm_vis, %function
 849              	_gwm_vis:
 850              	.LFB40:
 851              		.loc 1 41 0
 852              		.cfi_startproc
 853              	.LVL61:
 854 0000 38B5     		push	{r3, r4, r5, lr}
 855              	.LCFI11:
 856              		.cfi_def_cfa_offset 16
 857              		.cfi_offset 3, -16
 858              		.cfi_offset 4, -12
 859              		.cfi_offset 5, -8
 860              		.cfi_offset 14, -4
 861              		.loc 1 42 0
 862 0002 0368     		ldr	r3, [r0]
 863              		.loc 1 41 0
 864 0004 041C     		mov	r4, r0
 865              		.loc 1 42 0
 866 0006 D868     		ldr	r0, [r3, #12]
 867              	.LVL62:
 868 0008 0028     		cmp	r0, #0
 869 000a 0ED0     		beq	.L101
 870              		.loc 1 44 0
 871 000c 0423     		mov	r3, #4
 872 000e E05E     		ldrsh	r0, [r4, r3]
 873 0010 0823     		mov	r3, #8
 874 0012 E25E     		ldrsh	r2, [r4, r3]
 875 0014 0625     		mov	r5, #6
 876 0016 615F     		ldrsh	r1, [r4, r5]
 877 0018 0A25     		mov	r5, #10
 878 001a 635F     		ldrsh	r3, [r4, r5]
 879 001c FFF7FEFF 		bl	gdisp_lld_set_clip
 880              	.LVL63:
 881              		.loc 1 46 0
 882 0020 2168     		ldr	r1, [r4]
 883 0022 201C     		mov	r0, r4
 884 0024 CA68     		ldr	r2, [r1, #12]
 885 0026 9047     		blx	r2
 886              	.LVL64:
 887              	.L100:
 888              		.loc 1 49 0
 889              		@ sp needed for prologue
 890              	.LVL65:
 891 0028 38BD     		pop	{r3, r4, r5, pc}
 892              	.LVL66:
 893              	.L101:
 894              		.loc 1 48 0
 895 002a 201C     		mov	r0, r4
 896 002c FFF7FEFF 		bl	gwinClear
ARM GAS  /tmp/ccGEw7oO.s 			page 17


 897              	.LVL67:
 898 0030 FAE7     		b	.L100
 899              		.cfi_endproc
 900              	.LFE40:
 901              		.size	_gwm_vis, .-_gwm_vis
 902 0032 C046C046 		.section	.text.gwinRedraw,"ax",%progbits
 902      C046C046 
 902      C046C046 
 902      C046
 903              		.align	2
 904              		.p2align 4,,15
 905              		.global	gwinRedraw
 906              		.code	16
 907              		.thumb_func
 908              		.type	gwinRedraw, %function
 909              	gwinRedraw:
 910              	.LFB59:
 911              		.loc 1 254 0
 912              		.cfi_startproc
 913              	.LVL68:
 914 0000 08B5     		push	{r3, lr}
 915              	.LCFI12:
 916              		.cfi_def_cfa_offset 8
 917              		.cfi_offset 3, -8
 918              		.cfi_offset 14, -4
 919              		.loc 1 258 0
 920 0002 038A     		ldrh	r3, [r0, #16]
 921 0004 9A07     		lsl	r2, r3, #30
 922 0006 01D5     		bpl	.L103
 923              		.loc 1 259 0
 924 0008 FFF7FEFF 		bl	_gwm_vis
 925              	.LVL69:
 926              	.L103:
 927              		.loc 1 261 0
 928              		@ sp needed for prologue
 929 000c 08BD     		pop	{r3, pc}
 930              		.cfi_endproc
 931              	.LFE59:
 932              		.size	gwinRedraw, .-gwinRedraw
 933 000e C046     		.section	.text.gwinSetVisible,"ax",%progbits
 934              		.align	2
 935              		.p2align 4,,15
 936              		.global	gwinSetVisible
 937              		.code	16
 938              		.thumb_func
 939              		.type	gwinSetVisible, %function
 940              	gwinSetVisible:
 941              	.LFB53:
 942              		.loc 1 186 0
 943              		.cfi_startproc
 944              	.LVL70:
 945 0000 08B5     		push	{r3, lr}
 946              	.LCFI13:
 947              		.cfi_def_cfa_offset 8
 948              		.cfi_offset 3, -8
 949              		.cfi_offset 14, -4
 950              		.loc 1 188 0
ARM GAS  /tmp/ccGEw7oO.s 			page 18


 951 0002 038A     		ldrh	r3, [r0, #16]
 952              		.loc 1 187 0
 953 0004 0029     		cmp	r1, #0
 954 0006 02D0     		beq	.L109
 955              		.loc 1 188 0
 956 0008 9A07     		lsl	r2, r3, #30
 957 000a 06D5     		bpl	.L114
 958              	.LVL71:
 959              	.L108:
 960              		.loc 1 204 0
 961              		@ sp needed for prologue
 962 000c 08BD     		pop	{r3, pc}
 963              	.LVL72:
 964              	.L109:
 965              		.loc 1 197 0
 966 000e 0222     		mov	r2, #2
 967 0010 1A42     		tst	r2, r3
 968 0012 FBD0     		beq	.L108
 969              		.loc 1 198 0
 970 0014 9343     		bic	r3, r2
 971 0016 0382     		strh	r3, [r0, #16]
 972 0018 F8E7     		b	.L108
 973              	.L114:
 974              		.loc 1 189 0
 975 001a 0221     		mov	r1, #2
 976              	.LVL73:
 977 001c 0B43     		orr	r3, r1
 978 001e 0382     		strh	r3, [r0, #16]
 979              		.loc 1 193 0
 980 0020 FFF7FEFF 		bl	_gwm_vis
 981              	.LVL74:
 982 0024 F2E7     		b	.L108
 983              		.cfi_endproc
 984              	.LFE53:
 985              		.size	gwinSetVisible, .-gwinSetVisible
 986 0026 C046C046 		.section	.text.gwinWindowCreate,"ax",%progbits
 986      C046C046 
 986      C046
 987              		.align	2
 988              		.p2align 4,,15
 989              		.global	gwinWindowCreate
 990              		.code	16
 991              		.thumb_func
 992              		.type	gwinWindowCreate, %function
 993              	gwinWindowCreate:
 994              	.LFB50:
 995              		.loc 1 157 0
 996              		.cfi_startproc
 997              	.LVL75:
 998 0000 38B5     		push	{r3, r4, r5, lr}
 999              	.LCFI14:
 1000              		.cfi_def_cfa_offset 16
 1001              		.cfi_offset 3, -16
 1002              		.cfi_offset 4, -12
 1003              		.cfi_offset 5, -8
 1004              		.cfi_offset 14, -4
 1005              		.loc 1 158 0
ARM GAS  /tmp/ccGEw7oO.s 			page 19


 1006 0002 064A     		ldr	r2, .L120
 1007 0004 0023     		mov	r3, #0
 1008              		.loc 1 157 0
 1009 0006 0D1C     		mov	r5, r1
 1010              		.loc 1 158 0
 1011 0008 FFF7FEFF 		bl	_gwindowCreate
 1012              	.LVL76:
 1013 000c 041E     		sub	r4, r0, #0
 1014              	.LVL77:
 1015 000e 02D0     		beq	.L116
 1016              		.loc 1 160 0
 1017 0010 297A     		ldrb	r1, [r5, #8]
 1018 0012 FFF7FEFF 		bl	gwinSetVisible
 1019              	.LVL78:
 1020              	.L116:
 1021              		.loc 1 162 0
 1022 0016 201C     		mov	r0, r4
 1023              		@ sp needed for prologue
 1024              	.LVL79:
 1025              	.LVL80:
 1026 0018 38BD     		pop	{r3, r4, r5, pc}
 1027              	.L121:
 1028 001a C046     		.align	2
 1029              	.L120:
 1030 001c 00000000 		.word	.LANCHOR3
 1031              		.cfi_endproc
 1032              	.LFE50:
 1033              		.size	gwinWindowCreate, .-gwinWindowCreate
 1034              		.section	.text.gwinDrawPixel,"ax",%progbits
 1035              		.align	2
 1036              		.p2align 4,,15
 1037              		.global	gwinDrawPixel
 1038              		.code	16
 1039              		.thumb_func
 1040              		.type	gwinDrawPixel, %function
 1041              	gwinDrawPixel:
 1042              	.LFB62:
 1043              		.loc 1 281 0
 1044              		.cfi_startproc
 1045              	.LVL81:
 1046 0000 F8B5     		push	{r3, r4, r5, r6, r7, lr}
 1047              	.LCFI15:
 1048              		.cfi_def_cfa_offset 24
 1049              		.cfi_offset 3, -24
 1050              		.cfi_offset 4, -20
 1051              		.cfi_offset 5, -16
 1052              		.cfi_offset 6, -12
 1053              		.cfi_offset 7, -8
 1054              		.cfi_offset 14, -4
 1055              		.loc 1 282 0
 1056 0002 038A     		ldrh	r3, [r0, #16]
 1057              		.loc 1 281 0
 1058 0004 041C     		mov	r4, r0
 1059 0006 0E1C     		mov	r6, r1
 1060 0008 151C     		mov	r5, r2
 1061              		.loc 1 282 0
 1062 000a 9A07     		lsl	r2, r3, #30
ARM GAS  /tmp/ccGEw7oO.s 			page 20


 1063 000c 12D5     		bpl	.L122
 1064              	.LVL82:
 1065              		.loc 1 286 0
 1066 000e 0423     		mov	r3, #4
 1067 0010 C05E     		ldrsh	r0, [r0, r3]
 1068              	.LVL83:
 1069 0012 0627     		mov	r7, #6
 1070 0014 E15F     		ldrsh	r1, [r4, r7]
 1071              	.LVL84:
 1072 0016 0823     		mov	r3, #8
 1073 0018 E25E     		ldrsh	r2, [r4, r3]
 1074 001a 0A27     		mov	r7, #10
 1075 001c E35F     		ldrsh	r3, [r4, r7]
 1076 001e FFF7FEFF 		bl	gdisp_lld_set_clip
 1077              	.LVL85:
 1078              		.loc 1 288 0
 1079 0022 A088     		ldrh	r0, [r4, #4]
 1080 0024 E288     		ldrh	r2, [r4, #6]
 1081 0026 3118     		add	r1, r6, r0
 1082 0028 AF18     		add	r7, r5, r2
 1083 002a 08B2     		sxth	r0, r1
 1084 002c A289     		ldrh	r2, [r4, #12]
 1085 002e 39B2     		sxth	r1, r7
 1086 0030 FFF7FEFF 		bl	gdisp_lld_draw_pixel
 1087              	.LVL86:
 1088              	.L122:
 1089              		.loc 1 289 0
 1090              		@ sp needed for prologue
 1091              	.LVL87:
 1092 0034 F8BD     		pop	{r3, r4, r5, r6, r7, pc}
 1093              		.cfi_endproc
 1094              	.LFE62:
 1095              		.size	gwinDrawPixel, .-gwinDrawPixel
 1096 0036 C046C046 		.section	.text.gwinDrawLine,"ax",%progbits
 1096      C046C046 
 1096      C046
 1097              		.align	2
 1098              		.p2align 4,,15
 1099              		.global	gwinDrawLine
 1100              		.code	16
 1101              		.thumb_func
 1102              		.type	gwinDrawLine, %function
 1103              	gwinDrawLine:
 1104              	.LFB63:
 1105              		.loc 1 291 0
 1106              		.cfi_startproc
 1107              	.LVL88:
 1108 0000 F0B5     		push	{r4, r5, r6, r7, lr}
 1109              	.LCFI16:
 1110              		.cfi_def_cfa_offset 20
 1111              		.cfi_offset 4, -20
 1112              		.cfi_offset 5, -16
 1113              		.cfi_offset 6, -12
 1114              		.cfi_offset 7, -8
 1115              		.cfi_offset 14, -4
 1116 0002 4F46     		mov	r7, r9
 1117 0004 4646     		mov	r6, r8
ARM GAS  /tmp/ccGEw7oO.s 			page 21


 1118 0006 C0B4     		push	{r6, r7}
 1119              	.LCFI17:
 1120              		.cfi_def_cfa_offset 28
 1121              		.cfi_offset 8, -28
 1122              		.cfi_offset 9, -24
 1123 0008 041C     		mov	r4, r0
 1124 000a 83B0     		sub	sp, sp, #12
 1125              	.LCFI18:
 1126              		.cfi_def_cfa_offset 40
 1127              		.loc 1 292 0
 1128 000c 008A     		ldrh	r0, [r0, #16]
 1129              	.LVL89:
 1130              		.loc 1 291 0
 1131 000e 0AAD     		add	r5, sp, #40
 1132 0010 8946     		mov	r9, r1
 1133 0012 9046     		mov	r8, r2
 1134 0014 1F1C     		mov	r7, r3
 1135 0016 0021     		mov	r1, #0
 1136 0018 6E5E     		ldrsh	r6, [r5, r1]
 1137              	.LVL90:
 1138              		.loc 1 292 0
 1139 001a 8307     		lsl	r3, r0, #30
 1140 001c 19D5     		bpl	.L127
 1141              	.LVL91:
 1142              		.loc 1 296 0
 1143 001e 0425     		mov	r5, #4
 1144 0020 605F     		ldrsh	r0, [r4, r5]
 1145 0022 0623     		mov	r3, #6
 1146 0024 E15E     		ldrsh	r1, [r4, r3]
 1147 0026 0825     		mov	r5, #8
 1148 0028 625F     		ldrsh	r2, [r4, r5]
 1149              	.LVL92:
 1150 002a 0A25     		mov	r5, #10
 1151 002c 635F     		ldrsh	r3, [r4, r5]
 1152 002e FFF7FEFF 		bl	gdisp_lld_set_clip
 1153              	.LVL93:
 1154              		.loc 1 298 0
 1155 0032 A288     		ldrh	r2, [r4, #4]
 1156 0034 E388     		ldrh	r3, [r4, #6]
 1157 0036 4946     		mov	r1, r9
 1158 0038 5518     		add	r5, r2, r1
 1159 003a A489     		ldrh	r4, [r4, #12]
 1160              	.LVL94:
 1161 003c 4146     		mov	r1, r8
 1162 003e 28B2     		sxth	r0, r5
 1163 0040 D719     		add	r7, r2, r7
 1164 0042 5D18     		add	r5, r3, r1
 1165 0044 9E19     		add	r6, r3, r6
 1166 0046 29B2     		sxth	r1, r5
 1167 0048 3AB2     		sxth	r2, r7
 1168 004a 33B2     		sxth	r3, r6
 1169 004c 0094     		str	r4, [sp]
 1170 004e FFF7FEFF 		bl	gdisp_lld_draw_line
 1171              	.LVL95:
 1172              	.L127:
 1173              		.loc 1 299 0
 1174 0052 03B0     		add	sp, sp, #12
ARM GAS  /tmp/ccGEw7oO.s 			page 22


 1175              		@ sp needed for prologue
 1176 0054 0CBC     		pop	{r2, r3}
 1177 0056 9046     		mov	r8, r2
 1178 0058 9946     		mov	r9, r3
 1179 005a F0BD     		pop	{r4, r5, r6, r7, pc}
 1180              		.cfi_endproc
 1181              	.LFE63:
 1182              		.size	gwinDrawLine, .-gwinDrawLine
 1183 005c C046C046 		.section	.text.gwinDrawBox,"ax",%progbits
 1184              		.align	2
 1185              		.p2align 4,,15
 1186              		.global	gwinDrawBox
 1187              		.code	16
 1188              		.thumb_func
 1189              		.type	gwinDrawBox, %function
 1190              	gwinDrawBox:
 1191              	.LFB64:
 1192              		.loc 1 301 0
 1193              		.cfi_startproc
 1194              	.LVL96:
 1195 0000 F0B5     		push	{r4, r5, r6, r7, lr}
 1196              	.LCFI19:
 1197              		.cfi_def_cfa_offset 20
 1198              		.cfi_offset 4, -20
 1199              		.cfi_offset 5, -16
 1200              		.cfi_offset 6, -12
 1201              		.cfi_offset 7, -8
 1202              		.cfi_offset 14, -4
 1203 0002 4F46     		mov	r7, r9
 1204 0004 4646     		mov	r6, r8
 1205 0006 C0B4     		push	{r6, r7}
 1206              	.LCFI20:
 1207              		.cfi_def_cfa_offset 28
 1208              		.cfi_offset 8, -28
 1209              		.cfi_offset 9, -24
 1210 0008 041C     		mov	r4, r0
 1211 000a 83B0     		sub	sp, sp, #12
 1212              	.LCFI21:
 1213              		.cfi_def_cfa_offset 40
 1214              		.loc 1 302 0
 1215 000c 008A     		ldrh	r0, [r0, #16]
 1216              	.LVL97:
 1217              		.loc 1 301 0
 1218 000e 0AAD     		add	r5, sp, #40
 1219 0010 1F1C     		mov	r7, r3
 1220 0012 8946     		mov	r9, r1
 1221 0014 9046     		mov	r8, r2
 1222 0016 0023     		mov	r3, #0
 1223 0018 EE5E     		ldrsh	r6, [r5, r3]
 1224              	.LVL98:
 1225              		.loc 1 302 0
 1226 001a 8307     		lsl	r3, r0, #30
 1227 001c 15D5     		bpl	.L132
 1228              		.loc 1 306 0
 1229 001e 0623     		mov	r3, #6
 1230 0020 E15E     		ldrsh	r1, [r4, r3]
 1231              	.LVL99:
ARM GAS  /tmp/ccGEw7oO.s 			page 23


 1232 0022 0425     		mov	r5, #4
 1233 0024 605F     		ldrsh	r0, [r4, r5]
 1234 0026 0825     		mov	r5, #8
 1235 0028 625F     		ldrsh	r2, [r4, r5]
 1236              	.LVL100:
 1237 002a 0A25     		mov	r5, #10
 1238 002c 635F     		ldrsh	r3, [r4, r5]
 1239 002e FFF7FEFF 		bl	gdisp_lld_set_clip
 1240              	.LVL101:
 1241              		.loc 1 308 0
 1242 0032 A188     		ldrh	r1, [r4, #4]
 1243 0034 E288     		ldrh	r2, [r4, #6]
 1244 0036 A389     		ldrh	r3, [r4, #12]
 1245 0038 4944     		add	r1, r1, r9
 1246 003a 4244     		add	r2, r2, r8
 1247 003c 08B2     		sxth	r0, r1
 1248 003e 0093     		str	r3, [sp]
 1249 0040 11B2     		sxth	r1, r2
 1250 0042 331C     		mov	r3, r6
 1251 0044 3A1C     		mov	r2, r7
 1252 0046 FFF7FEFF 		bl	gdispDrawBox
 1253              	.LVL102:
 1254              	.L132:
 1255              		.loc 1 309 0
 1256 004a 03B0     		add	sp, sp, #12
 1257              		@ sp needed for prologue
 1258              	.LVL103:
 1259 004c 0CBC     		pop	{r2, r3}
 1260 004e 9046     		mov	r8, r2
 1261 0050 9946     		mov	r9, r3
 1262 0052 F0BD     		pop	{r4, r5, r6, r7, pc}
 1263              		.cfi_endproc
 1264              	.LFE64:
 1265              		.size	gwinDrawBox, .-gwinDrawBox
 1266 0054 C046C046 		.section	.text.gwinFillArea,"ax",%progbits
 1266      C046C046 
 1266      C046C046 
 1267              		.align	2
 1268              		.p2align 4,,15
 1269              		.global	gwinFillArea
 1270              		.code	16
 1271              		.thumb_func
 1272              		.type	gwinFillArea, %function
 1273              	gwinFillArea:
 1274              	.LFB65:
 1275              		.loc 1 311 0
 1276              		.cfi_startproc
 1277              	.LVL104:
 1278 0000 F0B5     		push	{r4, r5, r6, r7, lr}
 1279              	.LCFI22:
 1280              		.cfi_def_cfa_offset 20
 1281              		.cfi_offset 4, -20
 1282              		.cfi_offset 5, -16
 1283              		.cfi_offset 6, -12
 1284              		.cfi_offset 7, -8
 1285              		.cfi_offset 14, -4
 1286 0002 4F46     		mov	r7, r9
ARM GAS  /tmp/ccGEw7oO.s 			page 24


 1287 0004 4646     		mov	r6, r8
 1288 0006 C0B4     		push	{r6, r7}
 1289              	.LCFI23:
 1290              		.cfi_def_cfa_offset 28
 1291              		.cfi_offset 8, -28
 1292              		.cfi_offset 9, -24
 1293 0008 041C     		mov	r4, r0
 1294 000a 83B0     		sub	sp, sp, #12
 1295              	.LCFI24:
 1296              		.cfi_def_cfa_offset 40
 1297              		.loc 1 312 0
 1298 000c 008A     		ldrh	r0, [r0, #16]
 1299              	.LVL105:
 1300              		.loc 1 311 0
 1301 000e 0AAD     		add	r5, sp, #40
 1302 0010 1F1C     		mov	r7, r3
 1303 0012 8946     		mov	r9, r1
 1304 0014 9046     		mov	r8, r2
 1305 0016 0023     		mov	r3, #0
 1306 0018 EE5E     		ldrsh	r6, [r5, r3]
 1307              	.LVL106:
 1308              		.loc 1 312 0
 1309 001a 8307     		lsl	r3, r0, #30
 1310 001c 15D5     		bpl	.L137
 1311              		.loc 1 316 0
 1312 001e 0623     		mov	r3, #6
 1313 0020 E15E     		ldrsh	r1, [r4, r3]
 1314              	.LVL107:
 1315 0022 0425     		mov	r5, #4
 1316 0024 605F     		ldrsh	r0, [r4, r5]
 1317 0026 0825     		mov	r5, #8
 1318 0028 625F     		ldrsh	r2, [r4, r5]
 1319              	.LVL108:
 1320 002a 0A25     		mov	r5, #10
 1321 002c 635F     		ldrsh	r3, [r4, r5]
 1322 002e FFF7FEFF 		bl	gdisp_lld_set_clip
 1323              	.LVL109:
 1324              		.loc 1 318 0
 1325 0032 A188     		ldrh	r1, [r4, #4]
 1326 0034 E288     		ldrh	r2, [r4, #6]
 1327 0036 A389     		ldrh	r3, [r4, #12]
 1328 0038 4944     		add	r1, r1, r9
 1329 003a 4244     		add	r2, r2, r8
 1330 003c 08B2     		sxth	r0, r1
 1331 003e 0093     		str	r3, [sp]
 1332 0040 11B2     		sxth	r1, r2
 1333 0042 331C     		mov	r3, r6
 1334 0044 3A1C     		mov	r2, r7
 1335 0046 FFF7FEFF 		bl	gdisp_lld_fill_area
 1336              	.LVL110:
 1337              	.L137:
 1338              		.loc 1 319 0
 1339 004a 03B0     		add	sp, sp, #12
 1340              		@ sp needed for prologue
 1341              	.LVL111:
 1342 004c 0CBC     		pop	{r2, r3}
 1343 004e 9046     		mov	r8, r2
ARM GAS  /tmp/ccGEw7oO.s 			page 25


 1344 0050 9946     		mov	r9, r3
 1345 0052 F0BD     		pop	{r4, r5, r6, r7, pc}
 1346              		.cfi_endproc
 1347              	.LFE65:
 1348              		.size	gwinFillArea, .-gwinFillArea
 1349 0054 C046C046 		.section	.text.gwinBlitArea,"ax",%progbits
 1349      C046C046 
 1349      C046C046 
 1350              		.align	2
 1351              		.p2align 4,,15
 1352              		.global	gwinBlitArea
 1353              		.code	16
 1354              		.thumb_func
 1355              		.type	gwinBlitArea, %function
 1356              	gwinBlitArea:
 1357              	.LFB66:
 1358              		.loc 1 321 0
 1359              		.cfi_startproc
 1360              	.LVL112:
 1361 0000 F0B5     		push	{r4, r5, r6, r7, lr}
 1362              	.LCFI25:
 1363              		.cfi_def_cfa_offset 20
 1364              		.cfi_offset 4, -20
 1365              		.cfi_offset 5, -16
 1366              		.cfi_offset 6, -12
 1367              		.cfi_offset 7, -8
 1368              		.cfi_offset 14, -4
 1369 0002 5F46     		mov	r7, fp
 1370 0004 5646     		mov	r6, sl
 1371 0006 4D46     		mov	r5, r9
 1372 0008 4446     		mov	r4, r8
 1373 000a F0B4     		push	{r4, r5, r6, r7}
 1374              	.LCFI26:
 1375              		.cfi_def_cfa_offset 36
 1376              		.cfi_offset 8, -36
 1377              		.cfi_offset 9, -32
 1378              		.cfi_offset 10, -28
 1379              		.cfi_offset 11, -24
 1380 000c 87B0     		sub	sp, sp, #28
 1381              	.LCFI27:
 1382              		.cfi_def_cfa_offset 64
 1383              		.loc 1 321 0
 1384 000e 041C     		mov	r4, r0
 1385 0010 1E1C     		mov	r6, r3
 1386 0012 11A8     		add	r0, sp, #68
 1387              	.LVL113:
 1388 0014 10AB     		add	r3, sp, #64
 1389              	.LVL114:
 1390 0016 8B46     		mov	fp, r1
 1391 0018 9246     		mov	sl, r2
 1392 001a 0021     		mov	r1, #0
 1393 001c 5D5E     		ldrsh	r5, [r3, r1]
 1394              	.LVL115:
 1395 001e 0021     		mov	r1, #0
 1396 0020 425E     		ldrsh	r2, [r0, r1]
 1397              	.LVL116:
 1398 0022 12A9     		add	r1, sp, #72
ARM GAS  /tmp/ccGEw7oO.s 			page 26


 1399 0024 0027     		mov	r7, #0
 1400 0026 CF5F     		ldrsh	r7, [r1, r7]
 1401              		.loc 1 322 0
 1402 0028 208A     		ldrh	r0, [r4, #16]
 1403              		.loc 1 321 0
 1404 002a 13AB     		add	r3, sp, #76
 1405 002c 9146     		mov	r9, r2
 1406 002e B846     		mov	r8, r7
 1407 0030 0022     		mov	r2, #0
 1408 0032 9F5E     		ldrsh	r7, [r3, r2]
 1409              		.loc 1 322 0
 1410 0034 8107     		lsl	r1, r0, #30
 1411 0036 1ED5     		bpl	.L142
 1412              		.loc 1 326 0
 1413 0038 0422     		mov	r2, #4
 1414 003a A05E     		ldrsh	r0, [r4, r2]
 1415 003c 0823     		mov	r3, #8
 1416 003e E25E     		ldrsh	r2, [r4, r3]
 1417 0040 0623     		mov	r3, #6
 1418 0042 E15E     		ldrsh	r1, [r4, r3]
 1419 0044 0592     		str	r2, [sp, #20]
 1420 0046 0A23     		mov	r3, #10
 1421 0048 E25E     		ldrsh	r2, [r4, r3]
 1422 004a 9446     		mov	ip, r2
 1423 004c 6346     		mov	r3, ip
 1424 004e 059A     		ldr	r2, [sp, #20]
 1425 0050 FFF7FEFF 		bl	gdisp_lld_set_clip
 1426              	.LVL117:
 1427              		.loc 1 328 0
 1428 0054 A188     		ldrh	r1, [r4, #4]
 1429 0056 E488     		ldrh	r4, [r4, #6]
 1430              	.LVL118:
 1431 0058 0297     		str	r7, [sp, #8]
 1432 005a 149F     		ldr	r7, [sp, #80]
 1433 005c 5944     		add	r1, r1, fp
 1434 005e 4B46     		mov	r3, r9
 1435 0060 4246     		mov	r2, r8
 1436 0062 5444     		add	r4, r4, sl
 1437 0064 08B2     		sxth	r0, r1
 1438 0066 0093     		str	r3, [sp]
 1439 0068 0192     		str	r2, [sp, #4]
 1440 006a 21B2     		sxth	r1, r4
 1441 006c 0397     		str	r7, [sp, #12]
 1442 006e 321C     		mov	r2, r6
 1443 0070 2B1C     		mov	r3, r5
 1444 0072 FFF7FEFF 		bl	gdisp_lld_blit_area_ex
 1445              	.LVL119:
 1446              	.L142:
 1447              		.loc 1 329 0
 1448 0076 07B0     		add	sp, sp, #28
 1449              		@ sp needed for prologue
 1450 0078 3CBC     		pop	{r2, r3, r4, r5}
 1451 007a 9046     		mov	r8, r2
 1452 007c 9946     		mov	r9, r3
 1453 007e A246     		mov	sl, r4
 1454 0080 AB46     		mov	fp, r5
 1455 0082 F0BD     		pop	{r4, r5, r6, r7, pc}
ARM GAS  /tmp/ccGEw7oO.s 			page 27


 1456              		.cfi_endproc
 1457              	.LFE66:
 1458              		.size	gwinBlitArea, .-gwinBlitArea
 1459 0084 C046C046 		.section	.text.gwinDrawCircle,"ax",%progbits
 1459      C046C046 
 1459      C046C046 
 1460              		.align	2
 1461              		.p2align 4,,15
 1462              		.global	gwinDrawCircle
 1463              		.code	16
 1464              		.thumb_func
 1465              		.type	gwinDrawCircle, %function
 1466              	gwinDrawCircle:
 1467              	.LFB67:
 1468              		.loc 1 332 0
 1469              		.cfi_startproc
 1470              	.LVL120:
 1471 0000 F0B5     		push	{r4, r5, r6, r7, lr}
 1472              	.LCFI28:
 1473              		.cfi_def_cfa_offset 20
 1474              		.cfi_offset 4, -20
 1475              		.cfi_offset 5, -16
 1476              		.cfi_offset 6, -12
 1477              		.cfi_offset 7, -8
 1478              		.cfi_offset 14, -4
 1479 0002 4746     		mov	r7, r8
 1480 0004 80B4     		push	{r7}
 1481              	.LCFI29:
 1482              		.cfi_def_cfa_offset 24
 1483              		.cfi_offset 8, -24
 1484              		.loc 1 333 0
 1485 0006 058A     		ldrh	r5, [r0, #16]
 1486              		.loc 1 332 0
 1487 0008 041C     		mov	r4, r0
 1488 000a 8846     		mov	r8, r1
 1489 000c 171C     		mov	r7, r2
 1490 000e 1E1C     		mov	r6, r3
 1491              		.loc 1 333 0
 1492 0010 AB07     		lsl	r3, r5, #30
 1493 0012 13D5     		bpl	.L147
 1494              	.LVL121:
 1495              		.loc 1 337 0
 1496 0014 0623     		mov	r3, #6
 1497 0016 E15E     		ldrsh	r1, [r4, r3]
 1498              	.LVL122:
 1499 0018 0425     		mov	r5, #4
 1500 001a 405F     		ldrsh	r0, [r0, r5]
 1501              	.LVL123:
 1502 001c 0825     		mov	r5, #8
 1503 001e 625F     		ldrsh	r2, [r4, r5]
 1504              	.LVL124:
 1505 0020 0A25     		mov	r5, #10
 1506 0022 635F     		ldrsh	r3, [r4, r5]
 1507 0024 FFF7FEFF 		bl	gdisp_lld_set_clip
 1508              	.LVL125:
 1509              		.loc 1 339 0
 1510 0028 E188     		ldrh	r1, [r4, #6]
ARM GAS  /tmp/ccGEw7oO.s 			page 28


 1511 002a A088     		ldrh	r0, [r4, #4]
 1512 002c 7A18     		add	r2, r7, r1
 1513 002e 4044     		add	r0, r0, r8
 1514 0030 11B2     		sxth	r1, r2
 1515 0032 00B2     		sxth	r0, r0
 1516 0034 A389     		ldrh	r3, [r4, #12]
 1517 0036 321C     		mov	r2, r6
 1518 0038 FFF7FEFF 		bl	gdisp_lld_draw_circle
 1519              	.LVL126:
 1520              	.L147:
 1521              		.loc 1 340 0
 1522              		@ sp needed for prologue
 1523              	.LVL127:
 1524 003c 04BC     		pop	{r2}
 1525 003e 9046     		mov	r8, r2
 1526 0040 F0BD     		pop	{r4, r5, r6, r7, pc}
 1527              		.cfi_endproc
 1528              	.LFE67:
 1529              		.size	gwinDrawCircle, .-gwinDrawCircle
 1530 0042 C046C046 		.section	.text.gwinFillCircle,"ax",%progbits
 1530      C046C046 
 1530      C046C046 
 1530      C046
 1531              		.align	2
 1532              		.p2align 4,,15
 1533              		.global	gwinFillCircle
 1534              		.code	16
 1535              		.thumb_func
 1536              		.type	gwinFillCircle, %function
 1537              	gwinFillCircle:
 1538              	.LFB68:
 1539              		.loc 1 342 0
 1540              		.cfi_startproc
 1541              	.LVL128:
 1542 0000 F0B5     		push	{r4, r5, r6, r7, lr}
 1543              	.LCFI30:
 1544              		.cfi_def_cfa_offset 20
 1545              		.cfi_offset 4, -20
 1546              		.cfi_offset 5, -16
 1547              		.cfi_offset 6, -12
 1548              		.cfi_offset 7, -8
 1549              		.cfi_offset 14, -4
 1550 0002 4746     		mov	r7, r8
 1551 0004 80B4     		push	{r7}
 1552              	.LCFI31:
 1553              		.cfi_def_cfa_offset 24
 1554              		.cfi_offset 8, -24
 1555              		.loc 1 343 0
 1556 0006 058A     		ldrh	r5, [r0, #16]
 1557              		.loc 1 342 0
 1558 0008 041C     		mov	r4, r0
 1559 000a 8846     		mov	r8, r1
 1560 000c 171C     		mov	r7, r2
 1561 000e 1E1C     		mov	r6, r3
 1562              		.loc 1 343 0
 1563 0010 AB07     		lsl	r3, r5, #30
 1564 0012 13D5     		bpl	.L152
ARM GAS  /tmp/ccGEw7oO.s 			page 29


 1565              	.LVL129:
 1566              		.loc 1 347 0
 1567 0014 0623     		mov	r3, #6
 1568 0016 E15E     		ldrsh	r1, [r4, r3]
 1569              	.LVL130:
 1570 0018 0425     		mov	r5, #4
 1571 001a 405F     		ldrsh	r0, [r0, r5]
 1572              	.LVL131:
 1573 001c 0825     		mov	r5, #8
 1574 001e 625F     		ldrsh	r2, [r4, r5]
 1575              	.LVL132:
 1576 0020 0A25     		mov	r5, #10
 1577 0022 635F     		ldrsh	r3, [r4, r5]
 1578 0024 FFF7FEFF 		bl	gdisp_lld_set_clip
 1579              	.LVL133:
 1580              		.loc 1 349 0
 1581 0028 E188     		ldrh	r1, [r4, #6]
 1582 002a A088     		ldrh	r0, [r4, #4]
 1583 002c 7A18     		add	r2, r7, r1
 1584 002e 4044     		add	r0, r0, r8
 1585 0030 11B2     		sxth	r1, r2
 1586 0032 00B2     		sxth	r0, r0
 1587 0034 A389     		ldrh	r3, [r4, #12]
 1588 0036 321C     		mov	r2, r6
 1589 0038 FFF7FEFF 		bl	gdisp_lld_fill_circle
 1590              	.LVL134:
 1591              	.L152:
 1592              		.loc 1 350 0
 1593              		@ sp needed for prologue
 1594              	.LVL135:
 1595 003c 04BC     		pop	{r2}
 1596 003e 9046     		mov	r8, r2
 1597 0040 F0BD     		pop	{r4, r5, r6, r7, pc}
 1598              		.cfi_endproc
 1599              	.LFE68:
 1600              		.size	gwinFillCircle, .-gwinFillCircle
 1601 0042 C046C046 		.section	.text.gwinDrawEllipse,"ax",%progbits
 1601      C046C046 
 1601      C046C046 
 1601      C046
 1602              		.align	2
 1603              		.p2align 4,,15
 1604              		.global	gwinDrawEllipse
 1605              		.code	16
 1606              		.thumb_func
 1607              		.type	gwinDrawEllipse, %function
 1608              	gwinDrawEllipse:
 1609              	.LFB69:
 1610              		.loc 1 354 0
 1611              		.cfi_startproc
 1612              	.LVL136:
 1613 0000 F0B5     		push	{r4, r5, r6, r7, lr}
 1614              	.LCFI32:
 1615              		.cfi_def_cfa_offset 20
 1616              		.cfi_offset 4, -20
 1617              		.cfi_offset 5, -16
 1618              		.cfi_offset 6, -12
ARM GAS  /tmp/ccGEw7oO.s 			page 30


 1619              		.cfi_offset 7, -8
 1620              		.cfi_offset 14, -4
 1621 0002 4F46     		mov	r7, r9
 1622 0004 4646     		mov	r6, r8
 1623 0006 C0B4     		push	{r6, r7}
 1624              	.LCFI33:
 1625              		.cfi_def_cfa_offset 28
 1626              		.cfi_offset 8, -28
 1627              		.cfi_offset 9, -24
 1628 0008 041C     		mov	r4, r0
 1629 000a 83B0     		sub	sp, sp, #12
 1630              	.LCFI34:
 1631              		.cfi_def_cfa_offset 40
 1632              		.loc 1 355 0
 1633 000c 008A     		ldrh	r0, [r0, #16]
 1634              	.LVL137:
 1635              		.loc 1 354 0
 1636 000e 0AAD     		add	r5, sp, #40
 1637 0010 1F1C     		mov	r7, r3
 1638 0012 8946     		mov	r9, r1
 1639 0014 9046     		mov	r8, r2
 1640 0016 0023     		mov	r3, #0
 1641 0018 EE5E     		ldrsh	r6, [r5, r3]
 1642              	.LVL138:
 1643              		.loc 1 355 0
 1644 001a 8307     		lsl	r3, r0, #30
 1645 001c 15D5     		bpl	.L157
 1646              		.loc 1 359 0
 1647 001e 0623     		mov	r3, #6
 1648 0020 E15E     		ldrsh	r1, [r4, r3]
 1649              	.LVL139:
 1650 0022 0425     		mov	r5, #4
 1651 0024 605F     		ldrsh	r0, [r4, r5]
 1652 0026 0825     		mov	r5, #8
 1653 0028 625F     		ldrsh	r2, [r4, r5]
 1654              	.LVL140:
 1655 002a 0A25     		mov	r5, #10
 1656 002c 635F     		ldrsh	r3, [r4, r5]
 1657 002e FFF7FEFF 		bl	gdisp_lld_set_clip
 1658              	.LVL141:
 1659              		.loc 1 361 0
 1660 0032 A188     		ldrh	r1, [r4, #4]
 1661 0034 E288     		ldrh	r2, [r4, #6]
 1662 0036 A389     		ldrh	r3, [r4, #12]
 1663 0038 4944     		add	r1, r1, r9
 1664 003a 4244     		add	r2, r2, r8
 1665 003c 08B2     		sxth	r0, r1
 1666 003e 0093     		str	r3, [sp]
 1667 0040 11B2     		sxth	r1, r2
 1668 0042 331C     		mov	r3, r6
 1669 0044 3A1C     		mov	r2, r7
 1670 0046 FFF7FEFF 		bl	gdisp_lld_draw_ellipse
 1671              	.LVL142:
 1672              	.L157:
 1673              		.loc 1 362 0
 1674 004a 03B0     		add	sp, sp, #12
 1675              		@ sp needed for prologue
ARM GAS  /tmp/ccGEw7oO.s 			page 31


 1676              	.LVL143:
 1677 004c 0CBC     		pop	{r2, r3}
 1678 004e 9046     		mov	r8, r2
 1679 0050 9946     		mov	r9, r3
 1680 0052 F0BD     		pop	{r4, r5, r6, r7, pc}
 1681              		.cfi_endproc
 1682              	.LFE69:
 1683              		.size	gwinDrawEllipse, .-gwinDrawEllipse
 1684 0054 C046C046 		.section	.text.gwinFillEllipse,"ax",%progbits
 1684      C046C046 
 1684      C046C046 
 1685              		.align	2
 1686              		.p2align 4,,15
 1687              		.global	gwinFillEllipse
 1688              		.code	16
 1689              		.thumb_func
 1690              		.type	gwinFillEllipse, %function
 1691              	gwinFillEllipse:
 1692              	.LFB70:
 1693              		.loc 1 364 0
 1694              		.cfi_startproc
 1695              	.LVL144:
 1696 0000 F0B5     		push	{r4, r5, r6, r7, lr}
 1697              	.LCFI35:
 1698              		.cfi_def_cfa_offset 20
 1699              		.cfi_offset 4, -20
 1700              		.cfi_offset 5, -16
 1701              		.cfi_offset 6, -12
 1702              		.cfi_offset 7, -8
 1703              		.cfi_offset 14, -4
 1704 0002 4F46     		mov	r7, r9
 1705 0004 4646     		mov	r6, r8
 1706 0006 C0B4     		push	{r6, r7}
 1707              	.LCFI36:
 1708              		.cfi_def_cfa_offset 28
 1709              		.cfi_offset 8, -28
 1710              		.cfi_offset 9, -24
 1711 0008 041C     		mov	r4, r0
 1712 000a 83B0     		sub	sp, sp, #12
 1713              	.LCFI37:
 1714              		.cfi_def_cfa_offset 40
 1715              		.loc 1 365 0
 1716 000c 008A     		ldrh	r0, [r0, #16]
 1717              	.LVL145:
 1718              		.loc 1 364 0
 1719 000e 0AAD     		add	r5, sp, #40
 1720 0010 1F1C     		mov	r7, r3
 1721 0012 8946     		mov	r9, r1
 1722 0014 9046     		mov	r8, r2
 1723 0016 0023     		mov	r3, #0
 1724 0018 EE5E     		ldrsh	r6, [r5, r3]
 1725              	.LVL146:
 1726              		.loc 1 365 0
 1727 001a 8307     		lsl	r3, r0, #30
 1728 001c 15D5     		bpl	.L162
 1729              		.loc 1 369 0
 1730 001e 0623     		mov	r3, #6
ARM GAS  /tmp/ccGEw7oO.s 			page 32


 1731 0020 E15E     		ldrsh	r1, [r4, r3]
 1732              	.LVL147:
 1733 0022 0425     		mov	r5, #4
 1734 0024 605F     		ldrsh	r0, [r4, r5]
 1735 0026 0825     		mov	r5, #8
 1736 0028 625F     		ldrsh	r2, [r4, r5]
 1737              	.LVL148:
 1738 002a 0A25     		mov	r5, #10
 1739 002c 635F     		ldrsh	r3, [r4, r5]
 1740 002e FFF7FEFF 		bl	gdisp_lld_set_clip
 1741              	.LVL149:
 1742              		.loc 1 371 0
 1743 0032 A188     		ldrh	r1, [r4, #4]
 1744 0034 E288     		ldrh	r2, [r4, #6]
 1745 0036 A389     		ldrh	r3, [r4, #12]
 1746 0038 4944     		add	r1, r1, r9
 1747 003a 4244     		add	r2, r2, r8
 1748 003c 08B2     		sxth	r0, r1
 1749 003e 0093     		str	r3, [sp]
 1750 0040 11B2     		sxth	r1, r2
 1751 0042 331C     		mov	r3, r6
 1752 0044 3A1C     		mov	r2, r7
 1753 0046 FFF7FEFF 		bl	gdisp_lld_fill_ellipse
 1754              	.LVL150:
 1755              	.L162:
 1756              		.loc 1 372 0
 1757 004a 03B0     		add	sp, sp, #12
 1758              		@ sp needed for prologue
 1759              	.LVL151:
 1760 004c 0CBC     		pop	{r2, r3}
 1761 004e 9046     		mov	r8, r2
 1762 0050 9946     		mov	r9, r3
 1763 0052 F0BD     		pop	{r4, r5, r6, r7, pc}
 1764              		.cfi_endproc
 1765              	.LFE70:
 1766              		.size	gwinFillEllipse, .-gwinFillEllipse
 1767 0054 C046C046 		.section	.text.gwinDrawChar,"ax",%progbits
 1767      C046C046 
 1767      C046C046 
 1768              		.align	2
 1769              		.p2align 4,,15
 1770              		.global	gwinDrawChar
 1771              		.code	16
 1772              		.thumb_func
 1773              		.type	gwinDrawChar, %function
 1774              	gwinDrawChar:
 1775              	.LFB71:
 1776              		.loc 1 410 0
 1777              		.cfi_startproc
 1778              	.LVL152:
 1779 0000 F0B5     		push	{r4, r5, r6, r7, lr}
 1780              	.LCFI38:
 1781              		.cfi_def_cfa_offset 20
 1782              		.cfi_offset 4, -20
 1783              		.cfi_offset 5, -16
 1784              		.cfi_offset 6, -12
 1785              		.cfi_offset 7, -8
ARM GAS  /tmp/ccGEw7oO.s 			page 33


 1786              		.cfi_offset 14, -4
 1787 0002 4746     		mov	r7, r8
 1788 0004 80B4     		push	{r7}
 1789              	.LCFI39:
 1790              		.cfi_def_cfa_offset 24
 1791              		.cfi_offset 8, -24
 1792              		.loc 1 411 0
 1793 0006 058A     		ldrh	r5, [r0, #16]
 1794              		.loc 1 410 0
 1795 0008 82B0     		sub	sp, sp, #8
 1796              	.LCFI40:
 1797              		.cfi_def_cfa_offset 32
 1798              		.loc 1 410 0
 1799 000a 041C     		mov	r4, r0
 1800 000c 8846     		mov	r8, r1
 1801 000e 171C     		mov	r7, r2
 1802 0010 1E1C     		mov	r6, r3
 1803              		.loc 1 411 0
 1804 0012 AB07     		lsl	r3, r5, #30
 1805 0014 18D5     		bpl	.L167
 1806              	.LVL153:
 1807              		.loc 1 411 0 is_stmt 0 discriminator 1
 1808 0016 4069     		ldr	r0, [r0, #20]
 1809              	.LVL154:
 1810 0018 0028     		cmp	r0, #0
 1811 001a 15D0     		beq	.L167
 1812              		.loc 1 415 0 is_stmt 1
 1813 001c 0423     		mov	r3, #4
 1814 001e E05E     		ldrsh	r0, [r4, r3]
 1815 0020 0823     		mov	r3, #8
 1816 0022 E25E     		ldrsh	r2, [r4, r3]
 1817              	.LVL155:
 1818 0024 0625     		mov	r5, #6
 1819 0026 615F     		ldrsh	r1, [r4, r5]
 1820              	.LVL156:
 1821 0028 0A25     		mov	r5, #10
 1822 002a 635F     		ldrsh	r3, [r4, r5]
 1823 002c FFF7FEFF 		bl	gdisp_lld_set_clip
 1824              	.LVL157:
 1825              		.loc 1 417 0
 1826 0030 E288     		ldrh	r2, [r4, #6]
 1827 0032 A188     		ldrh	r1, [r4, #4]
 1828 0034 BB18     		add	r3, r7, r2
 1829 0036 4144     		add	r1, r1, r8
 1830 0038 08B2     		sxth	r0, r1
 1831 003a 19B2     		sxth	r1, r3
 1832 003c 6369     		ldr	r3, [r4, #20]
 1833 003e A489     		ldrh	r4, [r4, #12]
 1834              	.LVL158:
 1835 0040 321C     		mov	r2, r6
 1836 0042 0094     		str	r4, [sp]
 1837 0044 FFF7FEFF 		bl	gdispDrawChar
 1838              	.LVL159:
 1839              	.L167:
 1840              		.loc 1 418 0
 1841 0048 02B0     		add	sp, sp, #8
 1842              		@ sp needed for prologue
ARM GAS  /tmp/ccGEw7oO.s 			page 34


 1843 004a 04BC     		pop	{r2}
 1844 004c 9046     		mov	r8, r2
 1845 004e F0BD     		pop	{r4, r5, r6, r7, pc}
 1846              		.cfi_endproc
 1847              	.LFE71:
 1848              		.size	gwinDrawChar, .-gwinDrawChar
 1849              		.section	.text.gwinFillChar,"ax",%progbits
 1850              		.align	2
 1851              		.p2align 4,,15
 1852              		.global	gwinFillChar
 1853              		.code	16
 1854              		.thumb_func
 1855              		.type	gwinFillChar, %function
 1856              	gwinFillChar:
 1857              	.LFB72:
 1858              		.loc 1 420 0
 1859              		.cfi_startproc
 1860              	.LVL160:
 1861 0000 F0B5     		push	{r4, r5, r6, r7, lr}
 1862              	.LCFI41:
 1863              		.cfi_def_cfa_offset 20
 1864              		.cfi_offset 4, -20
 1865              		.cfi_offset 5, -16
 1866              		.cfi_offset 6, -12
 1867              		.cfi_offset 7, -8
 1868              		.cfi_offset 14, -4
 1869 0002 4746     		mov	r7, r8
 1870 0004 80B4     		push	{r7}
 1871              	.LCFI42:
 1872              		.cfi_def_cfa_offset 24
 1873              		.cfi_offset 8, -24
 1874              		.loc 1 421 0
 1875 0006 058A     		ldrh	r5, [r0, #16]
 1876              		.loc 1 420 0
 1877 0008 82B0     		sub	sp, sp, #8
 1878              	.LCFI43:
 1879              		.cfi_def_cfa_offset 32
 1880              		.loc 1 420 0
 1881 000a 041C     		mov	r4, r0
 1882 000c 8846     		mov	r8, r1
 1883 000e 171C     		mov	r7, r2
 1884 0010 1E1C     		mov	r6, r3
 1885              		.loc 1 421 0
 1886 0012 AB07     		lsl	r3, r5, #30
 1887 0014 1AD5     		bpl	.L175
 1888              	.LVL161:
 1889              		.loc 1 421 0 is_stmt 0 discriminator 1
 1890 0016 4069     		ldr	r0, [r0, #20]
 1891              	.LVL162:
 1892 0018 0028     		cmp	r0, #0
 1893 001a 17D0     		beq	.L175
 1894              		.loc 1 425 0 is_stmt 1
 1895 001c 0423     		mov	r3, #4
 1896 001e E05E     		ldrsh	r0, [r4, r3]
 1897 0020 0823     		mov	r3, #8
 1898 0022 E25E     		ldrsh	r2, [r4, r3]
 1899              	.LVL163:
ARM GAS  /tmp/ccGEw7oO.s 			page 35


 1900 0024 0625     		mov	r5, #6
 1901 0026 615F     		ldrsh	r1, [r4, r5]
 1902              	.LVL164:
 1903 0028 0A25     		mov	r5, #10
 1904 002a 635F     		ldrsh	r3, [r4, r5]
 1905 002c FFF7FEFF 		bl	gdisp_lld_set_clip
 1906              	.LVL165:
 1907              		.loc 1 427 0
 1908 0030 E288     		ldrh	r2, [r4, #6]
 1909 0032 A188     		ldrh	r1, [r4, #4]
 1910 0034 BB18     		add	r3, r7, r2
 1911 0036 A789     		ldrh	r7, [r4, #12]
 1912 0038 4144     		add	r1, r1, r8
 1913 003a 08B2     		sxth	r0, r1
 1914 003c 19B2     		sxth	r1, r3
 1915 003e 6369     		ldr	r3, [r4, #20]
 1916 0040 0097     		str	r7, [sp]
 1917 0042 E489     		ldrh	r4, [r4, #14]
 1918              	.LVL166:
 1919 0044 321C     		mov	r2, r6
 1920 0046 0194     		str	r4, [sp, #4]
 1921 0048 FFF7FEFF 		bl	gdispFillChar
 1922              	.LVL167:
 1923              	.L175:
 1924              		.loc 1 428 0
 1925 004c 02B0     		add	sp, sp, #8
 1926              		@ sp needed for prologue
 1927 004e 04BC     		pop	{r2}
 1928 0050 9046     		mov	r8, r2
 1929 0052 F0BD     		pop	{r4, r5, r6, r7, pc}
 1930              		.cfi_endproc
 1931              	.LFE72:
 1932              		.size	gwinFillChar, .-gwinFillChar
 1933 0054 C046C046 		.section	.text.gwinDrawString,"ax",%progbits
 1933      C046C046 
 1933      C046C046 
 1934              		.align	2
 1935              		.p2align 4,,15
 1936              		.global	gwinDrawString
 1937              		.code	16
 1938              		.thumb_func
 1939              		.type	gwinDrawString, %function
 1940              	gwinDrawString:
 1941              	.LFB73:
 1942              		.loc 1 430 0
 1943              		.cfi_startproc
 1944              	.LVL168:
 1945 0000 F0B5     		push	{r4, r5, r6, r7, lr}
 1946              	.LCFI44:
 1947              		.cfi_def_cfa_offset 20
 1948              		.cfi_offset 4, -20
 1949              		.cfi_offset 5, -16
 1950              		.cfi_offset 6, -12
 1951              		.cfi_offset 7, -8
 1952              		.cfi_offset 14, -4
 1953 0002 4746     		mov	r7, r8
 1954 0004 80B4     		push	{r7}
ARM GAS  /tmp/ccGEw7oO.s 			page 36


 1955              	.LCFI45:
 1956              		.cfi_def_cfa_offset 24
 1957              		.cfi_offset 8, -24
 1958              		.loc 1 431 0
 1959 0006 058A     		ldrh	r5, [r0, #16]
 1960              		.loc 1 430 0
 1961 0008 82B0     		sub	sp, sp, #8
 1962              	.LCFI46:
 1963              		.cfi_def_cfa_offset 32
 1964              		.loc 1 430 0
 1965 000a 041C     		mov	r4, r0
 1966 000c 8846     		mov	r8, r1
 1967 000e 171C     		mov	r7, r2
 1968 0010 1E1C     		mov	r6, r3
 1969              		.loc 1 431 0
 1970 0012 AB07     		lsl	r3, r5, #30
 1971 0014 18D5     		bpl	.L183
 1972              	.LVL169:
 1973              		.loc 1 431 0 is_stmt 0 discriminator 1
 1974 0016 4069     		ldr	r0, [r0, #20]
 1975              	.LVL170:
 1976 0018 0028     		cmp	r0, #0
 1977 001a 15D0     		beq	.L183
 1978              		.loc 1 435 0 is_stmt 1
 1979 001c 0423     		mov	r3, #4
 1980 001e E05E     		ldrsh	r0, [r4, r3]
 1981 0020 0823     		mov	r3, #8
 1982 0022 E25E     		ldrsh	r2, [r4, r3]
 1983              	.LVL171:
 1984 0024 0625     		mov	r5, #6
 1985 0026 615F     		ldrsh	r1, [r4, r5]
 1986              	.LVL172:
 1987 0028 0A25     		mov	r5, #10
 1988 002a 635F     		ldrsh	r3, [r4, r5]
 1989 002c FFF7FEFF 		bl	gdisp_lld_set_clip
 1990              	.LVL173:
 1991              		.loc 1 437 0
 1992 0030 E288     		ldrh	r2, [r4, #6]
 1993 0032 A188     		ldrh	r1, [r4, #4]
 1994 0034 BB18     		add	r3, r7, r2
 1995 0036 4144     		add	r1, r1, r8
 1996 0038 08B2     		sxth	r0, r1
 1997 003a 19B2     		sxth	r1, r3
 1998 003c 6369     		ldr	r3, [r4, #20]
 1999 003e A489     		ldrh	r4, [r4, #12]
 2000              	.LVL174:
 2001 0040 321C     		mov	r2, r6
 2002 0042 0094     		str	r4, [sp]
 2003 0044 FFF7FEFF 		bl	gdispDrawString
 2004              	.LVL175:
 2005              	.L183:
 2006              		.loc 1 438 0
 2007 0048 02B0     		add	sp, sp, #8
 2008              		@ sp needed for prologue
 2009              	.LVL176:
 2010 004a 04BC     		pop	{r2}
 2011 004c 9046     		mov	r8, r2
ARM GAS  /tmp/ccGEw7oO.s 			page 37


 2012 004e F0BD     		pop	{r4, r5, r6, r7, pc}
 2013              		.cfi_endproc
 2014              	.LFE73:
 2015              		.size	gwinDrawString, .-gwinDrawString
 2016              		.section	.text.gwinFillString,"ax",%progbits
 2017              		.align	2
 2018              		.p2align 4,,15
 2019              		.global	gwinFillString
 2020              		.code	16
 2021              		.thumb_func
 2022              		.type	gwinFillString, %function
 2023              	gwinFillString:
 2024              	.LFB74:
 2025              		.loc 1 440 0
 2026              		.cfi_startproc
 2027              	.LVL177:
 2028 0000 F0B5     		push	{r4, r5, r6, r7, lr}
 2029              	.LCFI47:
 2030              		.cfi_def_cfa_offset 20
 2031              		.cfi_offset 4, -20
 2032              		.cfi_offset 5, -16
 2033              		.cfi_offset 6, -12
 2034              		.cfi_offset 7, -8
 2035              		.cfi_offset 14, -4
 2036 0002 4746     		mov	r7, r8
 2037 0004 80B4     		push	{r7}
 2038              	.LCFI48:
 2039              		.cfi_def_cfa_offset 24
 2040              		.cfi_offset 8, -24
 2041              		.loc 1 441 0
 2042 0006 058A     		ldrh	r5, [r0, #16]
 2043              		.loc 1 440 0
 2044 0008 82B0     		sub	sp, sp, #8
 2045              	.LCFI49:
 2046              		.cfi_def_cfa_offset 32
 2047              		.loc 1 440 0
 2048 000a 041C     		mov	r4, r0
 2049 000c 8846     		mov	r8, r1
 2050 000e 171C     		mov	r7, r2
 2051 0010 1E1C     		mov	r6, r3
 2052              		.loc 1 441 0
 2053 0012 AB07     		lsl	r3, r5, #30
 2054 0014 1AD5     		bpl	.L191
 2055              	.LVL178:
 2056              		.loc 1 441 0 is_stmt 0 discriminator 1
 2057 0016 4069     		ldr	r0, [r0, #20]
 2058              	.LVL179:
 2059 0018 0028     		cmp	r0, #0
 2060 001a 17D0     		beq	.L191
 2061              		.loc 1 445 0 is_stmt 1
 2062 001c 0423     		mov	r3, #4
 2063 001e E05E     		ldrsh	r0, [r4, r3]
 2064 0020 0823     		mov	r3, #8
 2065 0022 E25E     		ldrsh	r2, [r4, r3]
 2066              	.LVL180:
 2067 0024 0625     		mov	r5, #6
 2068 0026 615F     		ldrsh	r1, [r4, r5]
ARM GAS  /tmp/ccGEw7oO.s 			page 38


 2069              	.LVL181:
 2070 0028 0A25     		mov	r5, #10
 2071 002a 635F     		ldrsh	r3, [r4, r5]
 2072 002c FFF7FEFF 		bl	gdisp_lld_set_clip
 2073              	.LVL182:
 2074              		.loc 1 447 0
 2075 0030 E288     		ldrh	r2, [r4, #6]
 2076 0032 A188     		ldrh	r1, [r4, #4]
 2077 0034 BB18     		add	r3, r7, r2
 2078 0036 A789     		ldrh	r7, [r4, #12]
 2079 0038 4144     		add	r1, r1, r8
 2080 003a 08B2     		sxth	r0, r1
 2081 003c 19B2     		sxth	r1, r3
 2082 003e 6369     		ldr	r3, [r4, #20]
 2083 0040 0097     		str	r7, [sp]
 2084 0042 E489     		ldrh	r4, [r4, #14]
 2085              	.LVL183:
 2086 0044 321C     		mov	r2, r6
 2087 0046 0194     		str	r4, [sp, #4]
 2088 0048 FFF7FEFF 		bl	gdispFillString
 2089              	.LVL184:
 2090              	.L191:
 2091              		.loc 1 448 0
 2092 004c 02B0     		add	sp, sp, #8
 2093              		@ sp needed for prologue
 2094              	.LVL185:
 2095 004e 04BC     		pop	{r2}
 2096 0050 9046     		mov	r8, r2
 2097 0052 F0BD     		pop	{r4, r5, r6, r7, pc}
 2098              		.cfi_endproc
 2099              	.LFE74:
 2100              		.size	gwinFillString, .-gwinFillString
 2101 0054 C046C046 		.section	.text.gwinDrawStringBox,"ax",%progbits
 2101      C046C046 
 2101      C046C046 
 2102              		.align	2
 2103              		.p2align 4,,15
 2104              		.global	gwinDrawStringBox
 2105              		.code	16
 2106              		.thumb_func
 2107              		.type	gwinDrawStringBox, %function
 2108              	gwinDrawStringBox:
 2109              	.LFB75:
 2110              		.loc 1 450 0
 2111              		.cfi_startproc
 2112              	.LVL186:
 2113 0000 F0B5     		push	{r4, r5, r6, r7, lr}
 2114              	.LCFI50:
 2115              		.cfi_def_cfa_offset 20
 2116              		.cfi_offset 4, -20
 2117              		.cfi_offset 5, -16
 2118              		.cfi_offset 6, -12
 2119              		.cfi_offset 7, -8
 2120              		.cfi_offset 14, -4
 2121 0002 5746     		mov	r7, sl
 2122 0004 4E46     		mov	r6, r9
 2123 0006 4546     		mov	r5, r8
ARM GAS  /tmp/ccGEw7oO.s 			page 39


 2124 0008 E0B4     		push	{r5, r6, r7}
 2125              	.LCFI51:
 2126              		.cfi_def_cfa_offset 32
 2127              		.cfi_offset 8, -32
 2128              		.cfi_offset 9, -28
 2129              		.cfi_offset 10, -24
 2130 000a 84B0     		sub	sp, sp, #16
 2131              	.LCFI52:
 2132              		.cfi_def_cfa_offset 48
 2133              		.loc 1 450 0
 2134 000c 041C     		mov	r4, r0
 2135 000e 0EA8     		add	r0, sp, #56
 2136              	.LVL187:
 2137 0010 8946     		mov	r9, r1
 2138 0012 9046     		mov	r8, r2
 2139 0014 0178     		ldrb	r1, [r0]
 2140              	.LVL188:
 2141              		.loc 1 451 0
 2142 0016 228A     		ldrh	r2, [r4, #16]
 2143              	.LVL189:
 2144              		.loc 1 450 0
 2145 0018 0CAD     		add	r5, sp, #48
 2146 001a 1F1C     		mov	r7, r3
 2147 001c 8A46     		mov	sl, r1
 2148 001e 0023     		mov	r3, #0
 2149 0020 EE5E     		ldrsh	r6, [r5, r3]
 2150              	.LVL190:
 2151              		.loc 1 451 0
 2152 0022 9307     		lsl	r3, r2, #30
 2153 0024 1ED5     		bpl	.L199
 2154              		.loc 1 451 0 is_stmt 0 discriminator 1
 2155 0026 6369     		ldr	r3, [r4, #20]
 2156 0028 002B     		cmp	r3, #0
 2157 002a 1BD0     		beq	.L199
 2158              		.loc 1 455 0 is_stmt 1
 2159 002c 0423     		mov	r3, #4
 2160 002e E05E     		ldrsh	r0, [r4, r3]
 2161 0030 0625     		mov	r5, #6
 2162 0032 615F     		ldrsh	r1, [r4, r5]
 2163 0034 0823     		mov	r3, #8
 2164 0036 E25E     		ldrsh	r2, [r4, r3]
 2165 0038 0A25     		mov	r5, #10
 2166 003a 635F     		ldrsh	r3, [r4, r5]
 2167 003c FFF7FEFF 		bl	gdisp_lld_set_clip
 2168              	.LVL191:
 2169              		.loc 1 457 0
 2170 0040 0D9A     		ldr	r2, [sp, #52]
 2171 0042 A588     		ldrh	r5, [r4, #4]
 2172 0044 E188     		ldrh	r1, [r4, #6]
 2173 0046 0092     		str	r2, [sp]
 2174 0048 6369     		ldr	r3, [r4, #20]
 2175 004a 4D44     		add	r5, r5, r9
 2176 004c 0193     		str	r3, [sp, #4]
 2177 004e A489     		ldrh	r4, [r4, #12]
 2178              	.LVL192:
 2179 0050 28B2     		sxth	r0, r5
 2180 0052 4144     		add	r1, r1, r8
ARM GAS  /tmp/ccGEw7oO.s 			page 40


 2181 0054 5546     		mov	r5, sl
 2182 0056 09B2     		sxth	r1, r1
 2183 0058 0294     		str	r4, [sp, #8]
 2184 005a 0395     		str	r5, [sp, #12]
 2185 005c 3A1C     		mov	r2, r7
 2186 005e 331C     		mov	r3, r6
 2187 0060 FFF7FEFF 		bl	gdispDrawStringBox
 2188              	.LVL193:
 2189              	.L199:
 2190              		.loc 1 458 0
 2191 0064 04B0     		add	sp, sp, #16
 2192              		@ sp needed for prologue
 2193 0066 1CBC     		pop	{r2, r3, r4}
 2194 0068 9046     		mov	r8, r2
 2195 006a 9946     		mov	r9, r3
 2196 006c A246     		mov	sl, r4
 2197 006e F0BD     		pop	{r4, r5, r6, r7, pc}
 2198              		.cfi_endproc
 2199              	.LFE75:
 2200              		.size	gwinDrawStringBox, .-gwinDrawStringBox
 2201              		.section	.text.gwinFillStringBox,"ax",%progbits
 2202              		.align	2
 2203              		.p2align 4,,15
 2204              		.global	gwinFillStringBox
 2205              		.code	16
 2206              		.thumb_func
 2207              		.type	gwinFillStringBox, %function
 2208              	gwinFillStringBox:
 2209              	.LFB76:
 2210              		.loc 1 460 0
 2211              		.cfi_startproc
 2212              	.LVL194:
 2213 0000 F0B5     		push	{r4, r5, r6, r7, lr}
 2214              	.LCFI53:
 2215              		.cfi_def_cfa_offset 20
 2216              		.cfi_offset 4, -20
 2217              		.cfi_offset 5, -16
 2218              		.cfi_offset 6, -12
 2219              		.cfi_offset 7, -8
 2220              		.cfi_offset 14, -4
 2221 0002 5746     		mov	r7, sl
 2222 0004 4E46     		mov	r6, r9
 2223 0006 4546     		mov	r5, r8
 2224 0008 E0B4     		push	{r5, r6, r7}
 2225              	.LCFI54:
 2226              		.cfi_def_cfa_offset 32
 2227              		.cfi_offset 8, -32
 2228              		.cfi_offset 9, -28
 2229              		.cfi_offset 10, -24
 2230 000a 86B0     		sub	sp, sp, #24
 2231              	.LCFI55:
 2232              		.cfi_def_cfa_offset 56
 2233              		.loc 1 460 0
 2234 000c 041C     		mov	r4, r0
 2235 000e 10A8     		add	r0, sp, #64
 2236              	.LVL195:
 2237 0010 8946     		mov	r9, r1
ARM GAS  /tmp/ccGEw7oO.s 			page 41


 2238 0012 9046     		mov	r8, r2
 2239 0014 0178     		ldrb	r1, [r0]
 2240              	.LVL196:
 2241              		.loc 1 461 0
 2242 0016 228A     		ldrh	r2, [r4, #16]
 2243              	.LVL197:
 2244              		.loc 1 460 0
 2245 0018 0EAD     		add	r5, sp, #56
 2246 001a 1F1C     		mov	r7, r3
 2247 001c 8A46     		mov	sl, r1
 2248 001e 0023     		mov	r3, #0
 2249 0020 EE5E     		ldrsh	r6, [r5, r3]
 2250              	.LVL198:
 2251              		.loc 1 461 0
 2252 0022 9307     		lsl	r3, r2, #30
 2253 0024 20D5     		bpl	.L207
 2254              		.loc 1 461 0 is_stmt 0 discriminator 1
 2255 0026 6369     		ldr	r3, [r4, #20]
 2256 0028 002B     		cmp	r3, #0
 2257 002a 1DD0     		beq	.L207
 2258              		.loc 1 465 0 is_stmt 1
 2259 002c 0423     		mov	r3, #4
 2260 002e E05E     		ldrsh	r0, [r4, r3]
 2261 0030 0625     		mov	r5, #6
 2262 0032 615F     		ldrsh	r1, [r4, r5]
 2263 0034 0823     		mov	r3, #8
 2264 0036 E25E     		ldrsh	r2, [r4, r3]
 2265 0038 0A25     		mov	r5, #10
 2266 003a 635F     		ldrsh	r3, [r4, r5]
 2267 003c FFF7FEFF 		bl	gdisp_lld_set_clip
 2268              	.LVL199:
 2269              		.loc 1 467 0
 2270 0040 0F9A     		ldr	r2, [sp, #60]
 2271 0042 A588     		ldrh	r5, [r4, #4]
 2272 0044 E188     		ldrh	r1, [r4, #6]
 2273 0046 0092     		str	r2, [sp]
 2274 0048 6369     		ldr	r3, [r4, #20]
 2275 004a 4D44     		add	r5, r5, r9
 2276 004c 0193     		str	r3, [sp, #4]
 2277 004e 28B2     		sxth	r0, r5
 2278 0050 A589     		ldrh	r5, [r4, #12]
 2279 0052 5246     		mov	r2, sl
 2280 0054 0295     		str	r5, [sp, #8]
 2281 0056 E489     		ldrh	r4, [r4, #14]
 2282              	.LVL200:
 2283 0058 4144     		add	r1, r1, r8
 2284 005a 0492     		str	r2, [sp, #16]
 2285 005c 09B2     		sxth	r1, r1
 2286 005e 0394     		str	r4, [sp, #12]
 2287 0060 3A1C     		mov	r2, r7
 2288 0062 331C     		mov	r3, r6
 2289 0064 FFF7FEFF 		bl	gdispFillStringBox
 2290              	.LVL201:
 2291              	.L207:
 2292              		.loc 1 468 0
 2293 0068 06B0     		add	sp, sp, #24
 2294              		@ sp needed for prologue
ARM GAS  /tmp/ccGEw7oO.s 			page 42


 2295 006a 1CBC     		pop	{r2, r3, r4}
 2296 006c 9046     		mov	r8, r2
 2297 006e 9946     		mov	r9, r3
 2298 0070 A246     		mov	sl, r4
 2299 0072 F0BD     		pop	{r4, r5, r6, r7, pc}
 2300              		.cfi_endproc
 2301              	.LFE76:
 2302              		.size	gwinFillStringBox, .-gwinFillStringBox
 2303 0074 C046C046 		.section	.rodata.basegwinVMT,"a",%progbits
 2303      C046C046 
 2303      C046C046 
 2304              		.align	2
 2305              		.set	.LANCHOR3,. + 0
 2306              		.type	basegwinVMT, %object
 2307              		.size	basegwinVMT, 20
 2308              	basegwinVMT:
 2309 0000 00000000 		.word	.LC11
 2310 0004 18000000 		.word	24
 2311 0008 00000000 		.word	0
 2312 000c 00000000 		.word	0
 2313 0010 00000000 		.word	0
 2314              		.section	.bss.defaultFont,"aw",%nobits
 2315              		.align	2
 2316              		.set	.LANCHOR2,. + 0
 2317              		.type	defaultFont, %object
 2318              		.size	defaultFont, 4
 2319              	defaultFont:
 2320 0000 00000000 		.space	4
 2321              		.section	.rodata.str1.4,"aMS",%progbits,1
 2322              		.align	2
 2323              	.LC11:
 2324 0000 4757494E 		.ascii	"GWIN\000"
 2324      00
 2325 0005 000000   		.section	.bss.defaultBgColor,"aw",%nobits
 2326              		.align	1
 2327              		.set	.LANCHOR1,. + 0
 2328              		.type	defaultBgColor, %object
 2329              		.size	defaultBgColor, 2
 2330              	defaultBgColor:
 2331 0000 0000     		.space	2
 2332              		.section	.data.defaultFgColor,"aw",%progbits
 2333              		.align	1
 2334              		.set	.LANCHOR0,. + 0
 2335              		.type	defaultFgColor, %object
 2336              		.size	defaultFgColor, 2
 2337              	defaultFgColor:
 2338 0000 FFFF     		.short	-1
 2339              		.text
 2340              	.Letext0:
 2341              		.file 2 "/home/matt/arm_cortex/gcc-arm-none-eabi/bin/../lib/gcc/arm-none-eabi/4.7.4/include/stddef
 2342              		.file 3 "/home/matt/arm_cortex/gcc-arm-none-eabi/bin/../lib/gcc/arm-none-eabi/4.7.4/../../../../ar
 2343              		.file 4 "/home/matt/arm_cortex/ChibiOS/os/ports/GCC/ARMCMx/chtypes.h"
 2344              		.file 5 "/home/matt/arm_cortex/ChibiOS/os/kernel/include/chlists.h"
 2345              		.file 6 "/home/matt/arm_cortex/ChibiOS/os/kernel/include/chthreads.h"
 2346              		.file 7 "/home/matt/arm_cortex/ChibiOS/os/ports/GCC/ARMCMx/chcore_v6m.h"
 2347              		.file 8 "/home/matt/arm_cortex/ChibiOS/os/kernel/include/chmtx.h"
 2348              		.file 9 "/home/matt/arm_cortex/ChibiOS/os/kernel/include/chmemcore.h"
ARM GAS  /tmp/ccGEw7oO.s 			page 43


 2349              		.file 10 "/home/matt/arm_cortex/ChibiOS/os/kernel/include/chheap.h"
 2350              		.file 11 "/home/matt/arm_cortex/ChibiOS/ext/ugfx/include/gdisp/gdisp.h"
 2351              		.file 12 "/home/matt/arm_cortex/ChibiOS/ext/ugfx/include/gwin/gwin.h"
 2352              		.file 13 "/home/matt/arm_cortex/ChibiOS/ext/ugfx/include/gwin/class_gwin.h"
 2353              		.file 14 "/home/matt/arm_cortex/ChibiOS/ext/ugfx/include/gdisp/lld/gdisp_lld.h"