ARM GAS  /tmp/ccB4mnnC.s 			page 1


   1              		.cpu cortex-m0
   2              		.fpu softvfp
   3              		.eabi_attribute 20, 1
   4              		.eabi_attribute 21, 1
   5              		.eabi_attribute 23, 3
   6              		.eabi_attribute 24, 1
   7              		.eabi_attribute 25, 1
   8              		.eabi_attribute 26, 1
   9              		.eabi_attribute 30, 2
  10              		.eabi_attribute 34, 0
  11              		.eabi_attribute 18, 4
  12              		.code	16
  13              		.file	"mf_encoding.c"
  14              		.text
  15              	.Ltext0:
  16              		.cfi_sections	.debug_frame
  17              		.section	.text.mf_getchar,"ax",%progbits
  18              		.align	2
  19              		.p2align 4,,15
  20              		.global	mf_getchar
  21              		.code	16
  22              		.thumb_func
  23              		.type	mf_getchar, %function
  24              	mf_getchar:
  25              	.LFB40:
  26              		.file 1 "/home/matt/arm_cortex/ChibiOS/ext/ugfx/src/gdisp/mcufont/mf_encoding.c"
  27              		.loc 1 81 0
  28              		.cfi_startproc
  29              	.LVL0:
  30              		.loc 1 82 0
  31 0000 0268     		ldr	r2, [r0]
  32 0002 1378     		ldrb	r3, [r2]
  33 0004 002B     		cmp	r3, #0
  34 0006 01D0     		beq	.L2
  35              		.loc 1 85 0
  36 0008 0132     		add	r2, r2, #1
  37 000a 0260     		str	r2, [r0]
  38              	.L2:
  39              		.loc 1 86 0
  40 000c 181C     		mov	r0, r3
  41              	.LVL1:
  42              		@ sp needed for prologue
  43 000e 7047     		bx	lr
  44              		.cfi_endproc
  45              	.LFE40:
  46              		.size	mf_getchar, .-mf_getchar
  47              		.section	.text.mf_rewind,"ax",%progbits
  48              		.align	2
  49              		.p2align 4,,15
  50              		.global	mf_rewind
  51              		.code	16
  52              		.thumb_func
  53              		.type	mf_rewind, %function
  54              	mf_rewind:
  55              	.LFB41:
  56              		.loc 1 89 0
  57              		.cfi_startproc
ARM GAS  /tmp/ccB4mnnC.s 			page 2


  58              	.LVL2:
  59              		.loc 1 90 0
  60 0000 0368     		ldr	r3, [r0]
  61              		.loc 1 91 0
  62              		@ sp needed for prologue
  63              		.loc 1 90 0
  64 0002 013B     		sub	r3, r3, #1
  65 0004 0360     		str	r3, [r0]
  66              		.loc 1 91 0
  67 0006 7047     		bx	lr
  68              		.cfi_endproc
  69              	.LFE41:
  70              		.size	mf_rewind, .-mf_rewind
  71              		.text
  72              	.Letext0:
  73              		.file 2 "/home/matt/arm_cortex/ChibiOS/ext/ugfx/src/gdisp/mcufont/mf_encoding.h"
  74              		.section	.debug_info,"",%progbits
  75              	.Ldebug_info0:
  76 0000 F4000000 		.4byte	0xf4
  77 0004 0200     		.2byte	0x2
  78 0006 00000000 		.4byte	.Ldebug_abbrev0
  79 000a 04       		.byte	0x4
  80 000b 01       		.uleb128 0x1
  81 000c FA000000 		.4byte	.LASF14
  82 0010 01       		.byte	0x1
  83 0011 86000000 		.4byte	.LASF15
  84 0015 00000000 		.4byte	.Ldebug_ranges0+0
  85 0019 00000000 		.4byte	0
  86 001d 00000000 		.4byte	0
  87 0021 00000000 		.4byte	.Ldebug_line0
  88 0025 02       		.uleb128 0x2
  89 0026 04       		.byte	0x4
  90 0027 05       		.byte	0x5
  91 0028 696E7400 		.ascii	"int\000"
  92 002c 03       		.uleb128 0x3
  93 002d 04       		.byte	0x4
  94 002e 07       		.byte	0x7
  95 002f 15000000 		.4byte	.LASF0
  96 0033 03       		.uleb128 0x3
  97 0034 01       		.byte	0x1
  98 0035 06       		.byte	0x6
  99 0036 22000000 		.4byte	.LASF1
 100 003a 03       		.uleb128 0x3
 101 003b 01       		.byte	0x1
 102 003c 08       		.byte	0x8
 103 003d 6A000000 		.4byte	.LASF2
 104 0041 03       		.uleb128 0x3
 105 0042 02       		.byte	0x2
 106 0043 05       		.byte	0x5
 107 0044 F0000000 		.4byte	.LASF3
 108 0048 03       		.uleb128 0x3
 109 0049 02       		.byte	0x2
 110 004a 07       		.byte	0x7
 111 004b 57000000 		.4byte	.LASF4
 112 004f 03       		.uleb128 0x3
 113 0050 04       		.byte	0x4
 114 0051 05       		.byte	0x5
ARM GAS  /tmp/ccB4mnnC.s 			page 3


 115 0052 7D000000 		.4byte	.LASF5
 116 0056 03       		.uleb128 0x3
 117 0057 04       		.byte	0x4
 118 0058 07       		.byte	0x7
 119 0059 2E000000 		.4byte	.LASF6
 120 005d 03       		.uleb128 0x3
 121 005e 08       		.byte	0x8
 122 005f 05       		.byte	0x5
 123 0060 00000000 		.4byte	.LASF7
 124 0064 03       		.uleb128 0x3
 125 0065 08       		.byte	0x8
 126 0066 07       		.byte	0x7
 127 0067 40000000 		.4byte	.LASF8
 128 006b 03       		.uleb128 0x3
 129 006c 01       		.byte	0x1
 130 006d 02       		.byte	0x2
 131 006e CD000000 		.4byte	.LASF9
 132 0072 03       		.uleb128 0x3
 133 0073 04       		.byte	0x4
 134 0074 07       		.byte	0x7
 135 0075 1C010000 		.4byte	.LASF10
 136 0079 04       		.uleb128 0x4
 137 007a 04       		.byte	0x4
 138 007b 7F000000 		.4byte	0x7f
 139 007f 05       		.uleb128 0x5
 140 0080 84000000 		.4byte	0x84
 141 0084 03       		.uleb128 0x3
 142 0085 01       		.byte	0x1
 143 0086 08       		.byte	0x8
 144 0087 78000000 		.4byte	.LASF11
 145 008b 06       		.uleb128 0x6
 146 008c DE000000 		.4byte	.LASF12
 147 0090 02       		.byte	0x2
 148 0091 16       		.byte	0x16
 149 0092 84000000 		.4byte	0x84
 150 0096 06       		.uleb128 0x6
 151 0097 0E000000 		.4byte	.LASF13
 152 009b 02       		.byte	0x2
 153 009c 1D       		.byte	0x1d
 154 009d 79000000 		.4byte	0x79
 155 00a1 07       		.uleb128 0x7
 156 00a2 01       		.byte	0x1
 157 00a3 D3000000 		.4byte	.LASF16
 158 00a7 01       		.byte	0x1
 159 00a8 50       		.byte	0x50
 160 00a9 01       		.byte	0x1
 161 00aa 8B000000 		.4byte	0x8b
 162 00ae 00000000 		.4byte	.LFB40
 163 00b2 10000000 		.4byte	.LFE40
 164 00b6 02       		.byte	0x2
 165 00b7 7D       		.byte	0x7d
 166 00b8 00       		.sleb128 0
 167 00b9 01       		.byte	0x1
 168 00ba CE000000 		.4byte	0xce
 169 00be 08       		.uleb128 0x8
 170 00bf 73747200 		.ascii	"str\000"
 171 00c3 01       		.byte	0x1
ARM GAS  /tmp/ccB4mnnC.s 			page 4


 172 00c4 50       		.byte	0x50
 173 00c5 CE000000 		.4byte	0xce
 174 00c9 00000000 		.4byte	.LLST0
 175 00cd 00       		.byte	0
 176 00ce 04       		.uleb128 0x4
 177 00cf 04       		.byte	0x4
 178 00d0 96000000 		.4byte	0x96
 179 00d4 09       		.uleb128 0x9
 180 00d5 01       		.byte	0x1
 181 00d6 E6000000 		.4byte	.LASF17
 182 00da 01       		.byte	0x1
 183 00db 58       		.byte	0x58
 184 00dc 01       		.byte	0x1
 185 00dd 00000000 		.4byte	.LFB41
 186 00e1 08000000 		.4byte	.LFE41
 187 00e5 02       		.byte	0x2
 188 00e6 7D       		.byte	0x7d
 189 00e7 00       		.sleb128 0
 190 00e8 01       		.byte	0x1
 191 00e9 0A       		.uleb128 0xa
 192 00ea 73747200 		.ascii	"str\000"
 193 00ee 01       		.byte	0x1
 194 00ef 58       		.byte	0x58
 195 00f0 CE000000 		.4byte	0xce
 196 00f4 01       		.byte	0x1
 197 00f5 50       		.byte	0x50
 198 00f6 00       		.byte	0
 199 00f7 00       		.byte	0
 200              		.section	.debug_abbrev,"",%progbits
 201              	.Ldebug_abbrev0:
 202 0000 01       		.uleb128 0x1
 203 0001 11       		.uleb128 0x11
 204 0002 01       		.byte	0x1
 205 0003 25       		.uleb128 0x25
 206 0004 0E       		.uleb128 0xe
 207 0005 13       		.uleb128 0x13
 208 0006 0B       		.uleb128 0xb
 209 0007 03       		.uleb128 0x3
 210 0008 0E       		.uleb128 0xe
 211 0009 55       		.uleb128 0x55
 212 000a 06       		.uleb128 0x6
 213 000b 11       		.uleb128 0x11
 214 000c 01       		.uleb128 0x1
 215 000d 52       		.uleb128 0x52
 216 000e 01       		.uleb128 0x1
 217 000f 10       		.uleb128 0x10
 218 0010 06       		.uleb128 0x6
 219 0011 00       		.byte	0
 220 0012 00       		.byte	0
 221 0013 02       		.uleb128 0x2
 222 0014 24       		.uleb128 0x24
 223 0015 00       		.byte	0
 224 0016 0B       		.uleb128 0xb
 225 0017 0B       		.uleb128 0xb
 226 0018 3E       		.uleb128 0x3e
 227 0019 0B       		.uleb128 0xb
 228 001a 03       		.uleb128 0x3
ARM GAS  /tmp/ccB4mnnC.s 			page 5


 229 001b 08       		.uleb128 0x8
 230 001c 00       		.byte	0
 231 001d 00       		.byte	0
 232 001e 03       		.uleb128 0x3
 233 001f 24       		.uleb128 0x24
 234 0020 00       		.byte	0
 235 0021 0B       		.uleb128 0xb
 236 0022 0B       		.uleb128 0xb
 237 0023 3E       		.uleb128 0x3e
 238 0024 0B       		.uleb128 0xb
 239 0025 03       		.uleb128 0x3
 240 0026 0E       		.uleb128 0xe
 241 0027 00       		.byte	0
 242 0028 00       		.byte	0
 243 0029 04       		.uleb128 0x4
 244 002a 0F       		.uleb128 0xf
 245 002b 00       		.byte	0
 246 002c 0B       		.uleb128 0xb
 247 002d 0B       		.uleb128 0xb
 248 002e 49       		.uleb128 0x49
 249 002f 13       		.uleb128 0x13
 250 0030 00       		.byte	0
 251 0031 00       		.byte	0
 252 0032 05       		.uleb128 0x5
 253 0033 26       		.uleb128 0x26
 254 0034 00       		.byte	0
 255 0035 49       		.uleb128 0x49
 256 0036 13       		.uleb128 0x13
 257 0037 00       		.byte	0
 258 0038 00       		.byte	0
 259 0039 06       		.uleb128 0x6
 260 003a 16       		.uleb128 0x16
 261 003b 00       		.byte	0
 262 003c 03       		.uleb128 0x3
 263 003d 0E       		.uleb128 0xe
 264 003e 3A       		.uleb128 0x3a
 265 003f 0B       		.uleb128 0xb
 266 0040 3B       		.uleb128 0x3b
 267 0041 0B       		.uleb128 0xb
 268 0042 49       		.uleb128 0x49
 269 0043 13       		.uleb128 0x13
 270 0044 00       		.byte	0
 271 0045 00       		.byte	0
 272 0046 07       		.uleb128 0x7
 273 0047 2E       		.uleb128 0x2e
 274 0048 01       		.byte	0x1
 275 0049 3F       		.uleb128 0x3f
 276 004a 0C       		.uleb128 0xc
 277 004b 03       		.uleb128 0x3
 278 004c 0E       		.uleb128 0xe
 279 004d 3A       		.uleb128 0x3a
 280 004e 0B       		.uleb128 0xb
 281 004f 3B       		.uleb128 0x3b
 282 0050 0B       		.uleb128 0xb
 283 0051 27       		.uleb128 0x27
 284 0052 0C       		.uleb128 0xc
 285 0053 49       		.uleb128 0x49
ARM GAS  /tmp/ccB4mnnC.s 			page 6


 286 0054 13       		.uleb128 0x13
 287 0055 11       		.uleb128 0x11
 288 0056 01       		.uleb128 0x1
 289 0057 12       		.uleb128 0x12
 290 0058 01       		.uleb128 0x1
 291 0059 40       		.uleb128 0x40
 292 005a 0A       		.uleb128 0xa
 293 005b 9742     		.uleb128 0x2117
 294 005d 0C       		.uleb128 0xc
 295 005e 01       		.uleb128 0x1
 296 005f 13       		.uleb128 0x13
 297 0060 00       		.byte	0
 298 0061 00       		.byte	0
 299 0062 08       		.uleb128 0x8
 300 0063 05       		.uleb128 0x5
 301 0064 00       		.byte	0
 302 0065 03       		.uleb128 0x3
 303 0066 08       		.uleb128 0x8
 304 0067 3A       		.uleb128 0x3a
 305 0068 0B       		.uleb128 0xb
 306 0069 3B       		.uleb128 0x3b
 307 006a 0B       		.uleb128 0xb
 308 006b 49       		.uleb128 0x49
 309 006c 13       		.uleb128 0x13
 310 006d 02       		.uleb128 0x2
 311 006e 06       		.uleb128 0x6
 312 006f 00       		.byte	0
 313 0070 00       		.byte	0
 314 0071 09       		.uleb128 0x9
 315 0072 2E       		.uleb128 0x2e
 316 0073 01       		.byte	0x1
 317 0074 3F       		.uleb128 0x3f
 318 0075 0C       		.uleb128 0xc
 319 0076 03       		.uleb128 0x3
 320 0077 0E       		.uleb128 0xe
 321 0078 3A       		.uleb128 0x3a
 322 0079 0B       		.uleb128 0xb
 323 007a 3B       		.uleb128 0x3b
 324 007b 0B       		.uleb128 0xb
 325 007c 27       		.uleb128 0x27
 326 007d 0C       		.uleb128 0xc
 327 007e 11       		.uleb128 0x11
 328 007f 01       		.uleb128 0x1
 329 0080 12       		.uleb128 0x12
 330 0081 01       		.uleb128 0x1
 331 0082 40       		.uleb128 0x40
 332 0083 0A       		.uleb128 0xa
 333 0084 9742     		.uleb128 0x2117
 334 0086 0C       		.uleb128 0xc
 335 0087 00       		.byte	0
 336 0088 00       		.byte	0
 337 0089 0A       		.uleb128 0xa
 338 008a 05       		.uleb128 0x5
 339 008b 00       		.byte	0
 340 008c 03       		.uleb128 0x3
 341 008d 08       		.uleb128 0x8
 342 008e 3A       		.uleb128 0x3a
ARM GAS  /tmp/ccB4mnnC.s 			page 7


 343 008f 0B       		.uleb128 0xb
 344 0090 3B       		.uleb128 0x3b
 345 0091 0B       		.uleb128 0xb
 346 0092 49       		.uleb128 0x49
 347 0093 13       		.uleb128 0x13
 348 0094 02       		.uleb128 0x2
 349 0095 0A       		.uleb128 0xa
 350 0096 00       		.byte	0
 351 0097 00       		.byte	0
 352 0098 00       		.byte	0
 353              		.section	.debug_loc,"",%progbits
 354              	.Ldebug_loc0:
 355              	.LLST0:
 356 0000 00000000 		.4byte	.LVL0
 357 0004 0E000000 		.4byte	.LVL1
 358 0008 0100     		.2byte	0x1
 359 000a 50       		.byte	0x50
 360 000b 0E000000 		.4byte	.LVL1
 361 000f 10000000 		.4byte	.LFE40
 362 0013 0400     		.2byte	0x4
 363 0015 F3       		.byte	0xf3
 364 0016 01       		.uleb128 0x1
 365 0017 50       		.byte	0x50
 366 0018 9F       		.byte	0x9f
 367 0019 00000000 		.4byte	0
 368 001d 00000000 		.4byte	0
 369              		.section	.debug_aranges,"",%progbits
 370 0000 24000000 		.4byte	0x24
 371 0004 0200     		.2byte	0x2
 372 0006 00000000 		.4byte	.Ldebug_info0
 373 000a 04       		.byte	0x4
 374 000b 00       		.byte	0
 375 000c 0000     		.2byte	0
 376 000e 0000     		.2byte	0
 377 0010 00000000 		.4byte	.LFB40
 378 0014 10000000 		.4byte	.LFE40-.LFB40
 379 0018 00000000 		.4byte	.LFB41
 380 001c 08000000 		.4byte	.LFE41-.LFB41
 381 0020 00000000 		.4byte	0
 382 0024 00000000 		.4byte	0
 383              		.section	.debug_ranges,"",%progbits
 384              	.Ldebug_ranges0:
 385 0000 00000000 		.4byte	.LFB40
 386 0004 10000000 		.4byte	.LFE40
 387 0008 00000000 		.4byte	.LFB41
 388 000c 08000000 		.4byte	.LFE41
 389 0010 00000000 		.4byte	0
 390 0014 00000000 		.4byte	0
 391              		.section	.debug_line,"",%progbits
 392              	.Ldebug_line0:
 393 0000 9B000000 		.section	.debug_str,"MS",%progbits,1
 393      02006E00 
 393      00000201 
 393      FB0E0D00 
 393      01010101 
 394              	.LASF7:
 395 0000 6C6F6E67 		.ascii	"long long int\000"
ARM GAS  /tmp/ccB4mnnC.s 			page 8


 395      206C6F6E 
 395      6720696E 
 395      7400
 396              	.LASF13:
 397 000e 6D665F73 		.ascii	"mf_str\000"
 397      747200
 398              	.LASF0:
 399 0015 756E7369 		.ascii	"unsigned int\000"
 399      676E6564 
 399      20696E74 
 399      00
 400              	.LASF1:
 401 0022 7369676E 		.ascii	"signed char\000"
 401      65642063 
 401      68617200 
 402              	.LASF6:
 403 002e 6C6F6E67 		.ascii	"long unsigned int\000"
 403      20756E73 
 403      69676E65 
 403      6420696E 
 403      7400
 404              	.LASF8:
 405 0040 6C6F6E67 		.ascii	"long long unsigned int\000"
 405      206C6F6E 
 405      6720756E 
 405      7369676E 
 405      65642069 
 406              	.LASF4:
 407 0057 73686F72 		.ascii	"short unsigned int\000"
 407      7420756E 
 407      7369676E 
 407      65642069 
 407      6E7400
 408              	.LASF2:
 409 006a 756E7369 		.ascii	"unsigned char\000"
 409      676E6564 
 409      20636861 
 409      7200
 410              	.LASF11:
 411 0078 63686172 		.ascii	"char\000"
 411      00
 412              	.LASF5:
 413 007d 6C6F6E67 		.ascii	"long int\000"
 413      20696E74 
 413      00
 414              	.LASF15:
 415 0086 2F686F6D 		.ascii	"/home/matt/arm_cortex/ChibiOS/ext/ugfx/src/gdisp/mc"
 415      652F6D61 
 415      74742F61 
 415      726D5F63 
 415      6F727465 
 416 00b9 75666F6E 		.ascii	"ufont/mf_encoding.c\000"
 416      742F6D66 
 416      5F656E63 
 416      6F64696E 
 416      672E6300 
 417              	.LASF9:
ARM GAS  /tmp/ccB4mnnC.s 			page 9


 418 00cd 5F426F6F 		.ascii	"_Bool\000"
 418      6C00
 419              	.LASF16:
 420 00d3 6D665F67 		.ascii	"mf_getchar\000"
 420      65746368 
 420      617200
 421              	.LASF12:
 422 00de 6D665F63 		.ascii	"mf_char\000"
 422      68617200 
 423              	.LASF17:
 424 00e6 6D665F72 		.ascii	"mf_rewind\000"
 424      6577696E 
 424      6400
 425              	.LASF3:
 426 00f0 73686F72 		.ascii	"short int\000"
 426      7420696E 
 426      7400
 427              	.LASF14:
 428 00fa 474E5520 		.ascii	"GNU C 4.7.4 20130913 (prerelease)\000"
 428      4320342E 
 428      372E3420 
 428      32303133 
 428      30393133 
 429              	.LASF10:
 430 011c 73697A65 		.ascii	"sizetype\000"
 430      74797065 
 430      00
 431              		.ident	"GCC: (GNU Tools for ARM Embedded Processors / bleeding-edge-toolchain-131005) 4.7.4 201309
ARM GAS  /tmp/ccB4mnnC.s 			page 10


DEFINED SYMBOLS
                            *ABS*:0000000000000000 mf_encoding.c
     /tmp/ccB4mnnC.s:18     .text.mf_getchar:0000000000000000 $t
     /tmp/ccB4mnnC.s:24     .text.mf_getchar:0000000000000000 mf_getchar
     /tmp/ccB4mnnC.s:48     .text.mf_rewind:0000000000000000 $t
     /tmp/ccB4mnnC.s:54     .text.mf_rewind:0000000000000000 mf_rewind
                     .debug_frame:0000000000000010 $d

NO UNDEFINED SYMBOLS
