ARM GAS  /tmp/ccTrZbnH.s 			page 1


   1              		.cpu cortex-m0
   2              		.fpu softvfp
   3              		.eabi_attribute 20, 1
   4              		.eabi_attribute 21, 1
   5              		.eabi_attribute 23, 3
   6              		.eabi_attribute 24, 1
   7              		.eabi_attribute 25, 1
   8              		.eabi_attribute 26, 1
   9              		.eabi_attribute 30, 2
  10              		.eabi_attribute 34, 0
  11              		.eabi_attribute 18, 4
  12              		.code	16
  13              		.file	"mf_font.c"
  14              		.text
  15              	.Ltext0:
  16              		.cfi_sections	.debug_frame
  17              		.section	.text.mf_render_character,"ax",%progbits
  18              		.align	2
  19              		.p2align 4,,15
  20              		.global	mf_render_character
  21              		.code	16
  22              		.thumb_func
  23              		.type	mf_render_character, %function
  24              	mf_render_character:
  25              	.LFB40:
  26              		.file 1 "/home/matt/arm_cortex/ChibiOS/ext/ugfx/src/gdisp/mcufont/mf_font.c"
  27              		.loc 1 26 0
  28              		.cfi_startproc
  29              	.LVL0:
  30 0000 F0B5     		push	{r4, r5, r6, r7, lr}
  31              	.LCFI0:
  32              		.cfi_def_cfa_offset 20
  33              		.cfi_offset 4, -20
  34              		.cfi_offset 5, -16
  35              		.cfi_offset 6, -12
  36              		.cfi_offset 7, -8
  37              		.cfi_offset 14, -4
  38 0002 83B0     		sub	sp, sp, #12
  39              	.LCFI1:
  40              		.cfi_def_cfa_offset 32
  41              		.loc 1 26 0
  42 0004 151C     		mov	r5, r2
  43              		.loc 1 28 0
  44 0006 099F     		ldr	r7, [sp, #36]
  45 0008 089A     		ldr	r2, [sp, #32]
  46              	.LVL1:
  47              		.loc 1 26 0
  48 000a 041C     		mov	r4, r0
  49              		.loc 1 28 0
  50 000c 0092     		str	r2, [sp]
  51 000e 0197     		str	r7, [sp, #4]
  52 0010 2A1C     		mov	r2, r5
  53 0012 A769     		ldr	r7, [r4, #24]
  54              		.loc 1 26 0
  55 0014 0E1C     		mov	r6, r1
  56              		.loc 1 28 0
  57 0016 B847     		blx	r7
ARM GAS  /tmp/ccTrZbnH.s 			page 2


  58              	.LVL2:
  59              		.loc 1 30 0
  60 0018 0028     		cmp	r0, #0
  61 001a 09D1     		bne	.L2
  62              		.loc 1 32 0
  63 001c 0898     		ldr	r0, [sp, #32]
  64              	.LVL3:
  65 001e 0999     		ldr	r1, [sp, #36]
  66 0020 0090     		str	r0, [sp]
  67 0022 0191     		str	r1, [sp, #4]
  68 0024 237C     		ldrb	r3, [r4, #16]
  69 0026 A769     		ldr	r7, [r4, #24]
  70 0028 201C     		mov	r0, r4
  71 002a 311C     		mov	r1, r6
  72 002c 2A1C     		mov	r2, r5
  73 002e B847     		blx	r7
  74              	.LVL4:
  75              	.L2:
  76              		.loc 1 37 0
  77 0030 03B0     		add	sp, sp, #12
  78              		@ sp needed for prologue
  79              	.LVL5:
  80 0032 F0BD     		pop	{r4, r5, r6, r7, pc}
  81              		.cfi_endproc
  82              	.LFE40:
  83              		.size	mf_render_character, .-mf_render_character
  84 0034 C046C046 		.section	.text.mf_character_width,"ax",%progbits
  84      C046C046 
  84      C046C046 
  85              		.align	2
  86              		.p2align 4,,15
  87              		.global	mf_character_width
  88              		.code	16
  89              		.thumb_func
  90              		.type	mf_character_width, %function
  91              	mf_character_width:
  92              	.LFB41:
  93              		.loc 1 41 0
  94              		.cfi_startproc
  95              	.LVL6:
  96 0000 10B5     		push	{r4, lr}
  97              	.LCFI2:
  98              		.cfi_def_cfa_offset 8
  99              		.cfi_offset 4, -8
 100              		.cfi_offset 14, -4
 101              		.loc 1 41 0
 102 0002 041C     		mov	r4, r0
 103              		.loc 1 43 0
 104 0004 6369     		ldr	r3, [r4, #20]
 105 0006 9847     		blx	r3
 106              	.LVL7:
 107              		.loc 1 45 0
 108 0008 0028     		cmp	r0, #0
 109 000a 03D1     		bne	.L5
 110              		.loc 1 47 0
 111 000c 217C     		ldrb	r1, [r4, #16]
 112 000e 6269     		ldr	r2, [r4, #20]
ARM GAS  /tmp/ccTrZbnH.s 			page 3


 113 0010 201C     		mov	r0, r4
 114              	.LVL8:
 115 0012 9047     		blx	r2
 116              	.LVL9:
 117              	.L5:
 118              		.loc 1 51 0
 119              		@ sp needed for prologue
 120              	.LVL10:
 121 0014 10BD     		pop	{r4, pc}
 122              		.cfi_endproc
 123              	.LFE41:
 124              		.size	mf_character_width, .-mf_character_width
 125 0016 C046C046 		.section	.text.mf_find_font,"ax",%progbits
 125      C046C046 
 125      C046
 126              		.align	2
 127              		.p2align 4,,15
 128              		.global	mf_find_font
 129              		.code	16
 130              		.thumb_func
 131              		.type	mf_find_font, %function
 132              	mf_find_font:
 133              	.LFB43:
 134              		.loc 1 65 0
 135              		.cfi_startproc
 136              	.LVL11:
 137 0000 10B5     		push	{r4, lr}
 138              	.LCFI3:
 139              		.cfi_def_cfa_offset 8
 140              		.cfi_offset 4, -8
 141              		.cfi_offset 14, -4
 142              		.loc 1 65 0
 143 0002 0F49     		ldr	r1, .L20
 144 0004 021C     		mov	r2, r0
 145              	.LVL12:
 146              	.L7:
 147              	.LBB6:
 148              	.LBB7:
 149              		.loc 1 56 0
 150 0006 0B78     		ldrb	r3, [r1]
 151 0008 002B     		cmp	r3, #0
 152 000a 0FD0     		beq	.L18
 153              		.loc 1 58 0
 154 000c 1478     		ldrb	r4, [r2]
 155 000e 0131     		add	r1, r1, #1
 156              	.LVL13:
 157 0010 0132     		add	r2, r2, #1
 158              	.LVL14:
 159 0012 9C42     		cmp	r4, r3
 160 0014 F7D0     		beq	.L7
 161              	.LVL15:
 162              	.L14:
 163 0016 0B4B     		ldr	r3, .L20+4
 164              	.LVL16:
 165              	.L16:
 166              	.LBE7:
 167              	.LBE6:
ARM GAS  /tmp/ccTrZbnH.s 			page 4


 168              	.LBB8:
 169              	.LBB9:
 170              		.loc 1 56 0
 171 0018 1A78     		ldrb	r2, [r3]
 172 001a 002A     		cmp	r2, #0
 173 001c 0BD0     		beq	.L19
 174              		.loc 1 58 0
 175 001e 0178     		ldrb	r1, [r0]
 176 0020 0133     		add	r3, r3, #1
 177              	.LVL17:
 178 0022 0130     		add	r0, r0, #1
 179              	.LVL18:
 180 0024 9142     		cmp	r1, r2
 181 0026 F7D0     		beq	.L16
 182              	.LVL19:
 183              	.L13:
 184              	.LBE9:
 185              	.LBE8:
 186              		.loc 1 80 0
 187 0028 0020     		mov	r0, #0
 188              	.LVL20:
 189              	.L10:
 190              		.loc 1 81 0
 191              		@ sp needed for prologue
 192 002a 10BD     		pop	{r4, pc}
 193              	.LVL21:
 194              	.L18:
 195              		.loc 1 71 0
 196 002c 1178     		ldrb	r1, [r2]
 197              	.LVL22:
 198 002e 0029     		cmp	r1, #0
 199 0030 F1D1     		bne	.L14
 200              		.file 2 "/home/matt/arm_cortex/ChibiOS/ext/ugfx/include/../src/gdisp/fonts/DejaVuSans24.c"
 201              		.loc 2 229 0
 202 0032 0548     		ldr	r0, .L20+8
 203              	.LVL23:
 204 0034 F9E7     		b	.L10
 205              	.LVL24:
 206              	.L19:
 207              		.loc 1 71 0
 208 0036 0078     		ldrb	r0, [r0]
 209              	.LVL25:
 210 0038 0028     		cmp	r0, #0
 211 003a F5D1     		bne	.L13
 212              		.loc 2 229 0
 213 003c 0248     		ldr	r0, .L20+8
 214 003e F4E7     		b	.L10
 215              	.L21:
 216              		.align	2
 217              	.L20:
 218 0040 00000000 		.word	.LC2
 219 0044 14000000 		.word	.LC4
 220 0048 00000000 		.word	.LANCHOR0
 221              		.cfi_endproc
 222              	.LFE43:
 223              		.size	mf_find_font, .-mf_find_font
 224 004c C046C046 		.section	.text.mf_get_font_list,"ax",%progbits
ARM GAS  /tmp/ccTrZbnH.s 			page 5


 225              		.align	2
 226              		.p2align 4,,15
 227              		.global	mf_get_font_list
 228              		.code	16
 229              		.thumb_func
 230              		.type	mf_get_font_list, %function
 231              	mf_get_font_list:
 232              	.LFB44:
 233              		.loc 1 84 0
 234              		.cfi_startproc
 235              		.loc 1 86 0
 236 0000 0048     		ldr	r0, .L23
 237              		@ sp needed for prologue
 238 0002 7047     		bx	lr
 239              	.L24:
 240              		.align	2
 241              	.L23:
 242 0004 00000000 		.word	.LANCHOR1
 243              		.cfi_endproc
 244              	.LFE44:
 245              		.size	mf_get_font_list, .-mf_get_font_list
 246              		.global	mf_rlefont_DejaVuSans24
 247 0008 C046C046 		.section	.rodata.mf_rlefont_DejaVuSans24_listentry,"a",%progbits
 247      C046C046 
 248              		.align	2
 249              		.set	.LANCHOR1,. + 0
 250              		.type	mf_rlefont_DejaVuSans24_listentry, %object
 251              		.size	mf_rlefont_DejaVuSans24_listentry, 8
 252              	mf_rlefont_DejaVuSans24_listentry:
 253 0000 00000000 		.word	0
 254 0004 00000000 		.word	mf_rlefont_DejaVuSans24
 255              		.section	.rodata.mf_rlefont_DejaVuSans24_char_ranges,"a",%progbits
 256              		.align	2
 257              		.type	mf_rlefont_DejaVuSans24_char_ranges, %object
 258              		.size	mf_rlefont_DejaVuSans24_char_ranges, 12
 259              	mf_rlefont_DejaVuSans24_char_ranges:
 260 0000 2000     		.short	32
 261 0002 5F00     		.short	95
 262 0004 00000000 		.word	mf_rlefont_DejaVuSans24_glyph_offsets_0
 263 0008 00000000 		.word	mf_rlefont_DejaVuSans24_glyph_data_0
 264              		.section	.rodata.mf_rlefont_DejaVuSans24_dictionary_offsets,"a",%progbits
 265              		.align	2
 266              		.type	mf_rlefont_DejaVuSans24_dictionary_offsets, %object
 267              		.size	mf_rlefont_DejaVuSans24_dictionary_offsets, 238
 268              	mf_rlefont_DejaVuSans24_dictionary_offsets:
 269 0000 0000     		.short	0
 270 0002 0300     		.short	3
 271 0004 0400     		.short	4
 272 0006 0700     		.short	7
 273 0008 1300     		.short	19
 274 000a 1600     		.short	22
 275 000c 1800     		.short	24
 276 000e 1A00     		.short	26
 277 0010 1B00     		.short	27
 278 0012 1D00     		.short	29
 279 0014 1F00     		.short	31
 280 0016 2000     		.short	32
ARM GAS  /tmp/ccTrZbnH.s 			page 6


 281 0018 2200     		.short	34
 282 001a 2600     		.short	38
 283 001c 2800     		.short	40
 284 001e 2D00     		.short	45
 285 0020 2F00     		.short	47
 286 0022 3100     		.short	49
 287 0024 3200     		.short	50
 288 0026 3500     		.short	53
 289 0028 3700     		.short	55
 290 002a 3A00     		.short	58
 291 002c 3D00     		.short	61
 292 002e 4300     		.short	67
 293 0030 4600     		.short	70
 294 0032 4700     		.short	71
 295 0034 4B00     		.short	75
 296 0036 4D00     		.short	77
 297 0038 4F00     		.short	79
 298 003a 5100     		.short	81
 299 003c 5300     		.short	83
 300 003e 5400     		.short	84
 301 0040 5600     		.short	86
 302 0042 5900     		.short	89
 303 0044 5B00     		.short	91
 304 0046 5D00     		.short	93
 305 0048 5F00     		.short	95
 306 004a 6200     		.short	98
 307 004c 6400     		.short	100
 308 004e 6700     		.short	103
 309 0050 6900     		.short	105
 310 0052 6C00     		.short	108
 311 0054 6F00     		.short	111
 312 0056 7000     		.short	112
 313 0058 7100     		.short	113
 314 005a 7300     		.short	115
 315 005c 7500     		.short	117
 316 005e 7800     		.short	120
 317 0060 7D00     		.short	125
 318 0062 7F00     		.short	127
 319 0064 8400     		.short	132
 320 0066 8500     		.short	133
 321 0068 8600     		.short	134
 322 006a 8700     		.short	135
 323 006c 8800     		.short	136
 324 006e 8900     		.short	137
 325 0070 8B00     		.short	139
 326 0072 8C00     		.short	140
 327 0074 8D00     		.short	141
 328 0076 8E00     		.short	142
 329 0078 9000     		.short	144
 330 007a 9100     		.short	145
 331 007c 9200     		.short	146
 332 007e 9300     		.short	147
 333 0080 9400     		.short	148
 334 0082 9700     		.short	151
 335 0084 9A00     		.short	154
 336 0086 9B00     		.short	155
 337 0088 9D00     		.short	157
ARM GAS  /tmp/ccTrZbnH.s 			page 7


 338 008a A800     		.short	168
 339 008c AD00     		.short	173
 340 008e BF00     		.short	191
 341 0090 C500     		.short	197
 342 0092 C800     		.short	200
 343 0094 CB00     		.short	203
 344 0096 CE00     		.short	206
 345 0098 D900     		.short	217
 346 009a DE00     		.short	222
 347 009c E200     		.short	226
 348 009e EC00     		.short	236
 349 00a0 F000     		.short	240
 350 00a2 F600     		.short	246
 351 00a4 FA00     		.short	250
 352 00a6 FE00     		.short	254
 353 00a8 0701     		.short	263
 354 00aa 0B01     		.short	267
 355 00ac 0D01     		.short	269
 356 00ae 1101     		.short	273
 357 00b0 1501     		.short	277
 358 00b2 1601     		.short	278
 359 00b4 1801     		.short	280
 360 00b6 1A01     		.short	282
 361 00b8 2001     		.short	288
 362 00ba 2301     		.short	291
 363 00bc 2C01     		.short	300
 364 00be 3101     		.short	305
 365 00c0 3301     		.short	307
 366 00c2 3A01     		.short	314
 367 00c4 3D01     		.short	317
 368 00c6 4101     		.short	321
 369 00c8 4301     		.short	323
 370 00ca 4501     		.short	325
 371 00cc 4801     		.short	328
 372 00ce 4B01     		.short	331
 373 00d0 4E01     		.short	334
 374 00d2 5601     		.short	342
 375 00d4 5801     		.short	344
 376 00d6 5A01     		.short	346
 377 00d8 5E01     		.short	350
 378 00da 6701     		.short	359
 379 00dc 6A01     		.short	362
 380 00de 6C01     		.short	364
 381 00e0 7201     		.short	370
 382 00e2 7301     		.short	371
 383 00e4 7801     		.short	376
 384 00e6 7E01     		.short	382
 385 00e8 8401     		.short	388
 386 00ea 8901     		.short	393
 387 00ec 8B01     		.short	395
 388 00ee 0000     		.section	.rodata.str1.4,"aMS",%progbits,1
 389              		.align	2
 390              	.LC2:
 391 0000 44656A61 		.ascii	"DejaVu Sans Book 24\000"
 391      56752053 
 391      616E7320 
 391      426F6F6B 
ARM GAS  /tmp/ccTrZbnH.s 			page 8


 391      20323400 
 392              	.LC4:
 393 0014 44656A61 		.ascii	"DejaVuSans24\000"
 393      56755361 
 393      6E733234 
 393      00
 394 0021 000000   		.section	.rodata.mf_rlefont_DejaVuSans24_glyph_offsets_0,"a",%progbits
 395              		.align	2
 396              		.type	mf_rlefont_DejaVuSans24_glyph_offsets_0, %object
 397              		.size	mf_rlefont_DejaVuSans24_glyph_offsets_0, 190
 398              	mf_rlefont_DejaVuSans24_glyph_offsets_0:
 399 0000 0000     		.short	0
 400 0002 0300     		.short	3
 401 0004 0C00     		.short	12
 402 0006 1600     		.short	22
 403 0008 4300     		.short	67
 404 000a 6C00     		.short	108
 405 000c A800     		.short	168
 406 000e CF00     		.short	207
 407 0010 D300     		.short	211
 408 0012 E000     		.short	224
 409 0014 EC00     		.short	236
 410 0016 0101     		.short	257
 411 0018 0F01     		.short	271
 412 001a 1401     		.short	276
 413 001c 1D01     		.short	285
 414 001e 2101     		.short	289
 415 0020 3001     		.short	304
 416 0022 4A01     		.short	330
 417 0024 5701     		.short	343
 418 0026 6D01     		.short	365
 419 0028 8601     		.short	390
 420 002a A501     		.short	421
 421 002c BB01     		.short	443
 422 002e DD01     		.short	477
 423 0030 EB01     		.short	491
 424 0032 0002     		.short	512
 425 0034 2302     		.short	547
 426 0036 2B02     		.short	555
 427 0038 3402     		.short	564
 428 003a 4802     		.short	584
 429 003c 5702     		.short	599
 430 003e 6B02     		.short	619
 431 0040 7E02     		.short	638
 432 0042 BF02     		.short	703
 433 0044 DF02     		.short	735
 434 0046 F002     		.short	752
 435 0048 0703     		.short	775
 436 004a 2603     		.short	806
 437 004c 3603     		.short	822
 438 004e 4303     		.short	835
 439 0050 6103     		.short	865
 440 0052 6F03     		.short	879
 441 0054 7503     		.short	885
 442 0056 7E03     		.short	894
 443 0058 9C03     		.short	924
 444 005a A403     		.short	932
ARM GAS  /tmp/ccTrZbnH.s 			page 9


 445 005c D603     		.short	982
 446 005e 0B04     		.short	1035
 447 0060 1204     		.short	1042
 448 0062 2004     		.short	1056
 449 0064 2B04     		.short	1067
 450 0066 4404     		.short	1092
 451 0068 5F04     		.short	1119
 452 006a 6B04     		.short	1131
 453 006c 7B04     		.short	1147
 454 006e 9E04     		.short	1182
 455 0070 DD04     		.short	1245
 456 0072 FF04     		.short	1279
 457 0074 1505     		.short	1301
 458 0076 2805     		.short	1320
 459 0078 3305     		.short	1331
 460 007a 4105     		.short	1345
 461 007c 4C05     		.short	1356
 462 007e 5E05     		.short	1374
 463 0080 6605     		.short	1382
 464 0082 6D05     		.short	1389
 465 0084 8305     		.short	1411
 466 0086 8A05     		.short	1418
 467 0088 9B05     		.short	1435
 468 008a AA05     		.short	1450
 469 008c C005     		.short	1472
 470 008e CC05     		.short	1484
 471 0090 D905     		.short	1497
 472 0092 E405     		.short	1508
 473 0094 EB05     		.short	1515
 474 0096 F505     		.short	1525
 475 0098 0706     		.short	1543
 476 009a 0D06     		.short	1549
 477 009c 2A06     		.short	1578
 478 009e 3606     		.short	1590
 479 00a0 4506     		.short	1605
 480 00a2 5006     		.short	1616
 481 00a4 5A06     		.short	1626
 482 00a6 6706     		.short	1639
 483 00a8 7B06     		.short	1659
 484 00aa 8706     		.short	1671
 485 00ac 9506     		.short	1685
 486 00ae A806     		.short	1704
 487 00b0 CE06     		.short	1742
 488 00b2 EC06     		.short	1772
 489 00b4 0307     		.short	1795
 490 00b6 1407     		.short	1812
 491 00b8 2807     		.short	1832
 492 00ba 2F07     		.short	1839
 493 00bc 4207     		.short	1858
 494 00be 0000     		.section	.rodata.mf_rlefont_DejaVuSans24_glyph_data_0,"a",%progbits
 495              		.align	2
 496              		.type	mf_rlefont_DejaVuSans24_glyph_data_0, %object
 497              		.size	mf_rlefont_DejaVuSans24_glyph_data_0, 1873
 498              	mf_rlefont_DejaVuSans24_glyph_data_0:
 499 0000 08       		.byte	8
 500 0001 00       		.byte	0
 501 0002 10       		.byte	16
ARM GAS  /tmp/ccTrZbnH.s 			page 10


 502 0003 0A       		.byte	10
 503 0004 00       		.byte	0
 504 0005 4A       		.byte	74
 505 0006 47       		.byte	71
 506 0007 5D       		.byte	93
 507 0008 56       		.byte	86
 508 0009 19       		.byte	25
 509 000a 74       		.byte	116
 510 000b 10       		.byte	16
 511 000c 0B       		.byte	11
 512 000d 4C       		.byte	76
 513 000e 1A       		.byte	26
 514 000f 64       		.byte	100
 515 0010 FC       		.byte	-4
 516 0011 1A       		.byte	26
 517 0012 64       		.byte	100
 518 0013 FC       		.byte	-4
 519 0014 1A       		.byte	26
 520 0015 10       		.byte	16
 521 0016 14       		.byte	20
 522 0017 C4       		.byte	-60
 523 0018 4E       		.byte	78
 524 0019 C7       		.byte	-57
 525 001a C6       		.byte	-58
 526 001b 82       		.byte	-126
 527 001c 8D       		.byte	-115
 528 001d C7       		.byte	-57
 529 001e C7       		.byte	-57
 530 001f 82       		.byte	-126
 531 0020 8D       		.byte	-115
 532 0021 C5       		.byte	-59
 533 0022 C7       		.byte	-57
 534 0023 2B       		.byte	43
 535 0024 4B       		.byte	75
 536 0025 2C       		.byte	44
 537 0026 4B       		.byte	75
 538 0027 E7       		.byte	-25
 539 0028 4A       		.byte	74
 540 0029 77       		.byte	119
 541 002a 8D       		.byte	-115
 542 002b 4F       		.byte	79
 543 002c 3C       		.byte	60
 544 002d 2B       		.byte	43
 545 002e A5       		.byte	-91
 546 002f 4A       		.byte	74
 547 0030 2B       		.byte	43
 548 0031 B5       		.byte	-75
 549 0032 45       		.byte	69
 550 0033 4B       		.byte	75
 551 0034 C4       		.byte	-60
 552 0035 34       		.byte	52
 553 0036 22       		.byte	34
 554 0037 21       		.byte	33
 555 0038 C7       		.byte	-57
 556 0039 C6       		.byte	-58
 557 003a 82       		.byte	-126
 558 003b 8D       		.byte	-115
ARM GAS  /tmp/ccTrZbnH.s 			page 11


 559 003c C7       		.byte	-57
 560 003d C7       		.byte	-57
 561 003e 82       		.byte	-126
 562 003f 8D       		.byte	-115
 563 0040 0F       		.byte	15
 564 0041 B4       		.byte	-76
 565 0042 10       		.byte	16
 566 0043 0F       		.byte	15
 567 0044 4E       		.byte	78
 568 0045 94       		.byte	-108
 569 0046 29       		.byte	41
 570 0047 C8       		.byte	-56
 571 0048 28       		.byte	40
 572 0049 28       		.byte	40
 573 004a 1E       		.byte	30
 574 004b 39       		.byte	57
 575 004c 21       		.byte	33
 576 004d 2F       		.byte	47
 577 004e A6       		.byte	-90
 578 004f 82       		.byte	-126
 579 0050 E8       		.byte	-24
 580 0051 54       		.byte	84
 581 0052 A7       		.byte	-89
 582 0053 27       		.byte	39
 583 0054 CD       		.byte	-51
 584 0055 7C       		.byte	124
 585 0056 45       		.byte	69
 586 0057 93       		.byte	-109
 587 0058 7C       		.byte	124
 588 0059 56       		.byte	86
 589 005a BD       		.byte	-67
 590 005b 50       		.byte	80
 591 005c 94       		.byte	-108
 592 005d 8D       		.byte	-115
 593 005e FE       		.byte	-2
 594 005f 9C       		.byte	-100
 595 0060 56       		.byte	86
 596 0061 A5       		.byte	-91
 597 0062 2F       		.byte	47
 598 0063 3B       		.byte	59
 599 0064 7E       		.byte	126
 600 0065 2B       		.byte	43
 601 0066 29       		.byte	41
 602 0067 CC       		.byte	-52
 603 0068 29       		.byte	41
 604 0069 C8       		.byte	-56
 605 006a 28       		.byte	40
 606 006b 10       		.byte	16
 607 006c 17       		.byte	23
 608 006d 4C       		.byte	76
 609 006e E2       		.byte	-30
 610 006f 4A       		.byte	74
 611 0070 2C       		.byte	44
 612 0071 DD       		.byte	-35
 613 0072 3D       		.byte	61
 614 0073 33       		.byte	51
 615 0074 C5       		.byte	-59
ARM GAS  /tmp/ccTrZbnH.s 			page 12


 616 0075 C7       		.byte	-57
 617 0076 3C       		.byte	60
 618 0077 DC       		.byte	-36
 619 0078 B4       		.byte	-76
 620 0079 B4       		.byte	-76
 621 007a 52       		.byte	82
 622 007b 34       		.byte	52
 623 007c 77       		.byte	119
 624 007d 2F       		.byte	47
 625 007e 2B       		.byte	43
 626 007f C5       		.byte	-59
 627 0080 A7       		.byte	-89
 628 0081 23       		.byte	35
 629 0082 C7       		.byte	-57
 630 0083 AA       		.byte	-86
 631 0084 41       		.byte	65
 632 0085 7B       		.byte	123
 633 0086 30       		.byte	48
 634 0087 AA       		.byte	-86
 635 0088 9D       		.byte	-99
 636 0089 C0       		.byte	-64
 637 008a 4A       		.byte	74
 638 008b A2       		.byte	-94
 639 008c 90       		.byte	-112
 640 008d 1A       		.byte	26
 641 008e 56       		.byte	86
 642 008f AA       		.byte	-86
 643 0090 A5       		.byte	-91
 644 0091 23       		.byte	35
 645 0092 AB       		.byte	-85
 646 0093 C5       		.byte	-59
 647 0094 41       		.byte	65
 648 0095 DC       		.byte	-36
 649 0096 77       		.byte	119
 650 0097 2B       		.byte	43
 651 0098 A7       		.byte	-89
 652 0099 A5       		.byte	-91
 653 009a 48       		.byte	72
 654 009b E7       		.byte	-25
 655 009c 90       		.byte	-112
 656 009d 3C       		.byte	60
 657 009e DC       		.byte	-36
 658 009f 34       		.byte	52
 659 00a0 B4       		.byte	-76
 660 00a1 4A       		.byte	74
 661 00a2 92       		.byte	-110
 662 00a3 7B       		.byte	123
 663 00a4 52       		.byte	82
 664 00a5 3C       		.byte	60
 665 00a6 E2       		.byte	-30
 666 00a7 10       		.byte	16
 667 00a8 13       		.byte	19
 668 00a9 55       		.byte	85
 669 00aa 33       		.byte	51
 670 00ab 49       		.byte	73
 671 00ac A4       		.byte	-92
 672 00ad 39       		.byte	57
ARM GAS  /tmp/ccTrZbnH.s 			page 13


 673 00ae 59       		.byte	89
 674 00af 8D       		.byte	-115
 675 00b0 2D       		.byte	45
 676 00b1 43       		.byte	67
 677 00b2 92       		.byte	-110
 678 00b3 7C       		.byte	124
 679 00b4 30       		.byte	48
 680 00b5 B2       		.byte	-78
 681 00b6 C7       		.byte	-57
 682 00b7 3C       		.byte	60
 683 00b8 BC       		.byte	-68
 684 00b9 BC       		.byte	-68
 685 00ba B4       		.byte	-76
 686 00bb 4A       		.byte	74
 687 00bc 90       		.byte	-112
 688 00bd BC       		.byte	-68
 689 00be 3C       		.byte	60
 690 00bf B4       		.byte	-76
 691 00c0 52       		.byte	82
 692 00c1 BB       		.byte	-69
 693 00c2 1F       		.byte	31
 694 00c3 77       		.byte	119
 695 00c4 71       		.byte	113
 696 00c5 25       		.byte	37
 697 00c6 25       		.byte	37
 698 00c7 3D       		.byte	61
 699 00c8 32       		.byte	50
 700 00c9 3B       		.byte	59
 701 00ca E7       		.byte	-25
 702 00cb 1D       		.byte	29
 703 00cc 1E       		.byte	30
 704 00cd BC       		.byte	-68
 705 00ce 10       		.byte	16
 706 00cf 07       		.byte	7
 707 00d0 4C       		.byte	76
 708 00d1 69       		.byte	105
 709 00d2 10       		.byte	16
 710 00d3 09       		.byte	9
 711 00d4 56       		.byte	86
 712 00d5 27       		.byte	39
 713 00d6 1C       		.byte	28
 714 00d7 61       		.byte	97
 715 00d8 61       		.byte	97
 716 00d9 1C       		.byte	28
 717 00da 60       		.byte	96
 718 00db 74       		.byte	116
 719 00dc 59       		.byte	89
 720 00dd 90       		.byte	-112
 721 00de 1C       		.byte	28
 722 00df 10       		.byte	16
 723 00e0 09       		.byte	9
 724 00e1 4C       		.byte	76
 725 00e2 E7       		.byte	-25
 726 00e3 47       		.byte	71
 727 00e4 74       		.byte	116
 728 00e5 55       		.byte	85
 729 00e6 86       		.byte	-122
ARM GAS  /tmp/ccTrZbnH.s 			page 14


 730 00e7 69       		.byte	105
 731 00e8 61       		.byte	97
 732 00e9 61       		.byte	97
 733 00ea 46       		.byte	70
 734 00eb 10       		.byte	16
 735 00ec 0C       		.byte	12
 736 00ed 4E       		.byte	78
 737 00ee C8       		.byte	-56
 738 00ef 28       		.byte	40
 739 00f0 27       		.byte	39
 740 00f1 EC       		.byte	-20
 741 00f2 9C       		.byte	-100
 742 00f3 56       		.byte	86
 743 00f4 B2       		.byte	-78
 744 00f5 38       		.byte	56
 745 00f6 1E       		.byte	30
 746 00f7 7C       		.byte	124
 747 00f8 30       		.byte	48
 748 00f9 9B       		.byte	-101
 749 00fa 1D       		.byte	29
 750 00fb FE       		.byte	-2
 751 00fc 95       		.byte	-107
 752 00fd 8D       		.byte	-115
 753 00fe E6       		.byte	-26
 754 00ff 28       		.byte	40
 755 0100 10       		.byte	16
 756 0101 14       		.byte	20
 757 0102 5A       		.byte	90
 758 0103 55       		.byte	85
 759 0104 19       		.byte	25
 760 0105 69       		.byte	105
 761 0106 50       		.byte	80
 762 0107 4B       		.byte	75
 763 0108 93       		.byte	-109
 764 0109 44       		.byte	68
 765 010a E3       		.byte	-29
 766 010b 20       		.byte	32
 767 010c 50       		.byte	80
 768 010d 69       		.byte	105
 769 010e 10       		.byte	16
 770 010f 08       		.byte	8
 771 0110 35       		.byte	53
 772 0111 6D       		.byte	109
 773 0112 61       		.byte	97
 774 0113 10       		.byte	16
 775 0114 09       		.byte	9
 776 0115 00       		.byte	0
 777 0116 19       		.byte	25
 778 0117 19       		.byte	25
 779 0118 5B       		.byte	91
 780 0119 3B       		.byte	59
 781 011a 52       		.byte	82
 782 011b 3B       		.byte	59
 783 011c 10       		.byte	16
 784 011d 08       		.byte	8
 785 011e 35       		.byte	53
 786 011f 6D       		.byte	109
ARM GAS  /tmp/ccTrZbnH.s 			page 15


 787 0120 10       		.byte	16
 788 0121 08       		.byte	8
 789 0122 30       		.byte	48
 790 0123 1C       		.byte	28
 791 0124 85       		.byte	-123
 792 0125 47       		.byte	71
 793 0126 29       		.byte	41
 794 0127 6D       		.byte	109
 795 0128 85       		.byte	-123
 796 0129 1C       		.byte	28
 797 012a 85       		.byte	-123
 798 012b 47       		.byte	71
 799 012c 29       		.byte	41
 800 012d 6D       		.byte	109
 801 012e 85       		.byte	-123
 802 012f 10       		.byte	16
 803 0130 0F       		.byte	15
 804 0131 4E       		.byte	78
 805 0132 81       		.byte	-127
 806 0133 52       		.byte	82
 807 0134 C2       		.byte	-62
 808 0135 1D       		.byte	29
 809 0136 2F       		.byte	47
 810 0137 BC       		.byte	-68
 811 0138 82       		.byte	-126
 812 0139 A4       		.byte	-92
 813 013a 48       		.byte	72
 814 013b B4       		.byte	-76
 815 013c 78       		.byte	120
 816 013d 31       		.byte	49
 817 013e 31       		.byte	49
 818 013f 31       		.byte	49
 819 0140 65       		.byte	101
 820 0141 43       		.byte	67
 821 0142 90       		.byte	-112
 822 0143 77       		.byte	119
 823 0144 45       		.byte	69
 824 0145 2A       		.byte	42
 825 0146 3F       		.byte	63
 826 0147 21       		.byte	33
 827 0148 71       		.byte	113
 828 0149 10       		.byte	16
 829 014a 0F       		.byte	15
 830 014b 4E       		.byte	78
 831 014c C0       		.byte	-64
 832 014d 27       		.byte	39
 833 014e D3       		.byte	-45
 834 014f 54       		.byte	84
 835 0150 1A       		.byte	26
 836 0151 74       		.byte	116
 837 0152 5D       		.byte	93
 838 0153 FC       		.byte	-4
 839 0154 6C       		.byte	108
 840 0155 20       		.byte	32
 841 0156 10       		.byte	16
 842 0157 0F       		.byte	15
 843 0158 C4       		.byte	-60
ARM GAS  /tmp/ccTrZbnH.s 			page 16


 844 0159 55       		.byte	85
 845 015a 83       		.byte	-125
 846 015b FF       		.byte	-1
 847 015c 39       		.byte	57
 848 015d 2D       		.byte	45
 849 015e 52       		.byte	82
 850 015f 44       		.byte	68
 851 0160 74       		.byte	116
 852 0161 46       		.byte	70
 853 0162 85       		.byte	-123
 854 0163 46       		.byte	70
 855 0164 46       		.byte	70
 856 0165 46       		.byte	70
 857 0166 46       		.byte	70
 858 0167 46       		.byte	70
 859 0168 46       		.byte	70
 860 0169 4A       		.byte	74
 861 016a 3B       		.byte	59
 862 016b 7F       		.byte	127
 863 016c 10       		.byte	16
 864 016d 0F       		.byte	15
 865 016e 54       		.byte	84
 866 016f 3B       		.byte	59
 867 0170 4A       		.byte	74
 868 0171 2B       		.byte	43
 869 0172 20       		.byte	32
 870 0173 50       		.byte	80
 871 0174 C5       		.byte	-59
 872 0175 92       		.byte	-110
 873 0176 1C       		.byte	28
 874 0177 67       		.byte	103
 875 0178 8D       		.byte	-115
 876 0179 22       		.byte	34
 877 017a 27       		.byte	39
 878 017b E3       		.byte	-29
 879 017c 29       		.byte	41
 880 017d 2F       		.byte	47
 881 017e 74       		.byte	116
 882 017f 28       		.byte	40
 883 0180 48       		.byte	72
 884 0181 C8       		.byte	-56
 885 0182 2D       		.byte	45
 886 0183 32       		.byte	50
 887 0184 7E       		.byte	126
 888 0185 10       		.byte	16
 889 0186 0F       		.byte	15
 890 0187 29       		.byte	41
 891 0188 45       		.byte	69
 892 0189 29       		.byte	41
 893 018a 93       		.byte	-109
 894 018b 54       		.byte	84
 895 018c 9E       		.byte	-98
 896 018d 54       		.byte	84
 897 018e BA       		.byte	-70
 898 018f 64       		.byte	100
 899 0190 00       		.byte	0
 900 0191 C7       		.byte	-57
ARM GAS  /tmp/ccTrZbnH.s 			page 17


 901 0192 C7       		.byte	-57
 902 0193 45       		.byte	69
 903 0194 9C       		.byte	-100
 904 0195 39       		.byte	57
 905 0196 B4       		.byte	-76
 906 0197 39       		.byte	57
 907 0198 34       		.byte	52
 908 0199 39       		.byte	57
 909 019a 34       		.byte	52
 910 019b 82       		.byte	-126
 911 019c 34       		.byte	52
 912 019d 50       		.byte	80
 913 019e 4B       		.byte	75
 914 019f 48       		.byte	72
 915 01a0 C2       		.byte	-62
 916 01a1 20       		.byte	32
 917 01a2 27       		.byte	39
 918 01a3 74       		.byte	116
 919 01a4 10       		.byte	16
 920 01a5 0F       		.byte	15
 921 01a6 4D       		.byte	77
 922 01a7 3B       		.byte	59
 923 01a8 3E       		.byte	62
 924 01a9 7D       		.byte	125
 925 01aa 59       		.byte	89
 926 01ab F0       		.byte	-16
 927 01ac 55       		.byte	85
 928 01ad 21       		.byte	33
 929 01ae A4       		.byte	-92
 930 01af 21       		.byte	33
 931 01b0 94       		.byte	-108
 932 01b1 2A       		.byte	42
 933 01b2 33       		.byte	51
 934 01b3 6D       		.byte	109
 935 01b4 47       		.byte	71
 936 01b5 40       		.byte	64
 937 01b6 4F       		.byte	79
 938 01b7 2A       		.byte	42
 939 01b8 C2       		.byte	-62
 940 01b9 7E       		.byte	126
 941 01ba 10       		.byte	16
 942 01bb 0F       		.byte	15
 943 01bc 51       		.byte	81
 944 01bd 4E       		.byte	78
 945 01be 49       		.byte	73
 946 01bf 00       		.byte	0
 947 01c0 94       		.byte	-108
 948 01c1 45       		.byte	69
 949 01c2 61       		.byte	97
 950 01c3 00       		.byte	0
 951 01c4 1E       		.byte	30
 952 01c5 82       		.byte	-126
 953 01c6 21       		.byte	33
 954 01c7 C0       		.byte	-64
 955 01c8 B5       		.byte	-75
 956 01c9 23       		.byte	35
 957 01ca C0       		.byte	-64
ARM GAS  /tmp/ccTrZbnH.s 			page 18


 958 01cb 34       		.byte	52
 959 01cc 23       		.byte	35
 960 01cd 92       		.byte	-110
 961 01ce A4       		.byte	-92
 962 01cf 23       		.byte	35
 963 01d0 92       		.byte	-110
 964 01d1 34       		.byte	52
 965 01d2 56       		.byte	86
 966 01d3 25       		.byte	37
 967 01d4 2E       		.byte	46
 968 01d5 D2       		.byte	-46
 969 01d6 2A       		.byte	42
 970 01d7 36       		.byte	54
 971 01d8 BC       		.byte	-68
 972 01d9 39       		.byte	57
 973 01da 22       		.byte	34
 974 01db 7C       		.byte	124
 975 01dc 10       		.byte	16
 976 01dd 0F       		.byte	15
 977 01de 4C       		.byte	76
 978 01df 22       		.byte	34
 979 01e0 7F       		.byte	127
 980 01e1 46       		.byte	70
 981 01e2 1C       		.byte	28
 982 01e3 85       		.byte	-123
 983 01e4 61       		.byte	97
 984 01e5 85       		.byte	-123
 985 01e6 61       		.byte	97
 986 01e7 85       		.byte	-123
 987 01e8 1C       		.byte	28
 988 01e9 46       		.byte	70
 989 01ea 10       		.byte	16
 990 01eb 0F       		.byte	15
 991 01ec 4C       		.byte	76
 992 01ed 83       		.byte	-125
 993 01ee 1D       		.byte	29
 994 01ef 92       		.byte	-110
 995 01f0 2F       		.byte	47
 996 01f1 73       		.byte	115
 997 01f2 2D       		.byte	45
 998 01f3 52       		.byte	82
 999 01f4 20       		.byte	32
 1000 01f5 39       		.byte	57
 1001 01f6 22       		.byte	34
 1002 01f7 50       		.byte	80
 1003 01f8 92       		.byte	-110
 1004 01f9 2F       		.byte	47
 1005 01fa 73       		.byte	115
 1006 01fb E5       		.byte	-27
 1007 01fc 92       		.byte	-110
 1008 01fd 3B       		.byte	59
 1009 01fe 7E       		.byte	126
 1010 01ff 10       		.byte	16
 1011 0200 0F       		.byte	15
 1012 0201 56       		.byte	86
 1013 0202 7C       		.byte	124
 1014 0203 30       		.byte	48
ARM GAS  /tmp/ccTrZbnH.s 			page 19


 1015 0204 C2       		.byte	-62
 1016 0205 1D       		.byte	29
 1017 0206 2F       		.byte	47
 1018 0207 C0       		.byte	-64
 1019 0208 45       		.byte	69
 1020 0209 A4       		.byte	-92
 1021 020a 2E       		.byte	46
 1022 020b CA       		.byte	-54
 1023 020c 2D       		.byte	45
 1024 020d DC       		.byte	-36
 1025 020e 44       		.byte	68
 1026 020f 30       		.byte	48
 1027 0210 90       		.byte	-112
 1028 0211 34       		.byte	52
 1029 0212 23       		.byte	35
 1030 0213 92       		.byte	-110
 1031 0214 81       		.byte	-127
 1032 0215 3F       		.byte	63
 1033 0216 A7       		.byte	-89
 1034 0217 93       		.byte	-109
 1035 0218 3B       		.byte	59
 1036 0219 91       		.byte	-111
 1037 021a 45       		.byte	69
 1038 021b 1A       		.byte	26
 1039 021c 59       		.byte	89
 1040 021d EA       		.byte	-22
 1041 021e 40       		.byte	64
 1042 021f 58       		.byte	88
 1043 0220 7A       		.byte	122
 1044 0221 57       		.byte	87
 1045 0222 10       		.byte	16
 1046 0223 08       		.byte	8
 1047 0224 50       		.byte	80
 1048 0225 5B       		.byte	91
 1049 0226 74       		.byte	116
 1050 0227 1F       		.byte	31
 1051 0228 5B       		.byte	91
 1052 0229 74       		.byte	116
 1053 022a 10       		.byte	16
 1054 022b 08       		.byte	8
 1055 022c 50       		.byte	80
 1056 022d 5B       		.byte	91
 1057 022e 74       		.byte	116
 1058 022f 1F       		.byte	31
 1059 0230 5B       		.byte	91
 1060 0231 74       		.byte	116
 1061 0232 61       		.byte	97
 1062 0233 10       		.byte	16
 1063 0234 14       		.byte	20
 1064 0235 5B       		.byte	91
 1065 0236 3F       		.byte	63
 1066 0237 50       		.byte	80
 1067 0238 71       		.byte	113
 1068 0239 3D       		.byte	61
 1069 023a 3E       		.byte	62
 1070 023b 5A       		.byte	90
 1071 023c 45       		.byte	69
ARM GAS  /tmp/ccTrZbnH.s 			page 20


 1072 023d 3E       		.byte	62
 1073 023e C4       		.byte	-60
 1074 023f 45       		.byte	69
 1075 0240 28       		.byte	40
 1076 0241 1E       		.byte	30
 1077 0242 5F       		.byte	95
 1078 0243 D3       		.byte	-45
 1079 0244 29       		.byte	41
 1080 0245 93       		.byte	-109
 1081 0246 28       		.byte	40
 1082 0247 10       		.byte	16
 1083 0248 14       		.byte	20
 1084 0249 19       		.byte	25
 1085 024a 5B       		.byte	91
 1086 024b 3F       		.byte	63
 1087 024c 4B       		.byte	75
 1088 024d 2C       		.byte	44
 1089 024e 4B       		.byte	75
 1090 024f E7       		.byte	-25
 1091 0250 19       		.byte	25
 1092 0251 28       		.byte	40
 1093 0252 4B       		.byte	75
 1094 0253 C7       		.byte	-57
 1095 0254 44       		.byte	68
 1096 0255 4B       		.byte	75
 1097 0256 10       		.byte	16
 1098 0257 14       		.byte	20
 1099 0258 4A       		.byte	74
 1100 0259 19       		.byte	25
 1101 025a 19       		.byte	25
 1102 025b 86       		.byte	-122
 1103 025c 36       		.byte	54
 1104 025d 28       		.byte	40
 1105 025e 1E       		.byte	30
 1106 025f 5F       		.byte	95
 1107 0260 D3       		.byte	-45
 1108 0261 40       		.byte	64
 1109 0262 00       		.byte	0
 1110 0263 32       		.byte	50
 1111 0264 39       		.byte	57
 1112 0265 7E       		.byte	126
 1113 0266 B4       		.byte	-76
 1114 0267 3A       		.byte	58
 1115 0268 71       		.byte	113
 1116 0269 33       		.byte	51
 1117 026a 10       		.byte	16
 1118 026b 0D       		.byte	13
 1119 026c 4E       		.byte	78
 1120 026d C2       		.byte	-62
 1121 026e 27       		.byte	39
 1122 026f 1E       		.byte	30
 1123 0270 39       		.byte	57
 1124 0271 2A       		.byte	42
 1125 0272 3F       		.byte	63
 1126 0273 52       		.byte	82
 1127 0274 6D       		.byte	109
 1128 0275 46       		.byte	70
ARM GAS  /tmp/ccTrZbnH.s 			page 21


 1129 0276 40       		.byte	64
 1130 0277 44       		.byte	68
 1131 0278 85       		.byte	-123
 1132 0279 47       		.byte	71
 1133 027a 30       		.byte	48
 1134 027b 42       		.byte	66
 1135 027c 74       		.byte	116
 1136 027d 10       		.byte	16
 1137 027e 18       		.byte	24
 1138 027f 19       		.byte	25
 1139 0280 F2       		.byte	-14
 1140 0281 3E       		.byte	62
 1141 0282 0F       		.byte	15
 1142 0283 3A       		.byte	58
 1143 0284 A2       		.byte	-94
 1144 0285 34       		.byte	52
 1145 0286 2C       		.byte	44
 1146 0287 2C       		.byte	44
 1147 0288 C7       		.byte	-57
 1148 0289 2D       		.byte	45
 1149 028a 2F       		.byte	47
 1150 028b 34       		.byte	52
 1151 028c A5       		.byte	-91
 1152 028d AB       		.byte	-85
 1153 028e 9D       		.byte	-99
 1154 028f 34       		.byte	52
 1155 0290 BC       		.byte	-68
 1156 0291 22       		.byte	34
 1157 0292 BD       		.byte	-67
 1158 0293 B4       		.byte	-76
 1159 0294 B5       		.byte	-75
 1160 0295 B5       		.byte	-75
 1161 0296 A7       		.byte	-89
 1162 0297 C5       		.byte	-59
 1163 0298 A7       		.byte	-89
 1164 0299 C7       		.byte	-57
 1165 029a 2F       		.byte	47
 1166 029b 90       		.byte	-112
 1167 029c 90       		.byte	-112
 1168 029d 79       		.byte	121
 1169 029e 90       		.byte	-112
 1170 029f 90       		.byte	-112
 1171 02a0 79       		.byte	121
 1172 02a1 90       		.byte	-112
 1173 02a2 90       		.byte	-112
 1174 02a3 79       		.byte	121
 1175 02a4 F0       		.byte	-16
 1176 02a5 B4       		.byte	-76
 1177 02a6 9C       		.byte	-100
 1178 02a7 A4       		.byte	-92
 1179 02a8 1A       		.byte	26
 1180 02a9 34       		.byte	52
 1181 02aa B5       		.byte	-75
 1182 02ab B4       		.byte	-76
 1183 02ac BF       		.byte	-65
 1184 02ad 52       		.byte	82
 1185 02ae A7       		.byte	-89
ARM GAS  /tmp/ccTrZbnH.s 			page 22


 1186 02af 4B       		.byte	75
 1187 02b0 52       		.byte	82
 1188 02b1 92       		.byte	-110
 1189 02b2 C0       		.byte	-64
 1190 02b3 2F       		.byte	47
 1191 02b4 4A       		.byte	74
 1192 02b5 38       		.byte	56
 1193 02b6 2D       		.byte	45
 1194 02b7 48       		.byte	72
 1195 02b8 E2       		.byte	-30
 1196 02b9 3D       		.byte	61
 1197 02ba 3B       		.byte	59
 1198 02bb E3       		.byte	-29
 1199 02bc 39       		.byte	57
 1200 02bd E3       		.byte	-29
 1201 02be 10       		.byte	16
 1202 02bf 10       		.byte	16
 1203 02c0 4E       		.byte	78
 1204 02c1 81       		.byte	-127
 1205 02c2 5A       		.byte	90
 1206 02c3 71       		.byte	113
 1207 02c4 33       		.byte	51
 1208 02c5 25       		.byte	37
 1209 02c6 3B       		.byte	59
 1210 02c7 64       		.byte	100
 1211 02c8 37       		.byte	55
 1212 02c9 77       		.byte	119
 1213 02ca 39       		.byte	57
 1214 02cb 77       		.byte	119
 1215 02cc 39       		.byte	57
 1216 02cd 77       		.byte	119
 1217 02ce 82       		.byte	-126
 1218 02cf 34       		.byte	52
 1219 02d0 82       		.byte	-126
 1220 02d1 34       		.byte	52
 1221 02d2 45       		.byte	69
 1222 02d3 3D       		.byte	61
 1223 02d4 56       		.byte	86
 1224 02d5 4B       		.byte	75
 1225 02d6 3B       		.byte	59
 1226 02d7 FF       		.byte	-1
 1227 02d8 3A       		.byte	58
 1228 02d9 6A       		.byte	106
 1229 02da 2C       		.byte	44
 1230 02db 4F       		.byte	79
 1231 02dc 4A       		.byte	74
 1232 02dd 41       		.byte	65
 1233 02de 10       		.byte	16
 1234 02df 10       		.byte	16
 1235 02e0 4C       		.byte	76
 1236 02e1 20       		.byte	32
 1237 02e2 6C       		.byte	108
 1238 02e3 3D       		.byte	61
 1239 02e4 66       		.byte	102
 1240 02e5 22       		.byte	34
 1241 02e6 6C       		.byte	108
 1242 02e7 00       		.byte	0
ARM GAS  /tmp/ccTrZbnH.s 			page 23


 1243 02e8 78       		.byte	120
 1244 02e9 C7       		.byte	-57
 1245 02ea 77       		.byte	119
 1246 02eb 3B       		.byte	59
 1247 02ec E3       		.byte	-29
 1248 02ed 45       		.byte	69
 1249 02ee 22       		.byte	34
 1250 02ef 10       		.byte	16
 1251 02f0 11       		.byte	17
 1252 02f1 4E       		.byte	78
 1253 02f2 83       		.byte	-125
 1254 02f3 1D       		.byte	29
 1255 02f4 36       		.byte	54
 1256 02f5 2D       		.byte	45
 1257 02f6 E0       		.byte	-32
 1258 02f7 33       		.byte	51
 1259 02f8 4A       		.byte	74
 1260 02f9 77       		.byte	119
 1261 02fa 85       		.byte	-123
 1262 02fb 47       		.byte	71
 1263 02fc 67       		.byte	103
 1264 02fd BC       		.byte	-68
 1265 02fe 59       		.byte	89
 1266 02ff 2F       		.byte	47
 1267 0300 4A       		.byte	74
 1268 0301 48       		.byte	72
 1269 0302 C0       		.byte	-64
 1270 0303 2D       		.byte	45
 1271 0304 32       		.byte	50
 1272 0305 7E       		.byte	126
 1273 0306 10       		.byte	16
 1274 0307 12       		.byte	18
 1275 0308 4C       		.byte	76
 1276 0309 22       		.byte	34
 1277 030a 3E       		.byte	62
 1278 030b E3       		.byte	-29
 1279 030c 48       		.byte	72
 1280 030d D0       		.byte	-48
 1281 030e 71       		.byte	113
 1282 030f E7       		.byte	-25
 1283 0310 44       		.byte	68
 1284 0311 30       		.byte	48
 1285 0312 2C       		.byte	44
 1286 0313 48       		.byte	72
 1287 0314 2C       		.byte	44
 1288 0315 6A       		.byte	106
 1289 0316 6A       		.byte	106
 1290 0317 6A       		.byte	106
 1291 0318 2C       		.byte	44
 1292 0319 18       		.byte	24
 1293 031a 2C       		.byte	44
 1294 031b 18       		.byte	24
 1295 031c 48       		.byte	72
 1296 031d 53       		.byte	83
 1297 031e 4A       		.byte	74
 1298 031f 25       		.byte	37
 1299 0320 77       		.byte	119
ARM GAS  /tmp/ccTrZbnH.s 			page 24


 1300 0321 71       		.byte	113
 1301 0322 4B       		.byte	75
 1302 0323 3B       		.byte	59
 1303 0324 57       		.byte	87
 1304 0325 10       		.byte	16
 1305 0326 0F       		.byte	15
 1306 0327 4C       		.byte	76
 1307 0328 22       		.byte	34
 1308 0329 7F       		.byte	127
 1309 032a 56       		.byte	86
 1310 032b 6D       		.byte	109
 1311 032c 67       		.byte	103
 1312 032d 5A       		.byte	90
 1313 032e 22       		.byte	34
 1314 032f 24       		.byte	36
 1315 0330 6D       		.byte	109
 1316 0331 67       		.byte	103
 1317 0332 5A       		.byte	90
 1318 0333 22       		.byte	34
 1319 0334 7F       		.byte	127
 1320 0335 10       		.byte	16
 1321 0336 0E       		.byte	14
 1322 0337 4C       		.byte	76
 1323 0338 22       		.byte	34
 1324 0339 24       		.byte	36
 1325 033a 6D       		.byte	109
 1326 033b 67       		.byte	103
 1327 033c 5A       		.byte	90
 1328 033d 22       		.byte	34
 1329 033e 3E       		.byte	62
 1330 033f 7D       		.byte	125
 1331 0340 00       		.byte	0
 1332 0341 60       		.byte	96
 1333 0342 10       		.byte	16
 1334 0343 13       		.byte	19
 1335 0344 4E       		.byte	78
 1336 0345 83       		.byte	-125
 1337 0346 1D       		.byte	29
 1338 0347 EB       		.byte	-21
 1339 0348 2D       		.byte	45
 1340 0349 E0       		.byte	-32
 1341 034a 33       		.byte	51
 1342 034b 4A       		.byte	74
 1343 034c 77       		.byte	119
 1344 034d 85       		.byte	-123
 1345 034e 47       		.byte	71
 1346 034f 3D       		.byte	61
 1347 0350 25       		.byte	37
 1348 0351 DC       		.byte	-36
 1349 0352 C4       		.byte	-60
 1350 0353 C0       		.byte	-64
 1351 0354 6A       		.byte	106
 1352 0355 2C       		.byte	44
 1353 0356 6A       		.byte	106
 1354 0357 25       		.byte	37
 1355 0358 90       		.byte	-112
 1356 0359 4A       		.byte	74
ARM GAS  /tmp/ccTrZbnH.s 			page 25


 1357 035a C0       		.byte	-64
 1358 035b 3D       		.byte	61
 1359 035c 3B       		.byte	59
 1360 035d E3       		.byte	-29
 1361 035e 39       		.byte	57
 1362 035f E3       		.byte	-29
 1363 0360 10       		.byte	16
 1364 0361 12       		.byte	18
 1365 0362 4C       		.byte	76
 1366 0363 1B       		.byte	27
 1367 0364 72       		.byte	114
 1368 0365 68       		.byte	104
 1369 0366 F2       		.byte	-14
 1370 0367 22       		.byte	34
 1371 0368 3A       		.byte	58
 1372 0369 4B       		.byte	75
 1373 036a 23       		.byte	35
 1374 036b 1B       		.byte	27
 1375 036c 72       		.byte	114
 1376 036d 68       		.byte	104
 1377 036e 10       		.byte	16
 1378 036f 07       		.byte	7
 1379 0370 1F       		.byte	31
 1380 0371 47       		.byte	71
 1381 0372 60       		.byte	96
 1382 0373 5D       		.byte	93
 1383 0374 10       		.byte	16
 1384 0375 07       		.byte	7
 1385 0376 1F       		.byte	31
 1386 0377 5D       		.byte	93
 1387 0378 5D       		.byte	93
 1388 0379 46       		.byte	70
 1389 037a 7C       		.byte	124
 1390 037b 30       		.byte	48
 1391 037c C0       		.byte	-64
 1392 037d 10       		.byte	16
 1393 037e 10       		.byte	16
 1394 037f 4C       		.byte	76
 1395 0380 E7       		.byte	-25
 1396 0381 2D       		.byte	45
 1397 0382 9C       		.byte	-100
 1398 0383 2D       		.byte	45
 1399 0384 B4       		.byte	-76
 1400 0385 2D       		.byte	45
 1401 0386 34       		.byte	52
 1402 0387 80       		.byte	-128
 1403 0388 1D       		.byte	29
 1404 0389 71       		.byte	113
 1405 038a 33       		.byte	51
 1406 038b D1       		.byte	-47
 1407 038c 54       		.byte	84
 1408 038d AA       		.byte	-86
 1409 038e C7       		.byte	-57
 1410 038f 82       		.byte	-126
 1411 0390 2F       		.byte	47
 1412 0391 39       		.byte	57
 1413 0392 8C       		.byte	-116
ARM GAS  /tmp/ccTrZbnH.s 			page 26


 1414 0393 30       		.byte	48
 1415 0394 DC       		.byte	-36
 1416 0395 44       		.byte	68
 1417 0396 56       		.byte	86
 1418 0397 C7       		.byte	-57
 1419 0398 2D       		.byte	45
 1420 0399 90       		.byte	-112
 1421 039a 44       		.byte	68
 1422 039b 10       		.byte	16
 1423 039c 0D       		.byte	13
 1424 039d 1F       		.byte	31
 1425 039e 60       		.byte	96
 1426 039f 5D       		.byte	93
 1427 03a0 54       		.byte	84
 1428 03a1 32       		.byte	50
 1429 03a2 7F       		.byte	127
 1430 03a3 10       		.byte	16
 1431 03a4 15       		.byte	21
 1432 03a5 4C       		.byte	76
 1433 03a6 25       		.byte	37
 1434 03a7 BC       		.byte	-68
 1435 03a8 33       		.byte	51
 1436 03a9 25       		.byte	37
 1437 03aa E2       		.byte	-30
 1438 03ab 33       		.byte	51
 1439 03ac 25       		.byte	37
 1440 03ad E2       		.byte	-30
 1441 03ae 4A       		.byte	74
 1442 03af C2       		.byte	-62
 1443 03b0 C4       		.byte	-60
 1444 03b1 C2       		.byte	-62
 1445 03b2 4A       		.byte	74
 1446 03b3 BA       		.byte	-70
 1447 03b4 C4       		.byte	-60
 1448 03b5 BA       		.byte	-70
 1449 03b6 4A       		.byte	74
 1450 03b7 BA       		.byte	-70
 1451 03b8 52       		.byte	82
 1452 03b9 9F       		.byte	-97
 1453 03ba 4A       		.byte	74
 1454 03bb 1A       		.byte	26
 1455 03bc 7B       		.byte	123
 1456 03bd 1F       		.byte	31
 1457 03be 1A       		.byte	26
 1458 03bf 7B       		.byte	123
 1459 03c0 1F       		.byte	31
 1460 03c1 1A       		.byte	26
 1461 03c2 7B       		.byte	123
 1462 03c3 1F       		.byte	31
 1463 03c4 A7       		.byte	-89
 1464 03c5 9D       		.byte	-99
 1465 03c6 3C       		.byte	60
 1466 03c7 90       		.byte	-112
 1467 03c8 AA       		.byte	-86
 1468 03c9 B5       		.byte	-75
 1469 03ca 33       		.byte	51
 1470 03cb E5       		.byte	-27
ARM GAS  /tmp/ccTrZbnH.s 			page 27


 1471 03cc 22       		.byte	34
 1472 03cd 9C       		.byte	-100
 1473 03ce 6F       		.byte	111
 1474 03cf 6F       		.byte	111
 1475 03d0 51       		.byte	81
 1476 03d1 77       		.byte	119
 1477 03d2 77       		.byte	119
 1478 03d3 72       		.byte	114
 1479 03d4 B4       		.byte	-76
 1480 03d5 10       		.byte	16
 1481 03d6 12       		.byte	18
 1482 03d7 4C       		.byte	76
 1483 03d8 25       		.byte	37
 1484 03d9 CA       		.byte	-54
 1485 03da 2B       		.byte	43
 1486 03db 25       		.byte	37
 1487 03dc 41       		.byte	65
 1488 03dd E7       		.byte	-25
 1489 03de A4       		.byte	-92
 1490 03df 23       		.byte	35
 1491 03e0 1E       		.byte	30
 1492 03e1 A4       		.byte	-92
 1493 03e2 23       		.byte	35
 1494 03e3 9F       		.byte	-97
 1495 03e4 A4       		.byte	-92
 1496 03e5 23       		.byte	35
 1497 03e6 1A       		.byte	26
 1498 03e7 A4       		.byte	-92
 1499 03e8 23       		.byte	35
 1500 03e9 1A       		.byte	26
 1501 03ea A4       		.byte	-92
 1502 03eb 23       		.byte	35
 1503 03ec A7       		.byte	-89
 1504 03ed A5       		.byte	-91
 1505 03ee 23       		.byte	35
 1506 03ef A7       		.byte	-89
 1507 03f0 C5       		.byte	-59
 1508 03f1 41       		.byte	65
 1509 03f2 77       		.byte	119
 1510 03f3 90       		.byte	-112
 1511 03f4 2B       		.byte	43
 1512 03f5 C5       		.byte	-59
 1513 03f6 C7       		.byte	-57
 1514 03f7 41       		.byte	65
 1515 03f8 C4       		.byte	-60
 1516 03f9 1A       		.byte	26
 1517 03fa 4A       		.byte	74
 1518 03fb 77       		.byte	119
 1519 03fc 7B       		.byte	123
 1520 03fd 2B       		.byte	43
 1521 03fe C5       		.byte	-59
 1522 03ff B0       		.byte	-80
 1523 0400 48       		.byte	72
 1524 0401 CA       		.byte	-54
 1525 0402 77       		.byte	119
 1526 0403 41       		.byte	65
 1527 0404 44       		.byte	68
ARM GAS  /tmp/ccTrZbnH.s 			page 28


 1528 0405 48       		.byte	72
 1529 0406 EA       		.byte	-22
 1530 0407 71       		.byte	113
 1531 0408 53       		.byte	83
 1532 0409 44       		.byte	68
 1533 040a 10       		.byte	16
 1534 040b 13       		.byte	19
 1535 040c 4E       		.byte	78
 1536 040d 83       		.byte	-125
 1537 040e 5E       		.byte	94
 1538 040f 75       		.byte	117
 1539 0410 36       		.byte	54
 1540 0411 10       		.byte	16
 1541 0412 0E       		.byte	14
 1542 0413 4C       		.byte	76
 1543 0414 20       		.byte	32
 1544 0415 6C       		.byte	108
 1545 0416 FC       		.byte	-4
 1546 0417 77       		.byte	119
 1547 0418 66       		.byte	102
 1548 0419 21       		.byte	33
 1549 041a FC       		.byte	-4
 1550 041b 20       		.byte	32
 1551 041c 39       		.byte	57
 1552 041d 55       		.byte	85
 1553 041e 69       		.byte	105
 1554 041f 10       		.byte	16
 1555 0420 13       		.byte	19
 1556 0421 4E       		.byte	78
 1557 0422 83       		.byte	-125
 1558 0423 5E       		.byte	94
 1559 0424 75       		.byte	117
 1560 0425 1E       		.byte	30
 1561 0426 4A       		.byte	74
 1562 0427 45       		.byte	69
 1563 0428 59       		.byte	89
 1564 0429 DC       		.byte	-36
 1565 042a 10       		.byte	16
 1566 042b 11       		.byte	17
 1567 042c 4C       		.byte	76
 1568 042d 20       		.byte	32
 1569 042e 6C       		.byte	108
 1570 042f FC       		.byte	-4
 1571 0430 77       		.byte	119
 1572 0431 66       		.byte	102
 1573 0432 21       		.byte	33
 1574 0433 3F       		.byte	63
 1575 0434 20       		.byte	32
 1576 0435 82       		.byte	-126
 1577 0436 2A       		.byte	42
 1578 0437 CA       		.byte	-54
 1579 0438 77       		.byte	119
 1580 0439 56       		.byte	86
 1581 043a 62       		.byte	98
 1582 043b 37       		.byte	55
 1583 043c 44       		.byte	68
 1584 043d 56       		.byte	86
ARM GAS  /tmp/ccTrZbnH.s 			page 29


 1585 043e 31       		.byte	49
 1586 043f 31       		.byte	49
 1587 0440 0F       		.byte	15
 1588 0441 C5       		.byte	-59
 1589 0442 34       		.byte	52
 1590 0443 10       		.byte	16
 1591 0444 0F       		.byte	15
 1592 0445 4C       		.byte	76
 1593 0446 83       		.byte	-125
 1594 0447 EB       		.byte	-21
 1595 0448 45       		.byte	69
 1596 0449 A4       		.byte	-92
 1597 044a 48       		.byte	72
 1598 044b 9C       		.byte	-100
 1599 044c 67       		.byte	103
 1600 044d 2A       		.byte	42
 1601 044e 4A       		.byte	74
 1602 044f 21       		.byte	33
 1603 0450 44       		.byte	68
 1604 0451 36       		.byte	54
 1605 0452 29       		.byte	41
 1606 0453 A2       		.byte	-94
 1607 0454 28       		.byte	40
 1608 0455 6D       		.byte	109
 1609 0456 28       		.byte	40
 1610 0457 48       		.byte	72
 1611 0458 90       		.byte	-112
 1612 0459 2A       		.byte	42
 1613 045a 36       		.byte	54
 1614 045b 21       		.byte	33
 1615 045c EC       		.byte	-20
 1616 045d 22       		.byte	34
 1617 045e 10       		.byte	16
 1618 045f 0F       		.byte	15
 1619 0460 55       		.byte	85
 1620 0461 32       		.byte	50
 1621 0462 E3       		.byte	-29
 1622 0463 25       		.byte	37
 1623 0464 32       		.byte	50
 1624 0465 20       		.byte	32
 1625 0466 39       		.byte	57
 1626 0467 74       		.byte	116
 1627 0468 47       		.byte	71
 1628 0469 5D       		.byte	93
 1629 046a 10       		.byte	16
 1630 046b 12       		.byte	18
 1631 046c 4C       		.byte	76
 1632 046d 1B       		.byte	27
 1633 046e 72       		.byte	114
 1634 046f 72       		.byte	114
 1635 0470 72       		.byte	114
 1636 0471 68       		.byte	104
 1637 0472 90       		.byte	-112
 1638 0473 34       		.byte	52
 1639 0474 45       		.byte	69
 1640 0475 2D       		.byte	45
 1641 0476 34       		.byte	52
ARM GAS  /tmp/ccTrZbnH.s 			page 30


 1642 0477 21       		.byte	33
 1643 0478 51       		.byte	81
 1644 0479 C2       		.byte	-62
 1645 047a 10       		.byte	16
 1646 047b 10       		.byte	16
 1647 047c C4       		.byte	-60
 1648 047d 28       		.byte	40
 1649 047e 48       		.byte	72
 1650 047f CA       		.byte	-54
 1651 0480 4A       		.byte	74
 1652 0481 6A       		.byte	106
 1653 0482 2C       		.byte	44
 1654 0483 23       		.byte	35
 1655 0484 31       		.byte	49
 1656 0485 31       		.byte	49
 1657 0486 EB       		.byte	-21
 1658 0487 2D       		.byte	45
 1659 0488 77       		.byte	119
 1660 0489 34       		.byte	52
 1661 048a 82       		.byte	-126
 1662 048b 34       		.byte	52
 1663 048c 39       		.byte	57
 1664 048d 77       		.byte	119
 1665 048e 39       		.byte	57
 1666 048f B4       		.byte	-76
 1667 0490 50       		.byte	80
 1668 0491 90       		.byte	-112
 1669 0492 8D       		.byte	-115
 1670 0493 1A       		.byte	26
 1671 0494 27       		.byte	39
 1672 0495 8D       		.byte	-115
 1673 0496 F2       		.byte	-14
 1674 0497 1D       		.byte	29
 1675 0498 71       		.byte	113
 1676 0499 4A       		.byte	74
 1677 049a A2       		.byte	-94
 1678 049b 54       		.byte	84
 1679 049c C0       		.byte	-64
 1680 049d 10       		.byte	16
 1681 049e 18       		.byte	24
 1682 049f 43       		.byte	67
 1683 04a0 39       		.byte	57
 1684 04a1 44       		.byte	68
 1685 04a2 E5       		.byte	-27
 1686 04a3 77       		.byte	119
 1687 04a4 3C       		.byte	60
 1688 04a5 93       		.byte	-109
 1689 04a6 34       		.byte	52
 1690 04a7 B4       		.byte	-76
 1691 04a8 C4       		.byte	-60
 1692 04a9 A2       		.byte	-94
 1693 04aa 34       		.byte	52
 1694 04ab 34       		.byte	52
 1695 04ac C4       		.byte	-60
 1696 04ad A2       		.byte	-94
 1697 04ae 34       		.byte	52
 1698 04af 34       		.byte	52
ARM GAS  /tmp/ccTrZbnH.s 			page 31


 1699 04b0 A4       		.byte	-92
 1700 04b1 9F       		.byte	-97
 1701 04b2 77       		.byte	119
 1702 04b3 77       		.byte	119
 1703 04b4 7B       		.byte	123
 1704 04b5 9C       		.byte	-100
 1705 04b6 34       		.byte	52
 1706 04b7 7B       		.byte	123
 1707 04b8 3C       		.byte	60
 1708 04b9 E7       		.byte	-25
 1709 04ba 90       		.byte	-112
 1710 04bb C7       		.byte	-57
 1711 04bc 79       		.byte	121
 1712 04bd 2F       		.byte	47
 1713 04be 92       		.byte	-110
 1714 04bf 79       		.byte	121
 1715 04c0 F0       		.byte	-16
 1716 04c1 77       		.byte	119
 1717 04c2 3C       		.byte	60
 1718 04c3 AA       		.byte	-86
 1719 04c4 A5       		.byte	-91
 1720 04c5 9D       		.byte	-99
 1721 04c6 4A       		.byte	74
 1722 04c7 1A       		.byte	26
 1723 04c8 7B       		.byte	123
 1724 04c9 1F       		.byte	31
 1725 04ca 1A       		.byte	26
 1726 04cb 7B       		.byte	123
 1727 04cc 52       		.byte	82
 1728 04cd BA       		.byte	-70
 1729 04ce C4       		.byte	-60
 1730 04cf BA       		.byte	-70
 1731 04d0 4A       		.byte	74
 1732 04d1 C0       		.byte	-64
 1733 04d2 3D       		.byte	61
 1734 04d3 48       		.byte	72
 1735 04d4 36       		.byte	54
 1736 04d5 3D       		.byte	61
 1737 04d6 48       		.byte	72
 1738 04d7 36       		.byte	54
 1739 04d8 3D       		.byte	61
 1740 04d9 48       		.byte	72
 1741 04da EB       		.byte	-21
 1742 04db 44       		.byte	68
 1743 04dc 10       		.byte	16
 1744 04dd 11       		.byte	17
 1745 04de 4C       		.byte	76
 1746 04df 25       		.byte	37
 1747 04e0 37       		.byte	55
 1748 04e1 23       		.byte	35
 1749 04e2 65       		.byte	101
 1750 04e3 45       		.byte	69
 1751 04e4 2A       		.byte	42
 1752 04e5 90       		.byte	-112
 1753 04e6 38       		.byte	56
 1754 04e7 1A       		.byte	26
 1755 04e8 7C       		.byte	124
ARM GAS  /tmp/ccTrZbnH.s 			page 32


 1756 04e9 43       		.byte	67
 1757 04ea C0       		.byte	-64
 1758 04eb 40       		.byte	64
 1759 04ec 4A       		.byte	74
 1760 04ed 93       		.byte	-109
 1761 04ee 54       		.byte	84
 1762 04ef 1E       		.byte	30
 1763 04f0 27       		.byte	39
 1764 04f1 38       		.byte	56
 1765 04f2 C7       		.byte	-57
 1766 04f3 C7       		.byte	-57
 1767 04f4 45       		.byte	69
 1768 04f5 77       		.byte	119
 1769 04f6 45       		.byte	69
 1770 04f7 A4       		.byte	-92
 1771 04f8 2E       		.byte	46
 1772 04f9 FF       		.byte	-1
 1773 04fa 33       		.byte	51
 1774 04fb 48       		.byte	72
 1775 04fc CB       		.byte	-53
 1776 04fd 44       		.byte	68
 1777 04fe 10       		.byte	16
 1778 04ff 0F       		.byte	15
 1779 0500 C4       		.byte	-60
 1780 0501 28       		.byte	40
 1781 0502 C7       		.byte	-57
 1782 0503 34       		.byte	52
 1783 0504 23       		.byte	35
 1784 0505 65       		.byte	101
 1785 0506 45       		.byte	69
 1786 0507 2A       		.byte	42
 1787 0508 90       		.byte	-112
 1788 0509 3C       		.byte	60
 1789 050a 2B       		.byte	43
 1790 050b 1A       		.byte	26
 1791 050c C5       		.byte	-59
 1792 050d 45       		.byte	69
 1793 050e 1D       		.byte	29
 1794 050f 71       		.byte	113
 1795 0510 1F       		.byte	31
 1796 0511 C0       		.byte	-64
 1797 0512 60       		.byte	96
 1798 0513 67       		.byte	103
 1799 0514 10       		.byte	16
 1800 0515 10       		.byte	16
 1801 0516 50       		.byte	80
 1802 0517 3B       		.byte	59
 1803 0518 E3       		.byte	-29
 1804 0519 25       		.byte	37
 1805 051a 32       		.byte	50
 1806 051b 20       		.byte	32
 1807 051c 6E       		.byte	110
 1808 051d 46       		.byte	70
 1809 051e 6E       		.byte	110
 1810 051f 46       		.byte	70
 1811 0520 6E       		.byte	110
 1812 0521 FC       		.byte	-4
ARM GAS  /tmp/ccTrZbnH.s 			page 33


 1813 0522 27       		.byte	39
 1814 0523 4B       		.byte	75
 1815 0524 52       		.byte	82
 1816 0525 34       		.byte	52
 1817 0526 4B       		.byte	75
 1818 0527 10       		.byte	16
 1819 0528 09       		.byte	9
 1820 0529 4C       		.byte	76
 1821 052a 1E       		.byte	30
 1822 052b 7C       		.byte	124
 1823 052c 56       		.byte	86
 1824 052d 69       		.byte	105
 1825 052e 5D       		.byte	93
 1826 052f 28       		.byte	40
 1827 0530 D3       		.byte	-45
 1828 0531 7C       		.byte	124
 1829 0532 10       		.byte	16
 1830 0533 08       		.byte	8
 1831 0534 51       		.byte	81
 1832 0535 59       		.byte	89
 1833 0536 E0       		.byte	-32
 1834 0537 74       		.byte	116
 1835 0538 74       		.byte	116
 1836 0539 74       		.byte	116
 1837 053a 1C       		.byte	28
 1838 053b 74       		.byte	116
 1839 053c 74       		.byte	116
 1840 053d 29       		.byte	41
 1841 053e 38       		.byte	56
 1842 053f 34       		.byte	52
 1843 0540 10       		.byte	16
 1844 0541 09       		.byte	9
 1845 0542 4C       		.byte	76
 1846 0543 1E       		.byte	30
 1847 0544 7C       		.byte	124
 1848 0545 39       		.byte	57
 1849 0546 74       		.byte	116
 1850 0547 5D       		.byte	93
 1851 0548 67       		.byte	103
 1852 0549 1E       		.byte	30
 1853 054a 7C       		.byte	124
 1854 054b 10       		.byte	16
 1855 054c 14       		.byte	20
 1856 054d 50       		.byte	80
 1857 054e 40       		.byte	64
 1858 054f 52       		.byte	82
 1859 0550 C2       		.byte	-62
 1860 0551 27       		.byte	39
 1861 0552 E1       		.byte	-31
 1862 0553 50       		.byte	80
 1863 0554 2F       		.byte	47
 1864 0555 2F       		.byte	47
 1865 0556 45       		.byte	69
 1866 0557 34       		.byte	52
 1867 0558 23       		.byte	35
 1868 0559 92       		.byte	-110
 1869 055a 2D       		.byte	45
ARM GAS  /tmp/ccTrZbnH.s 			page 34


 1870 055b 92       		.byte	-110
 1871 055c 44       		.byte	68
 1872 055d 10       		.byte	16
 1873 055e 0C       		.byte	12
 1874 055f 4C       		.byte	76
 1875 0560 5B       		.byte	91
 1876 0561 35       		.byte	53
 1877 0562 C2       		.byte	-62
 1878 0563 21       		.byte	33
 1879 0564 4B       		.byte	75
 1880 0565 10       		.byte	16
 1881 0566 0C       		.byte	12
 1882 0567 5A       		.byte	90
 1883 0568 92       		.byte	-110
 1884 0569 1C       		.byte	28
 1885 056a 59       		.byte	89
 1886 056b DC       		.byte	-36
 1887 056c 10       		.byte	16
 1888 056d 0E       		.byte	14
 1889 056e 5B       		.byte	91
 1890 056f 3B       		.byte	59
 1891 0570 C4       		.byte	-60
 1892 0571 3B       		.byte	59
 1893 0572 1D       		.byte	29
 1894 0573 C8       		.byte	-56
 1895 0574 77       		.byte	119
 1896 0575 59       		.byte	89
 1897 0576 3C       		.byte	60
 1898 0577 2B       		.byte	43
 1899 0578 21       		.byte	33
 1900 0579 C0       		.byte	-64
 1901 057a 22       		.byte	34
 1902 057b 45       		.byte	69
 1903 057c 52       		.byte	82
 1904 057d 2E       		.byte	46
 1905 057e 37       		.byte	55
 1906 057f 3D       		.byte	61
 1907 0580 45       		.byte	69
 1908 0581 76       		.byte	118
 1909 0582 10       		.byte	16
 1910 0583 0F       		.byte	15
 1911 0584 52       		.byte	82
 1912 0585 74       		.byte	116
 1913 0586 84       		.byte	-124
 1914 0587 78       		.byte	120
 1915 0588 63       		.byte	99
 1916 0589 10       		.byte	16
 1917 058a 0D       		.byte	13
 1918 058b 50       		.byte	80
 1919 058c 5B       		.byte	91
 1920 058d 49       		.byte	73
 1921 058e A4       		.byte	-92
 1922 058f 39       		.byte	57
 1923 0590 1C       		.byte	28
 1924 0591 47       		.byte	71
 1925 0592 47       		.byte	71
 1926 0593 59       		.byte	89
ARM GAS  /tmp/ccTrZbnH.s 			page 35


 1927 0594 2F       		.byte	47
 1928 0595 94       		.byte	-108
 1929 0596 39       		.byte	57
 1930 0597 22       		.byte	34
 1931 0598 C4       		.byte	-60
 1932 0599 3B       		.byte	59
 1933 059a 10       		.byte	16
 1934 059b 0F       		.byte	15
 1935 059c 50       		.byte	80
 1936 059d 74       		.byte	116
 1937 059e 47       		.byte	71
 1938 059f 50       		.byte	80
 1939 05a0 E3       		.byte	-29
 1940 05a1 90       		.byte	-112
 1941 05a2 3B       		.byte	59
 1942 05a3 3A       		.byte	58
 1943 05a4 2F       		.byte	47
 1944 05a5 81       		.byte	-127
 1945 05a6 90       		.byte	-112
 1946 05a7 5C       		.byte	92
 1947 05a8 76       		.byte	118
 1948 05a9 10       		.byte	16
 1949 05aa 0E       		.byte	14
 1950 05ab 50       		.byte	80
 1951 05ac 5B       		.byte	91
 1952 05ad 49       		.byte	73
 1953 05ae 2A       		.byte	42
 1954 05af 79       		.byte	121
 1955 05b0 43       		.byte	67
 1956 05b1 31       		.byte	49
 1957 05b2 4B       		.byte	75
 1958 05b3 3B       		.byte	59
 1959 05b4 E3       		.byte	-29
 1960 05b5 48       		.byte	72
 1961 05b6 D0       		.byte	-48
 1962 05b7 1C       		.byte	28
 1963 05b8 59       		.byte	89
 1964 05b9 E0       		.byte	-32
 1965 05ba C4       		.byte	-60
 1966 05bb C6       		.byte	-58
 1967 05bc 3B       		.byte	59
 1968 05bd 1D       		.byte	29
 1969 05be 32       		.byte	50
 1970 05bf 10       		.byte	16
 1971 05c0 08       		.byte	8
 1972 05c1 4C       		.byte	76
 1973 05c2 81       		.byte	-127
 1974 05c3 4A       		.byte	74
 1975 05c4 1E       		.byte	30
 1976 05c5 54       		.byte	84
 1977 05c6 6D       		.byte	109
 1978 05c7 89       		.byte	-119
 1979 05c8 5A       		.byte	90
 1980 05c9 82       		.byte	-126
 1981 05ca 5D       		.byte	93
 1982 05cb 10       		.byte	16
 1983 05cc 0F       		.byte	15
ARM GAS  /tmp/ccTrZbnH.s 			page 36


 1984 05cd 8B       		.byte	-117
 1985 05ce 2F       		.byte	47
 1986 05cf 81       		.byte	-127
 1987 05d0 92       		.byte	-110
 1988 05d1 5C       		.byte	92
 1989 05d2 76       		.byte	118
 1990 05d3 53       		.byte	83
 1991 05d4 40       		.byte	64
 1992 05d5 58       		.byte	88
 1993 05d6 7A       		.byte	122
 1994 05d7 36       		.byte	54
 1995 05d8 10       		.byte	16
 1996 05d9 0F       		.byte	15
 1997 05da 52       		.byte	82
 1998 05db 74       		.byte	116
 1999 05dc 84       		.byte	-124
 2000 05dd 52       		.byte	82
 2001 05de 2E       		.byte	46
 2002 05df 62       		.byte	98
 2003 05e0 62       		.byte	98
 2004 05e1 62       		.byte	98
 2005 05e2 62       		.byte	98
 2006 05e3 10       		.byte	16
 2007 05e4 07       		.byte	7
 2008 05e5 1F       		.byte	31
 2009 05e6 67       		.byte	103
 2010 05e7 4E       		.byte	78
 2011 05e8 74       		.byte	116
 2012 05e9 5D       		.byte	93
 2013 05ea 10       		.byte	16
 2014 05eb 07       		.byte	7
 2015 05ec 1F       		.byte	31
 2016 05ed 67       		.byte	103
 2017 05ee 4E       		.byte	78
 2018 05ef 74       		.byte	116
 2019 05f0 5D       		.byte	93
 2020 05f1 67       		.byte	103
 2021 05f2 36       		.byte	54
 2022 05f3 40       		.byte	64
 2023 05f4 10       		.byte	16
 2024 05f5 0E       		.byte	14
 2025 05f6 1F       		.byte	31
 2026 05f7 60       		.byte	96
 2027 05f8 2A       		.byte	42
 2028 05f9 37       		.byte	55
 2029 05fa 80       		.byte	-128
 2030 05fb CB       		.byte	-53
 2031 05fc 54       		.byte	84
 2032 05fd 1E       		.byte	30
 2033 05fe 27       		.byte	39
 2034 05ff 38       		.byte	56
 2035 0600 AA       		.byte	-86
 2036 0601 C7       		.byte	-57
 2037 0602 82       		.byte	-126
 2038 0603 2F       		.byte	47
 2039 0604 39       		.byte	57
 2040 0605 8C       		.byte	-116
ARM GAS  /tmp/ccTrZbnH.s 			page 37


 2041 0606 10       		.byte	16
 2042 0607 06       		.byte	6
 2043 0608 1F       		.byte	31
 2044 0609 47       		.byte	71
 2045 060a 60       		.byte	96
 2046 060b 5D       		.byte	93
 2047 060c 10       		.byte	16
 2048 060d 18       		.byte	24
 2049 060e 1F       		.byte	31
 2050 060f 5B       		.byte	91
 2051 0610 34       		.byte	52
 2052 0611 C0       		.byte	-64
 2053 0612 A5       		.byte	-91
 2054 0613 93       		.byte	-109
 2055 0614 34       		.byte	52
 2056 0615 20       		.byte	32
 2057 0616 20       		.byte	32
 2058 0617 51       		.byte	81
 2059 0618 A2       		.byte	-94
 2060 0619 BC       		.byte	-68
 2061 061a C7       		.byte	-57
 2062 061b 92       		.byte	-110
 2063 061c BC       		.byte	-68
 2064 061d C4       		.byte	-60
 2065 061e 92       		.byte	-110
 2066 061f 77       		.byte	119
 2067 0620 6B       		.byte	107
 2068 0621 51       		.byte	81
 2069 0622 79       		.byte	121
 2070 0623 6B       		.byte	107
 2071 0624 51       		.byte	81
 2072 0625 79       		.byte	121
 2073 0626 6B       		.byte	107
 2074 0627 51       		.byte	81
 2075 0628 79       		.byte	121
 2076 0629 10       		.byte	16
 2077 062a 0F       		.byte	15
 2078 062b 8A       		.byte	-118
 2079 062c D3       		.byte	-45
 2080 062d BC       		.byte	-68
 2081 062e 45       		.byte	69
 2082 062f 52       		.byte	82
 2083 0630 2E       		.byte	46
 2084 0631 62       		.byte	98
 2085 0632 62       		.byte	98
 2086 0633 62       		.byte	98
 2087 0634 62       		.byte	98
 2088 0635 10       		.byte	16
 2089 0636 0E       		.byte	14
 2090 0637 51       		.byte	81
 2091 0638 5B       		.byte	91
 2092 0639 2B       		.byte	43
 2093 063a 49       		.byte	73
 2094 063b 2A       		.byte	42
 2095 063c 57       		.byte	87
 2096 063d 78       		.byte	120
 2097 063e 31       		.byte	49
ARM GAS  /tmp/ccTrZbnH.s 			page 38


 2098 063f CB       		.byte	-53
 2099 0640 77       		.byte	119
 2100 0641 45       		.byte	69
 2101 0642 7A       		.byte	122
 2102 0643 36       		.byte	54
 2103 0644 10       		.byte	16
 2104 0645 0F       		.byte	15
 2105 0646 8A       		.byte	-118
 2106 0647 D3       		.byte	-45
 2107 0648 BC       		.byte	-68
 2108 0649 45       		.byte	69
 2109 064a 78       		.byte	120
 2110 064b 63       		.byte	99
 2111 064c D0       		.byte	-48
 2112 064d 67       		.byte	103
 2113 064e DC       		.byte	-36
 2114 064f 10       		.byte	16
 2115 0650 0F       		.byte	15
 2116 0651 8B       		.byte	-117
 2117 0652 2F       		.byte	47
 2118 0653 81       		.byte	-127
 2119 0654 90       		.byte	-112
 2120 0655 5C       		.byte	92
 2121 0656 76       		.byte	118
 2122 0657 6D       		.byte	109
 2123 0658 47       		.byte	71
 2124 0659 10       		.byte	16
 2125 065a 0A       		.byte	10
 2126 065b 4A       		.byte	74
 2127 065c 5B       		.byte	91
 2128 065d 77       		.byte	119
 2129 065e A2       		.byte	-94
 2130 065f 39       		.byte	57
 2131 0660 22       		.byte	34
 2132 0661 50       		.byte	80
 2133 0662 C0       		.byte	-64
 2134 0663 85       		.byte	-123
 2135 0664 47       		.byte	71
 2136 0665 60       		.byte	96
 2137 0666 10       		.byte	16
 2138 0667 0C       		.byte	12
 2139 0668 5A       		.byte	90
 2140 0669 5B       		.byte	91
 2141 066a 2B       		.byte	43
 2142 066b 49       		.byte	73
 2143 066c A4       		.byte	-92
 2144 066d 39       		.byte	57
 2145 066e 29       		.byte	41
 2146 066f 90       		.byte	-112
 2147 0670 5F       		.byte	95
 2148 0671 0F       		.byte	15
 2149 0672 6D       		.byte	109
 2150 0673 43       		.byte	67
 2151 0674 C8       		.byte	-56
 2152 0675 2A       		.byte	42
 2153 0676 C2       		.byte	-62
 2154 0677 3A       		.byte	58
ARM GAS  /tmp/ccTrZbnH.s 			page 39


 2155 0678 A4       		.byte	-92
 2156 0679 22       		.byte	34
 2157 067a 10       		.byte	16
 2158 067b 09       		.byte	9
 2159 067c 42       		.byte	66
 2160 067d 39       		.byte	57
 2161 067e 74       		.byte	116
 2162 067f 89       		.byte	-119
 2163 0680 54       		.byte	84
 2164 0681 6D       		.byte	109
 2165 0682 60       		.byte	96
 2166 0683 28       		.byte	40
 2167 0684 1E       		.byte	30
 2168 0685 7C       		.byte	124
 2169 0686 10       		.byte	16
 2170 0687 0F       		.byte	15
 2171 0688 30       		.byte	48
 2172 0689 5B       		.byte	91
 2173 068a 62       		.byte	98
 2174 068b 62       		.byte	98
 2175 068c 62       		.byte	98
 2176 068d 62       		.byte	98
 2177 068e 79       		.byte	121
 2178 068f 4A       		.byte	74
 2179 0690 34       		.byte	52
 2180 0691 3D       		.byte	61
 2181 0692 45       		.byte	69
 2182 0693 76       		.byte	118
 2183 0694 10       		.byte	16
 2184 0695 0F       		.byte	15
 2185 0696 5B       		.byte	91
 2186 0697 26       		.byte	38
 2187 0698 62       		.byte	98
 2188 0699 EA       		.byte	-22
 2189 069a 2D       		.byte	45
 2190 069b 34       		.byte	52
 2191 069c 34       		.byte	52
 2192 069d 39       		.byte	57
 2193 069e 34       		.byte	52
 2194 069f 50       		.byte	80
 2195 06a0 90       		.byte	-112
 2196 06a1 92       		.byte	-110
 2197 06a2 82       		.byte	-126
 2198 06a3 8D       		.byte	-115
 2199 06a4 87       		.byte	-121
 2200 06a5 7C       		.byte	124
 2201 06a6 45       		.byte	69
 2202 06a7 10       		.byte	16
 2203 06a8 14       		.byte	20
 2204 06a9 52       		.byte	82
 2205 06aa 5B       		.byte	91
 2206 06ab 34       		.byte	52
 2207 06ac 34       		.byte	52
 2208 06ad C7       		.byte	-57
 2209 06ae 3C       		.byte	60
 2210 06af C7       		.byte	-57
 2211 06b0 C0       		.byte	-64
ARM GAS  /tmp/ccTrZbnH.s 			page 40


 2212 06b1 34       		.byte	52
 2213 06b2 6F       		.byte	111
 2214 06b3 6F       		.byte	111
 2215 06b4 4A       		.byte	74
 2216 06b5 A7       		.byte	-89
 2217 06b6 9D       		.byte	-99
 2218 06b7 3C       		.byte	60
 2219 06b8 2F       		.byte	47
 2220 06b9 AA       		.byte	-86
 2221 06ba BD       		.byte	-67
 2222 06bb 4A       		.byte	74
 2223 06bc 90       		.byte	-112
 2224 06bd 1A       		.byte	26
 2225 06be 3C       		.byte	60
 2226 06bf 7B       		.byte	123
 2227 06c0 D7       		.byte	-41
 2228 06c1 48       		.byte	72
 2229 06c2 DF       		.byte	-33
 2230 06c3 77       		.byte	119
 2231 06c4 41       		.byte	65
 2232 06c5 53       		.byte	83
 2233 06c6 81       		.byte	-127
 2234 06c7 A2       		.byte	-94
 2235 06c8 81       		.byte	-127
 2236 06c9 A2       		.byte	-94
 2237 06ca 81       		.byte	-127
 2238 06cb F2       		.byte	-14
 2239 06cc 3D       		.byte	61
 2240 06cd 10       		.byte	16
 2241 06ce 0F       		.byte	15
 2242 06cf 30       		.byte	48
 2243 06d0 5B       		.byte	91
 2244 06d1 25       		.byte	37
 2245 06d2 25       		.byte	37
 2246 06d3 3D       		.byte	61
 2247 06d4 2D       		.byte	45
 2248 06d5 5A       		.byte	90
 2249 06d6 2F       		.byte	47
 2250 06d7 2F       		.byte	47
 2251 06d8 39       		.byte	57
 2252 06d9 9C       		.byte	-100
 2253 06da 54       		.byte	84
 2254 06db 9F       		.byte	-97
 2255 06dc 7C       		.byte	124
 2256 06dd 45       		.byte	69
 2257 06de 29       		.byte	41
 2258 06df E3       		.byte	-29
 2259 06e0 54       		.byte	84
 2260 06e1 B2       		.byte	-78
 2261 06e2 C7       		.byte	-57
 2262 06e3 82       		.byte	-126
 2263 06e4 90       		.byte	-112
 2264 06e5 82       		.byte	-126
 2265 06e6 77       		.byte	119
 2266 06e7 45       		.byte	69
 2267 06e8 2D       		.byte	45
 2268 06e9 BC       		.byte	-68
ARM GAS  /tmp/ccTrZbnH.s 			page 41


 2269 06ea 44       		.byte	68
 2270 06eb 10       		.byte	16
 2271 06ec 0F       		.byte	15
 2272 06ed 5B       		.byte	91
 2273 06ee 26       		.byte	38
 2274 06ef 62       		.byte	98
 2275 06f0 F2       		.byte	-14
 2276 06f1 2D       		.byte	45
 2277 06f2 34       		.byte	52
 2278 06f3 34       		.byte	52
 2279 06f4 39       		.byte	57
 2280 06f5 2A       		.byte	42
 2281 06f6 9C       		.byte	-100
 2282 06f7 8D       		.byte	-115
 2283 06f8 87       		.byte	-121
 2284 06f9 7C       		.byte	124
 2285 06fa 45       		.byte	69
 2286 06fb 4A       		.byte	74
 2287 06fc 45       		.byte	69
 2288 06fd 47       		.byte	71
 2289 06fe 46       		.byte	70
 2290 06ff 7C       		.byte	124
 2291 0700 30       		.byte	48
 2292 0701 C0       		.byte	-64
 2293 0702 10       		.byte	16
 2294 0703 0D       		.byte	13
 2295 0704 1F       		.byte	31
 2296 0705 5B       		.byte	91
 2297 0706 32       		.byte	50
 2298 0707 7F       		.byte	127
 2299 0708 46       		.byte	70
 2300 0709 40       		.byte	64
 2301 070a 44       		.byte	68
 2302 070b 40       		.byte	64
 2303 070c 44       		.byte	68
 2304 070d 40       		.byte	64
 2305 070e 44       		.byte	68
 2306 070f 85       		.byte	-123
 2307 0710 4A       		.byte	74
 2308 0711 3B       		.byte	59
 2309 0712 7F       		.byte	127
 2310 0713 10       		.byte	16
 2311 0714 0F       		.byte	15
 2312 0715 51       		.byte	81
 2313 0716 4E       		.byte	78
 2314 0717 A2       		.byte	-94
 2315 0718 7C       		.byte	124
 2316 0719 56       		.byte	86
 2317 071a 69       		.byte	105
 2318 071b 40       		.byte	64
 2319 071c C4       		.byte	-60
 2320 071d 1E       		.byte	30
 2321 071e 7C       		.byte	124
 2322 071f FC       		.byte	-4
 2323 0720 45       		.byte	69
 2324 0721 55       		.byte	85
 2325 0722 69       		.byte	105
ARM GAS  /tmp/ccTrZbnH.s 			page 42


 2326 0723 28       		.byte	40
 2327 0724 D3       		.byte	-45
 2328 0725 54       		.byte	84
 2329 0726 C0       		.byte	-64
 2330 0727 10       		.byte	16
 2331 0728 08       		.byte	8
 2332 0729 4A       		.byte	74
 2333 072a 5D       		.byte	93
 2334 072b 5D       		.byte	93
 2335 072c 67       		.byte	103
 2336 072d DC       		.byte	-36
 2337 072e 10       		.byte	16
 2338 072f 0F       		.byte	15
 2339 0730 4E       		.byte	78
 2340 0731 93       		.byte	-109
 2341 0732 7C       		.byte	124
 2342 0733 39       		.byte	57
 2343 0734 74       		.byte	116
 2344 0735 67       		.byte	103
 2345 0736 BC       		.byte	-68
 2346 0737 55       		.byte	85
 2347 0738 1E       		.byte	30
 2348 0739 7C       		.byte	124
 2349 073a 30       		.byte	48
 2350 073b D2       		.byte	-46
 2351 073c 29       		.byte	41
 2352 073d 69       		.byte	105
 2353 073e 7C       		.byte	124
 2354 073f 30       		.byte	48
 2355 0740 C0       		.byte	-64
 2356 0741 10       		.byte	16
 2357 0742 14       		.byte	20
 2358 0743 C4       		.byte	-60
 2359 0744 4E       		.byte	78
 2360 0745 19       		.byte	25
 2361 0746 5B       		.byte	91
 2362 0747 7C       		.byte	124
 2363 0748 48       		.byte	72
 2364 0749 20       		.byte	32
 2365 074a 5A       		.byte	90
 2366 074b 2C       		.byte	44
 2367 074c C5       		.byte	-59
 2368 074d 20       		.byte	32
 2369 074e 4D       		.byte	77
 2370 074f C2       		.byte	-62
 2371 0750 10       		.byte	16
 2372 0751 000000   		.section	.rodata.mf_rlefont_DejaVuSans24,"a",%progbits
 2373              		.align	2
 2374              		.set	.LANCHOR0,. + 0
 2375              		.type	mf_rlefont_DejaVuSans24, %object
 2376              		.size	mf_rlefont_DejaVuSans24, 48
 2377              	mf_rlefont_DejaVuSans24:
 2378 0000 00000000 		.word	.LC2
 2379 0004 14000000 		.word	.LC4
 2380 0008 19       		.byte	25
 2381 0009 19       		.byte	25
 2382 000a 06       		.byte	6
ARM GAS  /tmp/ccTrZbnH.s 			page 43


 2383 000b 18       		.byte	24
 2384 000c 02       		.byte	2
 2385 000d 13       		.byte	19
 2386 000e 1C       		.byte	28
 2387 000f 02       		.byte	2
 2388 0010 3F       		.byte	63
 2389 0011 000000   		.space	3
 2390 0014 00000000 		.word	mf_rlefont_character_width
 2391 0018 00000000 		.word	mf_rlefont_render_character
 2392 001c 04       		.byte	4
 2393 001d 000000   		.space	3
 2394 0020 00000000 		.word	mf_rlefont_DejaVuSans24_dictionary_data
 2395 0024 00000000 		.word	mf_rlefont_DejaVuSans24_dictionary_offsets
 2396 0028 44       		.byte	68
 2397 0029 76       		.byte	118
 2398 002a 01       		.byte	1
 2399 002b 00       		.space	1
 2400 002c 00000000 		.word	mf_rlefont_DejaVuSans24_char_ranges
 2401              		.section	.rodata.mf_rlefont_DejaVuSans24_dictionary_data,"a",%progbits
 2402              		.align	2
 2403              		.type	mf_rlefont_DejaVuSans24_dictionary_data, %object
 2404              		.size	mf_rlefont_DejaVuSans24_dictionary_data, 395
 2405              	mf_rlefont_DejaVuSans24_dictionary_data:
 2406 0000 80       		.byte	-128
 2407 0001 0A       		.byte	10
 2408 0002 80       		.byte	-128
 2409 0003 3D       		.byte	61
 2410 0004 81       		.byte	-127
 2411 0005 02       		.byte	2
 2412 0006 81       		.byte	-127
 2413 0007 81       		.byte	-127
 2414 0008 09       		.byte	9
 2415 0009 81       		.byte	-127
 2416 000a 0C       		.byte	12
 2417 000b 81       		.byte	-127
 2418 000c 09       		.byte	9
 2419 000d 81       		.byte	-127
 2420 000e 0C       		.byte	12
 2421 000f 81       		.byte	-127
 2422 0010 09       		.byte	9
 2423 0011 81       		.byte	-127
 2424 0012 08       		.byte	8
 2425 0013 16       		.byte	22
 2426 0014 81       		.byte	-127
 2427 0015 01       		.byte	1
 2428 0016 82       		.byte	-126
 2429 0017 0E       		.byte	14
 2430 0018 84       		.byte	-124
 2431 0019 01       		.byte	1
 2432 001a 07       		.byte	7
 2433 001b 87       		.byte	-121
 2434 001c 01       		.byte	1
 2435 001d 86       		.byte	-122
 2436 001e 0D       		.byte	13
 2437 001f 85       		.byte	-123
 2438 0020 80       		.byte	-128
 2439 0021 0C       		.byte	12
ARM GAS  /tmp/ccTrZbnH.s 			page 44


 2440 0022 83       		.byte	-125
 2441 0023 0F       		.byte	15
 2442 0024 89       		.byte	-119
 2443 0025 0F       		.byte	15
 2444 0026 82       		.byte	-126
 2445 0027 07       		.byte	7
 2446 0028 0B       		.byte	11
 2447 0029 81       		.byte	-127
 2448 002a 09       		.byte	9
 2449 002b 81       		.byte	-127
 2450 002c 0C       		.byte	12
 2451 002d 13       		.byte	19
 2452 002e 81       		.byte	-127
 2453 002f 16       		.byte	22
 2454 0030 80       		.byte	-128
 2455 0031 15       		.byte	21
 2456 0032 04       		.byte	4
 2457 0033 82       		.byte	-126
 2458 0034 0E       		.byte	14
 2459 0035 0A       		.byte	10
 2460 0036 80       		.byte	-128
 2461 0037 81       		.byte	-127
 2462 0038 0A       		.byte	10
 2463 0039 80       		.byte	-128
 2464 003a 05       		.byte	5
 2465 003b 82       		.byte	-126
 2466 003c 0A       		.byte	10
 2467 003d 81       		.byte	-127
 2468 003e 0E       		.byte	14
 2469 003f 81       		.byte	-127
 2470 0040 07       		.byte	7
 2471 0041 81       		.byte	-127
 2472 0042 0D       		.byte	13
 2473 0043 02       		.byte	2
 2474 0044 82       		.byte	-126
 2475 0045 01       		.byte	1
 2476 0046 0B       		.byte	11
 2477 0047 81       		.byte	-127
 2478 0048 08       		.byte	8
 2479 0049 81       		.byte	-127
 2480 004a 0D       		.byte	13
 2481 004b 04       		.byte	4
 2482 004c 85       		.byte	-123
 2483 004d 09       		.byte	9
 2484 004e 80       		.byte	-128
 2485 004f 05       		.byte	5
 2486 0050 81       		.byte	-127
 2487 0051 45       		.byte	69
 2488 0052 15       		.byte	21
 2489 0053 83       		.byte	-125
 2490 0054 01       		.byte	1
 2491 0055 81       		.byte	-127
 2492 0056 01       		.byte	1
 2493 0057 82       		.byte	-126
 2494 0058 12       		.byte	18
 2495 0059 10       		.byte	16
 2496 005a 81       		.byte	-127
ARM GAS  /tmp/ccTrZbnH.s 			page 45


 2497 005b 83       		.byte	-125
 2498 005c 0C       		.byte	12
 2499 005d 0D       		.byte	13
 2500 005e 85       		.byte	-123
 2501 005f 02       		.byte	2
 2502 0060 81       		.byte	-127
 2503 0061 07       		.byte	7
 2504 0062 06       		.byte	6
 2505 0063 82       		.byte	-126
 2506 0064 82       		.byte	-126
 2507 0065 10       		.byte	16
 2508 0066 85       		.byte	-123
 2509 0067 02       		.byte	2
 2510 0068 80       		.byte	-128
 2511 0069 15       		.byte	21
 2512 006a 82       		.byte	-126
 2513 006b 0E       		.byte	14
 2514 006c 81       		.byte	-127
 2515 006d 0C       		.byte	12
 2516 006e 81       		.byte	-127
 2517 006f 26       		.byte	38
 2518 0070 0C       		.byte	12
 2519 0071 07       		.byte	7
 2520 0072 82       		.byte	-126
 2521 0073 0E       		.byte	14
 2522 0074 82       		.byte	-126
 2523 0075 15       		.byte	21
 2524 0076 81       		.byte	-127
 2525 0077 01       		.byte	1
 2526 0078 16       		.byte	22
 2527 0079 81       		.byte	-127
 2528 007a 17       		.byte	23
 2529 007b 81       		.byte	-127
 2530 007c 01       		.byte	1
 2531 007d 80       		.byte	-128
 2532 007e 0B       		.byte	11
 2533 007f 84       		.byte	-124
 2534 0080 12       		.byte	18
 2535 0081 87       		.byte	-121
 2536 0082 10       		.byte	16
 2537 0083 82       		.byte	-126
 2538 0084 08       		.byte	8
 2539 0085 8B       		.byte	-117
 2540 0086 1D       		.byte	29
 2541 0087 11       		.byte	17
 2542 0088 1E       		.byte	30
 2543 0089 80       		.byte	-128
 2544 008a 02       		.byte	2
 2545 008b 0F       		.byte	15
 2546 008c 04       		.byte	4
 2547 008d 06       		.byte	6
 2548 008e 81       		.byte	-127
 2549 008f 01       		.byte	1
 2550 0090 12       		.byte	18
 2551 0091 17       		.byte	23
 2552 0092 0D       		.byte	13
 2553 0093 82       		.byte	-126
ARM GAS  /tmp/ccTrZbnH.s 			page 46


 2554 0094 01       		.byte	1
 2555 0095 80       		.byte	-128
 2556 0096 01       		.byte	1
 2557 0097 17       		.byte	23
 2558 0098 81       		.byte	-127
 2559 0099 15       		.byte	21
 2560 009a 03       		.byte	3
 2561 009b 41       		.byte	65
 2562 009c 0E       		.byte	14
 2563 009d 00       		.byte	0
 2564 009e BC       		.byte	-68
 2565 009f 56       		.byte	86
 2566 00a0 31       		.byte	49
 2567 00a1 31       		.byte	49
 2568 00a2 31       		.byte	49
 2569 00a3 31       		.byte	49
 2570 00a4 31       		.byte	49
 2571 00a5 37       		.byte	55
 2572 00a6 3D       		.byte	61
 2573 00a7 45       		.byte	69
 2574 00a8 47       		.byte	71
 2575 00a9 47       		.byte	71
 2576 00aa 47       		.byte	71
 2577 00ab 47       		.byte	71
 2578 00ac 47       		.byte	71
 2579 00ad 1D       		.byte	29
 2580 00ae 36       		.byte	54
 2581 00af 2D       		.byte	45
 2582 00b0 2F       		.byte	47
 2583 00b1 44       		.byte	68
 2584 00b2 30       		.byte	48
 2585 00b3 2C       		.byte	44
 2586 00b4 18       		.byte	24
 2587 00b5 2C       		.byte	44
 2588 00b6 1B       		.byte	27
 2589 00b7 51       		.byte	81
 2590 00b8 1B       		.byte	27
 2591 00b9 D4       		.byte	-44
 2592 00ba C5       		.byte	-59
 2593 00bb 2D       		.byte	45
 2594 00bc 25       		.byte	37
 2595 00bd 9C       		.byte	-100
 2596 00be 4A       		.byte	74
 2597 00bf 4A       		.byte	74
 2598 00c0 3B       		.byte	59
 2599 00c1 29       		.byte	41
 2600 00c2 36       		.byte	54
 2601 00c3 C7       		.byte	-57
 2602 00c4 27       		.byte	39
 2603 00c5 47       		.byte	71
 2604 00c6 47       		.byte	71
 2605 00c7 47       		.byte	71
 2606 00c8 5A       		.byte	90
 2607 00c9 27       		.byte	39
 2608 00ca 47       		.byte	71
 2609 00cb 37       		.byte	55
 2610 00cc 1F       		.byte	31
ARM GAS  /tmp/ccTrZbnH.s 			page 47


 2611 00cd 2E       		.byte	46
 2612 00ce 31       		.byte	49
 2613 00cf EB       		.byte	-21
 2614 00d0 A4       		.byte	-92
 2615 00d1 23       		.byte	35
 2616 00d2 C0       		.byte	-64
 2617 00d3 2A       		.byte	42
 2618 00d4 36       		.byte	54
 2619 00d5 22       		.byte	34
 2620 00d6 50       		.byte	80
 2621 00d7 1A       		.byte	26
 2622 00d8 1D       		.byte	29
 2623 00d9 27       		.byte	39
 2624 00da D0       		.byte	-48
 2625 00db 54       		.byte	84
 2626 00dc 1A       		.byte	26
 2627 00dd 4D       		.byte	77
 2628 00de 31       		.byte	49
 2629 00df 00       		.byte	0
 2630 00e0 C7       		.byte	-57
 2631 00e1 9C       		.byte	-100
 2632 00e2 43       		.byte	67
 2633 00e3 3C       		.byte	60
 2634 00e4 2E       		.byte	46
 2635 00e5 37       		.byte	55
 2636 00e6 1F       		.byte	31
 2637 00e7 2E       		.byte	46
 2638 00e8 00       		.byte	0
 2639 00e9 C7       		.byte	-57
 2640 00ea 9C       		.byte	-100
 2641 00eb 45       		.byte	69
 2642 00ec 47       		.byte	71
 2643 00ed 29       		.byte	41
 2644 00ee CA       		.byte	-54
 2645 00ef 54       		.byte	84
 2646 00f0 00       		.byte	0
 2647 00f1 9C       		.byte	-100
 2648 00f2 4A       		.byte	74
 2649 00f3 41       		.byte	65
 2650 00f4 33       		.byte	51
 2651 00f5 48       		.byte	72
 2652 00f6 53       		.byte	83
 2653 00f7 47       		.byte	71
 2654 00f8 47       		.byte	71
 2655 00f9 47       		.byte	71
 2656 00fa 2C       		.byte	44
 2657 00fb 48       		.byte	72
 2658 00fc 2C       		.byte	44
 2659 00fd 48       		.byte	72
 2660 00fe B4       		.byte	-76
 2661 00ff C4       		.byte	-60
 2662 0100 90       		.byte	-112
 2663 0101 34       		.byte	52
 2664 0102 34       		.byte	52
 2665 0103 C4       		.byte	-60
 2666 0104 3C       		.byte	60
 2667 0105 C7       		.byte	-57
ARM GAS  /tmp/ccTrZbnH.s 			page 48


 2668 0106 90       		.byte	-112
 2669 0107 5A       		.byte	90
 2670 0108 3B       		.byte	59
 2671 0109 3A       		.byte	58
 2672 010a DC       		.byte	-36
 2673 010b 53       		.byte	83
 2674 010c 47       		.byte	71
 2675 010d 46       		.byte	70
 2676 010e 40       		.byte	64
 2677 010f 44       		.byte	68
 2678 0110 1C       		.byte	28
 2679 0111 4A       		.byte	74
 2680 0112 C7       		.byte	-57
 2681 0113 A2       		.byte	-94
 2682 0114 9C       		.byte	-100
 2683 0115 9C       		.byte	-100
 2684 0116 52       		.byte	82
 2685 0117 3A       		.byte	58
 2686 0118 51       		.byte	81
 2687 0119 1B       		.byte	27
 2688 011a 56       		.byte	86
 2689 011b 31       		.byte	49
 2690 011c 31       		.byte	49
 2691 011d 31       		.byte	49
 2692 011e 31       		.byte	49
 2693 011f 37       		.byte	55
 2694 0120 00       		.byte	0
 2695 0121 1C       		.byte	28
 2696 0122 47       		.byte	71
 2697 0123 EA       		.byte	-22
 2698 0124 2B       		.byte	43
 2699 0125 C7       		.byte	-57
 2700 0126 2D       		.byte	45
 2701 0127 2F       		.byte	47
 2702 0128 2D       		.byte	45
 2703 0129 B4       		.byte	-76
 2704 012a 20       		.byte	32
 2705 012b 39       		.byte	57
 2706 012c 51       		.byte	81
 2707 012d 24       		.byte	36
 2708 012e F2       		.byte	-14
 2709 012f 1A       		.byte	26
 2710 0130 55       		.byte	85
 2711 0131 00       		.byte	0
 2712 0132 9C       		.byte	-100
 2713 0133 5A       		.byte	90
 2714 0134 9C       		.byte	-100
 2715 0135 56       		.byte	86
 2716 0136 31       		.byte	49
 2717 0137 31       		.byte	49
 2718 0138 31       		.byte	49
 2719 0139 31       		.byte	49
 2720 013a FE       		.byte	-2
 2721 013b C5       		.byte	-59
 2722 013c 9C       		.byte	-100
 2723 013d 2A       		.byte	42
 2724 013e C0       		.byte	-64
ARM GAS  /tmp/ccTrZbnH.s 			page 49


 2725 013f 93       		.byte	-109
 2726 0140 39       		.byte	57
 2727 0141 B4       		.byte	-76
 2728 0142 90       		.byte	-112
 2729 0143 27       		.byte	39
 2730 0144 25       		.byte	37
 2731 0145 1D       		.byte	29
 2732 0146 3C       		.byte	60
 2733 0147 39       		.byte	57
 2734 0148 D3       		.byte	-45
 2735 0149 39       		.byte	57
 2736 014a 3A       		.byte	58
 2737 014b E3       		.byte	-29
 2738 014c 45       		.byte	69
 2739 014d 20       		.byte	32
 2740 014e 2A       		.byte	42
 2741 014f FC       		.byte	-4
 2742 0150 C7       		.byte	-57
 2743 0151 1D       		.byte	29
 2744 0152 9C       		.byte	-100
 2745 0153 38       		.byte	56
 2746 0154 BF       		.byte	-65
 2747 0155 27       		.byte	39
 2748 0156 5A       		.byte	90
 2749 0157 3A       		.byte	58
 2750 0158 43       		.byte	67
 2751 0159 9C       		.byte	-100
 2752 015a BC       		.byte	-68
 2753 015b 25       		.byte	37
 2754 015c 2B       		.byte	43
 2755 015d 22       		.byte	34
 2756 015e 1C       		.byte	28
 2757 015f 47       		.byte	71
 2758 0160 C2       		.byte	-62
 2759 0161 39       		.byte	57
 2760 0162 E3       		.byte	-29
 2761 0163 1D       		.byte	29
 2762 0164 A2       		.byte	-94
 2763 0165 BC       		.byte	-68
 2764 0166 45       		.byte	69
 2765 0167 1F       		.byte	31
 2766 0168 45       		.byte	69
 2767 0169 1C       		.byte	28
 2768 016a FD       		.byte	-3
 2769 016b 55       		.byte	85
 2770 016c 0F       		.byte	15
 2771 016d B5       		.byte	-75
 2772 016e 27       		.byte	39
 2773 016f CA       		.byte	-54
 2774 0170 54       		.byte	84
 2775 0171 9F       		.byte	-97
 2776 0172 90       		.byte	-112
 2777 0173 00       		.byte	0
 2778 0174 27       		.byte	39
 2779 0175 22       		.byte	34
 2780 0176 4D       		.byte	77
 2781 0177 20       		.byte	32
ARM GAS  /tmp/ccTrZbnH.s 			page 50


 2782 0178 43       		.byte	67
 2783 0179 5B       		.byte	91
 2784 017a 1A       		.byte	26
 2785 017b 3E       		.byte	62
 2786 017c 36       		.byte	54
 2787 017d 50       		.byte	80
 2788 017e 56       		.byte	86
 2789 017f 5B       		.byte	91
 2790 0180 C2       		.byte	-62
 2791 0181 90       		.byte	-112
 2792 0182 3B       		.byte	59
 2793 0183 3A       		.byte	58
 2794 0184 2A       		.byte	42
 2795 0185 F0       		.byte	-16
 2796 0186 2D       		.byte	45
 2797 0187 34       		.byte	52
 2798 0188 3D       		.byte	61
 2799 0189 F0       		.byte	-16
 2800 018a 54       		.byte	84
 2801 018b 00       		.text
 2802              	.Letext0:
 2803              		.file 3 "/home/matt/arm_cortex/gcc-arm-none-eabi/bin/../lib/gcc/arm-none-eabi/4.7.4/../../../../ar
 2804              		.file 4 "/home/matt/arm_cortex/ChibiOS/ext/ugfx/src/gdisp/mcufont/mf_font.h"
 2805              		.file 5 "/home/matt/arm_cortex/ChibiOS/ext/ugfx/src/gdisp/mcufont/mf_encoding.h"
 2806              		.file 6 "/home/matt/arm_cortex/ChibiOS/ext/ugfx/src/gdisp/mcufont/mf_rlefont.h"
 2807              		.section	.debug_info,"",%progbits
 2808              	.Ldebug_info0:
 2809 0000 07060000 		.4byte	0x607
 2810 0004 0200     		.2byte	0x2
 2811 0006 00000000 		.4byte	.Ldebug_abbrev0
 2812 000a 04       		.byte	0x4
 2813 000b 01       		.uleb128 0x1
 2814 000c C8000000 		.4byte	.LASF60
 2815 0010 01       		.byte	0x1
 2816 0011 92030000 		.4byte	.LASF61
 2817 0015 00000000 		.4byte	.Ldebug_ranges0+0
 2818 0019 00000000 		.4byte	0
 2819 001d 00000000 		.4byte	0
 2820 0021 00000000 		.4byte	.Ldebug_line0
 2821 0025 02       		.uleb128 0x2
 2822 0026 04       		.byte	0x4
 2823 0027 05       		.byte	0x5
 2824 0028 696E7400 		.ascii	"int\000"
 2825 002c 03       		.uleb128 0x3
 2826 002d 04       		.byte	0x4
 2827 002e 07       		.byte	0x7
 2828 002f 4C020000 		.4byte	.LASF0
 2829 0033 03       		.uleb128 0x3
 2830 0034 01       		.byte	0x1
 2831 0035 06       		.byte	0x6
 2832 0036 1C020000 		.4byte	.LASF1
 2833 003a 04       		.uleb128 0x4
 2834 003b 1F010000 		.4byte	.LASF3
 2835 003f 03       		.byte	0x3
 2836 0040 2A       		.byte	0x2a
 2837 0041 45000000 		.4byte	0x45
 2838 0045 03       		.uleb128 0x3
ARM GAS  /tmp/ccTrZbnH.s 			page 51


 2839 0046 01       		.byte	0x1
 2840 0047 08       		.byte	0x8
 2841 0048 0E020000 		.4byte	.LASF2
 2842 004c 04       		.uleb128 0x4
 2843 004d C1020000 		.4byte	.LASF4
 2844 0051 03       		.byte	0x3
 2845 0052 35       		.byte	0x35
 2846 0053 57000000 		.4byte	0x57
 2847 0057 03       		.uleb128 0x3
 2848 0058 02       		.byte	0x2
 2849 0059 05       		.byte	0x5
 2850 005a 9D000000 		.4byte	.LASF5
 2851 005e 04       		.uleb128 0x4
 2852 005f 68020000 		.4byte	.LASF6
 2853 0063 03       		.byte	0x3
 2854 0064 36       		.byte	0x36
 2855 0065 69000000 		.4byte	0x69
 2856 0069 03       		.uleb128 0x3
 2857 006a 02       		.byte	0x2
 2858 006b 07       		.byte	0x7
 2859 006c 9A020000 		.4byte	.LASF7
 2860 0070 03       		.uleb128 0x3
 2861 0071 04       		.byte	0x4
 2862 0072 05       		.byte	0x5
 2863 0073 B6010000 		.4byte	.LASF8
 2864 0077 03       		.uleb128 0x3
 2865 0078 04       		.byte	0x4
 2866 0079 07       		.byte	0x7
 2867 007a FA020000 		.4byte	.LASF9
 2868 007e 03       		.uleb128 0x3
 2869 007f 08       		.byte	0x8
 2870 0080 05       		.byte	0x5
 2871 0081 98010000 		.4byte	.LASF10
 2872 0085 03       		.uleb128 0x3
 2873 0086 08       		.byte	0x8
 2874 0087 07       		.byte	0x7
 2875 0088 2E020000 		.4byte	.LASF11
 2876 008c 03       		.uleb128 0x3
 2877 008d 01       		.byte	0x1
 2878 008e 02       		.byte	0x2
 2879 008f C9020000 		.4byte	.LASF12
 2880 0093 05       		.uleb128 0x5
 2881 0094 04       		.byte	0x4
 2882 0095 03       		.uleb128 0x3
 2883 0096 04       		.byte	0x4
 2884 0097 07       		.byte	0x7
 2885 0098 BF000000 		.4byte	.LASF13
 2886 009c 06       		.uleb128 0x6
 2887 009d 04       		.byte	0x4
 2888 009e A2000000 		.4byte	0xa2
 2889 00a2 07       		.uleb128 0x7
 2890 00a3 A7000000 		.4byte	0xa7
 2891 00a7 03       		.uleb128 0x3
 2892 00a8 01       		.byte	0x1
 2893 00a9 08       		.byte	0x8
 2894 00aa 7F020000 		.4byte	.LASF14
 2895 00ae 06       		.uleb128 0x6
ARM GAS  /tmp/ccTrZbnH.s 			page 52


 2896 00af 04       		.byte	0x4
 2897 00b0 B4000000 		.4byte	0xb4
 2898 00b4 07       		.uleb128 0x7
 2899 00b5 3A000000 		.4byte	0x3a
 2900 00b9 06       		.uleb128 0x6
 2901 00ba 04       		.byte	0x4
 2902 00bb BF000000 		.4byte	0xbf
 2903 00bf 07       		.uleb128 0x7
 2904 00c0 C4000000 		.4byte	0xc4
 2905 00c4 08       		.uleb128 0x8
 2906 00c5 57010000 		.4byte	.LASF30
 2907 00c9 1C       		.byte	0x1c
 2908 00ca 04       		.byte	0x4
 2909 00cb 1D       		.byte	0x1d
 2910 00cc 87010000 		.4byte	0x187
 2911 00d0 09       		.uleb128 0x9
 2912 00d1 E1010000 		.4byte	.LASF15
 2913 00d5 04       		.byte	0x4
 2914 00d6 20       		.byte	0x20
 2915 00d7 9C000000 		.4byte	0x9c
 2916 00db 02       		.byte	0x2
 2917 00dc 23       		.byte	0x23
 2918 00dd 00       		.uleb128 0
 2919 00de 09       		.uleb128 0x9
 2920 00df EB010000 		.4byte	.LASF16
 2921 00e3 04       		.byte	0x4
 2922 00e4 23       		.byte	0x23
 2923 00e5 9C000000 		.4byte	0x9c
 2924 00e9 02       		.byte	0x2
 2925 00ea 23       		.byte	0x23
 2926 00eb 04       		.uleb128 0x4
 2927 00ec 09       		.uleb128 0x9
 2928 00ed 86010000 		.4byte	.LASF17
 2929 00f1 04       		.byte	0x4
 2930 00f2 26       		.byte	0x26
 2931 00f3 3A000000 		.4byte	0x3a
 2932 00f7 02       		.byte	0x2
 2933 00f8 23       		.byte	0x23
 2934 00f9 08       		.uleb128 0x8
 2935 00fa 09       		.uleb128 0x9
 2936 00fb 45020000 		.4byte	.LASF18
 2937 00ff 04       		.byte	0x4
 2938 0100 27       		.byte	0x27
 2939 0101 3A000000 		.4byte	0x3a
 2940 0105 02       		.byte	0x2
 2941 0106 23       		.byte	0x23
 2942 0107 09       		.uleb128 0x9
 2943 0108 09       		.uleb128 0x9
 2944 0109 61010000 		.4byte	.LASF19
 2945 010d 04       		.byte	0x4
 2946 010e 2A       		.byte	0x2a
 2947 010f 3A000000 		.4byte	0x3a
 2948 0113 02       		.byte	0x2
 2949 0114 23       		.byte	0x23
 2950 0115 0A       		.uleb128 0xa
 2951 0116 09       		.uleb128 0x9
 2952 0117 71020000 		.4byte	.LASF20
ARM GAS  /tmp/ccTrZbnH.s 			page 53


 2953 011b 04       		.byte	0x4
 2954 011c 2B       		.byte	0x2b
 2955 011d 3A000000 		.4byte	0x3a
 2956 0121 02       		.byte	0x2
 2957 0122 23       		.byte	0x23
 2958 0123 0B       		.uleb128 0xb
 2959 0124 09       		.uleb128 0x9
 2960 0125 84020000 		.4byte	.LASF21
 2961 0129 04       		.byte	0x4
 2962 012a 2E       		.byte	0x2e
 2963 012b 3A000000 		.4byte	0x3a
 2964 012f 02       		.byte	0x2
 2965 0130 23       		.byte	0x23
 2966 0131 0C       		.uleb128 0xc
 2967 0132 09       		.uleb128 0x9
 2968 0133 8F020000 		.4byte	.LASF22
 2969 0137 04       		.byte	0x4
 2970 0138 2F       		.byte	0x2f
 2971 0139 3A000000 		.4byte	0x3a
 2972 013d 02       		.byte	0x2
 2973 013e 23       		.byte	0x23
 2974 013f 0D       		.uleb128 0xd
 2975 0140 09       		.uleb128 0x9
 2976 0141 28030000 		.4byte	.LASF23
 2977 0145 04       		.byte	0x4
 2978 0146 32       		.byte	0x32
 2979 0147 3A000000 		.4byte	0x3a
 2980 014b 02       		.byte	0x2
 2981 014c 23       		.byte	0x23
 2982 014d 0E       		.uleb128 0xe
 2983 014e 09       		.uleb128 0x9
 2984 014f 28020000 		.4byte	.LASF24
 2985 0153 04       		.byte	0x4
 2986 0154 35       		.byte	0x35
 2987 0155 3A000000 		.4byte	0x3a
 2988 0159 02       		.byte	0x2
 2989 015a 23       		.byte	0x23
 2990 015b 0F       		.uleb128 0xf
 2991 015c 09       		.uleb128 0x9
 2992 015d 42030000 		.4byte	.LASF25
 2993 0161 04       		.byte	0x4
 2994 0162 38       		.byte	0x38
 2995 0163 87010000 		.4byte	0x187
 2996 0167 02       		.byte	0x2
 2997 0168 23       		.byte	0x23
 2998 0169 10       		.uleb128 0x10
 2999 016a 09       		.uleb128 0x9
 3000 016b 5A030000 		.4byte	.LASF26
 3001 016f 04       		.byte	0x4
 3002 0170 3C       		.byte	0x3c
 3003 0171 D8010000 		.4byte	0x1d8
 3004 0175 02       		.byte	0x2
 3005 0176 23       		.byte	0x23
 3006 0177 14       		.uleb128 0x14
 3007 0178 09       		.uleb128 0x9
 3008 0179 FB000000 		.4byte	.LASF27
 3009 017d 04       		.byte	0x4
ARM GAS  /tmp/ccTrZbnH.s 			page 54


 3010 017e 40       		.byte	0x40
 3011 017f 07020000 		.4byte	0x207
 3012 0183 02       		.byte	0x2
 3013 0184 23       		.byte	0x23
 3014 0185 18       		.uleb128 0x18
 3015 0186 00       		.byte	0
 3016 0187 04       		.uleb128 0x4
 3017 0188 27010000 		.4byte	.LASF28
 3018 018c 05       		.byte	0x5
 3019 018d 16       		.byte	0x16
 3020 018e A7000000 		.4byte	0xa7
 3021 0192 04       		.uleb128 0x4
 3022 0193 AD020000 		.4byte	.LASF29
 3023 0197 04       		.byte	0x4
 3024 0198 19       		.byte	0x19
 3025 0199 9D010000 		.4byte	0x19d
 3026 019d 06       		.uleb128 0x6
 3027 019e 04       		.byte	0x4
 3028 019f A3010000 		.4byte	0x1a3
 3029 01a3 0A       		.uleb128 0xa
 3030 01a4 01       		.byte	0x1
 3031 01a5 C3010000 		.4byte	0x1c3
 3032 01a9 0B       		.uleb128 0xb
 3033 01aa 4C000000 		.4byte	0x4c
 3034 01ae 0B       		.uleb128 0xb
 3035 01af 4C000000 		.4byte	0x4c
 3036 01b3 0B       		.uleb128 0xb
 3037 01b4 3A000000 		.4byte	0x3a
 3038 01b8 0B       		.uleb128 0xb
 3039 01b9 3A000000 		.4byte	0x3a
 3040 01bd 0B       		.uleb128 0xb
 3041 01be 93000000 		.4byte	0x93
 3042 01c2 00       		.byte	0
 3043 01c3 0C       		.uleb128 0xc
 3044 01c4 01       		.byte	0x1
 3045 01c5 3A000000 		.4byte	0x3a
 3046 01c9 D8010000 		.4byte	0x1d8
 3047 01cd 0B       		.uleb128 0xb
 3048 01ce B9000000 		.4byte	0xb9
 3049 01d2 0B       		.uleb128 0xb
 3050 01d3 87010000 		.4byte	0x187
 3051 01d7 00       		.byte	0
 3052 01d8 06       		.uleb128 0x6
 3053 01d9 04       		.byte	0x4
 3054 01da C3010000 		.4byte	0x1c3
 3055 01de 0C       		.uleb128 0xc
 3056 01df 01       		.byte	0x1
 3057 01e0 3A000000 		.4byte	0x3a
 3058 01e4 07020000 		.4byte	0x207
 3059 01e8 0B       		.uleb128 0xb
 3060 01e9 B9000000 		.4byte	0xb9
 3061 01ed 0B       		.uleb128 0xb
 3062 01ee 4C000000 		.4byte	0x4c
 3063 01f2 0B       		.uleb128 0xb
 3064 01f3 4C000000 		.4byte	0x4c
 3065 01f7 0B       		.uleb128 0xb
 3066 01f8 87010000 		.4byte	0x187
ARM GAS  /tmp/ccTrZbnH.s 			page 55


 3067 01fc 0B       		.uleb128 0xb
 3068 01fd 92010000 		.4byte	0x192
 3069 0201 0B       		.uleb128 0xb
 3070 0202 93000000 		.4byte	0x93
 3071 0206 00       		.byte	0
 3072 0207 06       		.uleb128 0x6
 3073 0208 04       		.byte	0x4
 3074 0209 DE010000 		.4byte	0x1de
 3075 020d 08       		.uleb128 0x8
 3076 020e 59020000 		.4byte	.LASF31
 3077 0212 08       		.byte	0x8
 3078 0213 04       		.byte	0x4
 3079 0214 4C       		.byte	0x4c
 3080 0215 36020000 		.4byte	0x236
 3081 0219 09       		.uleb128 0x9
 3082 021a F8030000 		.4byte	.LASF32
 3083 021e 04       		.byte	0x4
 3084 021f 4E       		.byte	0x4e
 3085 0220 36020000 		.4byte	0x236
 3086 0224 02       		.byte	0x2
 3087 0225 23       		.byte	0x23
 3088 0226 00       		.uleb128 0
 3089 0227 09       		.uleb128 0x9
 3090 0228 74000000 		.4byte	.LASF33
 3091 022c 04       		.byte	0x4
 3092 022d 4F       		.byte	0x4f
 3093 022e B9000000 		.4byte	0xb9
 3094 0232 02       		.byte	0x2
 3095 0233 23       		.byte	0x23
 3096 0234 04       		.uleb128 0x4
 3097 0235 00       		.byte	0
 3098 0236 06       		.uleb128 0x6
 3099 0237 04       		.byte	0x4
 3100 0238 3C020000 		.4byte	0x23c
 3101 023c 07       		.uleb128 0x7
 3102 023d 0D020000 		.4byte	0x20d
 3103 0241 08       		.uleb128 0x8
 3104 0242 BF010000 		.4byte	.LASF34
 3105 0246 0C       		.byte	0xc
 3106 0247 06       		.byte	0x6
 3107 0248 17       		.byte	0x17
 3108 0249 86020000 		.4byte	0x286
 3109 024d 09       		.uleb128 0x9
 3110 024e 3E000000 		.4byte	.LASF35
 3111 0252 06       		.byte	0x6
 3112 0253 1A       		.byte	0x1a
 3113 0254 5E000000 		.4byte	0x5e
 3114 0258 02       		.byte	0x2
 3115 0259 23       		.byte	0x23
 3116 025a 00       		.uleb128 0
 3117 025b 09       		.uleb128 0x9
 3118 025c 0C030000 		.4byte	.LASF36
 3119 0260 06       		.byte	0x6
 3120 0261 1D       		.byte	0x1d
 3121 0262 5E000000 		.4byte	0x5e
 3122 0266 02       		.byte	0x2
 3123 0267 23       		.byte	0x23
ARM GAS  /tmp/ccTrZbnH.s 			page 56


 3124 0268 02       		.uleb128 0x2
 3125 0269 09       		.uleb128 0x9
 3126 026a 34030000 		.4byte	.LASF37
 3127 026e 06       		.byte	0x6
 3128 026f 20       		.byte	0x20
 3129 0270 86020000 		.4byte	0x286
 3130 0274 02       		.byte	0x2
 3131 0275 23       		.byte	0x23
 3132 0276 04       		.uleb128 0x4
 3133 0277 09       		.uleb128 0x9
 3134 0278 03020000 		.4byte	.LASF38
 3135 027c 06       		.byte	0x6
 3136 027d 23       		.byte	0x23
 3137 027e AE000000 		.4byte	0xae
 3138 0282 02       		.byte	0x2
 3139 0283 23       		.byte	0x23
 3140 0284 08       		.uleb128 0x8
 3141 0285 00       		.byte	0
 3142 0286 06       		.uleb128 0x6
 3143 0287 04       		.byte	0x4
 3144 0288 8C020000 		.4byte	0x28c
 3145 028c 07       		.uleb128 0x7
 3146 028d 5E000000 		.4byte	0x5e
 3147 0291 08       		.uleb128 0x8
 3148 0292 F6010000 		.4byte	.LASF39
 3149 0296 30       		.byte	0x30
 3150 0297 06       		.byte	0x6
 3151 0298 27       		.byte	0x27
 3152 0299 0E030000 		.4byte	0x30e
 3153 029d 09       		.uleb128 0x9
 3154 029e 74000000 		.4byte	.LASF33
 3155 02a2 06       		.byte	0x6
 3156 02a3 29       		.byte	0x29
 3157 02a4 C4000000 		.4byte	0xc4
 3158 02a8 02       		.byte	0x2
 3159 02a9 23       		.byte	0x23
 3160 02aa 00       		.uleb128 0
 3161 02ab 09       		.uleb128 0x9
 3162 02ac 36000000 		.4byte	.LASF40
 3163 02b0 06       		.byte	0x6
 3164 02b1 2C       		.byte	0x2c
 3165 02b2 B4000000 		.4byte	0xb4
 3166 02b6 02       		.byte	0x2
 3167 02b7 23       		.byte	0x23
 3168 02b8 1C       		.uleb128 0x1c
 3169 02b9 09       		.uleb128 0x9
 3170 02ba D5030000 		.4byte	.LASF41
 3171 02be 06       		.byte	0x6
 3172 02bf 2F       		.byte	0x2f
 3173 02c0 AE000000 		.4byte	0xae
 3174 02c4 02       		.byte	0x2
 3175 02c5 23       		.byte	0x23
 3176 02c6 20       		.uleb128 0x20
 3177 02c7 09       		.uleb128 0x9
 3178 02c8 0C010000 		.4byte	.LASF42
 3179 02cc 06       		.byte	0x6
 3180 02cd 34       		.byte	0x34
ARM GAS  /tmp/ccTrZbnH.s 			page 57


 3181 02ce 86020000 		.4byte	0x286
 3182 02d2 02       		.byte	0x2
 3183 02d3 23       		.byte	0x23
 3184 02d4 24       		.uleb128 0x24
 3185 02d5 09       		.uleb128 0x9
 3186 02d6 A6010000 		.4byte	.LASF43
 3187 02da 06       		.byte	0x6
 3188 02db 38       		.byte	0x38
 3189 02dc B4000000 		.4byte	0xb4
 3190 02e0 02       		.byte	0x2
 3191 02e1 23       		.byte	0x23
 3192 02e2 28       		.uleb128 0x28
 3193 02e3 09       		.uleb128 0x9
 3194 02e4 EA000000 		.4byte	.LASF44
 3195 02e8 06       		.byte	0x6
 3196 02e9 3C       		.byte	0x3c
 3197 02ea B4000000 		.4byte	0xb4
 3198 02ee 02       		.byte	0x2
 3199 02ef 23       		.byte	0x23
 3200 02f0 29       		.uleb128 0x29
 3201 02f1 09       		.uleb128 0x9
 3202 02f2 17030000 		.4byte	.LASF45
 3203 02f6 06       		.byte	0x6
 3204 02f7 3F       		.byte	0x3f
 3205 02f8 B4000000 		.4byte	0xb4
 3206 02fc 02       		.byte	0x2
 3207 02fd 23       		.byte	0x23
 3208 02fe 2A       		.uleb128 0x2a
 3209 02ff 09       		.uleb128 0x9
 3210 0300 8C010000 		.4byte	.LASF46
 3211 0304 06       		.byte	0x6
 3212 0305 42       		.byte	0x42
 3213 0306 0E030000 		.4byte	0x30e
 3214 030a 02       		.byte	0x2
 3215 030b 23       		.byte	0x23
 3216 030c 2C       		.uleb128 0x2c
 3217 030d 00       		.byte	0
 3218 030e 06       		.uleb128 0x6
 3219 030f 04       		.byte	0x4
 3220 0310 14030000 		.4byte	0x314
 3221 0314 07       		.uleb128 0x7
 3222 0315 41020000 		.4byte	0x241
 3223 0319 0D       		.uleb128 0xd
 3224 031a 6F010000 		.4byte	.LASF62
 3225 031e 01       		.byte	0x1
 3226 031f 36       		.byte	0x36
 3227 0320 01       		.byte	0x1
 3228 0321 8C000000 		.4byte	0x8c
 3229 0325 01       		.byte	0x1
 3230 0326 3D030000 		.4byte	0x33d
 3231 032a 0E       		.uleb128 0xe
 3232 032b 6100     		.ascii	"a\000"
 3233 032d 01       		.byte	0x1
 3234 032e 36       		.byte	0x36
 3235 032f 9C000000 		.4byte	0x9c
 3236 0333 0E       		.uleb128 0xe
 3237 0334 6200     		.ascii	"b\000"
ARM GAS  /tmp/ccTrZbnH.s 			page 58


 3238 0336 01       		.byte	0x1
 3239 0337 36       		.byte	0x36
 3240 0338 9C000000 		.4byte	0x9c
 3241 033c 00       		.byte	0
 3242 033d 0F       		.uleb128 0xf
 3243 033e 01       		.byte	0x1
 3244 033f 22000000 		.4byte	.LASF50
 3245 0343 01       		.byte	0x1
 3246 0344 15       		.byte	0x15
 3247 0345 01       		.byte	0x1
 3248 0346 3A000000 		.4byte	0x3a
 3249 034a 00000000 		.4byte	.LFB40
 3250 034e 34000000 		.4byte	.LFE40
 3251 0352 00000000 		.4byte	.LLST0
 3252 0356 01       		.byte	0x1
 3253 0357 1B040000 		.4byte	0x41b
 3254 035b 10       		.uleb128 0x10
 3255 035c 74000000 		.4byte	.LASF33
 3256 0360 01       		.byte	0x1
 3257 0361 15       		.byte	0x15
 3258 0362 B9000000 		.4byte	0xb9
 3259 0366 2C000000 		.4byte	.LLST1
 3260 036a 11       		.uleb128 0x11
 3261 036b 783000   		.ascii	"x0\000"
 3262 036e 01       		.byte	0x1
 3263 036f 16       		.byte	0x16
 3264 0370 4C000000 		.4byte	0x4c
 3265 0374 58000000 		.4byte	.LLST2
 3266 0378 11       		.uleb128 0x11
 3267 0379 793000   		.ascii	"y0\000"
 3268 037c 01       		.byte	0x1
 3269 037d 16       		.byte	0x16
 3270 037e 4C000000 		.4byte	0x4c
 3271 0382 79000000 		.4byte	.LLST3
 3272 0386 10       		.uleb128 0x10
 3273 0387 D7010000 		.4byte	.LASF47
 3274 038b 01       		.byte	0x1
 3275 038c 17       		.byte	0x17
 3276 038d 87010000 		.4byte	0x187
 3277 0391 9A000000 		.4byte	.LLST4
 3278 0395 12       		.uleb128 0x12
 3279 0396 FD030000 		.4byte	.LASF48
 3280 039a 01       		.byte	0x1
 3281 039b 18       		.byte	0x18
 3282 039c 92010000 		.4byte	0x192
 3283 03a0 02       		.byte	0x2
 3284 03a1 91       		.byte	0x91
 3285 03a2 00       		.sleb128 0
 3286 03a3 12       		.uleb128 0x12
 3287 03a4 6E000000 		.4byte	.LASF49
 3288 03a8 01       		.byte	0x1
 3289 03a9 19       		.byte	0x19
 3290 03aa 93000000 		.4byte	0x93
 3291 03ae 02       		.byte	0x2
 3292 03af 91       		.byte	0x91
 3293 03b0 04       		.sleb128 4
 3294 03b1 13       		.uleb128 0x13
ARM GAS  /tmp/ccTrZbnH.s 			page 59


 3295 03b2 86010000 		.4byte	.LASF17
 3296 03b6 01       		.byte	0x1
 3297 03b7 1B       		.byte	0x1b
 3298 03b8 3A000000 		.4byte	0x3a
 3299 03bc BB000000 		.4byte	.LLST5
 3300 03c0 14       		.uleb128 0x14
 3301 03c1 18000000 		.4byte	.LVL2
 3302 03c5 02       		.byte	0x2
 3303 03c6 77       		.byte	0x77
 3304 03c7 00       		.sleb128 0
 3305 03c8 EF030000 		.4byte	0x3ef
 3306 03cc 15       		.uleb128 0x15
 3307 03cd 01       		.byte	0x1
 3308 03ce 52       		.byte	0x52
 3309 03cf 02       		.byte	0x2
 3310 03d0 75       		.byte	0x75
 3311 03d1 00       		.sleb128 0
 3312 03d2 15       		.uleb128 0x15
 3313 03d3 01       		.byte	0x1
 3314 03d4 51       		.byte	0x51
 3315 03d5 02       		.byte	0x2
 3316 03d6 76       		.byte	0x76
 3317 03d7 00       		.sleb128 0
 3318 03d8 15       		.uleb128 0x15
 3319 03d9 01       		.byte	0x1
 3320 03da 50       		.byte	0x50
 3321 03db 02       		.byte	0x2
 3322 03dc 74       		.byte	0x74
 3323 03dd 00       		.sleb128 0
 3324 03de 15       		.uleb128 0x15
 3325 03df 02       		.byte	0x2
 3326 03e0 7D       		.byte	0x7d
 3327 03e1 04       		.sleb128 4
 3328 03e2 03       		.byte	0x3
 3329 03e3 91       		.byte	0x91
 3330 03e4 04       		.sleb128 4
 3331 03e5 06       		.byte	0x6
 3332 03e6 15       		.uleb128 0x15
 3333 03e7 02       		.byte	0x2
 3334 03e8 7D       		.byte	0x7d
 3335 03e9 00       		.sleb128 0
 3336 03ea 03       		.byte	0x3
 3337 03eb 91       		.byte	0x91
 3338 03ec 00       		.sleb128 0
 3339 03ed 06       		.byte	0x6
 3340 03ee 00       		.byte	0
 3341 03ef 16       		.uleb128 0x16
 3342 03f0 30000000 		.4byte	.LVL4
 3343 03f4 02       		.byte	0x2
 3344 03f5 77       		.byte	0x77
 3345 03f6 00       		.sleb128 0
 3346 03f7 15       		.uleb128 0x15
 3347 03f8 01       		.byte	0x1
 3348 03f9 52       		.byte	0x52
 3349 03fa 02       		.byte	0x2
 3350 03fb 75       		.byte	0x75
 3351 03fc 00       		.sleb128 0
ARM GAS  /tmp/ccTrZbnH.s 			page 60


 3352 03fd 15       		.uleb128 0x15
 3353 03fe 01       		.byte	0x1
 3354 03ff 51       		.byte	0x51
 3355 0400 02       		.byte	0x2
 3356 0401 76       		.byte	0x76
 3357 0402 00       		.sleb128 0
 3358 0403 15       		.uleb128 0x15
 3359 0404 01       		.byte	0x1
 3360 0405 50       		.byte	0x50
 3361 0406 02       		.byte	0x2
 3362 0407 74       		.byte	0x74
 3363 0408 00       		.sleb128 0
 3364 0409 15       		.uleb128 0x15
 3365 040a 02       		.byte	0x2
 3366 040b 7D       		.byte	0x7d
 3367 040c 04       		.sleb128 4
 3368 040d 03       		.byte	0x3
 3369 040e 91       		.byte	0x91
 3370 040f 04       		.sleb128 4
 3371 0410 06       		.byte	0x6
 3372 0411 15       		.uleb128 0x15
 3373 0412 02       		.byte	0x2
 3374 0413 7D       		.byte	0x7d
 3375 0414 00       		.sleb128 0
 3376 0415 03       		.byte	0x3
 3377 0416 91       		.byte	0x91
 3378 0417 00       		.sleb128 0
 3379 0418 06       		.byte	0x6
 3380 0419 00       		.byte	0
 3381 041a 00       		.byte	0
 3382 041b 0F       		.uleb128 0xf
 3383 041c 01       		.byte	0x1
 3384 041d E5030000 		.4byte	.LASF51
 3385 0421 01       		.byte	0x1
 3386 0422 27       		.byte	0x27
 3387 0423 01       		.byte	0x1
 3388 0424 3A000000 		.4byte	0x3a
 3389 0428 00000000 		.4byte	.LFB41
 3390 042c 16000000 		.4byte	.LFE41
 3391 0430 D9000000 		.4byte	.LLST6
 3392 0434 01       		.byte	0x1
 3393 0435 83040000 		.4byte	0x483
 3394 0439 10       		.uleb128 0x10
 3395 043a 74000000 		.4byte	.LASF33
 3396 043e 01       		.byte	0x1
 3397 043f 27       		.byte	0x27
 3398 0440 B9000000 		.4byte	0xb9
 3399 0444 F9000000 		.4byte	.LLST7
 3400 0448 10       		.uleb128 0x10
 3401 0449 D7010000 		.4byte	.LASF47
 3402 044d 01       		.byte	0x1
 3403 044e 28       		.byte	0x28
 3404 044f 87010000 		.4byte	0x187
 3405 0453 25010000 		.4byte	.LLST8
 3406 0457 13       		.uleb128 0x13
 3407 0458 86010000 		.4byte	.LASF17
 3408 045c 01       		.byte	0x1
ARM GAS  /tmp/ccTrZbnH.s 			page 61


 3409 045d 2A       		.byte	0x2a
 3410 045e 3A000000 		.4byte	0x3a
 3411 0462 46010000 		.4byte	.LLST9
 3412 0466 17       		.uleb128 0x17
 3413 0467 08000000 		.4byte	.LVL7
 3414 046b 76040000 		.4byte	0x476
 3415 046f 15       		.uleb128 0x15
 3416 0470 01       		.byte	0x1
 3417 0471 50       		.byte	0x50
 3418 0472 02       		.byte	0x2
 3419 0473 74       		.byte	0x74
 3420 0474 00       		.sleb128 0
 3421 0475 00       		.byte	0
 3422 0476 18       		.uleb128 0x18
 3423 0477 14000000 		.4byte	.LVL9
 3424 047b 15       		.uleb128 0x15
 3425 047c 01       		.byte	0x1
 3426 047d 50       		.byte	0x50
 3427 047e 02       		.byte	0x2
 3428 047f 74       		.byte	0x74
 3429 0480 00       		.sleb128 0
 3430 0481 00       		.byte	0
 3431 0482 00       		.byte	0
 3432 0483 0F       		.uleb128 0xf
 3433 0484 01       		.byte	0x1
 3434 0485 79010000 		.4byte	.LASF52
 3435 0489 01       		.byte	0x1
 3436 048a 40       		.byte	0x40
 3437 048b 01       		.byte	0x1
 3438 048c B9000000 		.4byte	0xb9
 3439 0490 00000000 		.4byte	.LFB43
 3440 0494 4C000000 		.4byte	.LFE43
 3441 0498 64010000 		.4byte	.LLST10
 3442 049c 01       		.byte	0x1
 3443 049d 09050000 		.4byte	0x509
 3444 04a1 10       		.uleb128 0x10
 3445 04a2 55030000 		.4byte	.LASF53
 3446 04a6 01       		.byte	0x1
 3447 04a7 40       		.byte	0x40
 3448 04a8 9C000000 		.4byte	0x9c
 3449 04ac 84010000 		.4byte	.LLST11
 3450 04b0 19       		.uleb128 0x19
 3451 04b1 6600     		.ascii	"f\000"
 3452 04b3 01       		.byte	0x1
 3453 04b4 42       		.byte	0x42
 3454 04b5 36020000 		.4byte	0x236
 3455 04b9 06       		.byte	0x6
 3456 04ba 03       		.byte	0x3
 3457 04bb 00000000 		.4byte	mf_rlefont_DejaVuSans24_listentry
 3458 04bf 9F       		.byte	0x9f
 3459 04c0 1A       		.uleb128 0x1a
 3460 04c1 19030000 		.4byte	0x319
 3461 04c5 06000000 		.4byte	.LBB6
 3462 04c9 18000000 		.4byte	.LBE6
 3463 04cd 01       		.byte	0x1
 3464 04ce 47       		.byte	0x47
 3465 04cf E6040000 		.4byte	0x4e6
ARM GAS  /tmp/ccTrZbnH.s 			page 62


 3466 04d3 1B       		.uleb128 0x1b
 3467 04d4 33030000 		.4byte	0x333
 3468 04d8 BE010000 		.4byte	.LLST12
 3469 04dc 1B       		.uleb128 0x1b
 3470 04dd 2A030000 		.4byte	0x32a
 3471 04e1 E7010000 		.4byte	.LLST13
 3472 04e5 00       		.byte	0
 3473 04e6 1C       		.uleb128 0x1c
 3474 04e7 19030000 		.4byte	0x319
 3475 04eb 18000000 		.4byte	.LBB8
 3476 04ef 28000000 		.4byte	.LBE8
 3477 04f3 01       		.byte	0x1
 3478 04f4 48       		.byte	0x48
 3479 04f5 1B       		.uleb128 0x1b
 3480 04f6 33030000 		.4byte	0x333
 3481 04fa 15020000 		.4byte	.LLST14
 3482 04fe 1B       		.uleb128 0x1b
 3483 04ff 2A030000 		.4byte	0x32a
 3484 0503 33020000 		.4byte	.LLST15
 3485 0507 00       		.byte	0
 3486 0508 00       		.byte	0
 3487 0509 1D       		.uleb128 0x1d
 3488 050a 01       		.byte	0x1
 3489 050b 06040000 		.4byte	.LASF63
 3490 050f 01       		.byte	0x1
 3491 0510 53       		.byte	0x53
 3492 0511 01       		.byte	0x1
 3493 0512 36020000 		.4byte	0x236
 3494 0516 00000000 		.4byte	.LFB44
 3495 051a 08000000 		.4byte	.LFE44
 3496 051e 02       		.byte	0x2
 3497 051f 7D       		.byte	0x7d
 3498 0520 00       		.sleb128 0
 3499 0521 01       		.byte	0x1
 3500 0522 1E       		.uleb128 0x1e
 3501 0523 3A000000 		.4byte	0x3a
 3502 0527 33050000 		.4byte	0x533
 3503 052b 1F       		.uleb128 0x1f
 3504 052c 95000000 		.4byte	0x95
 3505 0530 8A01     		.2byte	0x18a
 3506 0532 00       		.byte	0
 3507 0533 20       		.uleb128 0x20
 3508 0534 6A030000 		.4byte	.LASF54
 3509 0538 02       		.byte	0x2
 3510 0539 0E       		.byte	0xe
 3511 053a 44050000 		.4byte	0x544
 3512 053e 05       		.byte	0x5
 3513 053f 03       		.byte	0x3
 3514 0540 00000000 		.4byte	mf_rlefont_DejaVuSans24_dictionary_data
 3515 0544 07       		.uleb128 0x7
 3516 0545 22050000 		.4byte	0x522
 3517 0549 1E       		.uleb128 0x1e
 3518 054a 5E000000 		.4byte	0x5e
 3519 054e 59050000 		.4byte	0x559
 3520 0552 21       		.uleb128 0x21
 3521 0553 95000000 		.4byte	0x95
 3522 0557 76       		.byte	0x76
ARM GAS  /tmp/ccTrZbnH.s 			page 63


 3523 0558 00       		.byte	0
 3524 0559 20       		.uleb128 0x20
 3525 055a CF020000 		.4byte	.LASF55
 3526 055e 02       		.byte	0x2
 3527 055f 2A       		.byte	0x2a
 3528 0560 6A050000 		.4byte	0x56a
 3529 0564 05       		.byte	0x5
 3530 0565 03       		.byte	0x3
 3531 0566 00000000 		.4byte	mf_rlefont_DejaVuSans24_dictionary_offsets
 3532 056a 07       		.uleb128 0x7
 3533 056b 49050000 		.4byte	0x549
 3534 056f 1E       		.uleb128 0x1e
 3535 0570 3A000000 		.4byte	0x3a
 3536 0574 80050000 		.4byte	0x580
 3537 0578 1F       		.uleb128 0x1f
 3538 0579 95000000 		.4byte	0x95
 3539 057d 5007     		.2byte	0x750
 3540 057f 00       		.byte	0
 3541 0580 20       		.uleb128 0x20
 3542 0581 49000000 		.4byte	.LASF56
 3543 0585 02       		.byte	0x2
 3544 0586 3C       		.byte	0x3c
 3545 0587 91050000 		.4byte	0x591
 3546 058b 05       		.byte	0x5
 3547 058c 03       		.byte	0x3
 3548 058d 00000000 		.4byte	mf_rlefont_DejaVuSans24_glyph_data_0
 3549 0591 07       		.uleb128 0x7
 3550 0592 6F050000 		.4byte	0x56f
 3551 0596 1E       		.uleb128 0x1e
 3552 0597 5E000000 		.4byte	0x5e
 3553 059b A6050000 		.4byte	0x5a6
 3554 059f 21       		.uleb128 0x21
 3555 05a0 95000000 		.4byte	0x95
 3556 05a4 5E       		.byte	0x5e
 3557 05a5 00       		.byte	0
 3558 05a6 20       		.uleb128 0x20
 3559 05a7 2F010000 		.4byte	.LASF57
 3560 05ab 02       		.byte	0x2
 3561 05ac B5       		.byte	0xb5
 3562 05ad B7050000 		.4byte	0x5b7
 3563 05b1 05       		.byte	0x5
 3564 05b2 03       		.byte	0x3
 3565 05b3 00000000 		.4byte	mf_rlefont_DejaVuSans24_glyph_offsets_0
 3566 05b7 07       		.uleb128 0x7
 3567 05b8 96050000 		.4byte	0x596
 3568 05bc 1E       		.uleb128 0x1e
 3569 05bd 41020000 		.4byte	0x241
 3570 05c1 CC050000 		.4byte	0x5cc
 3571 05c5 21       		.uleb128 0x21
 3572 05c6 95000000 		.4byte	0x95
 3573 05ca 00       		.byte	0
 3574 05cb 00       		.byte	0
 3575 05cc 20       		.uleb128 0x20
 3576 05cd 79000000 		.4byte	.LASF58
 3577 05d1 02       		.byte	0x2
 3578 05d2 C4       		.byte	0xc4
 3579 05d3 DD050000 		.4byte	0x5dd
ARM GAS  /tmp/ccTrZbnH.s 			page 64


 3580 05d7 05       		.byte	0x5
 3581 05d8 03       		.byte	0x3
 3582 05d9 00000000 		.4byte	mf_rlefont_DejaVuSans24_char_ranges
 3583 05dd 07       		.uleb128 0x7
 3584 05de BC050000 		.4byte	0x5bc
 3585 05e2 20       		.uleb128 0x20
 3586 05e3 00000000 		.4byte	.LASF59
 3587 05e7 02       		.byte	0x2
 3588 05e8 E3       		.byte	0xe3
 3589 05e9 3C020000 		.4byte	0x23c
 3590 05ed 05       		.byte	0x5
 3591 05ee 03       		.byte	0x3
 3592 05ef 00000000 		.4byte	mf_rlefont_DejaVuSans24_listentry
 3593 05f3 22       		.uleb128 0x22
 3594 05f4 A7000000 		.4byte	.LASF64
 3595 05f8 02       		.byte	0x2
 3596 05f9 C8       		.byte	0xc8
 3597 05fa 05060000 		.4byte	0x605
 3598 05fe 01       		.byte	0x1
 3599 05ff 05       		.byte	0x5
 3600 0600 03       		.byte	0x3
 3601 0601 00000000 		.4byte	mf_rlefont_DejaVuSans24
 3602 0605 07       		.uleb128 0x7
 3603 0606 91020000 		.4byte	0x291
 3604 060a 00       		.byte	0
 3605              		.section	.debug_abbrev,"",%progbits
 3606              	.Ldebug_abbrev0:
 3607 0000 01       		.uleb128 0x1
 3608 0001 11       		.uleb128 0x11
 3609 0002 01       		.byte	0x1
 3610 0003 25       		.uleb128 0x25
 3611 0004 0E       		.uleb128 0xe
 3612 0005 13       		.uleb128 0x13
 3613 0006 0B       		.uleb128 0xb
 3614 0007 03       		.uleb128 0x3
 3615 0008 0E       		.uleb128 0xe
 3616 0009 55       		.uleb128 0x55
 3617 000a 06       		.uleb128 0x6
 3618 000b 11       		.uleb128 0x11
 3619 000c 01       		.uleb128 0x1
 3620 000d 52       		.uleb128 0x52
 3621 000e 01       		.uleb128 0x1
 3622 000f 10       		.uleb128 0x10
 3623 0010 06       		.uleb128 0x6
 3624 0011 00       		.byte	0
 3625 0012 00       		.byte	0
 3626 0013 02       		.uleb128 0x2
 3627 0014 24       		.uleb128 0x24
 3628 0015 00       		.byte	0
 3629 0016 0B       		.uleb128 0xb
 3630 0017 0B       		.uleb128 0xb
 3631 0018 3E       		.uleb128 0x3e
 3632 0019 0B       		.uleb128 0xb
 3633 001a 03       		.uleb128 0x3
 3634 001b 08       		.uleb128 0x8
 3635 001c 00       		.byte	0
 3636 001d 00       		.byte	0
ARM GAS  /tmp/ccTrZbnH.s 			page 65


 3637 001e 03       		.uleb128 0x3
 3638 001f 24       		.uleb128 0x24
 3639 0020 00       		.byte	0
 3640 0021 0B       		.uleb128 0xb
 3641 0022 0B       		.uleb128 0xb
 3642 0023 3E       		.uleb128 0x3e
 3643 0024 0B       		.uleb128 0xb
 3644 0025 03       		.uleb128 0x3
 3645 0026 0E       		.uleb128 0xe
 3646 0027 00       		.byte	0
 3647 0028 00       		.byte	0
 3648 0029 04       		.uleb128 0x4
 3649 002a 16       		.uleb128 0x16
 3650 002b 00       		.byte	0
 3651 002c 03       		.uleb128 0x3
 3652 002d 0E       		.uleb128 0xe
 3653 002e 3A       		.uleb128 0x3a
 3654 002f 0B       		.uleb128 0xb
 3655 0030 3B       		.uleb128 0x3b
 3656 0031 0B       		.uleb128 0xb
 3657 0032 49       		.uleb128 0x49
 3658 0033 13       		.uleb128 0x13
 3659 0034 00       		.byte	0
 3660 0035 00       		.byte	0
 3661 0036 05       		.uleb128 0x5
 3662 0037 0F       		.uleb128 0xf
 3663 0038 00       		.byte	0
 3664 0039 0B       		.uleb128 0xb
 3665 003a 0B       		.uleb128 0xb
 3666 003b 00       		.byte	0
 3667 003c 00       		.byte	0
 3668 003d 06       		.uleb128 0x6
 3669 003e 0F       		.uleb128 0xf
 3670 003f 00       		.byte	0
 3671 0040 0B       		.uleb128 0xb
 3672 0041 0B       		.uleb128 0xb
 3673 0042 49       		.uleb128 0x49
 3674 0043 13       		.uleb128 0x13
 3675 0044 00       		.byte	0
 3676 0045 00       		.byte	0
 3677 0046 07       		.uleb128 0x7
 3678 0047 26       		.uleb128 0x26
 3679 0048 00       		.byte	0
 3680 0049 49       		.uleb128 0x49
 3681 004a 13       		.uleb128 0x13
 3682 004b 00       		.byte	0
 3683 004c 00       		.byte	0
 3684 004d 08       		.uleb128 0x8
 3685 004e 13       		.uleb128 0x13
 3686 004f 01       		.byte	0x1
 3687 0050 03       		.uleb128 0x3
 3688 0051 0E       		.uleb128 0xe
 3689 0052 0B       		.uleb128 0xb
 3690 0053 0B       		.uleb128 0xb
 3691 0054 3A       		.uleb128 0x3a
 3692 0055 0B       		.uleb128 0xb
 3693 0056 3B       		.uleb128 0x3b
ARM GAS  /tmp/ccTrZbnH.s 			page 66


 3694 0057 0B       		.uleb128 0xb
 3695 0058 01       		.uleb128 0x1
 3696 0059 13       		.uleb128 0x13
 3697 005a 00       		.byte	0
 3698 005b 00       		.byte	0
 3699 005c 09       		.uleb128 0x9
 3700 005d 0D       		.uleb128 0xd
 3701 005e 00       		.byte	0
 3702 005f 03       		.uleb128 0x3
 3703 0060 0E       		.uleb128 0xe
 3704 0061 3A       		.uleb128 0x3a
 3705 0062 0B       		.uleb128 0xb
 3706 0063 3B       		.uleb128 0x3b
 3707 0064 0B       		.uleb128 0xb
 3708 0065 49       		.uleb128 0x49
 3709 0066 13       		.uleb128 0x13
 3710 0067 38       		.uleb128 0x38
 3711 0068 0A       		.uleb128 0xa
 3712 0069 00       		.byte	0
 3713 006a 00       		.byte	0
 3714 006b 0A       		.uleb128 0xa
 3715 006c 15       		.uleb128 0x15
 3716 006d 01       		.byte	0x1
 3717 006e 27       		.uleb128 0x27
 3718 006f 0C       		.uleb128 0xc
 3719 0070 01       		.uleb128 0x1
 3720 0071 13       		.uleb128 0x13
 3721 0072 00       		.byte	0
 3722 0073 00       		.byte	0
 3723 0074 0B       		.uleb128 0xb
 3724 0075 05       		.uleb128 0x5
 3725 0076 00       		.byte	0
 3726 0077 49       		.uleb128 0x49
 3727 0078 13       		.uleb128 0x13
 3728 0079 00       		.byte	0
 3729 007a 00       		.byte	0
 3730 007b 0C       		.uleb128 0xc
 3731 007c 15       		.uleb128 0x15
 3732 007d 01       		.byte	0x1
 3733 007e 27       		.uleb128 0x27
 3734 007f 0C       		.uleb128 0xc
 3735 0080 49       		.uleb128 0x49
 3736 0081 13       		.uleb128 0x13
 3737 0082 01       		.uleb128 0x1
 3738 0083 13       		.uleb128 0x13
 3739 0084 00       		.byte	0
 3740 0085 00       		.byte	0
 3741 0086 0D       		.uleb128 0xd
 3742 0087 2E       		.uleb128 0x2e
 3743 0088 01       		.byte	0x1
 3744 0089 03       		.uleb128 0x3
 3745 008a 0E       		.uleb128 0xe
 3746 008b 3A       		.uleb128 0x3a
 3747 008c 0B       		.uleb128 0xb
 3748 008d 3B       		.uleb128 0x3b
 3749 008e 0B       		.uleb128 0xb
 3750 008f 27       		.uleb128 0x27
ARM GAS  /tmp/ccTrZbnH.s 			page 67


 3751 0090 0C       		.uleb128 0xc
 3752 0091 49       		.uleb128 0x49
 3753 0092 13       		.uleb128 0x13
 3754 0093 20       		.uleb128 0x20
 3755 0094 0B       		.uleb128 0xb
 3756 0095 01       		.uleb128 0x1
 3757 0096 13       		.uleb128 0x13
 3758 0097 00       		.byte	0
 3759 0098 00       		.byte	0
 3760 0099 0E       		.uleb128 0xe
 3761 009a 05       		.uleb128 0x5
 3762 009b 00       		.byte	0
 3763 009c 03       		.uleb128 0x3
 3764 009d 08       		.uleb128 0x8
 3765 009e 3A       		.uleb128 0x3a
 3766 009f 0B       		.uleb128 0xb
 3767 00a0 3B       		.uleb128 0x3b
 3768 00a1 0B       		.uleb128 0xb
 3769 00a2 49       		.uleb128 0x49
 3770 00a3 13       		.uleb128 0x13
 3771 00a4 00       		.byte	0
 3772 00a5 00       		.byte	0
 3773 00a6 0F       		.uleb128 0xf
 3774 00a7 2E       		.uleb128 0x2e
 3775 00a8 01       		.byte	0x1
 3776 00a9 3F       		.uleb128 0x3f
 3777 00aa 0C       		.uleb128 0xc
 3778 00ab 03       		.uleb128 0x3
 3779 00ac 0E       		.uleb128 0xe
 3780 00ad 3A       		.uleb128 0x3a
 3781 00ae 0B       		.uleb128 0xb
 3782 00af 3B       		.uleb128 0x3b
 3783 00b0 0B       		.uleb128 0xb
 3784 00b1 27       		.uleb128 0x27
 3785 00b2 0C       		.uleb128 0xc
 3786 00b3 49       		.uleb128 0x49
 3787 00b4 13       		.uleb128 0x13
 3788 00b5 11       		.uleb128 0x11
 3789 00b6 01       		.uleb128 0x1
 3790 00b7 12       		.uleb128 0x12
 3791 00b8 01       		.uleb128 0x1
 3792 00b9 40       		.uleb128 0x40
 3793 00ba 06       		.uleb128 0x6
 3794 00bb 9742     		.uleb128 0x2117
 3795 00bd 0C       		.uleb128 0xc
 3796 00be 01       		.uleb128 0x1
 3797 00bf 13       		.uleb128 0x13
 3798 00c0 00       		.byte	0
 3799 00c1 00       		.byte	0
 3800 00c2 10       		.uleb128 0x10
 3801 00c3 05       		.uleb128 0x5
 3802 00c4 00       		.byte	0
 3803 00c5 03       		.uleb128 0x3
 3804 00c6 0E       		.uleb128 0xe
 3805 00c7 3A       		.uleb128 0x3a
 3806 00c8 0B       		.uleb128 0xb
 3807 00c9 3B       		.uleb128 0x3b
ARM GAS  /tmp/ccTrZbnH.s 			page 68


 3808 00ca 0B       		.uleb128 0xb
 3809 00cb 49       		.uleb128 0x49
 3810 00cc 13       		.uleb128 0x13
 3811 00cd 02       		.uleb128 0x2
 3812 00ce 06       		.uleb128 0x6
 3813 00cf 00       		.byte	0
 3814 00d0 00       		.byte	0
 3815 00d1 11       		.uleb128 0x11
 3816 00d2 05       		.uleb128 0x5
 3817 00d3 00       		.byte	0
 3818 00d4 03       		.uleb128 0x3
 3819 00d5 08       		.uleb128 0x8
 3820 00d6 3A       		.uleb128 0x3a
 3821 00d7 0B       		.uleb128 0xb
 3822 00d8 3B       		.uleb128 0x3b
 3823 00d9 0B       		.uleb128 0xb
 3824 00da 49       		.uleb128 0x49
 3825 00db 13       		.uleb128 0x13
 3826 00dc 02       		.uleb128 0x2
 3827 00dd 06       		.uleb128 0x6
 3828 00de 00       		.byte	0
 3829 00df 00       		.byte	0
 3830 00e0 12       		.uleb128 0x12
 3831 00e1 05       		.uleb128 0x5
 3832 00e2 00       		.byte	0
 3833 00e3 03       		.uleb128 0x3
 3834 00e4 0E       		.uleb128 0xe
 3835 00e5 3A       		.uleb128 0x3a
 3836 00e6 0B       		.uleb128 0xb
 3837 00e7 3B       		.uleb128 0x3b
 3838 00e8 0B       		.uleb128 0xb
 3839 00e9 49       		.uleb128 0x49
 3840 00ea 13       		.uleb128 0x13
 3841 00eb 02       		.uleb128 0x2
 3842 00ec 0A       		.uleb128 0xa
 3843 00ed 00       		.byte	0
 3844 00ee 00       		.byte	0
 3845 00ef 13       		.uleb128 0x13
 3846 00f0 34       		.uleb128 0x34
 3847 00f1 00       		.byte	0
 3848 00f2 03       		.uleb128 0x3
 3849 00f3 0E       		.uleb128 0xe
 3850 00f4 3A       		.uleb128 0x3a
 3851 00f5 0B       		.uleb128 0xb
 3852 00f6 3B       		.uleb128 0x3b
 3853 00f7 0B       		.uleb128 0xb
 3854 00f8 49       		.uleb128 0x49
 3855 00f9 13       		.uleb128 0x13
 3856 00fa 02       		.uleb128 0x2
 3857 00fb 06       		.uleb128 0x6
 3858 00fc 00       		.byte	0
 3859 00fd 00       		.byte	0
 3860 00fe 14       		.uleb128 0x14
 3861 00ff 898201   		.uleb128 0x4109
 3862 0102 01       		.byte	0x1
 3863 0103 11       		.uleb128 0x11
 3864 0104 01       		.uleb128 0x1
ARM GAS  /tmp/ccTrZbnH.s 			page 69


 3865 0105 9342     		.uleb128 0x2113
 3866 0107 0A       		.uleb128 0xa
 3867 0108 01       		.uleb128 0x1
 3868 0109 13       		.uleb128 0x13
 3869 010a 00       		.byte	0
 3870 010b 00       		.byte	0
 3871 010c 15       		.uleb128 0x15
 3872 010d 8A8201   		.uleb128 0x410a
 3873 0110 00       		.byte	0
 3874 0111 02       		.uleb128 0x2
 3875 0112 0A       		.uleb128 0xa
 3876 0113 9142     		.uleb128 0x2111
 3877 0115 0A       		.uleb128 0xa
 3878 0116 00       		.byte	0
 3879 0117 00       		.byte	0
 3880 0118 16       		.uleb128 0x16
 3881 0119 898201   		.uleb128 0x4109
 3882 011c 01       		.byte	0x1
 3883 011d 11       		.uleb128 0x11
 3884 011e 01       		.uleb128 0x1
 3885 011f 9342     		.uleb128 0x2113
 3886 0121 0A       		.uleb128 0xa
 3887 0122 00       		.byte	0
 3888 0123 00       		.byte	0
 3889 0124 17       		.uleb128 0x17
 3890 0125 898201   		.uleb128 0x4109
 3891 0128 01       		.byte	0x1
 3892 0129 11       		.uleb128 0x11
 3893 012a 01       		.uleb128 0x1
 3894 012b 01       		.uleb128 0x1
 3895 012c 13       		.uleb128 0x13
 3896 012d 00       		.byte	0
 3897 012e 00       		.byte	0
 3898 012f 18       		.uleb128 0x18
 3899 0130 898201   		.uleb128 0x4109
 3900 0133 01       		.byte	0x1
 3901 0134 11       		.uleb128 0x11
 3902 0135 01       		.uleb128 0x1
 3903 0136 00       		.byte	0
 3904 0137 00       		.byte	0
 3905 0138 19       		.uleb128 0x19
 3906 0139 34       		.uleb128 0x34
 3907 013a 00       		.byte	0
 3908 013b 03       		.uleb128 0x3
 3909 013c 08       		.uleb128 0x8
 3910 013d 3A       		.uleb128 0x3a
 3911 013e 0B       		.uleb128 0xb
 3912 013f 3B       		.uleb128 0x3b
 3913 0140 0B       		.uleb128 0xb
 3914 0141 49       		.uleb128 0x49
 3915 0142 13       		.uleb128 0x13
 3916 0143 02       		.uleb128 0x2
 3917 0144 0A       		.uleb128 0xa
 3918 0145 00       		.byte	0
 3919 0146 00       		.byte	0
 3920 0147 1A       		.uleb128 0x1a
 3921 0148 1D       		.uleb128 0x1d
ARM GAS  /tmp/ccTrZbnH.s 			page 70


 3922 0149 01       		.byte	0x1
 3923 014a 31       		.uleb128 0x31
 3924 014b 13       		.uleb128 0x13
 3925 014c 11       		.uleb128 0x11
 3926 014d 01       		.uleb128 0x1
 3927 014e 12       		.uleb128 0x12
 3928 014f 01       		.uleb128 0x1
 3929 0150 58       		.uleb128 0x58
 3930 0151 0B       		.uleb128 0xb
 3931 0152 59       		.uleb128 0x59
 3932 0153 0B       		.uleb128 0xb
 3933 0154 01       		.uleb128 0x1
 3934 0155 13       		.uleb128 0x13
 3935 0156 00       		.byte	0
 3936 0157 00       		.byte	0
 3937 0158 1B       		.uleb128 0x1b
 3938 0159 05       		.uleb128 0x5
 3939 015a 00       		.byte	0
 3940 015b 31       		.uleb128 0x31
 3941 015c 13       		.uleb128 0x13
 3942 015d 02       		.uleb128 0x2
 3943 015e 06       		.uleb128 0x6
 3944 015f 00       		.byte	0
 3945 0160 00       		.byte	0
 3946 0161 1C       		.uleb128 0x1c
 3947 0162 1D       		.uleb128 0x1d
 3948 0163 01       		.byte	0x1
 3949 0164 31       		.uleb128 0x31
 3950 0165 13       		.uleb128 0x13
 3951 0166 11       		.uleb128 0x11
 3952 0167 01       		.uleb128 0x1
 3953 0168 12       		.uleb128 0x12
 3954 0169 01       		.uleb128 0x1
 3955 016a 58       		.uleb128 0x58
 3956 016b 0B       		.uleb128 0xb
 3957 016c 59       		.uleb128 0x59
 3958 016d 0B       		.uleb128 0xb
 3959 016e 00       		.byte	0
 3960 016f 00       		.byte	0
 3961 0170 1D       		.uleb128 0x1d
 3962 0171 2E       		.uleb128 0x2e
 3963 0172 00       		.byte	0
 3964 0173 3F       		.uleb128 0x3f
 3965 0174 0C       		.uleb128 0xc
 3966 0175 03       		.uleb128 0x3
 3967 0176 0E       		.uleb128 0xe
 3968 0177 3A       		.uleb128 0x3a
 3969 0178 0B       		.uleb128 0xb
 3970 0179 3B       		.uleb128 0x3b
 3971 017a 0B       		.uleb128 0xb
 3972 017b 27       		.uleb128 0x27
 3973 017c 0C       		.uleb128 0xc
 3974 017d 49       		.uleb128 0x49
 3975 017e 13       		.uleb128 0x13
 3976 017f 11       		.uleb128 0x11
 3977 0180 01       		.uleb128 0x1
 3978 0181 12       		.uleb128 0x12
ARM GAS  /tmp/ccTrZbnH.s 			page 71


 3979 0182 01       		.uleb128 0x1
 3980 0183 40       		.uleb128 0x40
 3981 0184 0A       		.uleb128 0xa
 3982 0185 9742     		.uleb128 0x2117
 3983 0187 0C       		.uleb128 0xc
 3984 0188 00       		.byte	0
 3985 0189 00       		.byte	0
 3986 018a 1E       		.uleb128 0x1e
 3987 018b 01       		.uleb128 0x1
 3988 018c 01       		.byte	0x1
 3989 018d 49       		.uleb128 0x49
 3990 018e 13       		.uleb128 0x13
 3991 018f 01       		.uleb128 0x1
 3992 0190 13       		.uleb128 0x13
 3993 0191 00       		.byte	0
 3994 0192 00       		.byte	0
 3995 0193 1F       		.uleb128 0x1f
 3996 0194 21       		.uleb128 0x21
 3997 0195 00       		.byte	0
 3998 0196 49       		.uleb128 0x49
 3999 0197 13       		.uleb128 0x13
 4000 0198 2F       		.uleb128 0x2f
 4001 0199 05       		.uleb128 0x5
 4002 019a 00       		.byte	0
 4003 019b 00       		.byte	0
 4004 019c 20       		.uleb128 0x20
 4005 019d 34       		.uleb128 0x34
 4006 019e 00       		.byte	0
 4007 019f 03       		.uleb128 0x3
 4008 01a0 0E       		.uleb128 0xe
 4009 01a1 3A       		.uleb128 0x3a
 4010 01a2 0B       		.uleb128 0xb
 4011 01a3 3B       		.uleb128 0x3b
 4012 01a4 0B       		.uleb128 0xb
 4013 01a5 49       		.uleb128 0x49
 4014 01a6 13       		.uleb128 0x13
 4015 01a7 02       		.uleb128 0x2
 4016 01a8 0A       		.uleb128 0xa
 4017 01a9 00       		.byte	0
 4018 01aa 00       		.byte	0
 4019 01ab 21       		.uleb128 0x21
 4020 01ac 21       		.uleb128 0x21
 4021 01ad 00       		.byte	0
 4022 01ae 49       		.uleb128 0x49
 4023 01af 13       		.uleb128 0x13
 4024 01b0 2F       		.uleb128 0x2f
 4025 01b1 0B       		.uleb128 0xb
 4026 01b2 00       		.byte	0
 4027 01b3 00       		.byte	0
 4028 01b4 22       		.uleb128 0x22
 4029 01b5 34       		.uleb128 0x34
 4030 01b6 00       		.byte	0
 4031 01b7 03       		.uleb128 0x3
 4032 01b8 0E       		.uleb128 0xe
 4033 01b9 3A       		.uleb128 0x3a
 4034 01ba 0B       		.uleb128 0xb
 4035 01bb 3B       		.uleb128 0x3b
ARM GAS  /tmp/ccTrZbnH.s 			page 72


 4036 01bc 0B       		.uleb128 0xb
 4037 01bd 49       		.uleb128 0x49
 4038 01be 13       		.uleb128 0x13
 4039 01bf 3F       		.uleb128 0x3f
 4040 01c0 0C       		.uleb128 0xc
 4041 01c1 02       		.uleb128 0x2
 4042 01c2 0A       		.uleb128 0xa
 4043 01c3 00       		.byte	0
 4044 01c4 00       		.byte	0
 4045 01c5 00       		.byte	0
 4046              		.section	.debug_loc,"",%progbits
 4047              	.Ldebug_loc0:
 4048              	.LLST0:
 4049 0000 00000000 		.4byte	.LFB40
 4050 0004 02000000 		.4byte	.LCFI0
 4051 0008 0200     		.2byte	0x2
 4052 000a 7D       		.byte	0x7d
 4053 000b 00       		.sleb128 0
 4054 000c 02000000 		.4byte	.LCFI0
 4055 0010 04000000 		.4byte	.LCFI1
 4056 0014 0200     		.2byte	0x2
 4057 0016 7D       		.byte	0x7d
 4058 0017 14       		.sleb128 20
 4059 0018 04000000 		.4byte	.LCFI1
 4060 001c 34000000 		.4byte	.LFE40
 4061 0020 0200     		.2byte	0x2
 4062 0022 7D       		.byte	0x7d
 4063 0023 20       		.sleb128 32
 4064 0024 00000000 		.4byte	0
 4065 0028 00000000 		.4byte	0
 4066              	.LLST1:
 4067 002c 00000000 		.4byte	.LVL0
 4068 0030 17000000 		.4byte	.LVL2-1
 4069 0034 0100     		.2byte	0x1
 4070 0036 50       		.byte	0x50
 4071 0037 17000000 		.4byte	.LVL2-1
 4072 003b 32000000 		.4byte	.LVL5
 4073 003f 0100     		.2byte	0x1
 4074 0041 54       		.byte	0x54
 4075 0042 32000000 		.4byte	.LVL5
 4076 0046 34000000 		.4byte	.LFE40
 4077 004a 0400     		.2byte	0x4
 4078 004c F3       		.byte	0xf3
 4079 004d 01       		.uleb128 0x1
 4080 004e 50       		.byte	0x50
 4081 004f 9F       		.byte	0x9f
 4082 0050 00000000 		.4byte	0
 4083 0054 00000000 		.4byte	0
 4084              	.LLST2:
 4085 0058 00000000 		.4byte	.LVL0
 4086 005c 17000000 		.4byte	.LVL2-1
 4087 0060 0100     		.2byte	0x1
 4088 0062 51       		.byte	0x51
 4089 0063 17000000 		.4byte	.LVL2-1
 4090 0067 34000000 		.4byte	.LFE40
 4091 006b 0400     		.2byte	0x4
 4092 006d F3       		.byte	0xf3
ARM GAS  /tmp/ccTrZbnH.s 			page 73


 4093 006e 01       		.uleb128 0x1
 4094 006f 51       		.byte	0x51
 4095 0070 9F       		.byte	0x9f
 4096 0071 00000000 		.4byte	0
 4097 0075 00000000 		.4byte	0
 4098              	.LLST3:
 4099 0079 00000000 		.4byte	.LVL0
 4100 007d 0A000000 		.4byte	.LVL1
 4101 0081 0100     		.2byte	0x1
 4102 0083 52       		.byte	0x52
 4103 0084 0A000000 		.4byte	.LVL1
 4104 0088 34000000 		.4byte	.LFE40
 4105 008c 0400     		.2byte	0x4
 4106 008e F3       		.byte	0xf3
 4107 008f 01       		.uleb128 0x1
 4108 0090 52       		.byte	0x52
 4109 0091 9F       		.byte	0x9f
 4110 0092 00000000 		.4byte	0
 4111 0096 00000000 		.4byte	0
 4112              	.LLST4:
 4113 009a 00000000 		.4byte	.LVL0
 4114 009e 17000000 		.4byte	.LVL2-1
 4115 00a2 0100     		.2byte	0x1
 4116 00a4 53       		.byte	0x53
 4117 00a5 17000000 		.4byte	.LVL2-1
 4118 00a9 34000000 		.4byte	.LFE40
 4119 00ad 0400     		.2byte	0x4
 4120 00af F3       		.byte	0xf3
 4121 00b0 01       		.uleb128 0x1
 4122 00b1 53       		.byte	0x53
 4123 00b2 9F       		.byte	0x9f
 4124 00b3 00000000 		.4byte	0
 4125 00b7 00000000 		.4byte	0
 4126              	.LLST5:
 4127 00bb 18000000 		.4byte	.LVL2
 4128 00bf 1E000000 		.4byte	.LVL3
 4129 00c3 0100     		.2byte	0x1
 4130 00c5 50       		.byte	0x50
 4131 00c6 30000000 		.4byte	.LVL4
 4132 00ca 34000000 		.4byte	.LFE40
 4133 00ce 0100     		.2byte	0x1
 4134 00d0 50       		.byte	0x50
 4135 00d1 00000000 		.4byte	0
 4136 00d5 00000000 		.4byte	0
 4137              	.LLST6:
 4138 00d9 00000000 		.4byte	.LFB41
 4139 00dd 02000000 		.4byte	.LCFI2
 4140 00e1 0200     		.2byte	0x2
 4141 00e3 7D       		.byte	0x7d
 4142 00e4 00       		.sleb128 0
 4143 00e5 02000000 		.4byte	.LCFI2
 4144 00e9 16000000 		.4byte	.LFE41
 4145 00ed 0200     		.2byte	0x2
 4146 00ef 7D       		.byte	0x7d
 4147 00f0 08       		.sleb128 8
 4148 00f1 00000000 		.4byte	0
 4149 00f5 00000000 		.4byte	0
ARM GAS  /tmp/ccTrZbnH.s 			page 74


 4150              	.LLST7:
 4151 00f9 00000000 		.4byte	.LVL6
 4152 00fd 07000000 		.4byte	.LVL7-1
 4153 0101 0100     		.2byte	0x1
 4154 0103 50       		.byte	0x50
 4155 0104 07000000 		.4byte	.LVL7-1
 4156 0108 14000000 		.4byte	.LVL10
 4157 010c 0100     		.2byte	0x1
 4158 010e 54       		.byte	0x54
 4159 010f 14000000 		.4byte	.LVL10
 4160 0113 16000000 		.4byte	.LFE41
 4161 0117 0400     		.2byte	0x4
 4162 0119 F3       		.byte	0xf3
 4163 011a 01       		.uleb128 0x1
 4164 011b 50       		.byte	0x50
 4165 011c 9F       		.byte	0x9f
 4166 011d 00000000 		.4byte	0
 4167 0121 00000000 		.4byte	0
 4168              	.LLST8:
 4169 0125 00000000 		.4byte	.LVL6
 4170 0129 07000000 		.4byte	.LVL7-1
 4171 012d 0100     		.2byte	0x1
 4172 012f 51       		.byte	0x51
 4173 0130 07000000 		.4byte	.LVL7-1
 4174 0134 16000000 		.4byte	.LFE41
 4175 0138 0400     		.2byte	0x4
 4176 013a F3       		.byte	0xf3
 4177 013b 01       		.uleb128 0x1
 4178 013c 51       		.byte	0x51
 4179 013d 9F       		.byte	0x9f
 4180 013e 00000000 		.4byte	0
 4181 0142 00000000 		.4byte	0
 4182              	.LLST9:
 4183 0146 08000000 		.4byte	.LVL7
 4184 014a 12000000 		.4byte	.LVL8
 4185 014e 0100     		.2byte	0x1
 4186 0150 50       		.byte	0x50
 4187 0151 14000000 		.4byte	.LVL9
 4188 0155 16000000 		.4byte	.LFE41
 4189 0159 0100     		.2byte	0x1
 4190 015b 50       		.byte	0x50
 4191 015c 00000000 		.4byte	0
 4192 0160 00000000 		.4byte	0
 4193              	.LLST10:
 4194 0164 00000000 		.4byte	.LFB43
 4195 0168 02000000 		.4byte	.LCFI3
 4196 016c 0200     		.2byte	0x2
 4197 016e 7D       		.byte	0x7d
 4198 016f 00       		.sleb128 0
 4199 0170 02000000 		.4byte	.LCFI3
 4200 0174 4C000000 		.4byte	.LFE43
 4201 0178 0200     		.2byte	0x2
 4202 017a 7D       		.byte	0x7d
 4203 017b 08       		.sleb128 8
 4204 017c 00000000 		.4byte	0
 4205 0180 00000000 		.4byte	0
 4206              	.LLST11:
ARM GAS  /tmp/ccTrZbnH.s 			page 75


 4207 0184 00000000 		.4byte	.LVL11
 4208 0188 18000000 		.4byte	.LVL16
 4209 018c 0100     		.2byte	0x1
 4210 018e 50       		.byte	0x50
 4211 018f 18000000 		.4byte	.LVL16
 4212 0193 2C000000 		.4byte	.LVL21
 4213 0197 0400     		.2byte	0x4
 4214 0199 F3       		.byte	0xf3
 4215 019a 01       		.uleb128 0x1
 4216 019b 50       		.byte	0x50
 4217 019c 9F       		.byte	0x9f
 4218 019d 2C000000 		.4byte	.LVL21
 4219 01a1 34000000 		.4byte	.LVL23
 4220 01a5 0100     		.2byte	0x1
 4221 01a7 50       		.byte	0x50
 4222 01a8 34000000 		.4byte	.LVL23
 4223 01ac 4C000000 		.4byte	.LFE43
 4224 01b0 0400     		.2byte	0x4
 4225 01b2 F3       		.byte	0xf3
 4226 01b3 01       		.uleb128 0x1
 4227 01b4 50       		.byte	0x50
 4228 01b5 9F       		.byte	0x9f
 4229 01b6 00000000 		.4byte	0
 4230 01ba 00000000 		.4byte	0
 4231              	.LLST12:
 4232 01be 00000000 		.4byte	.LVL11
 4233 01c2 06000000 		.4byte	.LVL12
 4234 01c6 0100     		.2byte	0x1
 4235 01c8 50       		.byte	0x50
 4236 01c9 06000000 		.4byte	.LVL12
 4237 01cd 18000000 		.4byte	.LVL16
 4238 01d1 0100     		.2byte	0x1
 4239 01d3 52       		.byte	0x52
 4240 01d4 2C000000 		.4byte	.LVL21
 4241 01d8 36000000 		.4byte	.LVL24
 4242 01dc 0100     		.2byte	0x1
 4243 01de 52       		.byte	0x52
 4244 01df 00000000 		.4byte	0
 4245 01e3 00000000 		.4byte	0
 4246              	.LLST13:
 4247 01e7 00000000 		.4byte	.LVL11
 4248 01eb 06000000 		.4byte	.LVL12
 4249 01ef 0600     		.2byte	0x6
 4250 01f1 03       		.byte	0x3
 4251 01f2 00000000 		.4byte	.LC2
 4252 01f6 9F       		.byte	0x9f
 4253 01f7 06000000 		.4byte	.LVL12
 4254 01fb 16000000 		.4byte	.LVL15
 4255 01ff 0100     		.2byte	0x1
 4256 0201 51       		.byte	0x51
 4257 0202 2C000000 		.4byte	.LVL21
 4258 0206 2E000000 		.4byte	.LVL22
 4259 020a 0100     		.2byte	0x1
 4260 020c 51       		.byte	0x51
 4261 020d 00000000 		.4byte	0
 4262 0211 00000000 		.4byte	0
 4263              	.LLST14:
ARM GAS  /tmp/ccTrZbnH.s 			page 76


 4264 0215 18000000 		.4byte	.LVL16
 4265 0219 28000000 		.4byte	.LVL19
 4266 021d 0100     		.2byte	0x1
 4267 021f 50       		.byte	0x50
 4268 0220 36000000 		.4byte	.LVL24
 4269 0224 38000000 		.4byte	.LVL25
 4270 0228 0100     		.2byte	0x1
 4271 022a 50       		.byte	0x50
 4272 022b 00000000 		.4byte	0
 4273 022f 00000000 		.4byte	0
 4274              	.LLST15:
 4275 0233 18000000 		.4byte	.LVL16
 4276 0237 2A000000 		.4byte	.LVL20
 4277 023b 0100     		.2byte	0x1
 4278 023d 53       		.byte	0x53
 4279 023e 36000000 		.4byte	.LVL24
 4280 0242 4C000000 		.4byte	.LFE43
 4281 0246 0100     		.2byte	0x1
 4282 0248 53       		.byte	0x53
 4283 0249 00000000 		.4byte	0
 4284 024d 00000000 		.4byte	0
 4285              		.section	.debug_aranges,"",%progbits
 4286 0000 34000000 		.4byte	0x34
 4287 0004 0200     		.2byte	0x2
 4288 0006 00000000 		.4byte	.Ldebug_info0
 4289 000a 04       		.byte	0x4
 4290 000b 00       		.byte	0
 4291 000c 0000     		.2byte	0
 4292 000e 0000     		.2byte	0
 4293 0010 00000000 		.4byte	.LFB40
 4294 0014 34000000 		.4byte	.LFE40-.LFB40
 4295 0018 00000000 		.4byte	.LFB41
 4296 001c 16000000 		.4byte	.LFE41-.LFB41
 4297 0020 00000000 		.4byte	.LFB43
 4298 0024 4C000000 		.4byte	.LFE43-.LFB43
 4299 0028 00000000 		.4byte	.LFB44
 4300 002c 08000000 		.4byte	.LFE44-.LFB44
 4301 0030 00000000 		.4byte	0
 4302 0034 00000000 		.4byte	0
 4303              		.section	.debug_ranges,"",%progbits
 4304              	.Ldebug_ranges0:
 4305 0000 00000000 		.4byte	.LFB40
 4306 0004 34000000 		.4byte	.LFE40
 4307 0008 00000000 		.4byte	.LFB41
 4308 000c 16000000 		.4byte	.LFE41
 4309 0010 00000000 		.4byte	.LFB43
 4310 0014 4C000000 		.4byte	.LFE43
 4311 0018 00000000 		.4byte	.LFB44
 4312 001c 08000000 		.4byte	.LFE44
 4313 0020 00000000 		.4byte	0
 4314 0024 00000000 		.4byte	0
 4315              		.section	.debug_line,"",%progbits
 4316              	.Ldebug_line0:
 4317 0000 C7010000 		.section	.debug_str,"MS",%progbits,1
 4317      02005401 
 4317      00000201 
 4317      FB0E0D00 
ARM GAS  /tmp/ccTrZbnH.s 			page 77


 4317      01010101 
 4318              	.LASF59:
 4319 0000 6D665F72 		.ascii	"mf_rlefont_DejaVuSans24_listentry\000"
 4319      6C65666F 
 4319      6E745F44 
 4319      656A6156 
 4319      7553616E 
 4320              	.LASF50:
 4321 0022 6D665F72 		.ascii	"mf_render_character\000"
 4321      656E6465 
 4321      725F6368 
 4321      61726163 
 4321      74657200 
 4322              	.LASF40:
 4323 0036 76657273 		.ascii	"version\000"
 4323      696F6E00 
 4324              	.LASF35:
 4325 003e 66697273 		.ascii	"first_char\000"
 4325      745F6368 
 4325      617200
 4326              	.LASF56:
 4327 0049 6D665F72 		.ascii	"mf_rlefont_DejaVuSans24_glyph_data_0\000"
 4327      6C65666F 
 4327      6E745F44 
 4327      656A6156 
 4327      7553616E 
 4328              	.LASF49:
 4329 006e 73746174 		.ascii	"state\000"
 4329      6500
 4330              	.LASF33:
 4331 0074 666F6E74 		.ascii	"font\000"
 4331      00
 4332              	.LASF58:
 4333 0079 6D665F72 		.ascii	"mf_rlefont_DejaVuSans24_char_ranges\000"
 4333      6C65666F 
 4333      6E745F44 
 4333      656A6156 
 4333      7553616E 
 4334              	.LASF5:
 4335 009d 73686F72 		.ascii	"short int\000"
 4335      7420696E 
 4335      7400
 4336              	.LASF64:
 4337 00a7 6D665F72 		.ascii	"mf_rlefont_DejaVuSans24\000"
 4337      6C65666F 
 4337      6E745F44 
 4337      656A6156 
 4337      7553616E 
 4338              	.LASF13:
 4339 00bf 73697A65 		.ascii	"sizetype\000"
 4339      74797065 
 4339      00
 4340              	.LASF60:
 4341 00c8 474E5520 		.ascii	"GNU C 4.7.4 20130913 (prerelease)\000"
 4341      4320342E 
 4341      372E3420 
 4341      32303133 
ARM GAS  /tmp/ccTrZbnH.s 			page 78


 4341      30393133 
 4342              	.LASF44:
 4343 00ea 64696374 		.ascii	"dict_entry_count\000"
 4343      5F656E74 
 4343      72795F63 
 4343      6F756E74 
 4343      00
 4344              	.LASF27:
 4345 00fb 72656E64 		.ascii	"render_character\000"
 4345      65725F63 
 4345      68617261 
 4345      63746572 
 4345      00
 4346              	.LASF42:
 4347 010c 64696374 		.ascii	"dictionary_offsets\000"
 4347      696F6E61 
 4347      72795F6F 
 4347      66667365 
 4347      747300
 4348              	.LASF3:
 4349 011f 75696E74 		.ascii	"uint8_t\000"
 4349      385F7400 
 4350              	.LASF28:
 4351 0127 6D665F63 		.ascii	"mf_char\000"
 4351      68617200 
 4352              	.LASF57:
 4353 012f 6D665F72 		.ascii	"mf_rlefont_DejaVuSans24_glyph_offsets_0\000"
 4353      6C65666F 
 4353      6E745F44 
 4353      656A6156 
 4353      7553616E 
 4354              	.LASF30:
 4355 0157 6D665F66 		.ascii	"mf_font_s\000"
 4355      6F6E745F 
 4355      7300
 4356              	.LASF19:
 4357 0161 6D696E5F 		.ascii	"min_x_advance\000"
 4357      785F6164 
 4357      76616E63 
 4357      6500
 4358              	.LASF62:
 4359 016f 73747265 		.ascii	"strequals\000"
 4359      7175616C 
 4359      7300
 4360              	.LASF52:
 4361 0179 6D665F66 		.ascii	"mf_find_font\000"
 4361      696E645F 
 4361      666F6E74 
 4361      00
 4362              	.LASF17:
 4363 0186 77696474 		.ascii	"width\000"
 4363      6800
 4364              	.LASF46:
 4365 018c 63686172 		.ascii	"char_ranges\000"
 4365      5F72616E 
 4365      67657300 
 4366              	.LASF10:
ARM GAS  /tmp/ccTrZbnH.s 			page 79


 4367 0198 6C6F6E67 		.ascii	"long long int\000"
 4367      206C6F6E 
 4367      6720696E 
 4367      7400
 4368              	.LASF43:
 4369 01a6 726C655F 		.ascii	"rle_entry_count\000"
 4369      656E7472 
 4369      795F636F 
 4369      756E7400 
 4370              	.LASF8:
 4371 01b6 6C6F6E67 		.ascii	"long int\000"
 4371      20696E74 
 4371      00
 4372              	.LASF34:
 4373 01bf 6D665F72 		.ascii	"mf_rlefont_char_range_s\000"
 4373      6C65666F 
 4373      6E745F63 
 4373      6861725F 
 4373      72616E67 
 4374              	.LASF47:
 4375 01d7 63686172 		.ascii	"character\000"
 4375      61637465 
 4375      7200
 4376              	.LASF15:
 4377 01e1 66756C6C 		.ascii	"full_name\000"
 4377      5F6E616D 
 4377      6500
 4378              	.LASF16:
 4379 01eb 73686F72 		.ascii	"short_name\000"
 4379      745F6E61 
 4379      6D6500
 4380              	.LASF39:
 4381 01f6 6D665F72 		.ascii	"mf_rlefont_s\000"
 4381      6C65666F 
 4381      6E745F73 
 4381      00
 4382              	.LASF38:
 4383 0203 676C7970 		.ascii	"glyph_data\000"
 4383      685F6461 
 4383      746100
 4384              	.LASF2:
 4385 020e 756E7369 		.ascii	"unsigned char\000"
 4385      676E6564 
 4385      20636861 
 4385      7200
 4386              	.LASF1:
 4387 021c 7369676E 		.ascii	"signed char\000"
 4387      65642063 
 4387      68617200 
 4388              	.LASF24:
 4389 0228 666C6167 		.ascii	"flags\000"
 4389      7300
 4390              	.LASF11:
 4391 022e 6C6F6E67 		.ascii	"long long unsigned int\000"
 4391      206C6F6E 
 4391      6720756E 
 4391      7369676E 
ARM GAS  /tmp/ccTrZbnH.s 			page 80


 4391      65642069 
 4392              	.LASF18:
 4393 0245 68656967 		.ascii	"height\000"
 4393      687400
 4394              	.LASF0:
 4395 024c 756E7369 		.ascii	"unsigned int\000"
 4395      676E6564 
 4395      20696E74 
 4395      00
 4396              	.LASF31:
 4397 0259 6D665F66 		.ascii	"mf_font_list_s\000"
 4397      6F6E745F 
 4397      6C697374 
 4397      5F7300
 4398              	.LASF6:
 4399 0268 75696E74 		.ascii	"uint16_t\000"
 4399      31365F74 
 4399      00
 4400              	.LASF20:
 4401 0271 6D61785F 		.ascii	"max_x_advance\000"
 4401      785F6164 
 4401      76616E63 
 4401      6500
 4402              	.LASF14:
 4403 027f 63686172 		.ascii	"char\000"
 4403      00
 4404              	.LASF21:
 4405 0284 62617365 		.ascii	"baseline_x\000"
 4405      6C696E65 
 4405      5F7800
 4406              	.LASF22:
 4407 028f 62617365 		.ascii	"baseline_y\000"
 4407      6C696E65 
 4407      5F7900
 4408              	.LASF7:
 4409 029a 73686F72 		.ascii	"short unsigned int\000"
 4409      7420756E 
 4409      7369676E 
 4409      65642069 
 4409      6E7400
 4410              	.LASF29:
 4411 02ad 6D665F70 		.ascii	"mf_pixel_callback_t\000"
 4411      6978656C 
 4411      5F63616C 
 4411      6C626163 
 4411      6B5F7400 
 4412              	.LASF4:
 4413 02c1 696E7431 		.ascii	"int16_t\000"
 4413      365F7400 
 4414              	.LASF12:
 4415 02c9 5F426F6F 		.ascii	"_Bool\000"
 4415      6C00
 4416              	.LASF55:
 4417 02cf 6D665F72 		.ascii	"mf_rlefont_DejaVuSans24_dictionary_offsets\000"
 4417      6C65666F 
 4417      6E745F44 
 4417      656A6156 
ARM GAS  /tmp/ccTrZbnH.s 			page 81


 4417      7553616E 
 4418              	.LASF9:
 4419 02fa 6C6F6E67 		.ascii	"long unsigned int\000"
 4419      20756E73 
 4419      69676E65 
 4419      6420696E 
 4419      7400
 4420              	.LASF36:
 4421 030c 63686172 		.ascii	"char_count\000"
 4421      5F636F75 
 4421      6E7400
 4422              	.LASF45:
 4423 0317 63686172 		.ascii	"char_range_count\000"
 4423      5F72616E 
 4423      67655F63 
 4423      6F756E74 
 4423      00
 4424              	.LASF23:
 4425 0328 6C696E65 		.ascii	"line_height\000"
 4425      5F686569 
 4425      67687400 
 4426              	.LASF37:
 4427 0334 676C7970 		.ascii	"glyph_offsets\000"
 4427      685F6F66 
 4427      66736574 
 4427      7300
 4428              	.LASF25:
 4429 0342 66616C6C 		.ascii	"fallback_character\000"
 4429      6261636B 
 4429      5F636861 
 4429      72616374 
 4429      657200
 4430              	.LASF53:
 4431 0355 6E616D65 		.ascii	"name\000"
 4431      00
 4432              	.LASF26:
 4433 035a 63686172 		.ascii	"character_width\000"
 4433      61637465 
 4433      725F7769 
 4433      64746800 
 4434              	.LASF54:
 4435 036a 6D665F72 		.ascii	"mf_rlefont_DejaVuSans24_dictionary_data\000"
 4435      6C65666F 
 4435      6E745F44 
 4435      656A6156 
 4435      7553616E 
 4436              	.LASF61:
 4437 0392 2F686F6D 		.ascii	"/home/matt/arm_cortex/ChibiOS/ext/ugfx/src/gdisp/mc"
 4437      652F6D61 
 4437      74742F61 
 4437      726D5F63 
 4437      6F727465 
 4438 03c5 75666F6E 		.ascii	"ufont/mf_font.c\000"
 4438      742F6D66 
 4438      5F666F6E 
 4438      742E6300 
 4439              	.LASF41:
ARM GAS  /tmp/ccTrZbnH.s 			page 82


 4440 03d5 64696374 		.ascii	"dictionary_data\000"
 4440      696F6E61 
 4440      72795F64 
 4440      61746100 
 4441              	.LASF51:
 4442 03e5 6D665F63 		.ascii	"mf_character_width\000"
 4442      68617261 
 4442      63746572 
 4442      5F776964 
 4442      746800
 4443              	.LASF32:
 4444 03f8 6E657874 		.ascii	"next\000"
 4444      00
 4445              	.LASF48:
 4446 03fd 63616C6C 		.ascii	"callback\000"
 4446      6261636B 
 4446      00
 4447              	.LASF63:
 4448 0406 6D665F67 		.ascii	"mf_get_font_list\000"
 4448      65745F66 
 4448      6F6E745F 
 4448      6C697374 
 4448      00
 4449              		.ident	"GCC: (GNU Tools for ARM Embedded Processors / bleeding-edge-toolchain-131005) 4.7.4 201309
ARM GAS  /tmp/ccTrZbnH.s 			page 83


DEFINED SYMBOLS
                            *ABS*:0000000000000000 mf_font.c
     /tmp/ccTrZbnH.s:18     .text.mf_render_character:0000000000000000 $t
     /tmp/ccTrZbnH.s:24     .text.mf_render_character:0000000000000000 mf_render_character
     /tmp/ccTrZbnH.s:85     .text.mf_character_width:0000000000000000 $t
     /tmp/ccTrZbnH.s:91     .text.mf_character_width:0000000000000000 mf_character_width
     /tmp/ccTrZbnH.s:126    .text.mf_find_font:0000000000000000 $t
     /tmp/ccTrZbnH.s:132    .text.mf_find_font:0000000000000000 mf_find_font
     /tmp/ccTrZbnH.s:218    .text.mf_find_font:0000000000000040 $d
     /tmp/ccTrZbnH.s:225    .text.mf_get_font_list:0000000000000000 $t
     /tmp/ccTrZbnH.s:231    .text.mf_get_font_list:0000000000000000 mf_get_font_list
     /tmp/ccTrZbnH.s:242    .text.mf_get_font_list:0000000000000004 $d
     /tmp/ccTrZbnH.s:2377   .rodata.mf_rlefont_DejaVuSans24:0000000000000000 mf_rlefont_DejaVuSans24
     /tmp/ccTrZbnH.s:248    .rodata.mf_rlefont_DejaVuSans24_listentry:0000000000000000 $d
     /tmp/ccTrZbnH.s:252    .rodata.mf_rlefont_DejaVuSans24_listentry:0000000000000000 mf_rlefont_DejaVuSans24_listentry
     /tmp/ccTrZbnH.s:256    .rodata.mf_rlefont_DejaVuSans24_char_ranges:0000000000000000 $d
     /tmp/ccTrZbnH.s:259    .rodata.mf_rlefont_DejaVuSans24_char_ranges:0000000000000000 mf_rlefont_DejaVuSans24_char_ranges
     /tmp/ccTrZbnH.s:398    .rodata.mf_rlefont_DejaVuSans24_glyph_offsets_0:0000000000000000 mf_rlefont_DejaVuSans24_glyph_offsets_0
     /tmp/ccTrZbnH.s:498    .rodata.mf_rlefont_DejaVuSans24_glyph_data_0:0000000000000000 mf_rlefont_DejaVuSans24_glyph_data_0
     /tmp/ccTrZbnH.s:265    .rodata.mf_rlefont_DejaVuSans24_dictionary_offsets:0000000000000000 $d
     /tmp/ccTrZbnH.s:268    .rodata.mf_rlefont_DejaVuSans24_dictionary_offsets:0000000000000000 mf_rlefont_DejaVuSans24_dictionary_offsets
     /tmp/ccTrZbnH.s:389    .rodata.str1.4:0000000000000000 $d
     /tmp/ccTrZbnH.s:395    .rodata.mf_rlefont_DejaVuSans24_glyph_offsets_0:0000000000000000 $d
     /tmp/ccTrZbnH.s:495    .rodata.mf_rlefont_DejaVuSans24_glyph_data_0:0000000000000000 $d
     /tmp/ccTrZbnH.s:2373   .rodata.mf_rlefont_DejaVuSans24:0000000000000000 $d
     /tmp/ccTrZbnH.s:2405   .rodata.mf_rlefont_DejaVuSans24_dictionary_data:0000000000000000 mf_rlefont_DejaVuSans24_dictionary_data
     /tmp/ccTrZbnH.s:2402   .rodata.mf_rlefont_DejaVuSans24_dictionary_data:0000000000000000 $d
                     .debug_frame:0000000000000010 $d
     /tmp/ccTrZbnH.s:224    .text.mf_find_font:000000000000004c $t
     /tmp/ccTrZbnH.s:247    .text.mf_get_font_list:0000000000000008 $t

UNDEFINED SYMBOLS
mf_rlefont_character_width
mf_rlefont_render_character
