ARM GAS  /tmp/cc1XYtGL.s 			page 1


   1              		.cpu cortex-m0
   2              		.fpu softvfp
   3              		.eabi_attribute 20, 1
   4              		.eabi_attribute 21, 1
   5              		.eabi_attribute 23, 3
   6              		.eabi_attribute 24, 1
   7              		.eabi_attribute 25, 1
   8              		.eabi_attribute 26, 1
   9              		.eabi_attribute 30, 2
  10              		.eabi_attribute 34, 0
  11              		.eabi_attribute 18, 4
  12              		.code	16
  13              		.file	"mf_justify.c"
  14              		.text
  15              	.Ltext0:
  16              		.cfi_sections	.debug_frame
  17              		.global	__aeabi_idivmod
  18              		.section	.text.mf_round_to_tab,"ax",%progbits
  19              		.align	2
  20              		.p2align 4,,15
  21              		.code	16
  22              		.thumb_func
  23              		.type	mf_round_to_tab, %function
  24              	mf_round_to_tab:
  25              	.LFB40:
  26              		.file 1 "/home/matt/arm_cortex/ChibiOS/ext/ugfx/src/gdisp/mcufont/mf_justify.c"
  27              		.loc 1 17 0
  28              		.cfi_startproc
  29              	.LVL0:
  30 0000 F8B5     		push	{r3, r4, r5, r6, r7, lr}
  31              	.LCFI0:
  32              		.cfi_def_cfa_offset 24
  33              		.cfi_offset 3, -24
  34              		.cfi_offset 4, -20
  35              		.cfi_offset 5, -16
  36              		.cfi_offset 6, -12
  37              		.cfi_offset 7, -8
  38              		.cfi_offset 14, -4
  39              		.loc 1 17 0
  40 0002 0F1C     		mov	r7, r1
  41              		.loc 1 20 0
  42 0004 6D21     		mov	r1, #109
  43              	.LVL1:
  44              		.loc 1 17 0
  45 0006 041C     		mov	r4, r0
  46 0008 161C     		mov	r6, r2
  47              		.loc 1 20 0
  48 000a FFF7FEFF 		bl	mf_character_width
  49              	.LVL2:
  50              		.loc 1 23 0
  51 000e 2021     		mov	r1, #32
  52              		.loc 1 20 0
  53 0010 C500     		lsl	r5, r0, #3
  54              		.loc 1 23 0
  55 0012 201C     		mov	r0, r4
  56 0014 FFF7FEFF 		bl	mf_character_width
  57              	.LVL3:
ARM GAS  /tmp/cc1XYtGL.s 			page 2


  58 0018 8219     		add	r2, r0, r6
  59              		.loc 1 26 0
  60 001a 207B     		ldrb	r0, [r4, #12]
  61              		.loc 1 23 0
  62 001c 91B2     		uxth	r1, r2
  63              		.loc 1 26 0
  64 001e C31B     		sub	r3, r0, r7
  65              		.loc 1 20 0
  66 0020 ADB2     		uxth	r5, r5
  67              	.LVL4:
  68              		.loc 1 26 0
  69 0022 CC18     		add	r4, r1, r3
  70              	.LVL5:
  71              		.loc 1 27 0
  72 0024 4E19     		add	r6, r1, r5
  73 0026 20B2     		sxth	r0, r4
  74 0028 291C     		mov	r1, r5
  75              	.LVL6:
  76 002a FFF7FEFF 		bl	__aeabi_idivmod
  77              	.LVL7:
  78 002e 771A     		sub	r7, r6, r1
  79              		.loc 1 29 0
  80 0030 38B2     		sxth	r0, r7
  81              		.loc 1 30 0
  82              		@ sp needed for prologue
  83              	.LVL8:
  84 0032 F8BD     		pop	{r3, r4, r5, r6, r7, pc}
  85              		.cfi_endproc
  86              	.LFE40:
  87              		.size	mf_round_to_tab, .-mf_round_to_tab
  88 0034 C046C046 		.section	.text.render_left,"ax",%progbits
  88      C046C046 
  88      C046C046 
  89              		.align	2
  90              		.p2align 4,,15
  91              		.code	16
  92              		.thumb_func
  93              		.type	render_left, %function
  94              	render_left:
  95              	.LFB44:
  96              		.loc 1 122 0
  97              		.cfi_startproc
  98              	.LVL9:
  99 0000 F0B5     		push	{r4, r5, r6, r7, lr}
 100              	.LCFI1:
 101              		.cfi_def_cfa_offset 20
 102              		.cfi_offset 4, -20
 103              		.cfi_offset 5, -16
 104              		.cfi_offset 6, -12
 105              		.cfi_offset 7, -8
 106              		.cfi_offset 14, -4
 107 0002 5F46     		mov	r7, fp
 108 0004 5646     		mov	r6, sl
 109 0006 4D46     		mov	r5, r9
 110 0008 4446     		mov	r4, r8
 111 000a F0B4     		push	{r4, r5, r6, r7}
 112              	.LCFI2:
ARM GAS  /tmp/cc1XYtGL.s 			page 3


 113              		.cfi_def_cfa_offset 36
 114              		.cfi_offset 8, -36
 115              		.cfi_offset 9, -32
 116              		.cfi_offset 10, -28
 117              		.cfi_offset 11, -24
 118 000c 8346     		mov	fp, r0
 119 000e 83B0     		sub	sp, sp, #12
 120              	.LCFI3:
 121              		.cfi_def_cfa_offset 48
 122              		.loc 1 122 0
 123 0010 0193     		str	r3, [sp, #4]
 124 0012 0091     		str	r1, [sp]
 125              		.loc 1 126 0
 126 0014 5C46     		mov	r4, fp
 127 0016 257B     		ldrb	r5, [r4, #12]
 128              		.loc 1 122 0
 129 0018 9246     		mov	sl, r2
 130 001a 0D98     		ldr	r0, [sp, #52]
 131              	.LVL10:
 132 001c 0E9A     		ldr	r2, [sp, #56]
 133              	.LVL11:
 134              		.loc 1 126 0
 135 001e 4F1B     		sub	r7, r1, r5
 136              		.loc 1 122 0
 137 0020 0CAB     		add	r3, sp, #48
 138              	.LVL12:
 139              		.loc 1 126 0
 140 0022 BDB2     		uxth	r5, r7
 141              	.LVL13:
 142              		.loc 1 122 0
 143 0024 1E88     		ldrh	r6, [r3]
 144 0026 8146     		mov	r9, r0
 145 0028 9046     		mov	r8, r2
 146              		.loc 1 124 0
 147 002a 0027     		mov	r7, #0
 148              	.LVL14:
 149              		.loc 1 127 0
 150 002c 09E0     		b	.L3
 151              	.LVL15:
 152              	.L6:
 153              		.loc 1 145 0
 154 002e 28B2     		sxth	r0, r5
 155 0030 5146     		mov	r1, sl
 156 0032 221C     		mov	r2, r4
 157 0034 4346     		mov	r3, r8
 158 0036 C847     		blx	r9
 159              	.LVL16:
 160 0038 4019     		add	r0, r0, r5
 161 003a 85B2     		uxth	r5, r0
 162              	.LVL17:
 163 003c 271C     		mov	r7, r4
 164              	.LVL18:
 165              	.L5:
 166 003e 013E     		sub	r6, r6, #1
 167 0040 B6B2     		uxth	r6, r6
 168              	.LVL19:
 169              	.L3:
ARM GAS  /tmp/cc1XYtGL.s 			page 4


 170              		.loc 1 127 0 discriminator 1
 171 0042 002E     		cmp	r6, #0
 172 0044 17D0     		beq	.L12
 173              		.loc 1 129 0
 174 0046 01A8     		add	r0, sp, #4
 175 0048 FFF7FEFF 		bl	mf_getchar
 176              	.LVL20:
 177 004c 041E     		sub	r4, r0, #0
 178              	.LVL21:
 179              		.loc 1 131 0
 180 004e 092C     		cmp	r4, #9
 181 0050 09D0     		beq	.L13
 182              		.loc 1 142 0
 183 0052 002F     		cmp	r7, #0
 184 0054 EBD0     		beq	.L6
 185              		.loc 1 143 0
 186 0056 5846     		mov	r0, fp
 187              	.LVL22:
 188 0058 391C     		mov	r1, r7
 189 005a 221C     		mov	r2, r4
 190 005c FFF7FEFF 		bl	mf_compute_kerning
 191              	.LVL23:
 192 0060 4319     		add	r3, r0, r5
 193 0062 9DB2     		uxth	r5, r3
 194              	.LVL24:
 195 0064 E3E7     		b	.L6
 196              	.LVL25:
 197              	.L13:
 198              		.loc 1 134 0
 199 0066 2AB2     		sxth	r2, r5
 200 0068 5846     		mov	r0, fp
 201              	.LVL26:
 202 006a 0099     		ldr	r1, [sp]
 203 006c FFF7FEFF 		bl	mf_round_to_tab
 204              	.LVL27:
 205              		.loc 1 135 0
 206 0070 2027     		mov	r7, #32
 207              	.LVL28:
 208              		.loc 1 134 0
 209 0072 051C     		mov	r5, r0
 210              	.LVL29:
 211              		.loc 1 136 0
 212 0074 E3E7     		b	.L5
 213              	.LVL30:
 214              	.L12:
 215              		.loc 1 148 0
 216 0076 03B0     		add	sp, sp, #12
 217              		@ sp needed for prologue
 218              	.LVL31:
 219              	.LVL32:
 220              	.LVL33:
 221 0078 3CBC     		pop	{r2, r3, r4, r5}
 222 007a 9046     		mov	r8, r2
 223 007c 9946     		mov	r9, r3
 224 007e A246     		mov	sl, r4
 225 0080 AB46     		mov	fp, r5
 226 0082 F0BD     		pop	{r4, r5, r6, r7, pc}
ARM GAS  /tmp/cc1XYtGL.s 			page 5


 227              		.cfi_endproc
 228              	.LFE44:
 229              		.size	render_left, .-render_left
 230 0084 C046C046 		.section	.text.mf_get_string_width,"ax",%progbits
 230      C046C046 
 230      C046C046 
 231              		.align	2
 232              		.p2align 4,,15
 233              		.global	mf_get_string_width
 234              		.code	16
 235              		.thumb_func
 236              		.type	mf_get_string_width, %function
 237              	mf_get_string_width:
 238              	.LFB42:
 239              		.loc 1 53 0
 240              		.cfi_startproc
 241              	.LVL34:
 242 0000 F0B5     		push	{r4, r5, r6, r7, lr}
 243              	.LCFI4:
 244              		.cfi_def_cfa_offset 20
 245              		.cfi_offset 4, -20
 246              		.cfi_offset 5, -16
 247              		.cfi_offset 6, -12
 248              		.cfi_offset 7, -8
 249              		.cfi_offset 14, -4
 250 0002 4F46     		mov	r7, r9
 251 0004 4646     		mov	r6, r8
 252 0006 C0B4     		push	{r6, r7}
 253              	.LCFI5:
 254              		.cfi_def_cfa_offset 28
 255              		.cfi_offset 8, -28
 256              		.cfi_offset 9, -24
 257 0008 83B0     		sub	sp, sp, #12
 258              	.LCFI6:
 259              		.cfi_def_cfa_offset 40
 260              		.loc 1 53 0
 261 000a 8046     		mov	r8, r0
 262 000c 0191     		str	r1, [sp, #4]
 263 000e 151C     		mov	r5, r2
 264 0010 9946     		mov	r9, r3
 265              		.loc 1 57 0
 266 0012 00D1     		bne	.L15
 267              		.loc 1 58 0
 268 0014 504D     		ldr	r5, .L66
 269              	.L15:
 270              	.LVL35:
 271              		.loc 1 60 0 discriminator 1
 272 0016 019A     		ldr	r2, [sp, #4]
 273 0018 6B1E     		sub	r3, r5, #1
 274              	.LVL36:
 275 001a 1078     		ldrb	r0, [r2]
 276              	.LVL37:
 277 001c 0126     		mov	r6, #1
 278              		.loc 1 68 0 discriminator 1
 279 001e 0024     		mov	r4, #0
 280 0020 1E40     		and	r6, r3
 281              		.loc 1 60 0 discriminator 1
ARM GAS  /tmp/cc1XYtGL.s 			page 6


 282 0022 0028     		cmp	r0, #0
 283 0024 63D0     		beq	.L21
 284              		.loc 1 62 0
 285 0026 01A8     		add	r0, sp, #4
 286 0028 FFF7FEFF 		bl	mf_getchar
 287              	.LVL38:
 288 002c 071C     		mov	r7, r0
 289              		.loc 1 67 0
 290 002e 4046     		mov	r0, r8
 291              		.loc 1 64 0
 292 0030 092F     		cmp	r7, #9
 293 0032 00D1     		bne	.LCB283
 294 0034 88E0     		b	.L53	@long jump
 295              	.LCB283:
 296              	.LVL39:
 297              		.loc 1 78 0
 298 0036 391C     		mov	r1, r7
 299 0038 FFF7FEFF 		bl	mf_character_width
 300              	.LVL40:
 301 003c 84B2     		uxth	r4, r0
 302              	.LVL41:
 303              	.L54:
 304 003e 013D     		sub	r5, r5, #1
 305 0040 ADB2     		uxth	r5, r5
 306              	.LVL42:
 307              		.loc 1 60 0
 308 0042 002D     		cmp	r5, #0
 309 0044 53D0     		beq	.L21
 310 0046 002E     		cmp	r6, #0
 311 0048 21D0     		beq	.L16
 312 004a 0199     		ldr	r1, [sp, #4]
 313 004c 0B78     		ldrb	r3, [r1]
 314 004e 002B     		cmp	r3, #0
 315 0050 4DD0     		beq	.L21
 316              		.loc 1 62 0
 317 0052 01A8     		add	r0, sp, #4
 318 0054 FFF7FEFF 		bl	mf_getchar
 319              	.LVL43:
 320 0058 061E     		sub	r6, r0, #0
 321              		.loc 1 64 0
 322 005a 092E     		cmp	r6, #9
 323 005c 0CD0     		beq	.L58
 324              		.loc 1 75 0
 325 005e 4A46     		mov	r2, r9
 326 0060 002A     		cmp	r2, #0
 327 0062 01D0     		beq	.L34
 328 0064 002F     		cmp	r7, #0
 329 0066 60D1     		bne	.L62
 330              	.L34:
 331              		.loc 1 78 0
 332 0068 4046     		mov	r0, r8
 333 006a 311C     		mov	r1, r6
 334 006c FFF7FEFF 		bl	mf_character_width
 335              	.LVL44:
 336 0070 0719     		add	r7, r0, r4
 337 0072 BCB2     		uxth	r4, r7
 338              	.LVL45:
ARM GAS  /tmp/cc1XYtGL.s 			page 7


 339 0074 371C     		mov	r7, r6
 340              	.LVL46:
 341 0076 06E0     		b	.L60
 342              	.LVL47:
 343              	.L58:
 344              		.loc 1 67 0
 345 0078 22B2     		sxth	r2, r4
 346 007a 4046     		mov	r0, r8
 347 007c 0021     		mov	r1, #0
 348 007e FFF7FEFF 		bl	mf_round_to_tab
 349              	.LVL48:
 350              		.loc 1 68 0
 351 0082 2027     		mov	r7, #32
 352              		.loc 1 67 0
 353 0084 041C     		mov	r4, r0
 354              	.LVL49:
 355              	.L60:
 356 0086 013D     		sub	r5, r5, #1
 357 0088 ADB2     		uxth	r5, r5
 358              	.LVL50:
 359              		.loc 1 60 0
 360 008a 002D     		cmp	r5, #0
 361 008c 2FD0     		beq	.L21
 362              	.LVL51:
 363              	.L16:
 364              		.loc 1 60 0 is_stmt 0 discriminator 2
 365 008e 0198     		ldr	r0, [sp, #4]
 366 0090 0178     		ldrb	r1, [r0]
 367 0092 0029     		cmp	r1, #0
 368 0094 2BD0     		beq	.L21
 369              		.loc 1 62 0 is_stmt 1
 370 0096 01A8     		add	r0, sp, #4
 371 0098 FFF7FEFF 		bl	mf_getchar
 372              	.LVL52:
 373 009c 061E     		sub	r6, r0, #0
 374              	.LVL53:
 375              		.loc 1 64 0
 376 009e 092E     		cmp	r6, #9
 377 00a0 2BD0     		beq	.L63
 378              		.loc 1 75 0
 379 00a2 4B46     		mov	r3, r9
 380 00a4 002B     		cmp	r3, #0
 381 00a6 01D0     		beq	.L19
 382              		.loc 1 75 0 is_stmt 0 discriminator 1
 383 00a8 002F     		cmp	r7, #0
 384 00aa 2ED1     		bne	.L64
 385              	.LVL54:
 386              	.L19:
 387              		.loc 1 78 0 is_stmt 1
 388 00ac 4046     		mov	r0, r8
 389 00ae 311C     		mov	r1, r6
 390 00b0 FFF7FEFF 		bl	mf_character_width
 391              	.LVL55:
 392 00b4 0419     		add	r4, r0, r4
 393              	.LVL56:
 394 00b6 A4B2     		uxth	r4, r4
 395              	.LVL57:
ARM GAS  /tmp/cc1XYtGL.s 			page 8


 396              	.L18:
 397              		.loc 1 60 0 discriminator 1
 398 00b8 019F     		ldr	r7, [sp, #4]
 399 00ba 013D     		sub	r5, r5, #1
 400 00bc 3878     		ldrb	r0, [r7]
 401 00be ADB2     		uxth	r5, r5
 402              	.LVL58:
 403 00c0 0028     		cmp	r0, #0
 404 00c2 14D0     		beq	.L21
 405              		.loc 1 62 0
 406 00c4 01A8     		add	r0, sp, #4
 407 00c6 FFF7FEFF 		bl	mf_getchar
 408              	.LVL59:
 409 00ca 071E     		sub	r7, r0, #0
 410              		.loc 1 64 0
 411 00cc 092F     		cmp	r7, #9
 412 00ce D3D0     		beq	.L58
 413              		.loc 1 75 0
 414 00d0 4946     		mov	r1, r9
 415 00d2 0029     		cmp	r1, #0
 416 00d4 01D0     		beq	.L39
 417 00d6 002E     		cmp	r6, #0
 418 00d8 1FD1     		bne	.L65
 419              	.LVL60:
 420              	.L39:
 421              		.loc 1 78 0
 422 00da 4046     		mov	r0, r8
 423 00dc 391C     		mov	r1, r7
 424 00de FFF7FEFF 		bl	mf_character_width
 425              	.LVL61:
 426 00e2 013D     		sub	r5, r5, #1
 427 00e4 0319     		add	r3, r0, r4
 428 00e6 ADB2     		uxth	r5, r5
 429 00e8 9CB2     		uxth	r4, r3
 430              	.LVL62:
 431              		.loc 1 60 0
 432 00ea 002D     		cmp	r5, #0
 433 00ec CFD1     		bne	.L16
 434              	.LVL63:
 435              	.L21:
 436              		.loc 1 82 0
 437 00ee 20B2     		sxth	r0, r4
 438              		.loc 1 83 0
 439 00f0 03B0     		add	sp, sp, #12
 440              		@ sp needed for prologue
 441              	.LVL64:
 442 00f2 0CBC     		pop	{r2, r3}
 443 00f4 9046     		mov	r8, r2
 444 00f6 9946     		mov	r9, r3
 445 00f8 F0BD     		pop	{r4, r5, r6, r7, pc}
 446              	.LVL65:
 447              	.L63:
 448              		.loc 1 67 0
 449 00fa 22B2     		sxth	r2, r4
 450 00fc 4046     		mov	r0, r8
 451              	.LVL66:
 452 00fe 0021     		mov	r1, #0
ARM GAS  /tmp/cc1XYtGL.s 			page 9


 453 0100 FFF7FEFF 		bl	mf_round_to_tab
 454              	.LVL67:
 455              		.loc 1 68 0
 456 0104 2026     		mov	r6, #32
 457              	.LVL68:
 458              		.loc 1 67 0
 459 0106 041C     		mov	r4, r0
 460              	.LVL69:
 461              		.loc 1 69 0
 462 0108 D6E7     		b	.L18
 463              	.LVL70:
 464              	.L64:
 465              		.loc 1 76 0
 466 010a 321C     		mov	r2, r6
 467 010c F9B2     		uxtb	r1, r7
 468 010e 4046     		mov	r0, r8
 469              	.LVL71:
 470 0110 FFF7FEFF 		bl	mf_compute_kerning
 471              	.LVL72:
 472 0114 0219     		add	r2, r0, r4
 473 0116 94B2     		uxth	r4, r2
 474              	.LVL73:
 475 0118 C8E7     		b	.L19
 476              	.LVL74:
 477              	.L65:
 478 011a F1B2     		uxtb	r1, r6
 479 011c 4046     		mov	r0, r8
 480 011e 3A1C     		mov	r2, r7
 481 0120 FFF7FEFF 		bl	mf_compute_kerning
 482              	.LVL75:
 483 0124 0619     		add	r6, r0, r4
 484 0126 B4B2     		uxth	r4, r6
 485              	.LVL76:
 486 0128 D7E7     		b	.L39
 487              	.LVL77:
 488              	.L62:
 489 012a F9B2     		uxtb	r1, r7
 490 012c 321C     		mov	r2, r6
 491 012e 4046     		mov	r0, r8
 492 0130 FFF7FEFF 		bl	mf_compute_kerning
 493              	.LVL78:
 494              		.loc 1 78 0
 495 0134 311C     		mov	r1, r6
 496              		.loc 1 76 0
 497 0136 0419     		add	r4, r0, r4
 498              	.LVL79:
 499              		.loc 1 78 0
 500 0138 4046     		mov	r0, r8
 501 013a FFF7FEFF 		bl	mf_character_width
 502              	.LVL80:
 503              		.loc 1 76 0
 504 013e A4B2     		uxth	r4, r4
 505              	.LVL81:
 506              		.loc 1 78 0
 507 0140 0719     		add	r7, r0, r4
 508 0142 BCB2     		uxth	r4, r7
 509              	.LVL82:
ARM GAS  /tmp/cc1XYtGL.s 			page 10


 510 0144 371C     		mov	r7, r6
 511              	.LVL83:
 512 0146 9EE7     		b	.L60
 513              	.LVL84:
 514              	.L53:
 515              		.loc 1 67 0
 516 0148 0021     		mov	r1, #0
 517 014a 0022     		mov	r2, #0
 518 014c FFF7FEFF 		bl	mf_round_to_tab
 519              	.LVL85:
 520              		.loc 1 68 0
 521 0150 2027     		mov	r7, #32
 522              		.loc 1 67 0
 523 0152 041C     		mov	r4, r0
 524              	.LVL86:
 525 0154 73E7     		b	.L54
 526              	.L67:
 527 0156 C046     		.align	2
 528              	.L66:
 529 0158 FFFF0000 		.word	65535
 530              		.cfi_endproc
 531              	.LFE42:
 532              		.size	mf_get_string_width, .-mf_get_string_width
 533 015c C046C046 		.section	.text.mf_render_aligned,"ax",%progbits
 534              		.align	2
 535              		.p2align 4,,15
 536              		.global	mf_render_aligned
 537              		.code	16
 538              		.thumb_func
 539              		.type	mf_render_aligned, %function
 540              	mf_render_aligned:
 541              	.LFB46:
 542              		.loc 1 219 0
 543              		.cfi_startproc
 544              	.LVL87:
 545 0000 F0B5     		push	{r4, r5, r6, r7, lr}
 546              	.LCFI7:
 547              		.cfi_def_cfa_offset 20
 548              		.cfi_offset 4, -20
 549              		.cfi_offset 5, -16
 550              		.cfi_offset 6, -12
 551              		.cfi_offset 7, -8
 552              		.cfi_offset 14, -4
 553 0002 5F46     		mov	r7, fp
 554 0004 4D46     		mov	r5, r9
 555 0006 4446     		mov	r4, r8
 556 0008 5646     		mov	r6, sl
 557 000a F0B4     		push	{r4, r5, r6, r7}
 558              	.LCFI8:
 559              		.cfi_def_cfa_offset 36
 560              		.cfi_offset 8, -36
 561              		.cfi_offset 9, -32
 562              		.cfi_offset 10, -28
 563              		.cfi_offset 11, -24
 564 000c 8BB0     		sub	sp, sp, #44
 565              	.LCFI9:
 566              		.cfi_def_cfa_offset 80
ARM GAS  /tmp/cc1XYtGL.s 			page 11


 567              		.loc 1 219 0
 568 000e 9946     		mov	r9, r3
 569 0010 14AB     		add	r3, sp, #80
 570              	.LVL88:
 571 0012 9046     		mov	r8, r2
 572 0014 04CB     		ldmia	r3!, {r2}
 573              	.LVL89:
 574 0016 051C     		mov	r5, r0
 575 0018 1F88     		ldrh	r7, [r3]
 576 001a 8B46     		mov	fp, r1
 577 001c 0792     		str	r2, [sp, #28]
 578              	.LVL90:
 579              	.LBB8:
 580              	.LBB9:
 581              		.loc 1 91 0
 582 001e 002F     		cmp	r7, #0
 583 0020 00D1     		bne	.L69
 584              		.loc 1 92 0
 585 0022 C64F     		ldr	r7, .L189
 586              	.L69:
 587              	.LVL91:
 588              		.loc 1 94 0
 589 0024 079E     		ldr	r6, [sp, #28]
 590 0026 781E     		sub	r0, r7, #1
 591              	.LVL92:
 592 0028 0121     		mov	r1, #1
 593              	.LVL93:
 594 002a 3378     		ldrb	r3, [r6]
 595 002c 0140     		and	r1, r0
 596              		.loc 1 101 0
 597 002e 0024     		mov	r4, #0
 598 0030 8A46     		mov	sl, r1
 599              		.loc 1 94 0
 600 0032 002B     		cmp	r3, #0
 601 0034 41D0     		beq	.L75
 602              		.loc 1 97 0
 603 0036 07A8     		add	r0, sp, #28
 604              		.loc 1 96 0
 605 0038 0126     		mov	r6, #1
 606              		.loc 1 97 0
 607 003a FFF7FEFF 		bl	mf_getchar
 608              	.LVL94:
 609              		.loc 1 98 0
 610 003e 2028     		cmp	r0, #32
 611 0040 08D0     		beq	.L117
 612 0042 A028     		cmp	r0, #160
 613 0044 06D0     		beq	.L117
 614 0046 0A28     		cmp	r0, #10
 615 0048 04D0     		beq	.L117
 616 004a 0D28     		cmp	r0, #13
 617 004c 02D0     		beq	.L117
 618              		.loc 1 99 0
 619 004e 0928     		cmp	r0, #9
 620 0050 00D0     		beq	.L117
 621              		.loc 1 101 0
 622 0052 0124     		mov	r4, #1
 623              	.L117:
ARM GAS  /tmp/cc1XYtGL.s 			page 12


 624              	.LVL95:
 625              		.loc 1 94 0
 626 0054 BE42     		cmp	r6, r7
 627 0056 30D0     		beq	.L75
 628 0058 5246     		mov	r2, sl
 629 005a 002A     		cmp	r2, #0
 630 005c 15D0     		beq	.L70
 631              	.LVL96:
 632              	.L126:
 633 005e 0798     		ldr	r0, [sp, #28]
 634 0060 0178     		ldrb	r1, [r0]
 635 0062 0029     		cmp	r1, #0
 636 0064 29D0     		beq	.L75
 637              	.L180:
 638              		.loc 1 96 0
 639 0066 0136     		add	r6, r6, #1
 640              		.loc 1 97 0
 641 0068 07A8     		add	r0, sp, #28
 642              		.loc 1 96 0
 643 006a B6B2     		uxth	r6, r6
 644              	.LVL97:
 645              		.loc 1 97 0
 646 006c FFF7FEFF 		bl	mf_getchar
 647              	.LVL98:
 648              		.loc 1 98 0
 649 0070 2028     		cmp	r0, #32
 650 0072 08D0     		beq	.L124
 651 0074 A028     		cmp	r0, #160
 652 0076 06D0     		beq	.L124
 653 0078 0A28     		cmp	r0, #10
 654 007a 04D0     		beq	.L124
 655 007c 0D28     		cmp	r0, #13
 656 007e 02D0     		beq	.L124
 657              		.loc 1 99 0
 658 0080 0928     		cmp	r0, #9
 659 0082 00D0     		beq	.L124
 660              		.loc 1 101 0
 661 0084 341C     		mov	r4, r6
 662              	.L124:
 663              		.loc 1 94 0
 664 0086 BE42     		cmp	r6, r7
 665 0088 17D0     		beq	.L75
 666              	.LVL99:
 667              	.L70:
 668 008a 079B     		ldr	r3, [sp, #28]
 669 008c 1A78     		ldrb	r2, [r3]
 670 008e 002A     		cmp	r2, #0
 671 0090 13D0     		beq	.L75
 672              		.loc 1 96 0
 673 0092 0136     		add	r6, r6, #1
 674              		.loc 1 97 0
 675 0094 07A8     		add	r0, sp, #28
 676              		.loc 1 96 0
 677 0096 B6B2     		uxth	r6, r6
 678              	.LVL100:
 679              		.loc 1 97 0
 680 0098 FFF7FEFF 		bl	mf_getchar
ARM GAS  /tmp/cc1XYtGL.s 			page 13


 681              	.LVL101:
 682              		.loc 1 98 0
 683 009c 2028     		cmp	r0, #32
 684 009e DED0     		beq	.L126
 685 00a0 A028     		cmp	r0, #160
 686 00a2 DCD0     		beq	.L126
 687 00a4 0A28     		cmp	r0, #10
 688 00a6 DAD0     		beq	.L126
 689 00a8 0D28     		cmp	r0, #13
 690 00aa D8D0     		beq	.L126
 691              		.loc 1 99 0
 692 00ac 0928     		cmp	r0, #9
 693 00ae D6D0     		beq	.L126
 694              		.loc 1 94 0
 695 00b0 0798     		ldr	r0, [sp, #28]
 696              	.LVL102:
 697              		.loc 1 101 0
 698 00b2 341C     		mov	r4, r6
 699              		.loc 1 94 0
 700 00b4 0178     		ldrb	r1, [r0]
 701 00b6 0029     		cmp	r1, #0
 702 00b8 D5D1     		bne	.L180
 703              	.LVL103:
 704              	.L75:
 705              	.LBE9:
 706              	.LBE8:
 707              		.loc 1 223 0
 708 00ba 4F46     		mov	r7, r9
 709 00bc 002F     		cmp	r7, #0
 710 00be 0BD0     		beq	.L181
 711              		.loc 1 227 0
 712 00c0 012F     		cmp	r7, #1
 713 00c2 00D1     		bne	.LCB741
 714 00c4 22E1     		b	.L182	@long jump
 715              	.LCB741:
 716              		.loc 1 233 0
 717 00c6 022F     		cmp	r7, #2
 718 00c8 12D0     		beq	.L183
 719              	.LVL104:
 720              	.L68:
 721              		.loc 1 237 0
 722 00ca 0BB0     		add	sp, sp, #44
 723              		@ sp needed for prologue
 724              	.LVL105:
 725 00cc 3CBC     		pop	{r2, r3, r4, r5}
 726 00ce 9046     		mov	r8, r2
 727 00d0 9946     		mov	r9, r3
 728 00d2 A246     		mov	sl, r4
 729 00d4 AB46     		mov	fp, r5
 730 00d6 F0BD     		pop	{r4, r5, r6, r7, pc}
 731              	.LVL106:
 732              	.L181:
 733              		.loc 1 225 0
 734 00d8 179A     		ldr	r2, [sp, #92]
 735 00da 169E     		ldr	r6, [sp, #88]
 736 00dc 0292     		str	r2, [sp, #8]
 737 00de 0094     		str	r4, [sp]
ARM GAS  /tmp/cc1XYtGL.s 			page 14


 738 00e0 0196     		str	r6, [sp, #4]
 739 00e2 281C     		mov	r0, r5
 740 00e4 5946     		mov	r1, fp
 741 00e6 4246     		mov	r2, r8
 742 00e8 149B     		ldr	r3, [sp, #80]
 743 00ea FFF7FEFF 		bl	render_left
 744              	.LVL107:
 745 00ee ECE7     		b	.L68
 746              	.L183:
 747              	.LVL108:
 748 00f0 149E     		ldr	r6, [sp, #80]
 749 00f2 0896     		str	r6, [sp, #32]
 750              	.LVL109:
 751              	.LBB10:
 752              	.LBB11:
 753              		.loc 1 179 0
 754 00f4 002C     		cmp	r4, #0
 755 00f6 E8D0     		beq	.L68
 756 00f8 0122     		mov	r2, #1
 757 00fa 631E     		sub	r3, r4, #1
 758 00fc 171C     		mov	r7, r2
 759              		.loc 1 180 0
 760 00fe 08A8     		add	r0, sp, #32
 761              		.loc 1 179 0
 762 0100 0126     		mov	r6, #1
 763 0102 1F40     		and	r7, r3
 764              		.loc 1 180 0
 765 0104 FFF7FEFF 		bl	mf_getchar
 766              	.LVL110:
 767              		.loc 1 179 0
 768 0108 A642     		cmp	r6, r4
 769 010a 13D0     		beq	.L155
 770 010c 002F     		cmp	r7, #0
 771 010e 05D0     		beq	.L98
 772              		.loc 1 180 0
 773 0110 08A8     		add	r0, sp, #32
 774              		.loc 1 179 0
 775 0112 0226     		mov	r6, #2
 776              		.loc 1 180 0
 777 0114 FFF7FEFF 		bl	mf_getchar
 778              	.LVL111:
 779              		.loc 1 179 0
 780 0118 A642     		cmp	r6, r4
 781 011a 0BD0     		beq	.L155
 782              	.LVL112:
 783              	.L98:
 784 011c 0136     		add	r6, r6, #1
 785 011e B7B2     		uxth	r7, r6
 786              		.loc 1 180 0
 787 0120 08A8     		add	r0, sp, #32
 788              		.loc 1 179 0
 789 0122 0137     		add	r7, r7, #1
 790              		.loc 1 180 0
 791 0124 FFF7FEFF 		bl	mf_getchar
 792              	.LVL113:
 793              		.loc 1 179 0
 794 0128 BEB2     		uxth	r6, r7
ARM GAS  /tmp/cc1XYtGL.s 			page 15


 795              		.loc 1 180 0
 796 012a 08A8     		add	r0, sp, #32
 797 012c FFF7FEFF 		bl	mf_getchar
 798              	.LVL114:
 799              		.loc 1 179 0
 800 0130 A642     		cmp	r6, r4
 801 0132 F3D1     		bne	.L98
 802              	.LVL115:
 803              	.L155:
 804              		.loc 1 182 0
 805 0134 5846     		mov	r0, fp
 806 0136 2B7B     		ldrb	r3, [r5, #12]
 807 0138 81B2     		uxth	r1, r0
 808 013a 0127     		mov	r7, #1
 809 013c 601E     		sub	r0, r4, #1
 810 013e CA1A     		sub	r2, r1, r3
 811 0140 0740     		and	r7, r0
 812              		.loc 1 185 0
 813 0142 08A8     		add	r0, sp, #32
 814              		.loc 1 182 0
 815 0144 96B2     		uxth	r6, r2
 816 0146 8B46     		mov	fp, r1
 817              	.LVL116:
 818 0148 0497     		str	r7, [sp, #16]
 819              		.loc 1 185 0
 820 014a FFF7FEFF 		bl	mf_rewind
 821              	.LVL117:
 822              		.loc 1 186 0
 823 014e 0899     		ldr	r1, [sp, #32]
 824              		.loc 1 187 0
 825 0150 09A8     		add	r0, sp, #36
 826              		.loc 1 186 0
 827 0152 0991     		str	r1, [sp, #36]
 828              	.LVL118:
 829              		.loc 1 187 0
 830 0154 FFF7FEFF 		bl	mf_getchar
 831              	.LVL119:
 832              		.loc 1 182 0
 833 0158 B246     		mov	sl, r6
 834              	.LVL120:
 835              		.loc 1 187 0
 836 015a 061E     		sub	r6, r0, #0
 837              		.loc 1 190 0
 838 015c 092E     		cmp	r6, #9
 839 015e 00D1     		bne	.LCB870
 840 0160 EEE0     		b	.L184	@long jump
 841              	.LCB870:
 842              		.loc 1 202 0
 843 0162 311C     		mov	r1, r6
 844 0164 281C     		mov	r0, r5
 845 0166 FFF7FEFF 		bl	mf_character_width
 846              	.LVL121:
 847 016a 5346     		mov	r3, sl
 848 016c 1A1A     		sub	r2, r3, r0
 849 016e 90B2     		uxth	r0, r2
 850 0170 8146     		mov	r9, r0
 851              	.LVL122:
ARM GAS  /tmp/cc1XYtGL.s 			page 16


 852              		.loc 1 208 0
 853 0172 4146     		mov	r1, r8
 854 0174 00B2     		sxth	r0, r0
 855 0176 321C     		mov	r2, r6
 856              	.LVL123:
 857 0178 179B     		ldr	r3, [sp, #92]
 858 017a 169F     		ldr	r7, [sp, #88]
 859 017c B847     		blx	r7
 860              	.LVL124:
 861 017e B246     		mov	sl, r6
 862              	.LVL125:
 863              	.L158:
 864              		.loc 1 183 0
 865 0180 0121     		mov	r1, #1
 866 0182 0591     		str	r1, [sp, #20]
 867              	.LVL126:
 868 0184 A142     		cmp	r1, r4
 869 0186 A0D0     		beq	.L68
 870 0188 0498     		ldr	r0, [sp, #16]
 871 018a 0028     		cmp	r0, #0
 872 018c 28D0     		beq	.L84
 873              		.loc 1 185 0
 874 018e 08A8     		add	r0, sp, #32
 875 0190 FFF7FEFF 		bl	mf_rewind
 876              	.LVL127:
 877              		.loc 1 186 0
 878 0194 089F     		ldr	r7, [sp, #32]
 879              		.loc 1 187 0
 880 0196 09A8     		add	r0, sp, #36
 881              		.loc 1 186 0
 882 0198 0997     		str	r7, [sp, #36]
 883              		.loc 1 187 0
 884 019a FFF7FEFF 		bl	mf_getchar
 885              	.LVL128:
 886 019e 071C     		mov	r7, r0
 887              	.LBB12:
 888              	.LBB13:
 889              		.loc 1 38 0
 890 01a0 281C     		mov	r0, r5
 891              	.LBE13:
 892              	.LBE12:
 893              		.loc 1 190 0
 894 01a2 092F     		cmp	r7, #9
 895 01a4 00D1     		bne	.LCB923
 896 01a6 E7E0     		b	.L159	@long jump
 897              	.LCB923:
 898              	.LVL129:
 899              		.loc 1 202 0
 900 01a8 391C     		mov	r1, r7
 901 01aa FFF7FEFF 		bl	mf_character_width
 902              	.LVL130:
 903 01ae 4B46     		mov	r3, r9
 904 01b0 1E1A     		sub	r6, r3, r0
 905 01b2 B2B2     		uxth	r2, r6
 906              		.loc 1 205 0
 907 01b4 5146     		mov	r1, sl
 908              		.loc 1 202 0
ARM GAS  /tmp/cc1XYtGL.s 			page 17


 909 01b6 9146     		mov	r9, r2
 910              	.LVL131:
 911              		.loc 1 205 0
 912 01b8 0029     		cmp	r1, #0
 913 01ba 00D0     		beq	.LCB939
 914 01bc F0E0     		b	.L185	@long jump
 915              	.LCB939:
 916              		.loc 1 202 0
 917 01be 93B2     		uxth	r3, r2
 918 01c0 9946     		mov	r9, r3
 919              	.L162:
 920              	.LVL132:
 921              		.loc 1 208 0
 922 01c2 4846     		mov	r0, r9
 923 01c4 00B2     		sxth	r0, r0
 924 01c6 4146     		mov	r1, r8
 925 01c8 3A1C     		mov	r2, r7
 926 01ca 179B     		ldr	r3, [sp, #92]
 927 01cc 169E     		ldr	r6, [sp, #88]
 928 01ce B047     		blx	r6
 929              	.LVL133:
 930 01d0 BA46     		mov	sl, r7
 931              	.LVL134:
 932              	.L164:
 933              		.loc 1 183 0
 934 01d2 0599     		ldr	r1, [sp, #20]
 935 01d4 0131     		add	r1, r1, #1
 936 01d6 88B2     		uxth	r0, r1
 937 01d8 0590     		str	r0, [sp, #20]
 938              	.LVL135:
 939 01da A042     		cmp	r0, r4
 940 01dc 00D1     		bne	.LCB969
 941 01de 74E7     		b	.L68	@long jump
 942              	.LCB969:
 943              	.LVL136:
 944              	.L84:
 945              		.loc 1 185 0
 946 01e0 08A8     		add	r0, sp, #32
 947 01e2 FFF7FEFF 		bl	mf_rewind
 948              	.LVL137:
 949              		.loc 1 186 0
 950 01e6 089E     		ldr	r6, [sp, #32]
 951              		.loc 1 187 0
 952 01e8 09A8     		add	r0, sp, #36
 953              		.loc 1 186 0
 954 01ea 0996     		str	r6, [sp, #36]
 955              		.loc 1 187 0
 956 01ec FFF7FEFF 		bl	mf_getchar
 957              	.LVL138:
 958 01f0 071C     		mov	r7, r0
 959              	.LVL139:
 960              	.LBB17:
 961              	.LBB14:
 962              		.loc 1 38 0
 963 01f2 281C     		mov	r0, r5
 964              	.LVL140:
 965              	.LBE14:
ARM GAS  /tmp/cc1XYtGL.s 			page 18


 966              	.LBE17:
 967              		.loc 1 190 0
 968 01f4 092F     		cmp	r7, #9
 969 01f6 3ED0     		beq	.L186
 970              	.LVL141:
 971              		.loc 1 202 0
 972 01f8 391C     		mov	r1, r7
 973 01fa FFF7FEFF 		bl	mf_character_width
 974              	.LVL142:
 975 01fe 4B46     		mov	r3, r9
 976 0200 1A1A     		sub	r2, r3, r0
 977 0202 91B2     		uxth	r1, r2
 978              		.loc 1 205 0
 979 0204 5046     		mov	r0, sl
 980              		.loc 1 202 0
 981 0206 8946     		mov	r9, r1
 982              	.LVL143:
 983              		.loc 1 205 0
 984 0208 0028     		cmp	r0, #0
 985 020a 6BD1     		bne	.L82
 986              		.loc 1 202 0
 987 020c 8BB2     		uxth	r3, r1
 988 020e 9946     		mov	r9, r3
 989              	.LVL144:
 990              	.L83:
 991              		.loc 1 208 0
 992 0210 4E46     		mov	r6, r9
 993 0212 30B2     		sxth	r0, r6
 994 0214 4146     		mov	r1, r8
 995 0216 3A1C     		mov	r2, r7
 996 0218 179B     		ldr	r3, [sp, #92]
 997 021a 169E     		ldr	r6, [sp, #88]
 998 021c B047     		blx	r6
 999              	.LVL145:
 1000 021e BA46     		mov	sl, r7
 1001              	.LVL146:
 1002              	.L81:
 1003              		.loc 1 183 0
 1004 0220 0599     		ldr	r1, [sp, #20]
 1005 0222 0131     		add	r1, r1, #1
 1006 0224 88B2     		uxth	r0, r1
 1007 0226 0590     		str	r0, [sp, #20]
 1008              		.loc 1 185 0
 1009 0228 08A8     		add	r0, sp, #32
 1010 022a FFF7FEFF 		bl	mf_rewind
 1011              	.LVL147:
 1012              		.loc 1 186 0
 1013 022e 089E     		ldr	r6, [sp, #32]
 1014              		.loc 1 187 0
 1015 0230 09A8     		add	r0, sp, #36
 1016              		.loc 1 186 0
 1017 0232 0996     		str	r6, [sp, #36]
 1018              		.loc 1 187 0
 1019 0234 FFF7FEFF 		bl	mf_getchar
 1020              	.LVL148:
 1021 0238 061E     		sub	r6, r0, #0
 1022              		.loc 1 190 0
ARM GAS  /tmp/cc1XYtGL.s 			page 19


 1023 023a 092E     		cmp	r6, #9
 1024 023c 36D0     		beq	.L187
 1025              		.loc 1 202 0
 1026 023e 311C     		mov	r1, r6
 1027 0240 281C     		mov	r0, r5
 1028 0242 FFF7FEFF 		bl	mf_character_width
 1029              	.LVL149:
 1030 0246 4B46     		mov	r3, r9
 1031 0248 1F1A     		sub	r7, r3, r0
 1032 024a BAB2     		uxth	r2, r7
 1033              		.loc 1 205 0
 1034 024c 5146     		mov	r1, sl
 1035              		.loc 1 202 0
 1036 024e 9146     		mov	r9, r2
 1037              		.loc 1 205 0
 1038 0250 0029     		cmp	r1, #0
 1039 0252 51D1     		bne	.L188
 1040              		.loc 1 202 0
 1041 0254 93B2     		uxth	r3, r2
 1042 0256 9946     		mov	r9, r3
 1043              	.L165:
 1044              	.LVL150:
 1045              		.loc 1 208 0
 1046 0258 4846     		mov	r0, r9
 1047 025a 4146     		mov	r1, r8
 1048 025c 00B2     		sxth	r0, r0
 1049 025e 321C     		mov	r2, r6
 1050 0260 179B     		ldr	r3, [sp, #92]
 1051 0262 169F     		ldr	r7, [sp, #88]
 1052 0264 B847     		blx	r7
 1053              	.LVL151:
 1054              		.loc 1 183 0
 1055 0266 0599     		ldr	r1, [sp, #20]
 1056              		.loc 1 208 0
 1057 0268 B246     		mov	sl, r6
 1058              		.loc 1 183 0
 1059 026a 0131     		add	r1, r1, #1
 1060 026c 88B2     		uxth	r0, r1
 1061 026e 0590     		str	r0, [sp, #20]
 1062 0270 A042     		cmp	r0, r4
 1063 0272 B5D1     		bne	.L84
 1064 0274 29E7     		b	.L68
 1065              	.LVL152:
 1066              	.L186:
 1067              	.LBB18:
 1068              	.LBB15:
 1069              		.loc 1 38 0
 1070 0276 6D21     		mov	r1, #109
 1071 0278 FFF7FEFF 		bl	mf_character_width
 1072              	.LVL153:
 1073              		.loc 1 41 0
 1074 027c 2021     		mov	r1, #32
 1075              		.loc 1 38 0
 1076 027e C700     		lsl	r7, r0, #3
 1077              	.LVL154:
 1078              		.loc 1 41 0
 1079 0280 281C     		mov	r0, r5
ARM GAS  /tmp/cc1XYtGL.s 			page 20


 1080 0282 FFF7FEFF 		bl	mf_character_width
 1081              	.LVL155:
 1082 0286 4B46     		mov	r3, r9
 1083              		.loc 1 44 0
 1084 0288 2E7B     		ldrb	r6, [r5, #12]
 1085              		.loc 1 41 0
 1086 028a 1A1A     		sub	r2, r3, r0
 1087 028c 91B2     		uxth	r1, r2
 1088              		.loc 1 38 0
 1089 028e BFB2     		uxth	r7, r7
 1090              	.LVL156:
 1091              		.loc 1 44 0
 1092 0290 5E44     		add	r6, r6, fp
 1093              		.loc 1 45 0
 1094 0292 C81B     		sub	r0, r1, r7
 1095              		.loc 1 44 0
 1096 0294 731A     		sub	r3, r6, r1
 1097              		.loc 1 45 0
 1098 0296 8146     		mov	r9, r0
 1099 0298 391C     		mov	r1, r7
 1100              	.LVL157:
 1101 029a 18B2     		sxth	r0, r3
 1102 029c FFF7FEFF 		bl	__aeabi_idivmod
 1103              	.LVL158:
 1104 02a0 4944     		add	r1, r1, r9
 1105 02a2 8FB2     		uxth	r7, r1
 1106              	.LVL159:
 1107              		.loc 1 194 0
 1108 02a4 2022     		mov	r2, #32
 1109              		.loc 1 45 0
 1110 02a6 B946     		mov	r9, r7
 1111              	.LVL160:
 1112              		.loc 1 194 0
 1113 02a8 9246     		mov	sl, r2
 1114 02aa B9E7     		b	.L81
 1115              	.LVL161:
 1116              	.L187:
 1117              		.loc 1 38 0
 1118 02ac 6D21     		mov	r1, #109
 1119 02ae 281C     		mov	r0, r5
 1120 02b0 FFF7FEFF 		bl	mf_character_width
 1121              	.LVL162:
 1122              		.loc 1 41 0
 1123 02b4 2021     		mov	r1, #32
 1124              		.loc 1 38 0
 1125 02b6 C600     		lsl	r6, r0, #3
 1126              		.loc 1 41 0
 1127 02b8 281C     		mov	r0, r5
 1128 02ba FFF7FEFF 		bl	mf_character_width
 1129              	.LVL163:
 1130 02be 4B46     		mov	r3, r9
 1131              		.loc 1 44 0
 1132 02c0 2F7B     		ldrb	r7, [r5, #12]
 1133              		.loc 1 41 0
 1134 02c2 1A1A     		sub	r2, r3, r0
 1135 02c4 91B2     		uxth	r1, r2
 1136              		.loc 1 38 0
ARM GAS  /tmp/cc1XYtGL.s 			page 21


 1137 02c6 B6B2     		uxth	r6, r6
 1138              		.loc 1 44 0
 1139 02c8 5F44     		add	r7, r7, fp
 1140              		.loc 1 45 0
 1141 02ca 881B     		sub	r0, r1, r6
 1142              		.loc 1 44 0
 1143 02cc 7B1A     		sub	r3, r7, r1
 1144              		.loc 1 45 0
 1145 02ce 8246     		mov	sl, r0
 1146              	.LVL164:
 1147 02d0 311C     		mov	r1, r6
 1148 02d2 18B2     		sxth	r0, r3
 1149              	.LVL165:
 1150              	.L167:
 1151 02d4 FFF7FEFF 		bl	__aeabi_idivmod
 1152              	.LVL166:
 1153 02d8 5144     		add	r1, r1, sl
 1154 02da 8FB2     		uxth	r7, r1
 1155              		.loc 1 194 0
 1156 02dc 2022     		mov	r2, #32
 1157              		.loc 1 45 0
 1158 02de B946     		mov	r9, r7
 1159              	.LVL167:
 1160              		.loc 1 194 0
 1161 02e0 9246     		mov	sl, r2
 1162 02e2 76E7     		b	.L164
 1163              	.LVL168:
 1164              	.L82:
 1165              	.LBE15:
 1166              	.LBE18:
 1167              		.loc 1 206 0
 1168 02e4 391C     		mov	r1, r7
 1169 02e6 5246     		mov	r2, sl
 1170              	.LVL169:
 1171 02e8 281C     		mov	r0, r5
 1172 02ea FFF7FEFF 		bl	mf_compute_kerning
 1173              	.LVL170:
 1174 02ee 4A46     		mov	r2, r9
 1175 02f0 111A     		sub	r1, r2, r0
 1176 02f2 88B2     		uxth	r0, r1
 1177 02f4 8146     		mov	r9, r0
 1178              	.LVL171:
 1179 02f6 8BE7     		b	.L83
 1180              	.LVL172:
 1181              	.L188:
 1182 02f8 311C     		mov	r1, r6
 1183              	.LVL173:
 1184 02fa 5246     		mov	r2, sl
 1185 02fc 281C     		mov	r0, r5
 1186 02fe FFF7FEFF 		bl	mf_compute_kerning
 1187              	.LVL174:
 1188 0302 4F46     		mov	r7, r9
 1189 0304 3A1A     		sub	r2, r7, r0
 1190 0306 91B2     		uxth	r1, r2
 1191 0308 8946     		mov	r9, r1
 1192              	.LVL175:
 1193 030a A5E7     		b	.L165
ARM GAS  /tmp/cc1XYtGL.s 			page 22


 1194              	.LVL176:
 1195              	.L182:
 1196              	.LBE11:
 1197              	.LBE10:
 1198              		.loc 1 229 0
 1199 030c 1499     		ldr	r1, [sp, #80]
 1200 030e 221C     		mov	r2, r4
 1201 0310 281C     		mov	r0, r5
 1202 0312 0023     		mov	r3, #0
 1203 0314 FFF7FEFF 		bl	mf_get_string_width
 1204              	.LVL177:
 1205              		.loc 1 230 0
 1206 0318 C60F     		lsr	r6, r0, #31
 1207 031a 3218     		add	r2, r6, r0
 1208 031c 5110     		asr	r1, r2, #1
 1209 031e 5846     		mov	r0, fp
 1210              	.LVL178:
 1211              		.loc 1 231 0
 1212 0320 179B     		ldr	r3, [sp, #92]
 1213 0322 0094     		str	r4, [sp]
 1214 0324 169C     		ldr	r4, [sp, #88]
 1215              		.loc 1 230 0
 1216 0326 471A     		sub	r7, r0, r1
 1217              	.LVL179:
 1218              		.loc 1 231 0
 1219 0328 0293     		str	r3, [sp, #8]
 1220 032a 39B2     		sxth	r1, r7
 1221 032c 0194     		str	r4, [sp, #4]
 1222 032e 281C     		mov	r0, r5
 1223 0330 4246     		mov	r2, r8
 1224 0332 149B     		ldr	r3, [sp, #80]
 1225 0334 FFF7FEFF 		bl	render_left
 1226              	.LVL180:
 1227 0338 C7E6     		b	.L68
 1228              	.L190:
 1229 033a C046     		.align	2
 1230              	.L189:
 1231 033c FFFF0000 		.word	65535
 1232              	.LVL181:
 1233              	.L184:
 1234              	.LBB21:
 1235              	.LBB20:
 1236              	.LBB19:
 1237              	.LBB16:
 1238              		.loc 1 38 0
 1239 0340 6D21     		mov	r1, #109
 1240 0342 281C     		mov	r0, r5
 1241 0344 FFF7FEFF 		bl	mf_character_width
 1242              	.LVL182:
 1243 0348 C100     		lsl	r1, r0, #3
 1244 034a 8EB2     		uxth	r6, r1
 1245              		.loc 1 41 0
 1246 034c 281C     		mov	r0, r5
 1247 034e 2021     		mov	r1, #32
 1248 0350 FFF7FEFF 		bl	mf_character_width
 1249              	.LVL183:
 1250 0354 5346     		mov	r3, sl
ARM GAS  /tmp/cc1XYtGL.s 			page 23


 1251              		.loc 1 44 0
 1252 0356 2F7B     		ldrb	r7, [r5, #12]
 1253              		.loc 1 41 0
 1254 0358 1A1A     		sub	r2, r3, r0
 1255 035a 91B2     		uxth	r1, r2
 1256              		.loc 1 44 0
 1257 035c 5F44     		add	r7, r7, fp
 1258              		.loc 1 45 0
 1259 035e 881B     		sub	r0, r1, r6
 1260              		.loc 1 44 0
 1261 0360 7B1A     		sub	r3, r7, r1
 1262              		.loc 1 45 0
 1263 0362 8146     		mov	r9, r0
 1264 0364 311C     		mov	r1, r6
 1265 0366 18B2     		sxth	r0, r3
 1266 0368 FFF7FEFF 		bl	__aeabi_idivmod
 1267              	.LVL184:
 1268 036c 4944     		add	r1, r1, r9
 1269 036e 8EB2     		uxth	r6, r1
 1270              		.loc 1 194 0
 1271 0370 2022     		mov	r2, #32
 1272              		.loc 1 45 0
 1273 0372 B146     		mov	r9, r6
 1274              	.LVL185:
 1275              		.loc 1 194 0
 1276 0374 9246     		mov	sl, r2
 1277 0376 03E7     		b	.L158
 1278              	.LVL186:
 1279              	.L159:
 1280              		.loc 1 38 0
 1281 0378 6D21     		mov	r1, #109
 1282 037a FFF7FEFF 		bl	mf_character_width
 1283              	.LVL187:
 1284              		.loc 1 41 0
 1285 037e 2021     		mov	r1, #32
 1286              		.loc 1 38 0
 1287 0380 C700     		lsl	r7, r0, #3
 1288              		.loc 1 41 0
 1289 0382 281C     		mov	r0, r5
 1290 0384 FFF7FEFF 		bl	mf_character_width
 1291              	.LVL188:
 1292 0388 4B46     		mov	r3, r9
 1293              		.loc 1 44 0
 1294 038a 2E7B     		ldrb	r6, [r5, #12]
 1295              		.loc 1 41 0
 1296 038c 1A1A     		sub	r2, r3, r0
 1297 038e 91B2     		uxth	r1, r2
 1298              		.loc 1 38 0
 1299 0390 BFB2     		uxth	r7, r7
 1300              	.LVL189:
 1301              		.loc 1 44 0
 1302 0392 5E44     		add	r6, r6, fp
 1303              		.loc 1 45 0
 1304 0394 C81B     		sub	r0, r1, r7
 1305              		.loc 1 44 0
 1306 0396 731A     		sub	r3, r6, r1
 1307              		.loc 1 45 0
ARM GAS  /tmp/cc1XYtGL.s 			page 24


 1308 0398 8246     		mov	sl, r0
 1309 039a 391C     		mov	r1, r7
 1310 039c 18B2     		sxth	r0, r3
 1311 039e 99E7     		b	.L167
 1312              	.LVL190:
 1313              	.L185:
 1314              	.LBE16:
 1315              	.LBE19:
 1316              		.loc 1 206 0
 1317 03a0 391C     		mov	r1, r7
 1318 03a2 5246     		mov	r2, sl
 1319 03a4 281C     		mov	r0, r5
 1320 03a6 FFF7FEFF 		bl	mf_compute_kerning
 1321              	.LVL191:
 1322 03aa 4E46     		mov	r6, r9
 1323 03ac 321A     		sub	r2, r6, r0
 1324 03ae 91B2     		uxth	r1, r2
 1325 03b0 8946     		mov	r9, r1
 1326              	.LVL192:
 1327 03b2 06E7     		b	.L162
 1328              	.LBE20:
 1329              	.LBE21:
 1330              		.cfi_endproc
 1331              	.LFE46:
 1332              		.size	mf_render_aligned, .-mf_render_aligned
 1333 03b4 C046C046 		.section	.text.mf_render_justified,"ax",%progbits
 1333      C046C046 
 1333      C046C046 
 1334              		.align	2
 1335              		.p2align 4,,15
 1336              		.global	mf_render_justified
 1337              		.code	16
 1338              		.thumb_func
 1339              		.type	mf_render_justified, %function
 1340              	mf_render_justified:
 1341              	.LFB47:
 1342              		.loc 1 249 0
 1343              		.cfi_startproc
 1344              	.LVL193:
 1345 0000 10B5     		push	{r4, lr}
 1346              	.LCFI10:
 1347              		.cfi_def_cfa_offset 8
 1348              		.cfi_offset 4, -8
 1349              		.cfi_offset 14, -4
 1350 0002 84B0     		sub	sp, sp, #16
 1351              	.LCFI11:
 1352              		.cfi_def_cfa_offset 24
 1353              		.loc 1 249 0
 1354 0004 06AB     		add	r3, sp, #24
 1355              	.LVL194:
 1356 0006 10CB     		ldmia	r3!, {r4}
 1357 0008 1B88     		ldrh	r3, [r3]
 1358              		.loc 1 251 0
 1359 000a 0094     		str	r4, [sp]
 1360 000c 0193     		str	r3, [sp, #4]
 1361 000e 089C     		ldr	r4, [sp, #32]
 1362 0010 099B     		ldr	r3, [sp, #36]
ARM GAS  /tmp/cc1XYtGL.s 			page 25


 1363 0012 0294     		str	r4, [sp, #8]
 1364 0014 0393     		str	r3, [sp, #12]
 1365 0016 0023     		mov	r3, #0
 1366 0018 FFF7FEFF 		bl	mf_render_aligned
 1367              	.LVL195:
 1368              		.loc 1 252 0
 1369 001c 04B0     		add	sp, sp, #16
 1370              		@ sp needed for prologue
 1371 001e 10BD     		pop	{r4, pc}
 1372              		.cfi_endproc
 1373              	.LFE47:
 1374              		.size	mf_render_justified, .-mf_render_justified
 1375              		.text
 1376              	.Letext0:
 1377              		.file 2 "/home/matt/arm_cortex/gcc-arm-none-eabi/bin/../lib/gcc/arm-none-eabi/4.7.4/../../../../ar
 1378              		.file 3 "/home/matt/arm_cortex/ChibiOS/ext/ugfx/src/gdisp/mcufont/mf_font.h"
 1379              		.file 4 "/home/matt/arm_cortex/ChibiOS/ext/ugfx/src/gdisp/mcufont/mf_encoding.h"
 1380              		.file 5 "/home/matt/arm_cortex/ChibiOS/ext/ugfx/src/gdisp/mcufont/mf_justify.h"
 1381              		.file 6 "/home/matt/arm_cortex/ChibiOS/ext/ugfx/src/gdisp/mcufont/mf_kerning.h"