ARM GAS  /tmp/cc1XYtGL.s 			page 1


   1              		.cpu cortex-m0
   2              		.fpu softvfp
   3              		.eabi_attribute 20, 1
   4              		.eabi_attribute 21, 1
   5              		.eabi_attribute 23, 3
   6              		.eabi_attribute 24, 1
   7              		.eabi_attribute 25, 1
   8              		.eabi_attribute 26, 1
   9              		.eabi_attribute 30, 2
  10              		.eabi_attribute 34, 0
  11              		.eabi_attribute 18, 4
  12              		.code	16
  13              		.file	"mf_justify.c"
  14              		.text
  15              	.Ltext0:
  16              		.cfi_sections	.debug_frame
  17              		.global	__aeabi_idivmod
  18              		.section	.text.mf_round_to_tab,"ax",%progbits
  19              		.align	2
  20              		.p2align 4,,15
  21              		.code	16
  22              		.thumb_func
  23              		.type	mf_round_to_tab, %function
  24              	mf_round_to_tab:
  25              	.LFB40:
  26              		.file 1 "/home/matt/arm_cortex/ChibiOS/ext/ugfx/src/gdisp/mcufont/mf_justify.c"
  27              		.loc 1 17 0
  28              		.cfi_startproc
  29              	.LVL0:
  30 0000 F8B5     		push	{r3, r4, r5, r6, r7, lr}
  31              	.LCFI0:
  32              		.cfi_def_cfa_offset 24
  33              		.cfi_offset 3, -24
  34              		.cfi_offset 4, -20
  35              		.cfi_offset 5, -16
  36              		.cfi_offset 6, -12
  37              		.cfi_offset 7, -8
  38              		.cfi_offset 14, -4
  39              		.loc 1 17 0
  40 0002 0F1C     		mov	r7, r1
  41              		.loc 1 20 0
  42 0004 6D21     		mov	r1, #109
  43              	.LVL1:
  44              		.loc 1 17 0
  45 0006 041C     		mov	r4, r0
  46 0008 161C     		mov	r6, r2
  47              		.loc 1 20 0
  48 000a FFF7FEFF 		bl	mf_character_width
  49              	.LVL2:
  50              		.loc 1 23 0
  51 000e 2021     		mov	r1, #32
  52              		.loc 1 20 0
  53 0010 C500     		lsl	r5, r0, #3
  54              		.loc 1 23 0
  55 0012 201C     		mov	r0, r4
  56 0014 FFF7FEFF 		bl	mf_character_width
  57              	.LVL3:
ARM GAS  /tmp/cc1XYtGL.s 			page 2


  58 0018 8219     		add	r2, r0, r6
  59              		.loc 1 26 0
  60 001a 207B     		ldrb	r0, [r4, #12]
  61              		.loc 1 23 0
  62 001c 91B2     		uxth	r1, r2
  63              		.loc 1 26 0
  64 001e C31B     		sub	r3, r0, r7
  65              		.loc 1 20 0
  66 0020 ADB2     		uxth	r5, r5
  67              	.LVL4:
  68              		.loc 1 26 0
  69 0022 CC18     		add	r4, r1, r3
  70              	.LVL5:
  71              		.loc 1 27 0
  72 0024 4E19     		add	r6, r1, r5
  73 0026 20B2     		sxth	r0, r4
  74 0028 291C     		mov	r1, r5
  75              	.LVL6:
  76 002a FFF7FEFF 		bl	__aeabi_idivmod
  77              	.LVL7:
  78 002e 771A     		sub	r7, r6, r1
  79              		.loc 1 29 0
  80 0030 38B2     		sxth	r0, r7
  81              		.loc 1 30 0
  82              		@ sp needed for prologue
  83              	.LVL8:
  84 0032 F8BD     		pop	{r3, r4, r5, r6, r7, pc}
  85              		.cfi_endproc
  86              	.LFE40:
  87              		.size	mf_round_to_tab, .-mf_round_to_tab
  88 0034 C046C046 		.section	.text.render_left,"ax",%progbits
  88      C046C046 
  88      C046C046 
  89              		.align	2
  90              		.p2align 4,,15
  91              		.code	16
  92              		.thumb_func
  93              		.type	render_left, %function
  94              	render_left:
  95              	.LFB44:
  96              		.loc 1 122 0
  97              		.cfi_startproc
  98              	.LVL9:
  99 0000 F0B5     		push	{r4, r5, r6, r7, lr}
 100              	.LCFI1:
 101              		.cfi_def_cfa_offset 20
 102              		.cfi_offset 4, -20
 103              		.cfi_offset 5, -16
 104              		.cfi_offset 6, -12
 105              		.cfi_offset 7, -8
 106              		.cfi_offset 14, -4
 107 0002 5F46     		mov	r7, fp
 108 0004 5646     		mov	r6, sl
 109 0006 4D46     		mov	r5, r9
 110 0008 4446     		mov	r4, r8
 111 000a F0B4     		push	{r4, r5, r6, r7}
 112              	.LCFI2:
ARM GAS  /tmp/cc1XYtGL.s 			page 3


 113              		.cfi_def_cfa_offset 36
 114              		.cfi_offset 8, -36
 115              		.cfi_offset 9, -32
 116              		.cfi_offset 10, -28
 117              		.cfi_offset 11, -24
 118 000c 8346     		mov	fp, r0
 119 000e 83B0     		sub	sp, sp, #12
 120              	.LCFI3:
 121              		.cfi_def_cfa_offset 48
 122              		.loc 1 122 0
 123 0010 0193     		str	r3, [sp, #4]
 124 0012 0091     		str	r1, [sp]
 125              		.loc 1 126 0
 126 0014 5C46     		mov	r4, fp
 127 0016 257B     		ldrb	r5, [r4, #12]
 128              		.loc 1 122 0
 129 0018 9246     		mov	sl, r2
 130 001a 0D98     		ldr	r0, [sp, #52]
 131              	.LVL10:
 132 001c 0E9A     		ldr	r2, [sp, #56]
 133              	.LVL11:
 134              		.loc 1 126 0
 135 001e 4F1B     		sub	r7, r1, r5
 136              		.loc 1 122 0
 137 0020 0CAB     		add	r3, sp, #48
 138              	.LVL12:
 139              		.loc 1 126 0
 140 0022 BDB2     		uxth	r5, r7
 141              	.LVL13:
 142              		.loc 1 122 0
 143 0024 1E88     		ldrh	r6, [r3]
 144 0026 8146     		mov	r9, r0
 145 0028 9046     		mov	r8, r2
 146              		.loc 1 124 0
 147 002a 0027     		mov	r7, #0
 148              	.LVL14:
 149              		.loc 1 127 0
 150 002c 09E0     		b	.L3
 151              	.LVL15:
 152              	.L6:
 153              		.loc 1 145 0
 154 002e 28B2     		sxth	r0, r5
 155 0030 5146     		mov	r1, sl
 156 0032 221C     		mov	r2, r4
 157 0034 4346     		mov	r3, r8
 158 0036 C847     		blx	r9
 159              	.LVL16:
 160 0038 4019     		add	r0, r0, r5
 161 003a 85B2     		uxth	r5, r0
 162              	.LVL17:
 163 003c 271C     		mov	r7, r4
 164              	.LVL18:
 165              	.L5:
 166 003e 013E     		sub	r6, r6, #1
 167 0040 B6B2     		uxth	r6, r6
 168              	.LVL19:
 169              	.L3:
ARM GAS  /tmp/cc1XYtGL.s 			page 4


 170              		.loc 1 127 0 discriminator 1
 171 0042 002E     		cmp	r6, #0
 172 0044 17D0     		beq	.L12
 173              		.loc 1 129 0
 174 0046 01A8     		add	r0, sp, #4
 175 0048 FFF7FEFF 		bl	mf_getchar
 176              	.LVL20:
 177 004c 041E     		sub	r4, r0, #0
 178              	.LVL21:
 179              		.loc 1 131 0
 180 004e 092C     		cmp	r4, #9
 181 0050 09D0     		beq	.L13
 182              		.loc 1 142 0
 183 0052 002F     		cmp	r7, #0
 184 0054 EBD0     		beq	.L6
 185              		.loc 1 143 0
 186 0056 5846     		mov	r0, fp
 187              	.LVL22:
 188 0058 391C     		mov	r1, r7
 189 005a 221C     		mov	r2, r4
 190 005c FFF7FEFF 		bl	mf_compute_kerning
 191              	.LVL23:
 192 0060 4319     		add	r3, r0, r5
 193 0062 9DB2     		uxth	r5, r3
 194              	.LVL24:
 195 0064 E3E7     		b	.L6
 196              	.LVL25:
 197              	.L13:
 198              		.loc 1 134 0
 199 0066 2AB2     		sxth	r2, r5
 200 0068 5846     		mov	r0, fp
 201              	.LVL26:
 202 006a 0099     		ldr	r1, [sp]
 203 006c FFF7FEFF 		bl	mf_round_to_tab
 204              	.LVL27:
 205              		.loc 1 135 0
 206 0070 2027     		mov	r7, #32
 207              	.LVL28:
 208              		.loc 1 134 0
 209 0072 051C     		mov	r5, r0
 210              	.LVL29:
 211              		.loc 1 136 0
 212 0074 E3E7     		b	.L5
 213              	.LVL30:
 214              	.L12:
 215              		.loc 1 148 0
 216 0076 03B0     		add	sp, sp, #12
 217              		@ sp needed for prologue
 218              	.LVL31:
 219              	.LVL32:
 220              	.LVL33:
 221 0078 3CBC     		pop	{r2, r3, r4, r5}
 222 007a 9046     		mov	r8, r2
 223 007c 9946     		mov	r9, r3
 224 007e A246     		mov	sl, r4
 225 0080 AB46     		mov	fp, r5
 226 0082 F0BD     		pop	{r4, r5, r6, r7, pc}
ARM GAS  /tmp/cc1XYtGL.s 			page 5


 227              		.cfi_endproc
 228              	.LFE44:
 229              		.size	render_left, .-render_left
 230 0084 C046C046 		.section	.text.mf_get_string_width,"ax",%progbits
 230      C046C046 
 230      C046C046 
 231              		.align	2
 232              		.p2align 4,,15
 233              		.global	mf_get_string_width
 234              		.code	16
 235              		.thumb_func
 236              		.type	mf_get_string_width, %function
 237              	mf_get_string_width:
 238              	.LFB42:
 239              		.loc 1 53 0
 240              		.cfi_startproc
 241              	.LVL34:
 242 0000 F0B5     		push	{r4, r5, r6, r7, lr}
 243              	.LCFI4:
 244              		.cfi_def_cfa_offset 20
 245              		.cfi_offset 4, -20
 246              		.cfi_offset 5, -16
 247              		.cfi_offset 6, -12
 248              		.cfi_offset 7, -8
 249              		.cfi_offset 14, -4
 250 0002 4F46     		mov	r7, r9
 251 0004 4646     		mov	r6, r8
 252 0006 C0B4     		push	{r6, r7}
 253              	.LCFI5:
 254              		.cfi_def_cfa_offset 28
 255              		.cfi_offset 8, -28
 256              		.cfi_offset 9, -24
 257 0008 83B0     		sub	sp, sp, #12
 258              	.LCFI6:
 259              		.cfi_def_cfa_offset 40
 260              		.loc 1 53 0
 261 000a 8046     		mov	r8, r0
 262 000c 0191     		str	r1, [sp, #4]
 263 000e 151C     		mov	r5, r2
 264 0010 9946     		mov	r9, r3
 265              		.loc 1 57 0
 266 0012 00D1     		bne	.L15
 267              		.loc 1 58 0
 268 0014 504D     		ldr	r5, .L66
 269              	.L15:
 270              	.LVL35:
 271              		.loc 1 60 0 discriminator 1
 272 0016 019A     		ldr	r2, [sp, #4]
 273 0018 6B1E     		sub	r3, r5, #1
 274              	.LVL36:
 275 001a 1078     		ldrb	r0, [r2]
 276              	.LVL37:
 277 001c 0126     		mov	r6, #1
 278              		.loc 1 68 0 discriminator 1
 279 001e 0024     		mov	r4, #0
 280 0020 1E40     		and	r6, r3
 281              		.loc 1 60 0 discriminator 1
ARM GAS  /tmp/cc1XYtGL.s 			page 6


 282 0022 0028     		cmp	r0, #0
 283 0024 63D0     		beq	.L21
 284              		.loc 1 62 0
 285 0026 01A8     		add	r0, sp, #4
 286 0028 FFF7FEFF 		bl	mf_getchar
 287              	.LVL38:
 288 002c 071C     		mov	r7, r0
 289              		.loc 1 67 0
 290 002e 4046     		mov	r0, r8
 291              		.loc 1 64 0
 292 0030 092F     		cmp	r7, #9
 293 0032 00D1     		bne	.LCB283
 294 0034 88E0     		b	.L53	@long jump
 295              	.LCB283:
 296              	.LVL39:
 297              		.loc 1 78 0
 298 0036 391C     		mov	r1, r7
 299 0038 FFF7FEFF 		bl	mf_character_width
 300              	.LVL40:
 301 003c 84B2     		uxth	r4, r0
 302              	.LVL41:
 303              	.L54:
 304 003e 013D     		sub	r5, r5, #1
 305 0040 ADB2     		uxth	r5, r5
 306              	.LVL42:
 307              		.loc 1 60 0
 308 0042 002D     		cmp	r5, #0
 309 0044 53D0     		beq	.L21
 310 0046 002E     		cmp	r6, #0
 311 0048 21D0     		beq	.L16
 312 004a 0199     		ldr	r1, [sp, #4]
 313 004c 0B78     		ldrb	r3, [r1]
 314 004e 002B     		cmp	r3, #0
 315 0050 4DD0     		beq	.L21
 316              		.loc 1 62 0
 317 0052 01A8     		add	r0, sp, #4
 318 0054 FFF7FEFF 		bl	mf_getchar
 319              	.LVL43:
 320 0058 061E     		sub	r6, r0, #0
 321              		.loc 1 64 0
 322 005a 092E     		cmp	r6, #9
 323 005c 0CD0     		beq	.L58
 324              		.loc 1 75 0
 325 005e 4A46     		mov	r2, r9
 326 0060 002A     		cmp	r2, #0
 327 0062 01D0     		beq	.L34
 328 0064 002F     		cmp	r7, #0
 329 0066 60D1     		bne	.L62
 330              	.L34:
 331              		.loc 1 78 0
 332 0068 4046     		mov	r0, r8
 333 006a 311C     		mov	r1, r6
 334 006c FFF7FEFF 		bl	mf_character_width
 335              	.LVL44:
 336 0070 0719     		add	r7, r0, r4
 337 0072 BCB2     		uxth	r4, r7
 338              	.LVL45:
ARM GAS  /tmp/cc1XYtGL.s 			page 7


 339 0074 371C     		mov	r7, r6
 340              	.LVL46:
 341 0076 06E0     		b	.L60
 342              	.LVL47:
 343              	.L58:
 344              		.loc 1 67 0
 345 0078 22B2     		sxth	r2, r4
 346 007a 4046     		mov	r0, r8
 347 007c 0021     		mov	r1, #0
 348 007e FFF7FEFF 		bl	mf_round_to_tab
 349              	.LVL48:
 350              		.loc 1 68 0
 351 0082 2027     		mov	r7, #32
 352              		.loc 1 67 0
 353 0084 041C     		mov	r4, r0
 354              	.LVL49:
 355              	.L60:
 356 0086 013D     		sub	r5, r5, #1
 357 0088 ADB2     		uxth	r5, r5
 358              	.LVL50:
 359              		.loc 1 60 0
 360 008a 002D     		cmp	r5, #0
 361 008c 2FD0     		beq	.L21
 362              	.LVL51:
 363              	.L16:
 364              		.loc 1 60 0 is_stmt 0 discriminator 2
 365 008e 0198     		ldr	r0, [sp, #4]
 366 0090 0178     		ldrb	r1, [r0]
 367 0092 0029     		cmp	r1, #0
 368 0094 2BD0     		beq	.L21
 369              		.loc 1 62 0 is_stmt 1
 370 0096 01A8     		add	r0, sp, #4
 371 0098 FFF7FEFF 		bl	mf_getchar
 372              	.LVL52:
 373 009c 061E     		sub	r6, r0, #0
 374              	.LVL53:
 375              		.loc 1 64 0
 376 009e 092E     		cmp	r6, #9
 377 00a0 2BD0     		beq	.L63
 378              		.loc 1 75 0
 379 00a2 4B46     		mov	r3, r9
 380 00a4 002B     		cmp	r3, #0
 381 00a6 01D0     		beq	.L19
 382              		.loc 1 75 0 is_stmt 0 discriminator 1
 383 00a8 002F     		cmp	r7, #0
 384 00aa 2ED1     		bne	.L64
 385              	.LVL54:
 386              	.L19:
 387              		.loc 1 78 0 is_stmt 1
 388 00ac 4046     		mov	r0, r8
 389 00ae 311C     		mov	r1, r6
 390 00b0 FFF7FEFF 		bl	mf_character_width
 391              	.LVL55:
 392 00b4 0419     		add	r4, r0, r4
 393              	.LVL56:
 394 00b6 A4B2     		uxth	r4, r4
 395              	.LVL57:
ARM GAS  /tmp/cc1XYtGL.s 			page 8


 396              	.L18:
 397              		.loc 1 60 0 discriminator 1
 398 00b8 019F     		ldr	r7, [sp, #4]
 399 00ba 013D     		sub	r5, r5, #1
 400 00bc 3878     		ldrb	r0, [r7]
 401 00be ADB2     		uxth	r5, r5
 402              	.LVL58:
 403 00c0 0028     		cmp	r0, #0
 404 00c2 14D0     		beq	.L21
 405              		.loc 1 62 0
 406 00c4 01A8     		add	r0, sp, #4
 407 00c6 FFF7FEFF 		bl	mf_getchar
 408              	.LVL59:
 409 00ca 071E     		sub	r7, r0, #0
 410              		.loc 1 64 0
 411 00cc 092F     		cmp	r7, #9
 412 00ce D3D0     		beq	.L58
 413              		.loc 1 75 0
 414 00d0 4946     		mov	r1, r9
 415 00d2 0029     		cmp	r1, #0
 416 00d4 01D0     		beq	.L39
 417 00d6 002E     		cmp	r6, #0
 418 00d8 1FD1     		bne	.L65
 419              	.LVL60:
 420              	.L39:
 421              		.loc 1 78 0
 422 00da 4046     		mov	r0, r8
 423 00dc 391C     		mov	r1, r7
 424 00de FFF7FEFF 		bl	mf_character_width
 425              	.LVL61:
 426 00e2 013D     		sub	r5, r5, #1
 427 00e4 0319     		add	r3, r0, r4
 428 00e6 ADB2     		uxth	r5, r5
 429 00e8 9CB2     		uxth	r4, r3
 430              	.LVL62:
 431              		.loc 1 60 0
 432 00ea 002D     		cmp	r5, #0
 433 00ec CFD1     		bne	.L16
 434              	.LVL63:
 435              	.L21:
 436              		.loc 1 82 0
 437 00ee 20B2     		sxth	r0, r4
 438              		.loc 1 83 0
 439 00f0 03B0     		add	sp, sp, #12
 440              		@ sp needed for prologue
 441              	.LVL64:
 442 00f2 0CBC     		pop	{r2, r3}
 443 00f4 9046     		mov	r8, r2
 444 00f6 9946     		mov	r9, r3
 445 00f8 F0BD     		pop	{r4, r5, r6, r7, pc}
 446              	.LVL65:
 447              	.L63:
 448              		.loc 1 67 0
 449 00fa 22B2     		sxth	r2, r4
 450 00fc 4046     		mov	r0, r8
 451              	.LVL66:
 452 00fe 0021     		mov	r1, #0
ARM GAS  /tmp/cc1XYtGL.s 			page 9


 453 0100 FFF7FEFF 		bl	mf_round_to_tab
 454              	.LVL67:
 455              		.loc 1 68 0
 456 0104 2026     		mov	r6, #32
 457              	.LVL68:
 458              		.loc 1 67 0
 459 0106 041C     		mov	r4, r0
 460              	.LVL69:
 461              		.loc 1 69 0
 462 0108 D6E7     		b	.L18
 463              	.LVL70:
 464              	.L64:
 465              		.loc 1 76 0
 466 010a 321C     		mov	r2, r6
 467 010c F9B2     		uxtb	r1, r7
 468 010e 4046     		mov	r0, r8
 469              	.LVL71:
 470 0110 FFF7FEFF 		bl	mf_compute_kerning
 471              	.LVL72:
 472 0114 0219     		add	r2, r0, r4
 473 0116 94B2     		uxth	r4, r2
 474              	.LVL73:
 475 0118 C8E7     		b	.L19
 476              	.LVL74:
 477              	.L65:
 478 011a F1B2     		uxtb	r1, r6
 479 011c 4046     		mov	r0, r8
 480 011e 3A1C     		mov	r2, r7
 481 0120 FFF7FEFF 		bl	mf_compute_kerning
 482              	.LVL75:
 483 0124 0619     		add	r6, r0, r4
 484 0126 B4B2     		uxth	r4, r6
 485              	.LVL76:
 486 0128 D7E7     		b	.L39
 487              	.LVL77:
 488              	.L62:
 489 012a F9B2     		uxtb	r1, r7
 490 012c 321C     		mov	r2, r6
 491 012e 4046     		mov	r0, r8
 492 0130 FFF7FEFF 		bl	mf_compute_kerning
 493              	.LVL78:
 494              		.loc 1 78 0
 495 0134 311C     		mov	r1, r6
 496              		.loc 1 76 0
 497 0136 0419     		add	r4, r0, r4
 498              	.LVL79:
 499              		.loc 1 78 0
 500 0138 4046     		mov	r0, r8
 501 013a FFF7FEFF 		bl	mf_character_width
 502              	.LVL80:
 503              		.loc 1 76 0
 504 013e A4B2     		uxth	r4, r4
 505              	.LVL81:
 506              		.loc 1 78 0
 507 0140 0719     		add	r7, r0, r4
 508 0142 BCB2     		uxth	r4, r7
 509              	.LVL82:
ARM GAS  /tmp/cc1XYtGL.s 			page 10


 510 0144 371C     		mov	r7, r6
 511              	.LVL83:
 512 0146 9EE7     		b	.L60
 513              	.LVL84:
 514              	.L53:
 515              		.loc 1 67 0
 516 0148 0021     		mov	r1, #0
 517 014a 0022     		mov	r2, #0
 518 014c FFF7FEFF 		bl	mf_round_to_tab
 519              	.LVL85:
 520              		.loc 1 68 0
 521 0150 2027     		mov	r7, #32
 522              		.loc 1 67 0
 523 0152 041C     		mov	r4, r0
 524              	.LVL86:
 525 0154 73E7     		b	.L54
 526              	.L67:
 527 0156 C046     		.align	2
 528              	.L66:
 529 0158 FFFF0000 		.word	65535
 530              		.cfi_endproc
 531              	.LFE42:
 532              		.size	mf_get_string_width, .-mf_get_string_width
 533 015c C046C046 		.section	.text.mf_render_aligned,"ax",%progbits
 534              		.align	2
 535              		.p2align 4,,15
 536              		.global	mf_render_aligned
 537              		.code	16
 538              		.thumb_func
 539              		.type	mf_render_aligned, %function
 540              	mf_render_aligned:
 541              	.LFB46:
 542              		.loc 1 219 0
 543              		.cfi_startproc
 544              	.LVL87:
 545 0000 F0B5     		push	{r4, r5, r6, r7, lr}
 546              	.LCFI7:
 547              		.cfi_def_cfa_offset 20
 548              		.cfi_offset 4, -20
 549              		.cfi_offset 5, -16
 550              		.cfi_offset 6, -12
 551              		.cfi_offset 7, -8
 552              		.cfi_offset 14, -4
 553 0002 5F46     		mov	r7, fp
 554 0004 4D46     		mov	r5, r9
 555 0006 4446     		mov	r4, r8
 556 0008 5646     		mov	r6, sl
 557 000a F0B4     		push	{r4, r5, r6, r7}
 558              	.LCFI8:
 559              		.cfi_def_cfa_offset 36
 560              		.cfi_offset 8, -36
 561              		.cfi_offset 9, -32
 562              		.cfi_offset 10, -28
 563              		.cfi_offset 11, -24
 564 000c 8BB0     		sub	sp, sp, #44
 565              	.LCFI9:
 566              		.cfi_def_cfa_offset 80
ARM GAS  /tmp/cc1XYtGL.s 			page 11


 567              		.loc 1 219 0
 568 000e 9946     		mov	r9, r3
 569 0010 14AB     		add	r3, sp, #80
 570              	.LVL88:
 571 0012 9046     		mov	r8, r2
 572 0014 04CB     		ldmia	r3!, {r2}
 573              	.LVL89:
 574 0016 051C     		mov	r5, r0
 575 0018 1F88     		ldrh	r7, [r3]
 576 001a 8B46     		mov	fp, r1
 577 001c 0792     		str	r2, [sp, #28]
 578              	.LVL90:
 579              	.LBB8:
 580              	.LBB9:
 581              		.loc 1 91 0
 582 001e 002F     		cmp	r7, #0
 583 0020 00D1     		bne	.L69
 584              		.loc 1 92 0
 585 0022 C64F     		ldr	r7, .L189
 586              	.L69:
 587              	.LVL91:
 588              		.loc 1 94 0
 589 0024 079E     		ldr	r6, [sp, #28]
 590 0026 781E     		sub	r0, r7, #1
 591              	.LVL92:
 592 0028 0121     		mov	r1, #1
 593              	.LVL93:
 594 002a 3378     		ldrb	r3, [r6]
 595 002c 0140     		and	r1, r0
 596              		.loc 1 101 0
 597 002e 0024     		mov	r4, #0
 598 0030 8A46     		mov	sl, r1
 599              		.loc 1 94 0
 600 0032 002B     		cmp	r3, #0
 601 0034 41D0     		beq	.L75
 602              		.loc 1 97 0
 603 0036 07A8     		add	r0, sp, #28
 604              		.loc 1 96 0
 605 0038 0126     		mov	r6, #1
 606              		.loc 1 97 0
 607 003a FFF7FEFF 		bl	mf_getchar
 608              	.LVL94:
 609              		.loc 1 98 0
 610 003e 2028     		cmp	r0, #32
 611 0040 08D0     		beq	.L117
 612 0042 A028     		cmp	r0, #160
 613 0044 06D0     		beq	.L117
 614 0046 0A28     		cmp	r0, #10
 615 0048 04D0     		beq	.L117
 616 004a 0D28     		cmp	r0, #13
 617 004c 02D0     		beq	.L117
 618              		.loc 1 99 0
 619 004e 0928     		cmp	r0, #9
 620 0050 00D0     		beq	.L117
 621              		.loc 1 101 0
 622 0052 0124     		mov	r4, #1
 623              	.L117:
ARM GAS  /tmp/cc1XYtGL.s 			page 12


 624              	.LVL95:
 625              		.loc 1 94 0
 626 0054 BE42     		cmp	r6, r7
 627 0056 30D0     		beq	.L75
 628 0058 5246     		mov	r2, sl
 629 005a 002A     		cmp	r2, #0
 630 005c 15D0     		beq	.L70
 631              	.LVL96:
 632              	.L126:
 633 005e 0798     		ldr	r0, [sp, #28]
 634 0060 0178     		ldrb	r1, [r0]
 635 0062 0029     		cmp	r1, #0
 636 0064 29D0     		beq	.L75
 637              	.L180:
 638              		.loc 1 96 0
 639 0066 0136     		add	r6, r6, #1
 640              		.loc 1 97 0
 641 0068 07A8     		add	r0, sp, #28
 642              		.loc 1 96 0
 643 006a B6B2     		uxth	r6, r6
 644              	.LVL97:
 645              		.loc 1 97 0
 646 006c FFF7FEFF 		bl	mf_getchar
 647              	.LVL98:
 648              		.loc 1 98 0
 649 0070 2028     		cmp	r0, #32
 650 0072 08D0     		beq	.L124
 651 0074 A028     		cmp	r0, #160
 652 0076 06D0     		beq	.L124
 653 0078 0A28     		cmp	r0, #10
 654 007a 04D0     		beq	.L124
 655 007c 0D28     		cmp	r0, #13
 656 007e 02D0     		beq	.L124
 657              		.loc 1 99 0
 658 0080 0928     		cmp	r0, #9
 659 0082 00D0     		beq	.L124
 660              		.loc 1 101 0
 661 0084 341C     		mov	r4, r6
 662              	.L124:
 663              		.loc 1 94 0
 664 0086 BE42     		cmp	r6, r7
 665 0088 17D0     		beq	.L75
 666              	.LVL99:
 667              	.L70:
 668 008a 079B     		ldr	r3, [sp, #28]
 669 008c 1A78     		ldrb	r2, [r3]
 670 008e 002A     		cmp	r2, #0
 671 0090 13D0     		beq	.L75
 672              		.loc 1 96 0
 673 0092 0136     		add	r6, r6, #1
 674              		.loc 1 97 0
 675 0094 07A8     		add	r0, sp, #28
 676              		.loc 1 96 0
 677 0096 B6B2     		uxth	r6, r6
 678              	.LVL100:
 679              		.loc 1 97 0
 680 0098 FFF7FEFF 		bl	mf_getchar
ARM GAS  /tmp/cc1XYtGL.s 			page 13


 681              	.LVL101:
 682              		.loc 1 98 0
 683 009c 2028     		cmp	r0, #32
 684 009e DED0     		beq	.L126
 685 00a0 A028     		cmp	r0, #160
 686 00a2 DCD0     		beq	.L126
 687 00a4 0A28     		cmp	r0, #10
 688 00a6 DAD0     		beq	.L126
 689 00a8 0D28     		cmp	r0, #13
 690 00aa D8D0     		beq	.L126
 691              		.loc 1 99 0
 692 00ac 0928     		cmp	r0, #9
 693 00ae D6D0     		beq	.L126
 694              		.loc 1 94 0
 695 00b0 0798     		ldr	r0, [sp, #28]
 696              	.LVL102:
 697              		.loc 1 101 0
 698 00b2 341C     		mov	r4, r6
 699              		.loc 1 94 0
 700 00b4 0178     		ldrb	r1, [r0]
 701 00b6 0029     		cmp	r1, #0
 702 00b8 D5D1     		bne	.L180
 703              	.LVL103:
 704              	.L75:
 705              	.LBE9:
 706              	.LBE8:
 707              		.loc 1 223 0
 708 00ba 4F46     		mov	r7, r9
 709 00bc 002F     		cmp	r7, #0
 710 00be 0BD0     		beq	.L181
 711              		.loc 1 227 0
 712 00c0 012F     		cmp	r7, #1
 713 00c2 00D1     		bne	.LCB741
 714 00c4 22E1     		b	.L182	@long jump
 715              	.LCB741:
 716              		.loc 1 233 0
 717 00c6 022F     		cmp	r7, #2
 718 00c8 12D0     		beq	.L183
 719              	.LVL104:
 720              	.L68:
 721              		.loc 1 237 0
 722 00ca 0BB0     		add	sp, sp, #44
 723              		@ sp needed for prologue
 724              	.LVL105:
 725 00cc 3CBC     		pop	{r2, r3, r4, r5}
 726 00ce 9046     		mov	r8, r2
 727 00d0 9946     		mov	r9, r3
 728 00d2 A246     		mov	sl, r4
 729 00d4 AB46     		mov	fp, r5
 730 00d6 F0BD     		pop	{r4, r5, r6, r7, pc}
 731              	.LVL106:
 732              	.L181:
 733              		.loc 1 225 0
 734 00d8 179A     		ldr	r2, [sp, #92]
 735 00da 169E     		ldr	r6, [sp, #88]
 736 00dc 0292     		str	r2, [sp, #8]
 737 00de 0094     		str	r4, [sp]
ARM GAS  /tmp/cc1XYtGL.s 			page 14


 738 00e0 0196     		str	r6, [sp, #4]
 739 00e2 281C     		mov	r0, r5
 740 00e4 5946     		mov	r1, fp
 741 00e6 4246     		mov	r2, r8
 742 00e8 149B     		ldr	r3, [sp, #80]
 743 00ea FFF7FEFF 		bl	render_left
 744              	.LVL107:
 745 00ee ECE7     		b	.L68
 746              	.L183:
 747              	.LVL108:
 748 00f0 149E     		ldr	r6, [sp, #80]
 749 00f2 0896     		str	r6, [sp, #32]
 750              	.LVL109:
 751              	.LBB10:
 752              	.LBB11:
 753              		.loc 1 179 0
 754 00f4 002C     		cmp	r4, #0
 755 00f6 E8D0     		beq	.L68
 756 00f8 0122     		mov	r2, #1
 757 00fa 631E     		sub	r3, r4, #1
 758 00fc 171C     		mov	r7, r2
 759              		.loc 1 180 0
 760 00fe 08A8     		add	r0, sp, #32
 761              		.loc 1 179 0
 762 0100 0126     		mov	r6, #1
 763 0102 1F40     		and	r7, r3
 764              		.loc 1 180 0
 765 0104 FFF7FEFF 		bl	mf_getchar
 766              	.LVL110:
 767              		.loc 1 179 0
 768 0108 A642     		cmp	r6, r4
 769 010a 13D0     		beq	.L155
 770 010c 002F     		cmp	r7, #0
 771 010e 05D0     		beq	.L98
 772              		.loc 1 180 0
 773 0110 08A8     		add	r0, sp, #32
 774              		.loc 1 179 0
 775 0112 0226     		mov	r6, #2
 776              		.loc 1 180 0
 777 0114 FFF7FEFF 		bl	mf_getchar
 778              	.LVL111:
 779              		.loc 1 179 0
 780 0118 A642     		cmp	r6, r4
 781 011a 0BD0     		beq	.L155
 782              	.LVL112:
 783              	.L98:
 784 011c 0136     		add	r6, r6, #1
 785 011e B7B2     		uxth	r7, r6
 786              		.loc 1 180 0
 787 0120 08A8     		add	r0, sp, #32
 788              		.loc 1 179 0
 789 0122 0137     		add	r7, r7, #1
 790              		.loc 1 180 0
 791 0124 FFF7FEFF 		bl	mf_getchar
 792              	.LVL113:
 793              		.loc 1 179 0
 794 0128 BEB2     		uxth	r6, r7
ARM GAS  /tmp/cc1XYtGL.s 			page 15


 795              		.loc 1 180 0
 796 012a 08A8     		add	r0, sp, #32
 797 012c FFF7FEFF 		bl	mf_getchar
 798              	.LVL114:
 799              		.loc 1 179 0
 800 0130 A642     		cmp	r6, r4
 801 0132 F3D1     		bne	.L98
 802              	.LVL115:
 803              	.L155:
 804              		.loc 1 182 0
 805 0134 5846     		mov	r0, fp
 806 0136 2B7B     		ldrb	r3, [r5, #12]
 807 0138 81B2     		uxth	r1, r0
 808 013a 0127     		mov	r7, #1
 809 013c 601E     		sub	r0, r4, #1
 810 013e CA1A     		sub	r2, r1, r3
 811 0140 0740     		and	r7, r0
 812              		.loc 1 185 0
 813 0142 08A8     		add	r0, sp, #32
 814              		.loc 1 182 0
 815 0144 96B2     		uxth	r6, r2
 816 0146 8B46     		mov	fp, r1
 817              	.LVL116:
 818 0148 0497     		str	r7, [sp, #16]
 819              		.loc 1 185 0
 820 014a FFF7FEFF 		bl	mf_rewind
 821              	.LVL117:
 822              		.loc 1 186 0
 823 014e 0899     		ldr	r1, [sp, #32]
 824              		.loc 1 187 0
 825 0150 09A8     		add	r0, sp, #36
 826              		.loc 1 186 0
 827 0152 0991     		str	r1, [sp, #36]
 828              	.LVL118:
 829              		.loc 1 187 0
 830 0154 FFF7FEFF 		bl	mf_getchar
 831              	.LVL119:
 832              		.loc 1 182 0
 833 0158 B246     		mov	sl, r6
 834              	.LVL120:
 835              		.loc 1 187 0
 836 015a 061E     		sub	r6, r0, #0
 837              		.loc 1 190 0
 838 015c 092E     		cmp	r6, #9
 839 015e 00D1     		bne	.LCB870
 840 0160 EEE0     		b	.L184	@long jump
 841              	.LCB870:
 842              		.loc 1 202 0
 843 0162 311C     		mov	r1, r6
 844 0164 281C     		mov	r0, r5
 845 0166 FFF7FEFF 		bl	mf_character_width
 846              	.LVL121:
 847 016a 5346     		mov	r3, sl
 848 016c 1A1A     		sub	r2, r3, r0
 849 016e 90B2     		uxth	r0, r2
 850 0170 8146     		mov	r9, r0
 851              	.LVL122:
ARM GAS  /tmp/cc1XYtGL.s 			page 16


 852              		.loc 1 208 0
 853 0172 4146     		mov	r1, r8
 854 0174 00B2     		sxth	r0, r0
 855 0176 321C     		mov	r2, r6
 856              	.LVL123:
 857 0178 179B     		ldr	r3, [sp, #92]
 858 017a 169F     		ldr	r7, [sp, #88]
 859 017c B847     		blx	r7
 860              	.LVL124:
 861 017e B246     		mov	sl, r6
 862              	.LVL125:
 863              	.L158:
 864              		.loc 1 183 0
 865 0180 0121     		mov	r1, #1
 866 0182 0591     		str	r1, [sp, #20]
 867              	.LVL126:
 868 0184 A142     		cmp	r1, r4
 869 0186 A0D0     		beq	.L68
 870 0188 0498     		ldr	r0, [sp, #16]
 871 018a 0028     		cmp	r0, #0
 872 018c 28D0     		beq	.L84
 873              		.loc 1 185 0
 874 018e 08A8     		add	r0, sp, #32
 875 0190 FFF7FEFF 		bl	mf_rewind
 876              	.LVL127:
 877              		.loc 1 186 0
 878 0194 089F     		ldr	r7, [sp, #32]
 879              		.loc 1 187 0
 880 0196 09A8     		add	r0, sp, #36
 881              		.loc 1 186 0
 882 0198 0997     		str	r7, [sp, #36]
 883              		.loc 1 187 0
 884 019a FFF7FEFF 		bl	mf_getchar
 885              	.LVL128:
 886 019e 071C     		mov	r7, r0
 887              	.LBB12:
 888              	.LBB13:
 889              		.loc 1 38 0
 890 01a0 281C     		mov	r0, r5
 891              	.LBE13:
 892              	.LBE12:
 893              		.loc 1 190 0
 894 01a2 092F     		cmp	r7, #9
 895 01a4 00D1     		bne	.LCB923
 896 01a6 E7E0     		b	.L159	@long jump
 897              	.LCB923:
 898              	.LVL129:
 899              		.loc 1 202 0
 900 01a8 391C     		mov	r1, r7
 901 01aa FFF7FEFF 		bl	mf_character_width
 902              	.LVL130:
 903 01ae 4B46     		mov	r3, r9
 904 01b0 1E1A     		sub	r6, r3, r0
 905 01b2 B2B2     		uxth	r2, r6
 906              		.loc 1 205 0
 907 01b4 5146     		mov	r1, sl
 908              		.loc 1 202 0
ARM GAS  /tmp/cc1XYtGL.s 			page 17


 909 01b6 9146     		mov	r9, r2
 910              	.LVL131:
 911              		.loc 1 205 0
 912 01b8 0029     		cmp	r1, #0
 913 01ba 00D0     		beq	.LCB939
 914 01bc F0E0     		b	.L185	@long jump
 915              	.LCB939:
 916              		.loc 1 202 0
 917 01be 93B2     		uxth	r3, r2
 918 01c0 9946     		mov	r9, r3
 919              	.L162:
 920              	.LVL132:
 921              		.loc 1 208 0
 922 01c2 4846     		mov	r0, r9
 923 01c4 00B2     		sxth	r0, r0
 924 01c6 4146     		mov	r1, r8
 925 01c8 3A1C     		mov	r2, r7
 926 01ca 179B     		ldr	r3, [sp, #92]
 927 01cc 169E     		ldr	r6, [sp, #88]
 928 01ce B047     		blx	r6
 929              	.LVL133:
 930 01d0 BA46     		mov	sl, r7
 931              	.LVL134:
 932              	.L164:
 933              		.loc 1 183 0
 934 01d2 0599     		ldr	r1, [sp, #20]
 935 01d4 0131     		add	r1, r1, #1
 936 01d6 88B2     		uxth	r0, r1
 937 01d8 0590     		str	r0, [sp, #20]
 938              	.LVL135:
 939 01da A042     		cmp	r0, r4
 940 01dc 00D1     		bne	.LCB969
 941 01de 74E7     		b	.L68	@long jump
 942              	.LCB969:
 943              	.LVL136:
 944              	.L84:
 945              		.loc 1 185 0
 946 01e0 08A8     		add	r0, sp, #32
 947 01e2 FFF7FEFF 		bl	mf_rewind
 948              	.LVL137:
 949              		.loc 1 186 0
 950 01e6 089E     		ldr	r6, [sp, #32]
 951              		.loc 1 187 0
 952 01e8 09A8     		add	r0, sp, #36
 953              		.loc 1 186 0
 954 01ea 0996     		str	r6, [sp, #36]
 955              		.loc 1 187 0
 956 01ec FFF7FEFF 		bl	mf_getchar
 957              	.LVL138:
 958 01f0 071C     		mov	r7, r0
 959              	.LVL139:
 960              	.LBB17:
 961              	.LBB14:
 962              		.loc 1 38 0
 963 01f2 281C     		mov	r0, r5
 964              	.LVL140:
 965              	.LBE14:
ARM GAS  /tmp/cc1XYtGL.s 			page 18


 966              	.LBE17:
 967              		.loc 1 190 0
 968 01f4 092F     		cmp	r7, #9
 969 01f6 3ED0     		beq	.L186
 970              	.LVL141:
 971              		.loc 1 202 0
 972 01f8 391C     		mov	r1, r7
 973 01fa FFF7FEFF 		bl	mf_character_width
 974              	.LVL142:
 975 01fe 4B46     		mov	r3, r9
 976 0200 1A1A     		sub	r2, r3, r0
 977 0202 91B2     		uxth	r1, r2
 978              		.loc 1 205 0
 979 0204 5046     		mov	r0, sl
 980              		.loc 1 202 0
 981 0206 8946     		mov	r9, r1
 982              	.LVL143:
 983              		.loc 1 205 0
 984 0208 0028     		cmp	r0, #0
 985 020a 6BD1     		bne	.L82
 986              		.loc 1 202 0
 987 020c 8BB2     		uxth	r3, r1
 988 020e 9946     		mov	r9, r3
 989              	.LVL144:
 990              	.L83:
 991              		.loc 1 208 0
 992 0210 4E46     		mov	r6, r9
 993 0212 30B2     		sxth	r0, r6
 994 0214 4146     		mov	r1, r8
 995 0216 3A1C     		mov	r2, r7
 996 0218 179B     		ldr	r3, [sp, #92]
 997 021a 169E     		ldr	r6, [sp, #88]
 998 021c B047     		blx	r6
 999              	.LVL145:
 1000 021e BA46     		mov	sl, r7
 1001              	.LVL146:
 1002              	.L81:
 1003              		.loc 1 183 0
 1004 0220 0599     		ldr	r1, [sp, #20]
 1005 0222 0131     		add	r1, r1, #1
 1006 0224 88B2     		uxth	r0, r1
 1007 0226 0590     		str	r0, [sp, #20]
 1008              		.loc 1 185 0
 1009 0228 08A8     		add	r0, sp, #32
 1010 022a FFF7FEFF 		bl	mf_rewind
 1011              	.LVL147:
 1012              		.loc 1 186 0
 1013 022e 089E     		ldr	r6, [sp, #32]
 1014              		.loc 1 187 0
 1015 0230 09A8     		add	r0, sp, #36
 1016              		.loc 1 186 0
 1017 0232 0996     		str	r6, [sp, #36]
 1018              		.loc 1 187 0
 1019 0234 FFF7FEFF 		bl	mf_getchar
 1020              	.LVL148:
 1021 0238 061E     		sub	r6, r0, #0
 1022              		.loc 1 190 0
ARM GAS  /tmp/cc1XYtGL.s 			page 19


 1023 023a 092E     		cmp	r6, #9
 1024 023c 36D0     		beq	.L187
 1025              		.loc 1 202 0
 1026 023e 311C     		mov	r1, r6
 1027 0240 281C     		mov	r0, r5
 1028 0242 FFF7FEFF 		bl	mf_character_width
 1029              	.LVL149:
 1030 0246 4B46     		mov	r3, r9
 1031 0248 1F1A     		sub	r7, r3, r0
 1032 024a BAB2     		uxth	r2, r7
 1033              		.loc 1 205 0
 1034 024c 5146     		mov	r1, sl
 1035              		.loc 1 202 0
 1036 024e 9146     		mov	r9, r2
 1037              		.loc 1 205 0
 1038 0250 0029     		cmp	r1, #0
 1039 0252 51D1     		bne	.L188
 1040              		.loc 1 202 0
 1041 0254 93B2     		uxth	r3, r2
 1042 0256 9946     		mov	r9, r3
 1043              	.L165:
 1044              	.LVL150:
 1045              		.loc 1 208 0
 1046 0258 4846     		mov	r0, r9
 1047 025a 4146     		mov	r1, r8
 1048 025c 00B2     		sxth	r0, r0
 1049 025e 321C     		mov	r2, r6
 1050 0260 179B     		ldr	r3, [sp, #92]
 1051 0262 169F     		ldr	r7, [sp, #88]
 1052 0264 B847     		blx	r7
 1053              	.LVL151:
 1054              		.loc 1 183 0
 1055 0266 0599     		ldr	r1, [sp, #20]
 1056              		.loc 1 208 0
 1057 0268 B246     		mov	sl, r6
 1058              		.loc 1 183 0
 1059 026a 0131     		add	r1, r1, #1
 1060 026c 88B2     		uxth	r0, r1
 1061 026e 0590     		str	r0, [sp, #20]
 1062 0270 A042     		cmp	r0, r4
 1063 0272 B5D1     		bne	.L84
 1064 0274 29E7     		b	.L68
 1065              	.LVL152:
 1066              	.L186:
 1067              	.LBB18:
 1068              	.LBB15:
 1069              		.loc 1 38 0
 1070 0276 6D21     		mov	r1, #109
 1071 0278 FFF7FEFF 		bl	mf_character_width
 1072              	.LVL153:
 1073              		.loc 1 41 0
 1074 027c 2021     		mov	r1, #32
 1075              		.loc 1 38 0
 1076 027e C700     		lsl	r7, r0, #3
 1077              	.LVL154:
 1078              		.loc 1 41 0
 1079 0280 281C     		mov	r0, r5
ARM GAS  /tmp/cc1XYtGL.s 			page 20


 1080 0282 FFF7FEFF 		bl	mf_character_width
 1081              	.LVL155:
 1082 0286 4B46     		mov	r3, r9
 1083              		.loc 1 44 0
 1084 0288 2E7B     		ldrb	r6, [r5, #12]
 1085              		.loc 1 41 0
 1086 028a 1A1A     		sub	r2, r3, r0
 1087 028c 91B2     		uxth	r1, r2
 1088              		.loc 1 38 0
 1089 028e BFB2     		uxth	r7, r7
 1090              	.LVL156:
 1091              		.loc 1 44 0
 1092 0290 5E44     		add	r6, r6, fp
 1093              		.loc 1 45 0
 1094 0292 C81B     		sub	r0, r1, r7
 1095              		.loc 1 44 0
 1096 0294 731A     		sub	r3, r6, r1
 1097              		.loc 1 45 0
 1098 0296 8146     		mov	r9, r0
 1099 0298 391C     		mov	r1, r7
 1100              	.LVL157:
 1101 029a 18B2     		sxth	r0, r3
 1102 029c FFF7FEFF 		bl	__aeabi_idivmod
 1103              	.LVL158:
 1104 02a0 4944     		add	r1, r1, r9
 1105 02a2 8FB2     		uxth	r7, r1
 1106              	.LVL159:
 1107              		.loc 1 194 0
 1108 02a4 2022     		mov	r2, #32
 1109              		.loc 1 45 0
 1110 02a6 B946     		mov	r9, r7
 1111              	.LVL160:
 1112              		.loc 1 194 0
 1113 02a8 9246     		mov	sl, r2
 1114 02aa B9E7     		b	.L81
 1115              	.LVL161:
 1116              	.L187:
 1117              		.loc 1 38 0
 1118 02ac 6D21     		mov	r1, #109
 1119 02ae 281C     		mov	r0, r5
 1120 02b0 FFF7FEFF 		bl	mf_character_width
 1121              	.LVL162:
 1122              		.loc 1 41 0
 1123 02b4 2021     		mov	r1, #32
 1124              		.loc 1 38 0
 1125 02b6 C600     		lsl	r6, r0, #3
 1126              		.loc 1 41 0
 1127 02b8 281C     		mov	r0, r5
 1128 02ba FFF7FEFF 		bl	mf_character_width
 1129              	.LVL163:
 1130 02be 4B46     		mov	r3, r9
 1131              		.loc 1 44 0
 1132 02c0 2F7B     		ldrb	r7, [r5, #12]
 1133              		.loc 1 41 0
 1134 02c2 1A1A     		sub	r2, r3, r0
 1135 02c4 91B2     		uxth	r1, r2
 1136              		.loc 1 38 0
ARM GAS  /tmp/cc1XYtGL.s 			page 21


 1137 02c6 B6B2     		uxth	r6, r6
 1138              		.loc 1 44 0
 1139 02c8 5F44     		add	r7, r7, fp
 1140              		.loc 1 45 0
 1141 02ca 881B     		sub	r0, r1, r6
 1142              		.loc 1 44 0
 1143 02cc 7B1A     		sub	r3, r7, r1
 1144              		.loc 1 45 0
 1145 02ce 8246     		mov	sl, r0
 1146              	.LVL164:
 1147 02d0 311C     		mov	r1, r6
 1148 02d2 18B2     		sxth	r0, r3
 1149              	.LVL165:
 1150              	.L167:
 1151 02d4 FFF7FEFF 		bl	__aeabi_idivmod
 1152              	.LVL166:
 1153 02d8 5144     		add	r1, r1, sl
 1154 02da 8FB2     		uxth	r7, r1
 1155              		.loc 1 194 0
 1156 02dc 2022     		mov	r2, #32
 1157              		.loc 1 45 0
 1158 02de B946     		mov	r9, r7
 1159              	.LVL167:
 1160              		.loc 1 194 0
 1161 02e0 9246     		mov	sl, r2
 1162 02e2 76E7     		b	.L164
 1163              	.LVL168:
 1164              	.L82:
 1165              	.LBE15:
 1166              	.LBE18:
 1167              		.loc 1 206 0
 1168 02e4 391C     		mov	r1, r7
 1169 02e6 5246     		mov	r2, sl
 1170              	.LVL169:
 1171 02e8 281C     		mov	r0, r5
 1172 02ea FFF7FEFF 		bl	mf_compute_kerning
 1173              	.LVL170:
 1174 02ee 4A46     		mov	r2, r9
 1175 02f0 111A     		sub	r1, r2, r0
 1176 02f2 88B2     		uxth	r0, r1
 1177 02f4 8146     		mov	r9, r0
 1178              	.LVL171:
 1179 02f6 8BE7     		b	.L83
 1180              	.LVL172:
 1181              	.L188:
 1182 02f8 311C     		mov	r1, r6
 1183              	.LVL173:
 1184 02fa 5246     		mov	r2, sl
 1185 02fc 281C     		mov	r0, r5
 1186 02fe FFF7FEFF 		bl	mf_compute_kerning
 1187              	.LVL174:
 1188 0302 4F46     		mov	r7, r9
 1189 0304 3A1A     		sub	r2, r7, r0
 1190 0306 91B2     		uxth	r1, r2
 1191 0308 8946     		mov	r9, r1
 1192              	.LVL175:
 1193 030a A5E7     		b	.L165
ARM GAS  /tmp/cc1XYtGL.s 			page 22


 1194              	.LVL176:
 1195              	.L182:
 1196              	.LBE11:
 1197              	.LBE10:
 1198              		.loc 1 229 0
 1199 030c 1499     		ldr	r1, [sp, #80]
 1200 030e 221C     		mov	r2, r4
 1201 0310 281C     		mov	r0, r5
 1202 0312 0023     		mov	r3, #0
 1203 0314 FFF7FEFF 		bl	mf_get_string_width
 1204              	.LVL177:
 1205              		.loc 1 230 0
 1206 0318 C60F     		lsr	r6, r0, #31
 1207 031a 3218     		add	r2, r6, r0
 1208 031c 5110     		asr	r1, r2, #1
 1209 031e 5846     		mov	r0, fp
 1210              	.LVL178:
 1211              		.loc 1 231 0
 1212 0320 179B     		ldr	r3, [sp, #92]
 1213 0322 0094     		str	r4, [sp]
 1214 0324 169C     		ldr	r4, [sp, #88]
 1215              		.loc 1 230 0
 1216 0326 471A     		sub	r7, r0, r1
 1217              	.LVL179:
 1218              		.loc 1 231 0
 1219 0328 0293     		str	r3, [sp, #8]
 1220 032a 39B2     		sxth	r1, r7
 1221 032c 0194     		str	r4, [sp, #4]
 1222 032e 281C     		mov	r0, r5
 1223 0330 4246     		mov	r2, r8
 1224 0332 149B     		ldr	r3, [sp, #80]
 1225 0334 FFF7FEFF 		bl	render_left
 1226              	.LVL180:
 1227 0338 C7E6     		b	.L68
 1228              	.L190:
 1229 033a C046     		.align	2
 1230              	.L189:
 1231 033c FFFF0000 		.word	65535
 1232              	.LVL181:
 1233              	.L184:
 1234              	.LBB21:
 1235              	.LBB20:
 1236              	.LBB19:
 1237              	.LBB16:
 1238              		.loc 1 38 0
 1239 0340 6D21     		mov	r1, #109
 1240 0342 281C     		mov	r0, r5
 1241 0344 FFF7FEFF 		bl	mf_character_width
 1242              	.LVL182:
 1243 0348 C100     		lsl	r1, r0, #3
 1244 034a 8EB2     		uxth	r6, r1
 1245              		.loc 1 41 0
 1246 034c 281C     		mov	r0, r5
 1247 034e 2021     		mov	r1, #32
 1248 0350 FFF7FEFF 		bl	mf_character_width
 1249              	.LVL183:
 1250 0354 5346     		mov	r3, sl
ARM GAS  /tmp/cc1XYtGL.s 			page 23


 1251              		.loc 1 44 0
 1252 0356 2F7B     		ldrb	r7, [r5, #12]
 1253              		.loc 1 41 0
 1254 0358 1A1A     		sub	r2, r3, r0
 1255 035a 91B2     		uxth	r1, r2
 1256              		.loc 1 44 0
 1257 035c 5F44     		add	r7, r7, fp
 1258              		.loc 1 45 0
 1259 035e 881B     		sub	r0, r1, r6
 1260              		.loc 1 44 0
 1261 0360 7B1A     		sub	r3, r7, r1
 1262              		.loc 1 45 0
 1263 0362 8146     		mov	r9, r0
 1264 0364 311C     		mov	r1, r6
 1265 0366 18B2     		sxth	r0, r3
 1266 0368 FFF7FEFF 		bl	__aeabi_idivmod
 1267              	.LVL184:
 1268 036c 4944     		add	r1, r1, r9
 1269 036e 8EB2     		uxth	r6, r1
 1270              		.loc 1 194 0
 1271 0370 2022     		mov	r2, #32
 1272              		.loc 1 45 0
 1273 0372 B146     		mov	r9, r6
 1274              	.LVL185:
 1275              		.loc 1 194 0
 1276 0374 9246     		mov	sl, r2
 1277 0376 03E7     		b	.L158
 1278              	.LVL186:
 1279              	.L159:
 1280              		.loc 1 38 0
 1281 0378 6D21     		mov	r1, #109
 1282 037a FFF7FEFF 		bl	mf_character_width
 1283              	.LVL187:
 1284              		.loc 1 41 0
 1285 037e 2021     		mov	r1, #32
 1286              		.loc 1 38 0
 1287 0380 C700     		lsl	r7, r0, #3
 1288              		.loc 1 41 0
 1289 0382 281C     		mov	r0, r5
 1290 0384 FFF7FEFF 		bl	mf_character_width
 1291              	.LVL188:
 1292 0388 4B46     		mov	r3, r9
 1293              		.loc 1 44 0
 1294 038a 2E7B     		ldrb	r6, [r5, #12]
 1295              		.loc 1 41 0
 1296 038c 1A1A     		sub	r2, r3, r0
 1297 038e 91B2     		uxth	r1, r2
 1298              		.loc 1 38 0
 1299 0390 BFB2     		uxth	r7, r7
 1300              	.LVL189:
 1301              		.loc 1 44 0
 1302 0392 5E44     		add	r6, r6, fp
 1303              		.loc 1 45 0
 1304 0394 C81B     		sub	r0, r1, r7
 1305              		.loc 1 44 0
 1306 0396 731A     		sub	r3, r6, r1
 1307              		.loc 1 45 0
ARM GAS  /tmp/cc1XYtGL.s 			page 24


 1308 0398 8246     		mov	sl, r0
 1309 039a 391C     		mov	r1, r7
 1310 039c 18B2     		sxth	r0, r3
 1311 039e 99E7     		b	.L167
 1312              	.LVL190:
 1313              	.L185:
 1314              	.LBE16:
 1315              	.LBE19:
 1316              		.loc 1 206 0
 1317 03a0 391C     		mov	r1, r7
 1318 03a2 5246     		mov	r2, sl
 1319 03a4 281C     		mov	r0, r5
 1320 03a6 FFF7FEFF 		bl	mf_compute_kerning
 1321              	.LVL191:
 1322 03aa 4E46     		mov	r6, r9
 1323 03ac 321A     		sub	r2, r6, r0
 1324 03ae 91B2     		uxth	r1, r2
 1325 03b0 8946     		mov	r9, r1
 1326              	.LVL192:
 1327 03b2 06E7     		b	.L162
 1328              	.LBE20:
 1329              	.LBE21:
 1330              		.cfi_endproc
 1331              	.LFE46:
 1332              		.size	mf_render_aligned, .-mf_render_aligned
 1333 03b4 C046C046 		.section	.text.mf_render_justified,"ax",%progbits
 1333      C046C046 
 1333      C046C046 
 1334              		.align	2
 1335              		.p2align 4,,15
 1336              		.global	mf_render_justified
 1337              		.code	16
 1338              		.thumb_func
 1339              		.type	mf_render_justified, %function
 1340              	mf_render_justified:
 1341              	.LFB47:
 1342              		.loc 1 249 0
 1343              		.cfi_startproc
 1344              	.LVL193:
 1345 0000 10B5     		push	{r4, lr}
 1346              	.LCFI10:
 1347              		.cfi_def_cfa_offset 8
 1348              		.cfi_offset 4, -8
 1349              		.cfi_offset 14, -4
 1350 0002 84B0     		sub	sp, sp, #16
 1351              	.LCFI11:
 1352              		.cfi_def_cfa_offset 24
 1353              		.loc 1 249 0
 1354 0004 06AB     		add	r3, sp, #24
 1355              	.LVL194:
 1356 0006 10CB     		ldmia	r3!, {r4}
 1357 0008 1B88     		ldrh	r3, [r3]
 1358              		.loc 1 251 0
 1359 000a 0094     		str	r4, [sp]
 1360 000c 0193     		str	r3, [sp, #4]
 1361 000e 089C     		ldr	r4, [sp, #32]
 1362 0010 099B     		ldr	r3, [sp, #36]
ARM GAS  /tmp/cc1XYtGL.s 			page 25


 1363 0012 0294     		str	r4, [sp, #8]
 1364 0014 0393     		str	r3, [sp, #12]
 1365 0016 0023     		mov	r3, #0
 1366 0018 FFF7FEFF 		bl	mf_render_aligned
 1367              	.LVL195:
 1368              		.loc 1 252 0
 1369 001c 04B0     		add	sp, sp, #16
 1370              		@ sp needed for prologue
 1371 001e 10BD     		pop	{r4, pc}
 1372              		.cfi_endproc
 1373              	.LFE47:
 1374              		.size	mf_render_justified, .-mf_render_justified
 1375              		.text
 1376              	.Letext0:
 1377              		.file 2 "/home/matt/arm_cortex/gcc-arm-none-eabi/bin/../lib/gcc/arm-none-eabi/4.7.4/../../../../ar
 1378              		.file 3 "/home/matt/arm_cortex/ChibiOS/ext/ugfx/src/gdisp/mcufont/mf_font.h"
 1379              		.file 4 "/home/matt/arm_cortex/ChibiOS/ext/ugfx/src/gdisp/mcufont/mf_encoding.h"
 1380              		.file 5 "/home/matt/arm_cortex/ChibiOS/ext/ugfx/src/gdisp/mcufont/mf_justify.h"
 1381              		.file 6 "/home/matt/arm_cortex/ChibiOS/ext/ugfx/src/gdisp/mcufont/mf_kerning.h"
 1382              		.section	.debug_info,"",%progbits
 1383              	.Ldebug_info0:
 1384 0000 070E0000 		.4byte	0xe07
 1385 0004 0200     		.2byte	0x2
 1386 0006 00000000 		.4byte	.Ldebug_abbrev0
 1387 000a 04       		.byte	0x4
 1388 000b 01       		.uleb128 0x1
 1389 000c 38000000 		.4byte	.LASF54
 1390 0010 01       		.byte	0x1
 1391 0011 83000000 		.4byte	.LASF55
 1392 0015 80000000 		.4byte	.Ldebug_ranges0+0x80
 1393 0019 00000000 		.4byte	0
 1394 001d 00000000 		.4byte	0
 1395 0021 00000000 		.4byte	.Ldebug_line0
 1396 0025 02       		.uleb128 0x2
 1397 0026 04       		.byte	0x4
 1398 0027 05       		.byte	0x5
 1399 0028 696E7400 		.ascii	"int\000"
 1400 002c 03       		.uleb128 0x3
 1401 002d 04       		.byte	0x4
 1402 002e 07       		.byte	0x7
 1403 002f CB010000 		.4byte	.LASF0
 1404 0033 04       		.uleb128 0x4
 1405 0034 0C000000 		.4byte	.LASF2
 1406 0038 02       		.byte	0x2
 1407 0039 29       		.byte	0x29
 1408 003a 3E000000 		.4byte	0x3e
 1409 003e 03       		.uleb128 0x3
 1410 003f 01       		.byte	0x1
 1411 0040 06       		.byte	0x6
 1412 0041 9B010000 		.4byte	.LASF1
 1413 0045 04       		.uleb128 0x4
 1414 0046 D3000000 		.4byte	.LASF3
 1415 004a 02       		.byte	0x2
 1416 004b 2A       		.byte	0x2a
 1417 004c 50000000 		.4byte	0x50
 1418 0050 03       		.uleb128 0x3
 1419 0051 01       		.byte	0x1
ARM GAS  /tmp/cc1XYtGL.s 			page 26


 1420 0052 08       		.byte	0x8
 1421 0053 8D010000 		.4byte	.LASF4
 1422 0057 04       		.uleb128 0x4
 1423 0058 75020000 		.4byte	.LASF5
 1424 005c 02       		.byte	0x2
 1425 005d 35       		.byte	0x35
 1426 005e 62000000 		.4byte	0x62
 1427 0062 03       		.uleb128 0x3
 1428 0063 02       		.byte	0x2
 1429 0064 05       		.byte	0x5
 1430 0065 25000000 		.4byte	.LASF6
 1431 0069 04       		.uleb128 0x4
 1432 006a D8010000 		.4byte	.LASF7
 1433 006e 02       		.byte	0x2
 1434 006f 36       		.byte	0x36
 1435 0070 74000000 		.4byte	0x74
 1436 0074 03       		.uleb128 0x3
 1437 0075 02       		.byte	0x2
 1438 0076 07       		.byte	0x7
 1439 0077 4E020000 		.4byte	.LASF8
 1440 007b 03       		.uleb128 0x3
 1441 007c 04       		.byte	0x4
 1442 007d 05       		.byte	0x5
 1443 007e 5C010000 		.4byte	.LASF9
 1444 0082 03       		.uleb128 0x3
 1445 0083 04       		.byte	0x4
 1446 0084 07       		.byte	0x7
 1447 0085 8D020000 		.4byte	.LASF10
 1448 0089 03       		.uleb128 0x3
 1449 008a 08       		.byte	0x8
 1450 008b 05       		.byte	0x5
 1451 008c 21010000 		.4byte	.LASF11
 1452 0090 03       		.uleb128 0x3
 1453 0091 08       		.byte	0x8
 1454 0092 07       		.byte	0x7
 1455 0093 AD010000 		.4byte	.LASF12
 1456 0097 03       		.uleb128 0x3
 1457 0098 01       		.byte	0x1
 1458 0099 02       		.byte	0x2
 1459 009a 7D020000 		.4byte	.LASF13
 1460 009e 05       		.uleb128 0x5
 1461 009f 04       		.byte	0x4
 1462 00a0 03       		.uleb128 0x3
 1463 00a1 04       		.byte	0x4
 1464 00a2 07       		.byte	0x7
 1465 00a3 2F000000 		.4byte	.LASF14
 1466 00a7 06       		.uleb128 0x6
 1467 00a8 04       		.byte	0x4
 1468 00a9 AD000000 		.4byte	0xad
 1469 00ad 07       		.uleb128 0x7
 1470 00ae B2000000 		.4byte	0xb2
 1471 00b2 03       		.uleb128 0x3
 1472 00b3 01       		.byte	0x1
 1473 00b4 08       		.byte	0x8
 1474 00b5 13020000 		.4byte	.LASF15
 1475 00b9 06       		.uleb128 0x6
 1476 00ba 04       		.byte	0x4
ARM GAS  /tmp/cc1XYtGL.s 			page 27


 1477 00bb BF000000 		.4byte	0xbf
 1478 00bf 07       		.uleb128 0x7
 1479 00c0 C4000000 		.4byte	0xc4
 1480 00c4 08       		.uleb128 0x8
 1481 00c5 E9000000 		.4byte	.LASF56
 1482 00c9 1C       		.byte	0x1c
 1483 00ca 03       		.byte	0x3
 1484 00cb 1D       		.byte	0x1d
 1485 00cc 87010000 		.4byte	0x187
 1486 00d0 09       		.uleb128 0x9
 1487 00d1 78010000 		.4byte	.LASF16
 1488 00d5 03       		.byte	0x3
 1489 00d6 20       		.byte	0x20
 1490 00d7 A7000000 		.4byte	0xa7
 1491 00db 02       		.byte	0x2
 1492 00dc 23       		.byte	0x23
 1493 00dd 00       		.uleb128 0
 1494 00de 09       		.uleb128 0x9
 1495 00df 82010000 		.4byte	.LASF17
 1496 00e3 03       		.byte	0x3
 1497 00e4 23       		.byte	0x23
 1498 00e5 A7000000 		.4byte	0xa7
 1499 00e9 02       		.byte	0x2
 1500 00ea 23       		.byte	0x23
 1501 00eb 04       		.uleb128 0x4
 1502 00ec 09       		.uleb128 0x9
 1503 00ed 10010000 		.4byte	.LASF18
 1504 00f1 03       		.byte	0x3
 1505 00f2 26       		.byte	0x26
 1506 00f3 45000000 		.4byte	0x45
 1507 00f7 02       		.byte	0x2
 1508 00f8 23       		.byte	0x23
 1509 00f9 08       		.uleb128 0x8
 1510 00fa 09       		.uleb128 0x9
 1511 00fb C4010000 		.4byte	.LASF19
 1512 00ff 03       		.byte	0x3
 1513 0100 27       		.byte	0x27
 1514 0101 45000000 		.4byte	0x45
 1515 0105 02       		.byte	0x2
 1516 0106 23       		.byte	0x23
 1517 0107 09       		.uleb128 0x9
 1518 0108 09       		.uleb128 0x9
 1519 0109 02010000 		.4byte	.LASF20
 1520 010d 03       		.byte	0x3
 1521 010e 2A       		.byte	0x2a
 1522 010f 45000000 		.4byte	0x45
 1523 0113 02       		.byte	0x2
 1524 0114 23       		.byte	0x23
 1525 0115 0A       		.uleb128 0xa
 1526 0116 09       		.uleb128 0x9
 1527 0117 05020000 		.4byte	.LASF21
 1528 011b 03       		.byte	0x3
 1529 011c 2B       		.byte	0x2b
 1530 011d 45000000 		.4byte	0x45
 1531 0121 02       		.byte	0x2
 1532 0122 23       		.byte	0x23
 1533 0123 0B       		.uleb128 0xb
ARM GAS  /tmp/cc1XYtGL.s 			page 28


 1534 0124 09       		.uleb128 0x9
 1535 0125 18020000 		.4byte	.LASF22
 1536 0129 03       		.byte	0x3
 1537 012a 2E       		.byte	0x2e
 1538 012b 45000000 		.4byte	0x45
 1539 012f 02       		.byte	0x2
 1540 0130 23       		.byte	0x23
 1541 0131 0C       		.uleb128 0xc
 1542 0132 09       		.uleb128 0x9
 1543 0133 23020000 		.4byte	.LASF23
 1544 0137 03       		.byte	0x3
 1545 0138 2F       		.byte	0x2f
 1546 0139 45000000 		.4byte	0x45
 1547 013d 02       		.byte	0x2
 1548 013e 23       		.byte	0x23
 1549 013f 0D       		.uleb128 0xd
 1550 0140 09       		.uleb128 0x9
 1551 0141 B3020000 		.4byte	.LASF24
 1552 0145 03       		.byte	0x3
 1553 0146 32       		.byte	0x32
 1554 0147 45000000 		.4byte	0x45
 1555 014b 02       		.byte	0x2
 1556 014c 23       		.byte	0x23
 1557 014d 0E       		.uleb128 0xe
 1558 014e 09       		.uleb128 0x9
 1559 014f A7010000 		.4byte	.LASF25
 1560 0153 03       		.byte	0x3
 1561 0154 35       		.byte	0x35
 1562 0155 45000000 		.4byte	0x45
 1563 0159 02       		.byte	0x2
 1564 015a 23       		.byte	0x23
 1565 015b 0F       		.uleb128 0xf
 1566 015c 09       		.uleb128 0x9
 1567 015d D6020000 		.4byte	.LASF26
 1568 0161 03       		.byte	0x3
 1569 0162 38       		.byte	0x38
 1570 0163 87010000 		.4byte	0x187
 1571 0167 02       		.byte	0x2
 1572 0168 23       		.byte	0x23
 1573 0169 10       		.uleb128 0x10
 1574 016a 09       		.uleb128 0x9
 1575 016b E9020000 		.4byte	.LASF27
 1576 016f 03       		.byte	0x3
 1577 0170 3C       		.byte	0x3c
 1578 0171 E3010000 		.4byte	0x1e3
 1579 0175 02       		.byte	0x2
 1580 0176 23       		.byte	0x23
 1581 0177 14       		.uleb128 0x14
 1582 0178 09       		.uleb128 0x9
 1583 0179 72000000 		.4byte	.LASF28
 1584 017d 03       		.byte	0x3
 1585 017e 40       		.byte	0x40
 1586 017f 12020000 		.4byte	0x212
 1587 0183 02       		.byte	0x2
 1588 0184 23       		.byte	0x23
 1589 0185 18       		.uleb128 0x18
 1590 0186 00       		.byte	0
ARM GAS  /tmp/cc1XYtGL.s 			page 29


 1591 0187 04       		.uleb128 0x4
 1592 0188 DB000000 		.4byte	.LASF29
 1593 018c 04       		.byte	0x4
 1594 018d 16       		.byte	0x16
 1595 018e B2000000 		.4byte	0xb2
 1596 0192 04       		.uleb128 0x4
 1597 0193 13000000 		.4byte	.LASF30
 1598 0197 04       		.byte	0x4
 1599 0198 1D       		.byte	0x1d
 1600 0199 A7000000 		.4byte	0xa7
 1601 019d 04       		.uleb128 0x4
 1602 019e 61020000 		.4byte	.LASF31
 1603 01a2 03       		.byte	0x3
 1604 01a3 19       		.byte	0x19
 1605 01a4 A8010000 		.4byte	0x1a8
 1606 01a8 06       		.uleb128 0x6
 1607 01a9 04       		.byte	0x4
 1608 01aa AE010000 		.4byte	0x1ae
 1609 01ae 0A       		.uleb128 0xa
 1610 01af 01       		.byte	0x1
 1611 01b0 CE010000 		.4byte	0x1ce
 1612 01b4 0B       		.uleb128 0xb
 1613 01b5 57000000 		.4byte	0x57
 1614 01b9 0B       		.uleb128 0xb
 1615 01ba 57000000 		.4byte	0x57
 1616 01be 0B       		.uleb128 0xb
 1617 01bf 45000000 		.4byte	0x45
 1618 01c3 0B       		.uleb128 0xb
 1619 01c4 45000000 		.4byte	0x45
 1620 01c8 0B       		.uleb128 0xb
 1621 01c9 9E000000 		.4byte	0x9e
 1622 01cd 00       		.byte	0
 1623 01ce 0C       		.uleb128 0xc
 1624 01cf 01       		.byte	0x1
 1625 01d0 45000000 		.4byte	0x45
 1626 01d4 E3010000 		.4byte	0x1e3
 1627 01d8 0B       		.uleb128 0xb
 1628 01d9 B9000000 		.4byte	0xb9
 1629 01dd 0B       		.uleb128 0xb
 1630 01de 87010000 		.4byte	0x187
 1631 01e2 00       		.byte	0
 1632 01e3 06       		.uleb128 0x6
 1633 01e4 04       		.byte	0x4
 1634 01e5 CE010000 		.4byte	0x1ce
 1635 01e9 0C       		.uleb128 0xc
 1636 01ea 01       		.byte	0x1
 1637 01eb 45000000 		.4byte	0x45
 1638 01ef 12020000 		.4byte	0x212
 1639 01f3 0B       		.uleb128 0xb
 1640 01f4 B9000000 		.4byte	0xb9
 1641 01f8 0B       		.uleb128 0xb
 1642 01f9 57000000 		.4byte	0x57
 1643 01fd 0B       		.uleb128 0xb
 1644 01fe 57000000 		.4byte	0x57
 1645 0202 0B       		.uleb128 0xb
 1646 0203 87010000 		.4byte	0x187
 1647 0207 0B       		.uleb128 0xb
ARM GAS  /tmp/cc1XYtGL.s 			page 30


 1648 0208 9D010000 		.4byte	0x19d
 1649 020c 0B       		.uleb128 0xb
 1650 020d 9E000000 		.4byte	0x9e
 1651 0211 00       		.byte	0
 1652 0212 06       		.uleb128 0x6
 1653 0213 04       		.byte	0x4
 1654 0214 E9010000 		.4byte	0x1e9
 1655 0218 0D       		.uleb128 0xd
 1656 0219 16010000 		.4byte	.LASF57
 1657 021d 01       		.byte	0x1
 1658 021e 05       		.byte	0x5
 1659 021f 12       		.byte	0x12
 1660 0220 37020000 		.4byte	0x237
 1661 0224 0E       		.uleb128 0xe
 1662 0225 F9020000 		.4byte	.LASF32
 1663 0229 00       		.sleb128 0
 1664 022a 0E       		.uleb128 0xe
 1665 022b 3E020000 		.4byte	.LASF33
 1666 022f 01       		.sleb128 1
 1667 0230 0E       		.uleb128 0xe
 1668 0231 F3000000 		.4byte	.LASF34
 1669 0235 02       		.sleb128 2
 1670 0236 00       		.byte	0
 1671 0237 04       		.uleb128 0x4
 1672 0238 2F010000 		.4byte	.LASF35
 1673 023c 05       		.byte	0x5
 1674 023d 20       		.byte	0x20
 1675 023e 42020000 		.4byte	0x242
 1676 0242 06       		.uleb128 0x6
 1677 0243 04       		.byte	0x4
 1678 0244 48020000 		.4byte	0x248
 1679 0248 0C       		.uleb128 0xc
 1680 0249 01       		.byte	0x1
 1681 024a 45000000 		.4byte	0x45
 1682 024e 67020000 		.4byte	0x267
 1683 0252 0B       		.uleb128 0xb
 1684 0253 57000000 		.4byte	0x57
 1685 0257 0B       		.uleb128 0xb
 1686 0258 57000000 		.4byte	0x57
 1687 025c 0B       		.uleb128 0xb
 1688 025d 87010000 		.4byte	0x187
 1689 0261 0B       		.uleb128 0xb
 1690 0262 9E000000 		.4byte	0x9e
 1691 0266 00       		.byte	0
 1692 0267 0F       		.uleb128 0xf
 1693 0268 65000000 		.4byte	.LASF45
 1694 026c 01       		.byte	0x1
 1695 026d 56       		.byte	0x56
 1696 026e 01       		.byte	0x1
 1697 026f 69000000 		.4byte	0x69
 1698 0273 01       		.byte	0x1
 1699 0274 B9020000 		.4byte	0x2b9
 1700 0278 10       		.uleb128 0x10
 1701 0279 07000000 		.4byte	.LASF36
 1702 027d 01       		.byte	0x1
 1703 027e 56       		.byte	0x56
 1704 027f 92010000 		.4byte	0x192
ARM GAS  /tmp/cc1XYtGL.s 			page 31


 1705 0283 10       		.uleb128 0x10
 1706 0284 E3000000 		.4byte	.LASF37
 1707 0288 01       		.byte	0x1
 1708 0289 56       		.byte	0x56
 1709 028a 69000000 		.4byte	0x69
 1710 028e 10       		.uleb128 0x10
 1711 028f C9000000 		.4byte	.LASF38
 1712 0293 01       		.byte	0x1
 1713 0294 56       		.byte	0x56
 1714 0295 B9020000 		.4byte	0x2b9
 1715 0299 11       		.uleb128 0x11
 1716 029a 6900     		.ascii	"i\000"
 1717 029c 01       		.byte	0x1
 1718 029d 58       		.byte	0x58
 1719 029e 69000000 		.4byte	0x69
 1720 02a2 12       		.uleb128 0x12
 1721 02a3 00000000 		.4byte	.LASF39
 1722 02a7 01       		.byte	0x1
 1723 02a8 58       		.byte	0x58
 1724 02a9 69000000 		.4byte	0x69
 1725 02ad 11       		.uleb128 0x11
 1726 02ae 746D7000 		.ascii	"tmp\000"
 1727 02b2 01       		.byte	0x1
 1728 02b3 59       		.byte	0x59
 1729 02b4 87010000 		.4byte	0x187
 1730 02b8 00       		.byte	0
 1731 02b9 06       		.uleb128 0x6
 1732 02ba 04       		.byte	0x4
 1733 02bb 87010000 		.4byte	0x187
 1734 02bf 13       		.uleb128 0x13
 1735 02c0 2E020000 		.4byte	.LASF58
 1736 02c4 01       		.byte	0x1
 1737 02c5 0F       		.byte	0xf
 1738 02c6 01       		.byte	0x1
 1739 02c7 57000000 		.4byte	0x57
 1740 02cb 00000000 		.4byte	.LFB40
 1741 02cf 34000000 		.4byte	.LFE40
 1742 02d3 00000000 		.4byte	.LLST0
 1743 02d7 01       		.byte	0x1
 1744 02d8 54030000 		.4byte	0x354
 1745 02dc 14       		.uleb128 0x14
 1746 02dd 20000000 		.4byte	.LASF40
 1747 02e1 01       		.byte	0x1
 1748 02e2 0F       		.byte	0xf
 1749 02e3 B9000000 		.4byte	0xb9
 1750 02e7 20000000 		.4byte	.LLST1
 1751 02eb 15       		.uleb128 0x15
 1752 02ec 783000   		.ascii	"x0\000"
 1753 02ef 01       		.byte	0x1
 1754 02f0 10       		.byte	0x10
 1755 02f1 57000000 		.4byte	0x57
 1756 02f5 4C000000 		.4byte	.LLST2
 1757 02f9 15       		.uleb128 0x15
 1758 02fa 7800     		.ascii	"x\000"
 1759 02fc 01       		.byte	0x1
 1760 02fd 10       		.byte	0x10
 1761 02fe 57000000 		.4byte	0x57
ARM GAS  /tmp/cc1XYtGL.s 			page 32


 1762 0302 6D000000 		.4byte	.LLST3
 1763 0306 16       		.uleb128 0x16
 1764 0307 C5020000 		.4byte	.LASF41
 1765 030b 01       		.byte	0x1
 1766 030c 12       		.byte	0x12
 1767 030d 57000000 		.4byte	0x57
 1768 0311 1B010000 		.4byte	.LLST4
 1769 0315 17       		.uleb128 0x17
 1770 0316 647800   		.ascii	"dx\000"
 1771 0319 01       		.byte	0x1
 1772 031a 12       		.byte	0x12
 1773 031b 57000000 		.4byte	0x57
 1774 031f 2E010000 		.4byte	.LLST5
 1775 0323 18       		.uleb128 0x18
 1776 0324 0E000000 		.4byte	.LVL2
 1777 0328 9D0D0000 		.4byte	0xd9d
 1778 032c 3D030000 		.4byte	0x33d
 1779 0330 19       		.uleb128 0x19
 1780 0331 01       		.byte	0x1
 1781 0332 51       		.byte	0x51
 1782 0333 02       		.byte	0x2
 1783 0334 08       		.byte	0x8
 1784 0335 6D       		.byte	0x6d
 1785 0336 19       		.uleb128 0x19
 1786 0337 01       		.byte	0x1
 1787 0338 50       		.byte	0x50
 1788 0339 02       		.byte	0x2
 1789 033a 74       		.byte	0x74
 1790 033b 00       		.sleb128 0
 1791 033c 00       		.byte	0
 1792 033d 1A       		.uleb128 0x1a
 1793 033e 18000000 		.4byte	.LVL3
 1794 0342 9D0D0000 		.4byte	0xd9d
 1795 0346 19       		.uleb128 0x19
 1796 0347 01       		.byte	0x1
 1797 0348 51       		.byte	0x51
 1798 0349 02       		.byte	0x2
 1799 034a 08       		.byte	0x8
 1800 034b 20       		.byte	0x20
 1801 034c 19       		.uleb128 0x19
 1802 034d 01       		.byte	0x1
 1803 034e 50       		.byte	0x50
 1804 034f 02       		.byte	0x2
 1805 0350 74       		.byte	0x74
 1806 0351 00       		.sleb128 0
 1807 0352 00       		.byte	0
 1808 0353 00       		.byte	0
 1809 0354 1B       		.uleb128 0x1b
 1810 0355 CA020000 		.4byte	.LASF59
 1811 0359 01       		.byte	0x1
 1812 035a 75       		.byte	0x75
 1813 035b 01       		.byte	0x1
 1814 035c 00000000 		.4byte	.LFB44
 1815 0360 84000000 		.4byte	.LFE44
 1816 0364 84010000 		.4byte	.LLST6
 1817 0368 01       		.byte	0x1
 1818 0369 70040000 		.4byte	0x470
ARM GAS  /tmp/cc1XYtGL.s 			page 33


 1819 036d 14       		.uleb128 0x14
 1820 036e 20000000 		.4byte	.LASF40
 1821 0372 01       		.byte	0x1
 1822 0373 75       		.byte	0x75
 1823 0374 B9000000 		.4byte	0xb9
 1824 0378 BC010000 		.4byte	.LLST7
 1825 037c 15       		.uleb128 0x15
 1826 037d 783000   		.ascii	"x0\000"
 1827 0380 01       		.byte	0x1
 1828 0381 76       		.byte	0x76
 1829 0382 57000000 		.4byte	0x57
 1830 0386 F3010000 		.4byte	.LLST8
 1831 038a 15       		.uleb128 0x15
 1832 038b 793000   		.ascii	"y0\000"
 1833 038e 01       		.byte	0x1
 1834 038f 76       		.byte	0x76
 1835 0390 57000000 		.4byte	0x57
 1836 0394 14020000 		.4byte	.LLST9
 1837 0398 14       		.uleb128 0x14
 1838 0399 07000000 		.4byte	.LASF36
 1839 039d 01       		.byte	0x1
 1840 039e 77       		.byte	0x77
 1841 039f 92010000 		.4byte	0x192
 1842 03a3 35020000 		.4byte	.LLST10
 1843 03a7 14       		.uleb128 0x14
 1844 03a8 E3000000 		.4byte	.LASF37
 1845 03ac 01       		.byte	0x1
 1846 03ad 77       		.byte	0x77
 1847 03ae 69000000 		.4byte	0x69
 1848 03b2 54020000 		.4byte	.LLST11
 1849 03b6 1C       		.uleb128 0x1c
 1850 03b7 3B030000 		.4byte	.LASF42
 1851 03bb 01       		.byte	0x1
 1852 03bc 78       		.byte	0x78
 1853 03bd 37020000 		.4byte	0x237
 1854 03c1 02       		.byte	0x2
 1855 03c2 91       		.byte	0x91
 1856 03c3 04       		.sleb128 4
 1857 03c4 1C       		.uleb128 0x1c
 1858 03c5 1A000000 		.4byte	.LASF43
 1859 03c9 01       		.byte	0x1
 1860 03ca 79       		.byte	0x79
 1861 03cb 9E000000 		.4byte	0x9e
 1862 03cf 02       		.byte	0x2
 1863 03d0 91       		.byte	0x91
 1864 03d1 08       		.sleb128 8
 1865 03d2 17       		.uleb128 0x17
 1866 03d3 7800     		.ascii	"x\000"
 1867 03d5 01       		.byte	0x1
 1868 03d6 7B       		.byte	0x7b
 1869 03d7 57000000 		.4byte	0x57
 1870 03db 68020000 		.4byte	.LLST12
 1871 03df 17       		.uleb128 0x17
 1872 03e0 633100   		.ascii	"c1\000"
 1873 03e3 01       		.byte	0x1
 1874 03e4 7C       		.byte	0x7c
 1875 03e5 87010000 		.4byte	0x187
ARM GAS  /tmp/cc1XYtGL.s 			page 34


 1876 03e9 C8020000 		.4byte	.LLST13
 1877 03ed 17       		.uleb128 0x17
 1878 03ee 633200   		.ascii	"c2\000"
 1879 03f1 01       		.byte	0x1
 1880 03f2 7C       		.byte	0x7c
 1881 03f3 87010000 		.4byte	0x187
 1882 03f7 15030000 		.4byte	.LLST14
 1883 03fb 1D       		.uleb128 0x1d
 1884 03fc 38000000 		.4byte	.LVL16
 1885 0400 1D040000 		.4byte	0x41d
 1886 0404 19       		.uleb128 0x19
 1887 0405 01       		.byte	0x1
 1888 0406 53       		.byte	0x53
 1889 0407 02       		.byte	0x2
 1890 0408 78       		.byte	0x78
 1891 0409 00       		.sleb128 0
 1892 040a 19       		.uleb128 0x19
 1893 040b 01       		.byte	0x1
 1894 040c 52       		.byte	0x52
 1895 040d 02       		.byte	0x2
 1896 040e 74       		.byte	0x74
 1897 040f 00       		.sleb128 0
 1898 0410 19       		.uleb128 0x19
 1899 0411 01       		.byte	0x1
 1900 0412 51       		.byte	0x51
 1901 0413 02       		.byte	0x2
 1902 0414 7A       		.byte	0x7a
 1903 0415 00       		.sleb128 0
 1904 0416 19       		.uleb128 0x19
 1905 0417 01       		.byte	0x1
 1906 0418 50       		.byte	0x50
 1907 0419 02       		.byte	0x2
 1908 041a 75       		.byte	0x75
 1909 041b 00       		.sleb128 0
 1910 041c 00       		.byte	0
 1911 041d 18       		.uleb128 0x18
 1912 041e 4C000000 		.4byte	.LVL20
 1913 0422 BA0D0000 		.4byte	0xdba
 1914 0426 31040000 		.4byte	0x431
 1915 042a 19       		.uleb128 0x19
 1916 042b 01       		.byte	0x1
 1917 042c 50       		.byte	0x50
 1918 042d 02       		.byte	0x2
 1919 042e 91       		.byte	0x91
 1920 042f 54       		.sleb128 -44
 1921 0430 00       		.byte	0
 1922 0431 18       		.uleb128 0x18
 1923 0432 60000000 		.4byte	.LVL23
 1924 0436 D80D0000 		.4byte	0xdd8
 1925 043a 51040000 		.4byte	0x451
 1926 043e 19       		.uleb128 0x19
 1927 043f 01       		.byte	0x1
 1928 0440 52       		.byte	0x52
 1929 0441 02       		.byte	0x2
 1930 0442 74       		.byte	0x74
 1931 0443 00       		.sleb128 0
 1932 0444 19       		.uleb128 0x19
ARM GAS  /tmp/cc1XYtGL.s 			page 35


 1933 0445 01       		.byte	0x1
 1934 0446 51       		.byte	0x51
 1935 0447 02       		.byte	0x2
 1936 0448 77       		.byte	0x77
 1937 0449 00       		.sleb128 0
 1938 044a 19       		.uleb128 0x19
 1939 044b 01       		.byte	0x1
 1940 044c 50       		.byte	0x50
 1941 044d 02       		.byte	0x2
 1942 044e 7B       		.byte	0x7b
 1943 044f 00       		.sleb128 0
 1944 0450 00       		.byte	0
 1945 0451 1A       		.uleb128 0x1a
 1946 0452 70000000 		.4byte	.LVL27
 1947 0456 BF020000 		.4byte	0x2bf
 1948 045a 19       		.uleb128 0x19
 1949 045b 01       		.byte	0x1
 1950 045c 52       		.byte	0x52
 1951 045d 02       		.byte	0x2
 1952 045e 75       		.byte	0x75
 1953 045f 00       		.sleb128 0
 1954 0460 19       		.uleb128 0x19
 1955 0461 01       		.byte	0x1
 1956 0462 51       		.byte	0x51
 1957 0463 04       		.byte	0x4
 1958 0464 7D       		.byte	0x7d
 1959 0465 00       		.sleb128 0
 1960 0466 94       		.byte	0x94
 1961 0467 02       		.byte	0x2
 1962 0468 19       		.uleb128 0x19
 1963 0469 01       		.byte	0x1
 1964 046a 50       		.byte	0x50
 1965 046b 02       		.byte	0x2
 1966 046c 7B       		.byte	0x7b
 1967 046d 00       		.sleb128 0
 1968 046e 00       		.byte	0
 1969 046f 00       		.byte	0
 1970 0470 1E       		.uleb128 0x1e
 1971 0471 01       		.byte	0x1
 1972 0472 27030000 		.4byte	.LASF60
 1973 0476 01       		.byte	0x1
 1974 0477 33       		.byte	0x33
 1975 0478 01       		.byte	0x1
 1976 0479 57000000 		.4byte	0x57
 1977 047d 00000000 		.4byte	.LFB42
 1978 0481 5C010000 		.4byte	.LFE42
 1979 0485 54030000 		.4byte	.LLST15
 1980 0489 01       		.byte	0x1
 1981 048a 7C060000 		.4byte	0x67c
 1982 048e 14       		.uleb128 0x14
 1983 048f 20000000 		.4byte	.LASF40
 1984 0493 01       		.byte	0x1
 1985 0494 33       		.byte	0x33
 1986 0495 B9000000 		.4byte	0xb9
 1987 0499 8C030000 		.4byte	.LLST16
 1988 049d 14       		.uleb128 0x14
 1989 049e 07000000 		.4byte	.LASF36
ARM GAS  /tmp/cc1XYtGL.s 			page 36


 1990 04a2 01       		.byte	0x1
 1991 04a3 33       		.byte	0x33
 1992 04a4 92010000 		.4byte	0x192
 1993 04a8 EF030000 		.4byte	.LLST17
 1994 04ac 14       		.uleb128 0x14
 1995 04ad E3000000 		.4byte	.LASF37
 1996 04b1 01       		.byte	0x1
 1997 04b2 34       		.byte	0x34
 1998 04b3 69000000 		.4byte	0x69
 1999 04b7 0E040000 		.4byte	.LLST18
 2000 04bb 14       		.uleb128 0x14
 2001 04bc E1010000 		.4byte	.LASF44
 2002 04c0 01       		.byte	0x1
 2003 04c1 34       		.byte	0x34
 2004 04c2 97000000 		.4byte	0x97
 2005 04c6 21040000 		.4byte	.LLST19
 2006 04ca 16       		.uleb128 0x16
 2007 04cb 00000000 		.4byte	.LASF39
 2008 04cf 01       		.byte	0x1
 2009 04d0 36       		.byte	0x36
 2010 04d1 57000000 		.4byte	0x57
 2011 04d5 42040000 		.4byte	.LLST20
 2012 04d9 17       		.uleb128 0x17
 2013 04da 633100   		.ascii	"c1\000"
 2014 04dd 01       		.byte	0x1
 2015 04de 37       		.byte	0x37
 2016 04df 69000000 		.4byte	0x69
 2017 04e3 12050000 		.4byte	.LLST21
 2018 04e7 17       		.uleb128 0x17
 2019 04e8 633200   		.ascii	"c2\000"
 2020 04eb 01       		.byte	0x1
 2021 04ec 37       		.byte	0x37
 2022 04ed 69000000 		.4byte	0x69
 2023 04f1 7C050000 		.4byte	.LLST22
 2024 04f5 18       		.uleb128 0x18
 2025 04f6 2C000000 		.4byte	.LVL38
 2026 04fa BA0D0000 		.4byte	0xdba
 2027 04fe 09050000 		.4byte	0x509
 2028 0502 19       		.uleb128 0x19
 2029 0503 01       		.byte	0x1
 2030 0504 50       		.byte	0x50
 2031 0505 02       		.byte	0x2
 2032 0506 91       		.byte	0x91
 2033 0507 5C       		.sleb128 -36
 2034 0508 00       		.byte	0
 2035 0509 18       		.uleb128 0x18
 2036 050a 3C000000 		.4byte	.LVL40
 2037 050e 9D0D0000 		.4byte	0xd9d
 2038 0512 23050000 		.4byte	0x523
 2039 0516 19       		.uleb128 0x19
 2040 0517 01       		.byte	0x1
 2041 0518 51       		.byte	0x51
 2042 0519 02       		.byte	0x2
 2043 051a 77       		.byte	0x77
 2044 051b 00       		.sleb128 0
 2045 051c 19       		.uleb128 0x19
 2046 051d 01       		.byte	0x1
ARM GAS  /tmp/cc1XYtGL.s 			page 37


 2047 051e 50       		.byte	0x50
 2048 051f 02       		.byte	0x2
 2049 0520 78       		.byte	0x78
 2050 0521 00       		.sleb128 0
 2051 0522 00       		.byte	0
 2052 0523 18       		.uleb128 0x18
 2053 0524 58000000 		.4byte	.LVL43
 2054 0528 BA0D0000 		.4byte	0xdba
 2055 052c 37050000 		.4byte	0x537
 2056 0530 19       		.uleb128 0x19
 2057 0531 01       		.byte	0x1
 2058 0532 50       		.byte	0x50
 2059 0533 02       		.byte	0x2
 2060 0534 91       		.byte	0x91
 2061 0535 5C       		.sleb128 -36
 2062 0536 00       		.byte	0
 2063 0537 18       		.uleb128 0x18
 2064 0538 70000000 		.4byte	.LVL44
 2065 053c 9D0D0000 		.4byte	0xd9d
 2066 0540 51050000 		.4byte	0x551
 2067 0544 19       		.uleb128 0x19
 2068 0545 01       		.byte	0x1
 2069 0546 51       		.byte	0x51
 2070 0547 02       		.byte	0x2
 2071 0548 76       		.byte	0x76
 2072 0549 00       		.sleb128 0
 2073 054a 19       		.uleb128 0x19
 2074 054b 01       		.byte	0x1
 2075 054c 50       		.byte	0x50
 2076 054d 02       		.byte	0x2
 2077 054e 78       		.byte	0x78
 2078 054f 00       		.sleb128 0
 2079 0550 00       		.byte	0
 2080 0551 18       		.uleb128 0x18
 2081 0552 82000000 		.4byte	.LVL48
 2082 0556 BF020000 		.4byte	0x2bf
 2083 055a 70050000 		.4byte	0x570
 2084 055e 19       		.uleb128 0x19
 2085 055f 01       		.byte	0x1
 2086 0560 52       		.byte	0x52
 2087 0561 02       		.byte	0x2
 2088 0562 74       		.byte	0x74
 2089 0563 00       		.sleb128 0
 2090 0564 19       		.uleb128 0x19
 2091 0565 01       		.byte	0x1
 2092 0566 51       		.byte	0x51
 2093 0567 01       		.byte	0x1
 2094 0568 30       		.byte	0x30
 2095 0569 19       		.uleb128 0x19
 2096 056a 01       		.byte	0x1
 2097 056b 50       		.byte	0x50
 2098 056c 02       		.byte	0x2
 2099 056d 78       		.byte	0x78
 2100 056e 00       		.sleb128 0
 2101 056f 00       		.byte	0
 2102 0570 18       		.uleb128 0x18
 2103 0571 9C000000 		.4byte	.LVL52
ARM GAS  /tmp/cc1XYtGL.s 			page 38


 2104 0575 BA0D0000 		.4byte	0xdba
 2105 0579 84050000 		.4byte	0x584
 2106 057d 19       		.uleb128 0x19
 2107 057e 01       		.byte	0x1
 2108 057f 50       		.byte	0x50
 2109 0580 02       		.byte	0x2
 2110 0581 91       		.byte	0x91
 2111 0582 5C       		.sleb128 -36
 2112 0583 00       		.byte	0
 2113 0584 18       		.uleb128 0x18
 2114 0585 B4000000 		.4byte	.LVL55
 2115 0589 9D0D0000 		.4byte	0xd9d
 2116 058d 9E050000 		.4byte	0x59e
 2117 0591 19       		.uleb128 0x19
 2118 0592 01       		.byte	0x1
 2119 0593 51       		.byte	0x51
 2120 0594 02       		.byte	0x2
 2121 0595 76       		.byte	0x76
 2122 0596 00       		.sleb128 0
 2123 0597 19       		.uleb128 0x19
 2124 0598 01       		.byte	0x1
 2125 0599 50       		.byte	0x50
 2126 059a 02       		.byte	0x2
 2127 059b 78       		.byte	0x78
 2128 059c 00       		.sleb128 0
 2129 059d 00       		.byte	0
 2130 059e 18       		.uleb128 0x18
 2131 059f CA000000 		.4byte	.LVL59
 2132 05a3 BA0D0000 		.4byte	0xdba
 2133 05a7 B2050000 		.4byte	0x5b2
 2134 05ab 19       		.uleb128 0x19
 2135 05ac 01       		.byte	0x1
 2136 05ad 50       		.byte	0x50
 2137 05ae 02       		.byte	0x2
 2138 05af 91       		.byte	0x91
 2139 05b0 5C       		.sleb128 -36
 2140 05b1 00       		.byte	0
 2141 05b2 18       		.uleb128 0x18
 2142 05b3 E2000000 		.4byte	.LVL61
 2143 05b7 9D0D0000 		.4byte	0xd9d
 2144 05bb CC050000 		.4byte	0x5cc
 2145 05bf 19       		.uleb128 0x19
 2146 05c0 01       		.byte	0x1
 2147 05c1 51       		.byte	0x51
 2148 05c2 02       		.byte	0x2
 2149 05c3 77       		.byte	0x77
 2150 05c4 00       		.sleb128 0
 2151 05c5 19       		.uleb128 0x19
 2152 05c6 01       		.byte	0x1
 2153 05c7 50       		.byte	0x50
 2154 05c8 02       		.byte	0x2
 2155 05c9 78       		.byte	0x78
 2156 05ca 00       		.sleb128 0
 2157 05cb 00       		.byte	0
 2158 05cc 18       		.uleb128 0x18
 2159 05cd 04010000 		.4byte	.LVL67
 2160 05d1 BF020000 		.4byte	0x2bf
ARM GAS  /tmp/cc1XYtGL.s 			page 39


 2161 05d5 EB050000 		.4byte	0x5eb
 2162 05d9 19       		.uleb128 0x19
 2163 05da 01       		.byte	0x1
 2164 05db 52       		.byte	0x52
 2165 05dc 02       		.byte	0x2
 2166 05dd 74       		.byte	0x74
 2167 05de 00       		.sleb128 0
 2168 05df 19       		.uleb128 0x19
 2169 05e0 01       		.byte	0x1
 2170 05e1 51       		.byte	0x51
 2171 05e2 01       		.byte	0x1
 2172 05e3 30       		.byte	0x30
 2173 05e4 19       		.uleb128 0x19
 2174 05e5 01       		.byte	0x1
 2175 05e6 50       		.byte	0x50
 2176 05e7 02       		.byte	0x2
 2177 05e8 78       		.byte	0x78
 2178 05e9 00       		.sleb128 0
 2179 05ea 00       		.byte	0
 2180 05eb 18       		.uleb128 0x18
 2181 05ec 14010000 		.4byte	.LVL72
 2182 05f0 D80D0000 		.4byte	0xdd8
 2183 05f4 0B060000 		.4byte	0x60b
 2184 05f8 19       		.uleb128 0x19
 2185 05f9 01       		.byte	0x1
 2186 05fa 52       		.byte	0x52
 2187 05fb 02       		.byte	0x2
 2188 05fc 76       		.byte	0x76
 2189 05fd 00       		.sleb128 0
 2190 05fe 19       		.uleb128 0x19
 2191 05ff 01       		.byte	0x1
 2192 0600 51       		.byte	0x51
 2193 0601 02       		.byte	0x2
 2194 0602 77       		.byte	0x77
 2195 0603 00       		.sleb128 0
 2196 0604 19       		.uleb128 0x19
 2197 0605 01       		.byte	0x1
 2198 0606 50       		.byte	0x50
 2199 0607 02       		.byte	0x2
 2200 0608 78       		.byte	0x78
 2201 0609 00       		.sleb128 0
 2202 060a 00       		.byte	0
 2203 060b 18       		.uleb128 0x18
 2204 060c 24010000 		.4byte	.LVL75
 2205 0610 D80D0000 		.4byte	0xdd8
 2206 0614 2B060000 		.4byte	0x62b
 2207 0618 19       		.uleb128 0x19
 2208 0619 01       		.byte	0x1
 2209 061a 52       		.byte	0x52
 2210 061b 02       		.byte	0x2
 2211 061c 77       		.byte	0x77
 2212 061d 00       		.sleb128 0
 2213 061e 19       		.uleb128 0x19
 2214 061f 01       		.byte	0x1
 2215 0620 51       		.byte	0x51
 2216 0621 02       		.byte	0x2
 2217 0622 76       		.byte	0x76
ARM GAS  /tmp/cc1XYtGL.s 			page 40


 2218 0623 00       		.sleb128 0
 2219 0624 19       		.uleb128 0x19
 2220 0625 01       		.byte	0x1
 2221 0626 50       		.byte	0x50
 2222 0627 02       		.byte	0x2
 2223 0628 78       		.byte	0x78
 2224 0629 00       		.sleb128 0
 2225 062a 00       		.byte	0
 2226 062b 18       		.uleb128 0x18
 2227 062c 34010000 		.4byte	.LVL78
 2228 0630 D80D0000 		.4byte	0xdd8
 2229 0634 4B060000 		.4byte	0x64b
 2230 0638 19       		.uleb128 0x19
 2231 0639 01       		.byte	0x1
 2232 063a 52       		.byte	0x52
 2233 063b 02       		.byte	0x2
 2234 063c 76       		.byte	0x76
 2235 063d 00       		.sleb128 0
 2236 063e 19       		.uleb128 0x19
 2237 063f 01       		.byte	0x1
 2238 0640 51       		.byte	0x51
 2239 0641 02       		.byte	0x2
 2240 0642 77       		.byte	0x77
 2241 0643 00       		.sleb128 0
 2242 0644 19       		.uleb128 0x19
 2243 0645 01       		.byte	0x1
 2244 0646 50       		.byte	0x50
 2245 0647 02       		.byte	0x2
 2246 0648 78       		.byte	0x78
 2247 0649 00       		.sleb128 0
 2248 064a 00       		.byte	0
 2249 064b 18       		.uleb128 0x18
 2250 064c 3E010000 		.4byte	.LVL80
 2251 0650 9D0D0000 		.4byte	0xd9d
 2252 0654 65060000 		.4byte	0x665
 2253 0658 19       		.uleb128 0x19
 2254 0659 01       		.byte	0x1
 2255 065a 51       		.byte	0x51
 2256 065b 02       		.byte	0x2
 2257 065c 76       		.byte	0x76
 2258 065d 00       		.sleb128 0
 2259 065e 19       		.uleb128 0x19
 2260 065f 01       		.byte	0x1
 2261 0660 50       		.byte	0x50
 2262 0661 02       		.byte	0x2
 2263 0662 78       		.byte	0x78
 2264 0663 00       		.sleb128 0
 2265 0664 00       		.byte	0
 2266 0665 1A       		.uleb128 0x1a
 2267 0666 50010000 		.4byte	.LVL85
 2268 066a BF020000 		.4byte	0x2bf
 2269 066e 19       		.uleb128 0x19
 2270 066f 01       		.byte	0x1
 2271 0670 52       		.byte	0x52
 2272 0671 02       		.byte	0x2
 2273 0672 74       		.byte	0x74
 2274 0673 00       		.sleb128 0
ARM GAS  /tmp/cc1XYtGL.s 			page 41


 2275 0674 19       		.uleb128 0x19
 2276 0675 01       		.byte	0x1
 2277 0676 51       		.byte	0x51
 2278 0677 02       		.byte	0x2
 2279 0678 74       		.byte	0x74
 2280 0679 00       		.sleb128 0
 2281 067a 00       		.byte	0
 2282 067b 00       		.byte	0
 2283 067c 1F       		.uleb128 0x1f
 2284 067d E6010000 		.4byte	.LASF61
 2285 0681 01       		.byte	0x1
 2286 0682 A7       		.byte	0xa7
 2287 0683 01       		.byte	0x1
 2288 0684 01       		.byte	0x1
 2289 0685 06070000 		.4byte	0x706
 2290 0689 10       		.uleb128 0x10
 2291 068a 20000000 		.4byte	.LASF40
 2292 068e 01       		.byte	0x1
 2293 068f A7       		.byte	0xa7
 2294 0690 B9000000 		.4byte	0xb9
 2295 0694 20       		.uleb128 0x20
 2296 0695 783000   		.ascii	"x0\000"
 2297 0698 01       		.byte	0x1
 2298 0699 A8       		.byte	0xa8
 2299 069a 57000000 		.4byte	0x57
 2300 069e 20       		.uleb128 0x20
 2301 069f 793000   		.ascii	"y0\000"
 2302 06a2 01       		.byte	0x1
 2303 06a3 A8       		.byte	0xa8
 2304 06a4 57000000 		.4byte	0x57
 2305 06a8 10       		.uleb128 0x10
 2306 06a9 07000000 		.4byte	.LASF36
 2307 06ad 01       		.byte	0x1
 2308 06ae A9       		.byte	0xa9
 2309 06af 92010000 		.4byte	0x192
 2310 06b3 10       		.uleb128 0x10
 2311 06b4 E3000000 		.4byte	.LASF37
 2312 06b8 01       		.byte	0x1
 2313 06b9 A9       		.byte	0xa9
 2314 06ba 69000000 		.4byte	0x69
 2315 06be 10       		.uleb128 0x10
 2316 06bf 3B030000 		.4byte	.LASF42
 2317 06c3 01       		.byte	0x1
 2318 06c4 AA       		.byte	0xaa
 2319 06c5 37020000 		.4byte	0x237
 2320 06c9 10       		.uleb128 0x10
 2321 06ca 1A000000 		.4byte	.LASF43
 2322 06ce 01       		.byte	0x1
 2323 06cf AB       		.byte	0xab
 2324 06d0 9E000000 		.4byte	0x9e
 2325 06d4 11       		.uleb128 0x11
 2326 06d5 7800     		.ascii	"x\000"
 2327 06d7 01       		.byte	0x1
 2328 06d8 AD       		.byte	0xad
 2329 06d9 57000000 		.4byte	0x57
 2330 06dd 11       		.uleb128 0x11
 2331 06de 6900     		.ascii	"i\000"
ARM GAS  /tmp/cc1XYtGL.s 			page 42


 2332 06e0 01       		.byte	0x1
 2333 06e1 AE       		.byte	0xae
 2334 06e2 69000000 		.4byte	0x69
 2335 06e6 11       		.uleb128 0x11
 2336 06e7 633100   		.ascii	"c1\000"
 2337 06ea 01       		.byte	0x1
 2338 06eb AF       		.byte	0xaf
 2339 06ec 87010000 		.4byte	0x187
 2340 06f0 11       		.uleb128 0x11
 2341 06f1 633200   		.ascii	"c2\000"
 2342 06f4 01       		.byte	0x1
 2343 06f5 AF       		.byte	0xaf
 2344 06f6 87010000 		.4byte	0x187
 2345 06fa 11       		.uleb128 0x11
 2346 06fb 746D7000 		.ascii	"tmp\000"
 2347 06ff 01       		.byte	0x1
 2348 0700 B0       		.byte	0xb0
 2349 0701 92010000 		.4byte	0x192
 2350 0705 00       		.byte	0
 2351 0706 0F       		.uleb128 0xf
 2352 0707 47010000 		.4byte	.LASF46
 2353 070b 01       		.byte	0x1
 2354 070c 21       		.byte	0x21
 2355 070d 01       		.byte	0x1
 2356 070e 57000000 		.4byte	0x57
 2357 0712 01       		.byte	0x1
 2358 0713 4B070000 		.4byte	0x74b
 2359 0717 10       		.uleb128 0x10
 2360 0718 20000000 		.4byte	.LASF40
 2361 071c 01       		.byte	0x1
 2362 071d 21       		.byte	0x21
 2363 071e B9000000 		.4byte	0xb9
 2364 0722 20       		.uleb128 0x20
 2365 0723 783000   		.ascii	"x0\000"
 2366 0726 01       		.byte	0x1
 2367 0727 22       		.byte	0x22
 2368 0728 57000000 		.4byte	0x57
 2369 072c 20       		.uleb128 0x20
 2370 072d 7800     		.ascii	"x\000"
 2371 072f 01       		.byte	0x1
 2372 0730 22       		.byte	0x22
 2373 0731 57000000 		.4byte	0x57
 2374 0735 12       		.uleb128 0x12
 2375 0736 C5020000 		.4byte	.LASF41
 2376 073a 01       		.byte	0x1
 2377 073b 24       		.byte	0x24
 2378 073c 57000000 		.4byte	0x57
 2379 0740 11       		.uleb128 0x11
 2380 0741 647800   		.ascii	"dx\000"
 2381 0744 01       		.byte	0x1
 2382 0745 24       		.byte	0x24
 2383 0746 57000000 		.4byte	0x57
 2384 074a 00       		.byte	0
 2385 074b 21       		.uleb128 0x21
 2386 074c 01       		.byte	0x1
 2387 074d F3010000 		.4byte	.LASF49
 2388 0751 01       		.byte	0x1
ARM GAS  /tmp/cc1XYtGL.s 			page 43


 2389 0752 D5       		.byte	0xd5
 2390 0753 01       		.byte	0x1
 2391 0754 00000000 		.4byte	.LFB46
 2392 0758 B4030000 		.4byte	.LFE46
 2393 075c C6050000 		.4byte	.LLST23
 2394 0760 01       		.byte	0x1
 2395 0761 DA0C0000 		.4byte	0xcda
 2396 0765 14       		.uleb128 0x14
 2397 0766 20000000 		.4byte	.LASF40
 2398 076a 01       		.byte	0x1
 2399 076b D5       		.byte	0xd5
 2400 076c B9000000 		.4byte	0xb9
 2401 0770 FF050000 		.4byte	.LLST24
 2402 0774 15       		.uleb128 0x15
 2403 0775 783000   		.ascii	"x0\000"
 2404 0778 01       		.byte	0x1
 2405 0779 D6       		.byte	0xd6
 2406 077a 57000000 		.4byte	0x57
 2407 077e 8E060000 		.4byte	.LLST25
 2408 0782 15       		.uleb128 0x15
 2409 0783 793000   		.ascii	"y0\000"
 2410 0786 01       		.byte	0x1
 2411 0787 D6       		.byte	0xd6
 2412 0788 57000000 		.4byte	0x57
 2413 078c D6060000 		.4byte	.LLST26
 2414 0790 14       		.uleb128 0x14
 2415 0791 BF020000 		.4byte	.LASF47
 2416 0795 01       		.byte	0x1
 2417 0796 D7       		.byte	0xd7
 2418 0797 18020000 		.4byte	0x218
 2419 079b F7060000 		.4byte	.LLST27
 2420 079f 1C       		.uleb128 0x1c
 2421 07a0 07000000 		.4byte	.LASF36
 2422 07a4 01       		.byte	0x1
 2423 07a5 D8       		.byte	0xd8
 2424 07a6 92010000 		.4byte	0x192
 2425 07aa 02       		.byte	0x2
 2426 07ab 91       		.byte	0x91
 2427 07ac 00       		.sleb128 0
 2428 07ad 14       		.uleb128 0x14
 2429 07ae E3000000 		.4byte	.LASF37
 2430 07b2 01       		.byte	0x1
 2431 07b3 D8       		.byte	0xd8
 2432 07b4 69000000 		.4byte	0x69
 2433 07b8 18070000 		.4byte	.LLST28
 2434 07bc 1C       		.uleb128 0x1c
 2435 07bd 3B030000 		.4byte	.LASF42
 2436 07c1 01       		.byte	0x1
 2437 07c2 D9       		.byte	0xd9
 2438 07c3 37020000 		.4byte	0x237
 2439 07c7 02       		.byte	0x2
 2440 07c8 91       		.byte	0x91
 2441 07c9 08       		.sleb128 8
 2442 07ca 1C       		.uleb128 0x1c
 2443 07cb 1A000000 		.4byte	.LASF43
 2444 07cf 01       		.byte	0x1
 2445 07d0 DA       		.byte	0xda
ARM GAS  /tmp/cc1XYtGL.s 			page 44


 2446 07d1 9E000000 		.4byte	0x9e
 2447 07d5 02       		.byte	0x2
 2448 07d6 91       		.byte	0x91
 2449 07d7 0C       		.sleb128 12
 2450 07d8 16       		.uleb128 0x16
 2451 07d9 07030000 		.4byte	.LASF48
 2452 07dd 01       		.byte	0x1
 2453 07de DC       		.byte	0xdc
 2454 07df 57000000 		.4byte	0x57
 2455 07e3 2C070000 		.4byte	.LLST29
 2456 07e7 22       		.uleb128 0x22
 2457 07e8 67020000 		.4byte	0x267
 2458 07ec 1E000000 		.4byte	.LBB8
 2459 07f0 BA000000 		.4byte	.LBE8
 2460 07f4 01       		.byte	0x1
 2461 07f5 DD       		.byte	0xdd
 2462 07f6 6F080000 		.4byte	0x86f
 2463 07fa 23       		.uleb128 0x23
 2464 07fb 83020000 		.4byte	0x283
 2465 07ff 3F070000 		.4byte	.LLST30
 2466 0803 24       		.uleb128 0x24
 2467 0804 78020000 		.4byte	0x278
 2468 0808 02       		.byte	0x2
 2469 0809 91       		.byte	0x91
 2470 080a 4C       		.sleb128 -52
 2471 080b 25       		.uleb128 0x25
 2472 080c 1E000000 		.4byte	.LBB9
 2473 0810 BA000000 		.4byte	.LBE9
 2474 0814 26       		.uleb128 0x26
 2475 0815 99020000 		.4byte	0x299
 2476 0819 53070000 		.4byte	.LLST31
 2477 081d 26       		.uleb128 0x26
 2478 081e A2020000 		.4byte	0x2a2
 2479 0822 7F070000 		.4byte	.LLST32
 2480 0826 26       		.uleb128 0x26
 2481 0827 AD020000 		.4byte	0x2ad
 2482 082b 93070000 		.4byte	.LLST33
 2483 082f 27       		.uleb128 0x27
 2484 0830 8E020000 		.4byte	0x28e
 2485 0834 00       		.byte	0
 2486 0835 18       		.uleb128 0x18
 2487 0836 3E000000 		.4byte	.LVL94
 2488 083a BA0D0000 		.4byte	0xdba
 2489 083e 49080000 		.4byte	0x849
 2490 0842 19       		.uleb128 0x19
 2491 0843 01       		.byte	0x1
 2492 0844 50       		.byte	0x50
 2493 0845 02       		.byte	0x2
 2494 0846 91       		.byte	0x91
 2495 0847 4C       		.sleb128 -52
 2496 0848 00       		.byte	0
 2497 0849 18       		.uleb128 0x18
 2498 084a 70000000 		.4byte	.LVL98
 2499 084e BA0D0000 		.4byte	0xdba
 2500 0852 5D080000 		.4byte	0x85d
 2501 0856 19       		.uleb128 0x19
 2502 0857 01       		.byte	0x1
ARM GAS  /tmp/cc1XYtGL.s 			page 45


 2503 0858 50       		.byte	0x50
 2504 0859 02       		.byte	0x2
 2505 085a 91       		.byte	0x91
 2506 085b 4C       		.sleb128 -52
 2507 085c 00       		.byte	0
 2508 085d 1A       		.uleb128 0x1a
 2509 085e 9C000000 		.4byte	.LVL101
 2510 0862 BA0D0000 		.4byte	0xdba
 2511 0866 19       		.uleb128 0x19
 2512 0867 01       		.byte	0x1
 2513 0868 50       		.byte	0x50
 2514 0869 02       		.byte	0x2
 2515 086a 91       		.byte	0x91
 2516 086b 4C       		.sleb128 -52
 2517 086c 00       		.byte	0
 2518 086d 00       		.byte	0
 2519 086e 00       		.byte	0
 2520 086f 28       		.uleb128 0x28
 2521 0870 7C060000 		.4byte	0x67c
 2522 0874 F4000000 		.4byte	.LBB10
 2523 0878 00000000 		.4byte	.Ldebug_ranges0+0
 2524 087c 01       		.byte	0x1
 2525 087d EB       		.byte	0xeb
 2526 087e 440C0000 		.4byte	0xc44
 2527 0882 23       		.uleb128 0x23
 2528 0883 C9060000 		.4byte	0x6c9
 2529 0887 B2070000 		.4byte	.LLST34
 2530 088b 23       		.uleb128 0x23
 2531 088c BE060000 		.4byte	0x6be
 2532 0890 D2070000 		.4byte	.LLST35
 2533 0894 23       		.uleb128 0x23
 2534 0895 B3060000 		.4byte	0x6b3
 2535 0899 F2070000 		.4byte	.LLST36
 2536 089d 23       		.uleb128 0x23
 2537 089e A8060000 		.4byte	0x6a8
 2538 08a2 10080000 		.4byte	.LLST37
 2539 08a6 23       		.uleb128 0x23
 2540 08a7 9E060000 		.4byte	0x69e
 2541 08ab 3C080000 		.4byte	.LLST38
 2542 08af 23       		.uleb128 0x23
 2543 08b0 94060000 		.4byte	0x694
 2544 08b4 5A080000 		.4byte	.LLST39
 2545 08b8 23       		.uleb128 0x23
 2546 08b9 89060000 		.4byte	0x689
 2547 08bd 6D080000 		.4byte	.LLST40
 2548 08c1 29       		.uleb128 0x29
 2549 08c2 18000000 		.4byte	.Ldebug_ranges0+0x18
 2550 08c6 26       		.uleb128 0x26
 2551 08c7 D4060000 		.4byte	0x6d4
 2552 08cb E3080000 		.4byte	.LLST41
 2553 08cf 26       		.uleb128 0x26
 2554 08d0 DD060000 		.4byte	0x6dd
 2555 08d4 59090000 		.4byte	.LLST42
 2556 08d8 26       		.uleb128 0x26
 2557 08d9 E6060000 		.4byte	0x6e6
 2558 08dd C1090000 		.4byte	.LLST43
 2559 08e1 26       		.uleb128 0x26
ARM GAS  /tmp/cc1XYtGL.s 			page 46


 2560 08e2 F0060000 		.4byte	0x6f0
 2561 08e6 F5090000 		.4byte	.LLST44
 2562 08ea 26       		.uleb128 0x26
 2563 08eb FA060000 		.4byte	0x6fa
 2564 08ef 730A0000 		.4byte	.LLST45
 2565 08f3 28       		.uleb128 0x28
 2566 08f4 06070000 		.4byte	0x706
 2567 08f8 A0010000 		.4byte	.LBB12
 2568 08fc 30000000 		.4byte	.Ldebug_ranges0+0x30
 2569 0900 01       		.byte	0x1
 2570 0901 C1       		.byte	0xc1
 2571 0902 F6090000 		.4byte	0x9f6
 2572 0906 23       		.uleb128 0x23
 2573 0907 2C070000 		.4byte	0x72c
 2574 090b 9F0A0000 		.4byte	.LLST46
 2575 090f 2A       		.uleb128 0x2a
 2576 0910 22070000 		.4byte	0x722
 2577 0914 23       		.uleb128 0x23
 2578 0915 17070000 		.4byte	0x717
 2579 0919 DE0A0000 		.4byte	.LLST47
 2580 091d 29       		.uleb128 0x29
 2581 091e 58000000 		.4byte	.Ldebug_ranges0+0x58
 2582 0922 26       		.uleb128 0x26
 2583 0923 35070000 		.4byte	0x735
 2584 0927 1D0B0000 		.4byte	.LLST48
 2585 092b 26       		.uleb128 0x26
 2586 092c 40070000 		.4byte	0x740
 2587 0930 300B0000 		.4byte	.LLST49
 2588 0934 18       		.uleb128 0x18
 2589 0935 7C020000 		.4byte	.LVL153
 2590 0939 9D0D0000 		.4byte	0xd9d
 2591 093d 48090000 		.4byte	0x948
 2592 0941 19       		.uleb128 0x19
 2593 0942 01       		.byte	0x1
 2594 0943 51       		.byte	0x51
 2595 0944 02       		.byte	0x2
 2596 0945 08       		.byte	0x8
 2597 0946 6D       		.byte	0x6d
 2598 0947 00       		.byte	0
 2599 0948 18       		.uleb128 0x18
 2600 0949 86020000 		.4byte	.LVL155
 2601 094d 9D0D0000 		.4byte	0xd9d
 2602 0951 62090000 		.4byte	0x962
 2603 0955 19       		.uleb128 0x19
 2604 0956 01       		.byte	0x1
 2605 0957 51       		.byte	0x51
 2606 0958 02       		.byte	0x2
 2607 0959 08       		.byte	0x8
 2608 095a 20       		.byte	0x20
 2609 095b 19       		.uleb128 0x19
 2610 095c 01       		.byte	0x1
 2611 095d 50       		.byte	0x50
 2612 095e 02       		.byte	0x2
 2613 095f 75       		.byte	0x75
 2614 0960 00       		.sleb128 0
 2615 0961 00       		.byte	0
 2616 0962 18       		.uleb128 0x18
ARM GAS  /tmp/cc1XYtGL.s 			page 47


 2617 0963 B4020000 		.4byte	.LVL162
 2618 0967 9D0D0000 		.4byte	0xd9d
 2619 096b 7C090000 		.4byte	0x97c
 2620 096f 19       		.uleb128 0x19
 2621 0970 01       		.byte	0x1
 2622 0971 51       		.byte	0x51
 2623 0972 02       		.byte	0x2
 2624 0973 08       		.byte	0x8
 2625 0974 6D       		.byte	0x6d
 2626 0975 19       		.uleb128 0x19
 2627 0976 01       		.byte	0x1
 2628 0977 50       		.byte	0x50
 2629 0978 02       		.byte	0x2
 2630 0979 75       		.byte	0x75
 2631 097a 00       		.sleb128 0
 2632 097b 00       		.byte	0
 2633 097c 18       		.uleb128 0x18
 2634 097d BE020000 		.4byte	.LVL163
 2635 0981 9D0D0000 		.4byte	0xd9d
 2636 0985 96090000 		.4byte	0x996
 2637 0989 19       		.uleb128 0x19
 2638 098a 01       		.byte	0x1
 2639 098b 51       		.byte	0x51
 2640 098c 02       		.byte	0x2
 2641 098d 08       		.byte	0x8
 2642 098e 20       		.byte	0x20
 2643 098f 19       		.uleb128 0x19
 2644 0990 01       		.byte	0x1
 2645 0991 50       		.byte	0x50
 2646 0992 02       		.byte	0x2
 2647 0993 75       		.byte	0x75
 2648 0994 00       		.sleb128 0
 2649 0995 00       		.byte	0
 2650 0996 18       		.uleb128 0x18
 2651 0997 48030000 		.4byte	.LVL182
 2652 099b 9D0D0000 		.4byte	0xd9d
 2653 099f B0090000 		.4byte	0x9b0
 2654 09a3 19       		.uleb128 0x19
 2655 09a4 01       		.byte	0x1
 2656 09a5 51       		.byte	0x51
 2657 09a6 02       		.byte	0x2
 2658 09a7 08       		.byte	0x8
 2659 09a8 6D       		.byte	0x6d
 2660 09a9 19       		.uleb128 0x19
 2661 09aa 01       		.byte	0x1
 2662 09ab 50       		.byte	0x50
 2663 09ac 02       		.byte	0x2
 2664 09ad 75       		.byte	0x75
 2665 09ae 00       		.sleb128 0
 2666 09af 00       		.byte	0
 2667 09b0 18       		.uleb128 0x18
 2668 09b1 54030000 		.4byte	.LVL183
 2669 09b5 9D0D0000 		.4byte	0xd9d
 2670 09b9 CA090000 		.4byte	0x9ca
 2671 09bd 19       		.uleb128 0x19
 2672 09be 01       		.byte	0x1
 2673 09bf 51       		.byte	0x51
ARM GAS  /tmp/cc1XYtGL.s 			page 48


 2674 09c0 02       		.byte	0x2
 2675 09c1 08       		.byte	0x8
 2676 09c2 20       		.byte	0x20
 2677 09c3 19       		.uleb128 0x19
 2678 09c4 01       		.byte	0x1
 2679 09c5 50       		.byte	0x50
 2680 09c6 02       		.byte	0x2
 2681 09c7 75       		.byte	0x75
 2682 09c8 00       		.sleb128 0
 2683 09c9 00       		.byte	0
 2684 09ca 18       		.uleb128 0x18
 2685 09cb 7E030000 		.4byte	.LVL187
 2686 09cf 9D0D0000 		.4byte	0xd9d
 2687 09d3 DE090000 		.4byte	0x9de
 2688 09d7 19       		.uleb128 0x19
 2689 09d8 01       		.byte	0x1
 2690 09d9 51       		.byte	0x51
 2691 09da 02       		.byte	0x2
 2692 09db 08       		.byte	0x8
 2693 09dc 6D       		.byte	0x6d
 2694 09dd 00       		.byte	0
 2695 09de 1A       		.uleb128 0x1a
 2696 09df 88030000 		.4byte	.LVL188
 2697 09e3 9D0D0000 		.4byte	0xd9d
 2698 09e7 19       		.uleb128 0x19
 2699 09e8 01       		.byte	0x1
 2700 09e9 51       		.byte	0x51
 2701 09ea 02       		.byte	0x2
 2702 09eb 08       		.byte	0x8
 2703 09ec 20       		.byte	0x20
 2704 09ed 19       		.uleb128 0x19
 2705 09ee 01       		.byte	0x1
 2706 09ef 50       		.byte	0x50
 2707 09f0 02       		.byte	0x2
 2708 09f1 75       		.byte	0x75
 2709 09f2 00       		.sleb128 0
 2710 09f3 00       		.byte	0
 2711 09f4 00       		.byte	0
 2712 09f5 00       		.byte	0
 2713 09f6 18       		.uleb128 0x18
 2714 09f7 08010000 		.4byte	.LVL110
 2715 09fb BA0D0000 		.4byte	0xdba
 2716 09ff 0A0A0000 		.4byte	0xa0a
 2717 0a03 19       		.uleb128 0x19
 2718 0a04 01       		.byte	0x1
 2719 0a05 50       		.byte	0x50
 2720 0a06 02       		.byte	0x2
 2721 0a07 91       		.byte	0x91
 2722 0a08 50       		.sleb128 -48
 2723 0a09 00       		.byte	0
 2724 0a0a 18       		.uleb128 0x18
 2725 0a0b 18010000 		.4byte	.LVL111
 2726 0a0f BA0D0000 		.4byte	0xdba
 2727 0a13 1E0A0000 		.4byte	0xa1e
 2728 0a17 19       		.uleb128 0x19
 2729 0a18 01       		.byte	0x1
 2730 0a19 50       		.byte	0x50
ARM GAS  /tmp/cc1XYtGL.s 			page 49


 2731 0a1a 02       		.byte	0x2
 2732 0a1b 91       		.byte	0x91
 2733 0a1c 50       		.sleb128 -48
 2734 0a1d 00       		.byte	0
 2735 0a1e 18       		.uleb128 0x18
 2736 0a1f 28010000 		.4byte	.LVL113
 2737 0a23 BA0D0000 		.4byte	0xdba
 2738 0a27 320A0000 		.4byte	0xa32
 2739 0a2b 19       		.uleb128 0x19
 2740 0a2c 01       		.byte	0x1
 2741 0a2d 50       		.byte	0x50
 2742 0a2e 02       		.byte	0x2
 2743 0a2f 91       		.byte	0x91
 2744 0a30 50       		.sleb128 -48
 2745 0a31 00       		.byte	0
 2746 0a32 18       		.uleb128 0x18
 2747 0a33 30010000 		.4byte	.LVL114
 2748 0a37 BA0D0000 		.4byte	0xdba
 2749 0a3b 460A0000 		.4byte	0xa46
 2750 0a3f 19       		.uleb128 0x19
 2751 0a40 01       		.byte	0x1
 2752 0a41 50       		.byte	0x50
 2753 0a42 02       		.byte	0x2
 2754 0a43 91       		.byte	0x91
 2755 0a44 50       		.sleb128 -48
 2756 0a45 00       		.byte	0
 2757 0a46 18       		.uleb128 0x18
 2758 0a47 4E010000 		.4byte	.LVL117
 2759 0a4b FA0D0000 		.4byte	0xdfa
 2760 0a4f 5A0A0000 		.4byte	0xa5a
 2761 0a53 19       		.uleb128 0x19
 2762 0a54 01       		.byte	0x1
 2763 0a55 50       		.byte	0x50
 2764 0a56 02       		.byte	0x2
 2765 0a57 91       		.byte	0x91
 2766 0a58 50       		.sleb128 -48
 2767 0a59 00       		.byte	0
 2768 0a5a 18       		.uleb128 0x18
 2769 0a5b 58010000 		.4byte	.LVL119
 2770 0a5f BA0D0000 		.4byte	0xdba
 2771 0a63 6E0A0000 		.4byte	0xa6e
 2772 0a67 19       		.uleb128 0x19
 2773 0a68 01       		.byte	0x1
 2774 0a69 50       		.byte	0x50
 2775 0a6a 02       		.byte	0x2
 2776 0a6b 91       		.byte	0x91
 2777 0a6c 54       		.sleb128 -44
 2778 0a6d 00       		.byte	0
 2779 0a6e 18       		.uleb128 0x18
 2780 0a6f 6A010000 		.4byte	.LVL121
 2781 0a73 9D0D0000 		.4byte	0xd9d
 2782 0a77 880A0000 		.4byte	0xa88
 2783 0a7b 19       		.uleb128 0x19
 2784 0a7c 01       		.byte	0x1
 2785 0a7d 51       		.byte	0x51
 2786 0a7e 02       		.byte	0x2
 2787 0a7f 76       		.byte	0x76
ARM GAS  /tmp/cc1XYtGL.s 			page 50


 2788 0a80 00       		.sleb128 0
 2789 0a81 19       		.uleb128 0x19
 2790 0a82 01       		.byte	0x1
 2791 0a83 50       		.byte	0x50
 2792 0a84 02       		.byte	0x2
 2793 0a85 75       		.byte	0x75
 2794 0a86 00       		.sleb128 0
 2795 0a87 00       		.byte	0
 2796 0a88 2B       		.uleb128 0x2b
 2797 0a89 7E010000 		.4byte	.LVL124
 2798 0a8d 02       		.byte	0x2
 2799 0a8e 77       		.byte	0x77
 2800 0a8f 00       		.sleb128 0
 2801 0a90 AE0A0000 		.4byte	0xaae
 2802 0a94 19       		.uleb128 0x19
 2803 0a95 01       		.byte	0x1
 2804 0a96 53       		.byte	0x53
 2805 0a97 03       		.byte	0x3
 2806 0a98 91       		.byte	0x91
 2807 0a99 0C       		.sleb128 12
 2808 0a9a 06       		.byte	0x6
 2809 0a9b 19       		.uleb128 0x19
 2810 0a9c 01       		.byte	0x1
 2811 0a9d 52       		.byte	0x52
 2812 0a9e 02       		.byte	0x2
 2813 0a9f 76       		.byte	0x76
 2814 0aa0 00       		.sleb128 0
 2815 0aa1 19       		.uleb128 0x19
 2816 0aa2 01       		.byte	0x1
 2817 0aa3 51       		.byte	0x51
 2818 0aa4 02       		.byte	0x2
 2819 0aa5 78       		.byte	0x78
 2820 0aa6 00       		.sleb128 0
 2821 0aa7 19       		.uleb128 0x19
 2822 0aa8 01       		.byte	0x1
 2823 0aa9 50       		.byte	0x50
 2824 0aaa 02       		.byte	0x2
 2825 0aab 79       		.byte	0x79
 2826 0aac 00       		.sleb128 0
 2827 0aad 00       		.byte	0
 2828 0aae 18       		.uleb128 0x18
 2829 0aaf 94010000 		.4byte	.LVL127
 2830 0ab3 FA0D0000 		.4byte	0xdfa
 2831 0ab7 C20A0000 		.4byte	0xac2
 2832 0abb 19       		.uleb128 0x19
 2833 0abc 01       		.byte	0x1
 2834 0abd 50       		.byte	0x50
 2835 0abe 02       		.byte	0x2
 2836 0abf 91       		.byte	0x91
 2837 0ac0 50       		.sleb128 -48
 2838 0ac1 00       		.byte	0
 2839 0ac2 18       		.uleb128 0x18
 2840 0ac3 9E010000 		.4byte	.LVL128
 2841 0ac7 BA0D0000 		.4byte	0xdba
 2842 0acb D60A0000 		.4byte	0xad6
 2843 0acf 19       		.uleb128 0x19
 2844 0ad0 01       		.byte	0x1
ARM GAS  /tmp/cc1XYtGL.s 			page 51


 2845 0ad1 50       		.byte	0x50
 2846 0ad2 02       		.byte	0x2
 2847 0ad3 91       		.byte	0x91
 2848 0ad4 54       		.sleb128 -44
 2849 0ad5 00       		.byte	0
 2850 0ad6 18       		.uleb128 0x18
 2851 0ad7 AE010000 		.4byte	.LVL130
 2852 0adb 9D0D0000 		.4byte	0xd9d
 2853 0adf F00A0000 		.4byte	0xaf0
 2854 0ae3 19       		.uleb128 0x19
 2855 0ae4 01       		.byte	0x1
 2856 0ae5 51       		.byte	0x51
 2857 0ae6 02       		.byte	0x2
 2858 0ae7 77       		.byte	0x77
 2859 0ae8 00       		.sleb128 0
 2860 0ae9 19       		.uleb128 0x19
 2861 0aea 01       		.byte	0x1
 2862 0aeb 50       		.byte	0x50
 2863 0aec 02       		.byte	0x2
 2864 0aed 75       		.byte	0x75
 2865 0aee 00       		.sleb128 0
 2866 0aef 00       		.byte	0
 2867 0af0 2B       		.uleb128 0x2b
 2868 0af1 D0010000 		.4byte	.LVL133
 2869 0af5 02       		.byte	0x2
 2870 0af6 76       		.byte	0x76
 2871 0af7 00       		.sleb128 0
 2872 0af8 160B0000 		.4byte	0xb16
 2873 0afc 19       		.uleb128 0x19
 2874 0afd 01       		.byte	0x1
 2875 0afe 53       		.byte	0x53
 2876 0aff 03       		.byte	0x3
 2877 0b00 91       		.byte	0x91
 2878 0b01 0C       		.sleb128 12
 2879 0b02 06       		.byte	0x6
 2880 0b03 19       		.uleb128 0x19
 2881 0b04 01       		.byte	0x1
 2882 0b05 52       		.byte	0x52
 2883 0b06 02       		.byte	0x2
 2884 0b07 77       		.byte	0x77
 2885 0b08 00       		.sleb128 0
 2886 0b09 19       		.uleb128 0x19
 2887 0b0a 01       		.byte	0x1
 2888 0b0b 51       		.byte	0x51
 2889 0b0c 02       		.byte	0x2
 2890 0b0d 78       		.byte	0x78
 2891 0b0e 00       		.sleb128 0
 2892 0b0f 19       		.uleb128 0x19
 2893 0b10 01       		.byte	0x1
 2894 0b11 50       		.byte	0x50
 2895 0b12 02       		.byte	0x2
 2896 0b13 79       		.byte	0x79
 2897 0b14 00       		.sleb128 0
 2898 0b15 00       		.byte	0
 2899 0b16 18       		.uleb128 0x18
 2900 0b17 E6010000 		.4byte	.LVL137
 2901 0b1b FA0D0000 		.4byte	0xdfa
ARM GAS  /tmp/cc1XYtGL.s 			page 52


 2902 0b1f 2A0B0000 		.4byte	0xb2a
 2903 0b23 19       		.uleb128 0x19
 2904 0b24 01       		.byte	0x1
 2905 0b25 50       		.byte	0x50
 2906 0b26 02       		.byte	0x2
 2907 0b27 91       		.byte	0x91
 2908 0b28 50       		.sleb128 -48
 2909 0b29 00       		.byte	0
 2910 0b2a 18       		.uleb128 0x18
 2911 0b2b F0010000 		.4byte	.LVL138
 2912 0b2f BA0D0000 		.4byte	0xdba
 2913 0b33 3E0B0000 		.4byte	0xb3e
 2914 0b37 19       		.uleb128 0x19
 2915 0b38 01       		.byte	0x1
 2916 0b39 50       		.byte	0x50
 2917 0b3a 02       		.byte	0x2
 2918 0b3b 91       		.byte	0x91
 2919 0b3c 54       		.sleb128 -44
 2920 0b3d 00       		.byte	0
 2921 0b3e 18       		.uleb128 0x18
 2922 0b3f FE010000 		.4byte	.LVL142
 2923 0b43 9D0D0000 		.4byte	0xd9d
 2924 0b47 580B0000 		.4byte	0xb58
 2925 0b4b 19       		.uleb128 0x19
 2926 0b4c 01       		.byte	0x1
 2927 0b4d 51       		.byte	0x51
 2928 0b4e 02       		.byte	0x2
 2929 0b4f 77       		.byte	0x77
 2930 0b50 00       		.sleb128 0
 2931 0b51 19       		.uleb128 0x19
 2932 0b52 01       		.byte	0x1
 2933 0b53 50       		.byte	0x50
 2934 0b54 02       		.byte	0x2
 2935 0b55 75       		.byte	0x75
 2936 0b56 00       		.sleb128 0
 2937 0b57 00       		.byte	0
 2938 0b58 2B       		.uleb128 0x2b
 2939 0b59 1E020000 		.4byte	.LVL145
 2940 0b5d 02       		.byte	0x2
 2941 0b5e 76       		.byte	0x76
 2942 0b5f 00       		.sleb128 0
 2943 0b60 7E0B0000 		.4byte	0xb7e
 2944 0b64 19       		.uleb128 0x19
 2945 0b65 01       		.byte	0x1
 2946 0b66 53       		.byte	0x53
 2947 0b67 03       		.byte	0x3
 2948 0b68 91       		.byte	0x91
 2949 0b69 0C       		.sleb128 12
 2950 0b6a 06       		.byte	0x6
 2951 0b6b 19       		.uleb128 0x19
 2952 0b6c 01       		.byte	0x1
 2953 0b6d 52       		.byte	0x52
 2954 0b6e 02       		.byte	0x2
 2955 0b6f 77       		.byte	0x77
 2956 0b70 00       		.sleb128 0
 2957 0b71 19       		.uleb128 0x19
 2958 0b72 01       		.byte	0x1
ARM GAS  /tmp/cc1XYtGL.s 			page 53


 2959 0b73 51       		.byte	0x51
 2960 0b74 02       		.byte	0x2
 2961 0b75 78       		.byte	0x78
 2962 0b76 00       		.sleb128 0
 2963 0b77 19       		.uleb128 0x19
 2964 0b78 01       		.byte	0x1
 2965 0b79 50       		.byte	0x50
 2966 0b7a 02       		.byte	0x2
 2967 0b7b 79       		.byte	0x79
 2968 0b7c 00       		.sleb128 0
 2969 0b7d 00       		.byte	0
 2970 0b7e 18       		.uleb128 0x18
 2971 0b7f 2E020000 		.4byte	.LVL147
 2972 0b83 FA0D0000 		.4byte	0xdfa
 2973 0b87 920B0000 		.4byte	0xb92
 2974 0b8b 19       		.uleb128 0x19
 2975 0b8c 01       		.byte	0x1
 2976 0b8d 50       		.byte	0x50
 2977 0b8e 02       		.byte	0x2
 2978 0b8f 91       		.byte	0x91
 2979 0b90 50       		.sleb128 -48
 2980 0b91 00       		.byte	0
 2981 0b92 18       		.uleb128 0x18
 2982 0b93 38020000 		.4byte	.LVL148
 2983 0b97 BA0D0000 		.4byte	0xdba
 2984 0b9b A60B0000 		.4byte	0xba6
 2985 0b9f 19       		.uleb128 0x19
 2986 0ba0 01       		.byte	0x1
 2987 0ba1 50       		.byte	0x50
 2988 0ba2 02       		.byte	0x2
 2989 0ba3 91       		.byte	0x91
 2990 0ba4 54       		.sleb128 -44
 2991 0ba5 00       		.byte	0
 2992 0ba6 18       		.uleb128 0x18
 2993 0ba7 46020000 		.4byte	.LVL149
 2994 0bab 9D0D0000 		.4byte	0xd9d
 2995 0baf C00B0000 		.4byte	0xbc0
 2996 0bb3 19       		.uleb128 0x19
 2997 0bb4 01       		.byte	0x1
 2998 0bb5 51       		.byte	0x51
 2999 0bb6 02       		.byte	0x2
 3000 0bb7 76       		.byte	0x76
 3001 0bb8 00       		.sleb128 0
 3002 0bb9 19       		.uleb128 0x19
 3003 0bba 01       		.byte	0x1
 3004 0bbb 50       		.byte	0x50
 3005 0bbc 02       		.byte	0x2
 3006 0bbd 75       		.byte	0x75
 3007 0bbe 00       		.sleb128 0
 3008 0bbf 00       		.byte	0
 3009 0bc0 2B       		.uleb128 0x2b
 3010 0bc1 66020000 		.4byte	.LVL151
 3011 0bc5 02       		.byte	0x2
 3012 0bc6 77       		.byte	0x77
 3013 0bc7 00       		.sleb128 0
 3014 0bc8 E60B0000 		.4byte	0xbe6
 3015 0bcc 19       		.uleb128 0x19
ARM GAS  /tmp/cc1XYtGL.s 			page 54


 3016 0bcd 01       		.byte	0x1
 3017 0bce 53       		.byte	0x53
 3018 0bcf 03       		.byte	0x3
 3019 0bd0 91       		.byte	0x91
 3020 0bd1 0C       		.sleb128 12
 3021 0bd2 06       		.byte	0x6
 3022 0bd3 19       		.uleb128 0x19
 3023 0bd4 01       		.byte	0x1
 3024 0bd5 52       		.byte	0x52
 3025 0bd6 02       		.byte	0x2
 3026 0bd7 76       		.byte	0x76
 3027 0bd8 00       		.sleb128 0
 3028 0bd9 19       		.uleb128 0x19
 3029 0bda 01       		.byte	0x1
 3030 0bdb 51       		.byte	0x51
 3031 0bdc 02       		.byte	0x2
 3032 0bdd 78       		.byte	0x78
 3033 0bde 00       		.sleb128 0
 3034 0bdf 19       		.uleb128 0x19
 3035 0be0 01       		.byte	0x1
 3036 0be1 50       		.byte	0x50
 3037 0be2 02       		.byte	0x2
 3038 0be3 79       		.byte	0x79
 3039 0be4 00       		.sleb128 0
 3040 0be5 00       		.byte	0
 3041 0be6 18       		.uleb128 0x18
 3042 0be7 EE020000 		.4byte	.LVL170
 3043 0beb D80D0000 		.4byte	0xdd8
 3044 0bef 060C0000 		.4byte	0xc06
 3045 0bf3 19       		.uleb128 0x19
 3046 0bf4 01       		.byte	0x1
 3047 0bf5 52       		.byte	0x52
 3048 0bf6 02       		.byte	0x2
 3049 0bf7 7A       		.byte	0x7a
 3050 0bf8 00       		.sleb128 0
 3051 0bf9 19       		.uleb128 0x19
 3052 0bfa 01       		.byte	0x1
 3053 0bfb 51       		.byte	0x51
 3054 0bfc 02       		.byte	0x2
 3055 0bfd 77       		.byte	0x77
 3056 0bfe 00       		.sleb128 0
 3057 0bff 19       		.uleb128 0x19
 3058 0c00 01       		.byte	0x1
 3059 0c01 50       		.byte	0x50
 3060 0c02 02       		.byte	0x2
 3061 0c03 75       		.byte	0x75
 3062 0c04 00       		.sleb128 0
 3063 0c05 00       		.byte	0
 3064 0c06 18       		.uleb128 0x18
 3065 0c07 02030000 		.4byte	.LVL174
 3066 0c0b D80D0000 		.4byte	0xdd8
 3067 0c0f 260C0000 		.4byte	0xc26
 3068 0c13 19       		.uleb128 0x19
 3069 0c14 01       		.byte	0x1
 3070 0c15 52       		.byte	0x52
 3071 0c16 02       		.byte	0x2
 3072 0c17 7A       		.byte	0x7a
ARM GAS  /tmp/cc1XYtGL.s 			page 55


 3073 0c18 00       		.sleb128 0
 3074 0c19 19       		.uleb128 0x19
 3075 0c1a 01       		.byte	0x1
 3076 0c1b 51       		.byte	0x51
 3077 0c1c 02       		.byte	0x2
 3078 0c1d 76       		.byte	0x76
 3079 0c1e 00       		.sleb128 0
 3080 0c1f 19       		.uleb128 0x19
 3081 0c20 01       		.byte	0x1
 3082 0c21 50       		.byte	0x50
 3083 0c22 02       		.byte	0x2
 3084 0c23 75       		.byte	0x75
 3085 0c24 00       		.sleb128 0
 3086 0c25 00       		.byte	0
 3087 0c26 1A       		.uleb128 0x1a
 3088 0c27 AA030000 		.4byte	.LVL191
 3089 0c2b D80D0000 		.4byte	0xdd8
 3090 0c2f 19       		.uleb128 0x19
 3091 0c30 01       		.byte	0x1
 3092 0c31 52       		.byte	0x52
 3093 0c32 02       		.byte	0x2
 3094 0c33 7A       		.byte	0x7a
 3095 0c34 00       		.sleb128 0
 3096 0c35 19       		.uleb128 0x19
 3097 0c36 01       		.byte	0x1
 3098 0c37 51       		.byte	0x51
 3099 0c38 02       		.byte	0x2
 3100 0c39 77       		.byte	0x77
 3101 0c3a 00       		.sleb128 0
 3102 0c3b 19       		.uleb128 0x19
 3103 0c3c 01       		.byte	0x1
 3104 0c3d 50       		.byte	0x50
 3105 0c3e 02       		.byte	0x2
 3106 0c3f 75       		.byte	0x75
 3107 0c40 00       		.sleb128 0
 3108 0c41 00       		.byte	0
 3109 0c42 00       		.byte	0
 3110 0c43 00       		.byte	0
 3111 0c44 18       		.uleb128 0x18
 3112 0c45 EE000000 		.4byte	.LVL107
 3113 0c49 54030000 		.4byte	0x354
 3114 0c4d 810C0000 		.4byte	0xc81
 3115 0c51 19       		.uleb128 0x19
 3116 0c52 01       		.byte	0x1
 3117 0c53 53       		.byte	0x53
 3118 0c54 03       		.byte	0x3
 3119 0c55 91       		.byte	0x91
 3120 0c56 00       		.sleb128 0
 3121 0c57 06       		.byte	0x6
 3122 0c58 19       		.uleb128 0x19
 3123 0c59 01       		.byte	0x1
 3124 0c5a 52       		.byte	0x52
 3125 0c5b 02       		.byte	0x2
 3126 0c5c 78       		.byte	0x78
 3127 0c5d 00       		.sleb128 0
 3128 0c5e 19       		.uleb128 0x19
 3129 0c5f 01       		.byte	0x1
ARM GAS  /tmp/cc1XYtGL.s 			page 56


 3130 0c60 51       		.byte	0x51
 3131 0c61 02       		.byte	0x2
 3132 0c62 7B       		.byte	0x7b
 3133 0c63 00       		.sleb128 0
 3134 0c64 19       		.uleb128 0x19
 3135 0c65 01       		.byte	0x1
 3136 0c66 50       		.byte	0x50
 3137 0c67 02       		.byte	0x2
 3138 0c68 75       		.byte	0x75
 3139 0c69 00       		.sleb128 0
 3140 0c6a 19       		.uleb128 0x19
 3141 0c6b 02       		.byte	0x2
 3142 0c6c 7D       		.byte	0x7d
 3143 0c6d 08       		.sleb128 8
 3144 0c6e 03       		.byte	0x3
 3145 0c6f 91       		.byte	0x91
 3146 0c70 0C       		.sleb128 12
 3147 0c71 06       		.byte	0x6
 3148 0c72 19       		.uleb128 0x19
 3149 0c73 02       		.byte	0x2
 3150 0c74 7D       		.byte	0x7d
 3151 0c75 04       		.sleb128 4
 3152 0c76 02       		.byte	0x2
 3153 0c77 76       		.byte	0x76
 3154 0c78 00       		.sleb128 0
 3155 0c79 19       		.uleb128 0x19
 3156 0c7a 02       		.byte	0x2
 3157 0c7b 7D       		.byte	0x7d
 3158 0c7c 00       		.sleb128 0
 3159 0c7d 02       		.byte	0x2
 3160 0c7e 74       		.byte	0x74
 3161 0c7f 00       		.sleb128 0
 3162 0c80 00       		.byte	0
 3163 0c81 18       		.uleb128 0x18
 3164 0c82 18030000 		.4byte	.LVL177
 3165 0c86 70040000 		.4byte	0x470
 3166 0c8a A70C0000 		.4byte	0xca7
 3167 0c8e 19       		.uleb128 0x19
 3168 0c8f 01       		.byte	0x1
 3169 0c90 53       		.byte	0x53
 3170 0c91 01       		.byte	0x1
 3171 0c92 30       		.byte	0x30
 3172 0c93 19       		.uleb128 0x19
 3173 0c94 01       		.byte	0x1
 3174 0c95 52       		.byte	0x52
 3175 0c96 02       		.byte	0x2
 3176 0c97 74       		.byte	0x74
 3177 0c98 00       		.sleb128 0
 3178 0c99 19       		.uleb128 0x19
 3179 0c9a 01       		.byte	0x1
 3180 0c9b 51       		.byte	0x51
 3181 0c9c 03       		.byte	0x3
 3182 0c9d 91       		.byte	0x91
 3183 0c9e 00       		.sleb128 0
 3184 0c9f 06       		.byte	0x6
 3185 0ca0 19       		.uleb128 0x19
 3186 0ca1 01       		.byte	0x1
ARM GAS  /tmp/cc1XYtGL.s 			page 57


 3187 0ca2 50       		.byte	0x50
 3188 0ca3 02       		.byte	0x2
 3189 0ca4 75       		.byte	0x75
 3190 0ca5 00       		.sleb128 0
 3191 0ca6 00       		.byte	0
 3192 0ca7 1A       		.uleb128 0x1a
 3193 0ca8 38030000 		.4byte	.LVL180
 3194 0cac 54030000 		.4byte	0x354
 3195 0cb0 19       		.uleb128 0x19
 3196 0cb1 01       		.byte	0x1
 3197 0cb2 53       		.byte	0x53
 3198 0cb3 03       		.byte	0x3
 3199 0cb4 91       		.byte	0x91
 3200 0cb5 00       		.sleb128 0
 3201 0cb6 06       		.byte	0x6
 3202 0cb7 19       		.uleb128 0x19
 3203 0cb8 01       		.byte	0x1
 3204 0cb9 52       		.byte	0x52
 3205 0cba 02       		.byte	0x2
 3206 0cbb 78       		.byte	0x78
 3207 0cbc 00       		.sleb128 0
 3208 0cbd 19       		.uleb128 0x19
 3209 0cbe 01       		.byte	0x1
 3210 0cbf 51       		.byte	0x51
 3211 0cc0 02       		.byte	0x2
 3212 0cc1 77       		.byte	0x77
 3213 0cc2 00       		.sleb128 0
 3214 0cc3 19       		.uleb128 0x19
 3215 0cc4 01       		.byte	0x1
 3216 0cc5 50       		.byte	0x50
 3217 0cc6 02       		.byte	0x2
 3218 0cc7 75       		.byte	0x75
 3219 0cc8 00       		.sleb128 0
 3220 0cc9 19       		.uleb128 0x19
 3221 0cca 02       		.byte	0x2
 3222 0ccb 7D       		.byte	0x7d
 3223 0ccc 08       		.sleb128 8
 3224 0ccd 03       		.byte	0x3
 3225 0cce 91       		.byte	0x91
 3226 0ccf 0C       		.sleb128 12
 3227 0cd0 06       		.byte	0x6
 3228 0cd1 19       		.uleb128 0x19
 3229 0cd2 02       		.byte	0x2
 3230 0cd3 7D       		.byte	0x7d
 3231 0cd4 04       		.sleb128 4
 3232 0cd5 02       		.byte	0x2
 3233 0cd6 74       		.byte	0x74
 3234 0cd7 00       		.sleb128 0
 3235 0cd8 00       		.byte	0
 3236 0cd9 00       		.byte	0
 3237 0cda 2C       		.uleb128 0x2c
 3238 0cdb 01       		.byte	0x1
 3239 0cdc 9F020000 		.4byte	.LASF50
 3240 0ce0 01       		.byte	0x1
 3241 0ce1 F4       		.byte	0xf4
 3242 0ce2 01       		.byte	0x1
 3243 0ce3 00000000 		.4byte	.LFB47
ARM GAS  /tmp/cc1XYtGL.s 			page 58


 3244 0ce7 20000000 		.4byte	.LFE47
 3245 0ceb 680B0000 		.4byte	.LLST50
 3246 0cef 01       		.byte	0x1
 3247 0cf0 9D0D0000 		.4byte	0xd9d
 3248 0cf4 14       		.uleb128 0x14
 3249 0cf5 20000000 		.4byte	.LASF40
 3250 0cf9 01       		.byte	0x1
 3251 0cfa F4       		.byte	0xf4
 3252 0cfb B9000000 		.4byte	0xb9
 3253 0cff 940B0000 		.4byte	.LLST51
 3254 0d03 15       		.uleb128 0x15
 3255 0d04 783000   		.ascii	"x0\000"
 3256 0d07 01       		.byte	0x1
 3257 0d08 F5       		.byte	0xf5
 3258 0d09 57000000 		.4byte	0x57
 3259 0d0d B50B0000 		.4byte	.LLST52
 3260 0d11 15       		.uleb128 0x15
 3261 0d12 793000   		.ascii	"y0\000"
 3262 0d15 01       		.byte	0x1
 3263 0d16 F5       		.byte	0xf5
 3264 0d17 57000000 		.4byte	0x57
 3265 0d1b D60B0000 		.4byte	.LLST53
 3266 0d1f 14       		.uleb128 0x14
 3267 0d20 10010000 		.4byte	.LASF18
 3268 0d24 01       		.byte	0x1
 3269 0d25 F5       		.byte	0xf5
 3270 0d26 57000000 		.4byte	0x57
 3271 0d2a F70B0000 		.4byte	.LLST54
 3272 0d2e 1C       		.uleb128 0x1c
 3273 0d2f 07000000 		.4byte	.LASF36
 3274 0d33 01       		.byte	0x1
 3275 0d34 F6       		.byte	0xf6
 3276 0d35 92010000 		.4byte	0x192
 3277 0d39 02       		.byte	0x2
 3278 0d3a 91       		.byte	0x91
 3279 0d3b 00       		.sleb128 0
 3280 0d3c 1C       		.uleb128 0x1c
 3281 0d3d E3000000 		.4byte	.LASF37
 3282 0d41 01       		.byte	0x1
 3283 0d42 F6       		.byte	0xf6
 3284 0d43 69000000 		.4byte	0x69
 3285 0d47 02       		.byte	0x2
 3286 0d48 91       		.byte	0x91
 3287 0d49 04       		.sleb128 4
 3288 0d4a 1C       		.uleb128 0x1c
 3289 0d4b 3B030000 		.4byte	.LASF42
 3290 0d4f 01       		.byte	0x1
 3291 0d50 F7       		.byte	0xf7
 3292 0d51 37020000 		.4byte	0x237
 3293 0d55 02       		.byte	0x2
 3294 0d56 91       		.byte	0x91
 3295 0d57 08       		.sleb128 8
 3296 0d58 1C       		.uleb128 0x1c
 3297 0d59 1A000000 		.4byte	.LASF43
 3298 0d5d 01       		.byte	0x1
 3299 0d5e F8       		.byte	0xf8
 3300 0d5f 9E000000 		.4byte	0x9e
ARM GAS  /tmp/cc1XYtGL.s 			page 59


 3301 0d63 02       		.byte	0x2
 3302 0d64 91       		.byte	0x91
 3303 0d65 0C       		.sleb128 12
 3304 0d66 1A       		.uleb128 0x1a
 3305 0d67 1C000000 		.4byte	.LVL195
 3306 0d6b 4B070000 		.4byte	0x74b
 3307 0d6f 19       		.uleb128 0x19
 3308 0d70 01       		.byte	0x1
 3309 0d71 53       		.byte	0x53
 3310 0d72 01       		.byte	0x1
 3311 0d73 30       		.byte	0x30
 3312 0d74 19       		.uleb128 0x19
 3313 0d75 01       		.byte	0x1
 3314 0d76 50       		.byte	0x50
 3315 0d77 03       		.byte	0x3
 3316 0d78 F3       		.byte	0xf3
 3317 0d79 01       		.uleb128 0x1
 3318 0d7a 50       		.byte	0x50
 3319 0d7b 19       		.uleb128 0x19
 3320 0d7c 02       		.byte	0x2
 3321 0d7d 7D       		.byte	0x7d
 3322 0d7e 0C       		.sleb128 12
 3323 0d7f 03       		.byte	0x3
 3324 0d80 91       		.byte	0x91
 3325 0d81 0C       		.sleb128 12
 3326 0d82 06       		.byte	0x6
 3327 0d83 19       		.uleb128 0x19
 3328 0d84 02       		.byte	0x2
 3329 0d85 7D       		.byte	0x7d
 3330 0d86 08       		.sleb128 8
 3331 0d87 02       		.byte	0x2
 3332 0d88 74       		.byte	0x74
 3333 0d89 00       		.sleb128 0
 3334 0d8a 19       		.uleb128 0x19
 3335 0d8b 02       		.byte	0x2
 3336 0d8c 7D       		.byte	0x7d
 3337 0d8d 04       		.sleb128 4
 3338 0d8e 04       		.byte	0x4
 3339 0d8f 91       		.byte	0x91
 3340 0d90 04       		.sleb128 4
 3341 0d91 94       		.byte	0x94
 3342 0d92 02       		.byte	0x2
 3343 0d93 19       		.uleb128 0x19
 3344 0d94 02       		.byte	0x2
 3345 0d95 7D       		.byte	0x7d
 3346 0d96 00       		.sleb128 0
 3347 0d97 03       		.byte	0x3
 3348 0d98 91       		.byte	0x91
 3349 0d99 00       		.sleb128 0
 3350 0d9a 06       		.byte	0x6
 3351 0d9b 00       		.byte	0
 3352 0d9c 00       		.byte	0
 3353 0d9d 2D       		.uleb128 0x2d
 3354 0d9e 01       		.byte	0x1
 3355 0d9f 14030000 		.4byte	.LASF51
 3356 0da3 03       		.byte	0x3
 3357 0da4 6C       		.byte	0x6c
ARM GAS  /tmp/cc1XYtGL.s 			page 60


 3358 0da5 01       		.byte	0x1
 3359 0da6 45000000 		.4byte	0x45
 3360 0daa 01       		.byte	0x1
 3361 0dab BA0D0000 		.4byte	0xdba
 3362 0daf 0B       		.uleb128 0xb
 3363 0db0 B9000000 		.4byte	0xb9
 3364 0db4 0B       		.uleb128 0xb
 3365 0db5 87010000 		.4byte	0x187
 3366 0db9 00       		.byte	0
 3367 0dba 2D       		.uleb128 0x2d
 3368 0dbb 01       		.byte	0x1
 3369 0dbc 5A000000 		.4byte	.LASF52
 3370 0dc0 04       		.byte	0x4
 3371 0dc1 2F       		.byte	0x2f
 3372 0dc2 01       		.byte	0x1
 3373 0dc3 87010000 		.4byte	0x187
 3374 0dc7 01       		.byte	0x1
 3375 0dc8 D20D0000 		.4byte	0xdd2
 3376 0dcc 0B       		.uleb128 0xb
 3377 0dcd D20D0000 		.4byte	0xdd2
 3378 0dd1 00       		.byte	0
 3379 0dd2 06       		.uleb128 0x6
 3380 0dd3 04       		.byte	0x4
 3381 0dd4 92010000 		.4byte	0x192
 3382 0dd8 2D       		.uleb128 0x2d
 3383 0dd9 01       		.byte	0x1
 3384 0dda 65010000 		.4byte	.LASF53
 3385 0dde 06       		.byte	0x6
 3386 0ddf 1C       		.byte	0x1c
 3387 0de0 01       		.byte	0x1
 3388 0de1 33000000 		.4byte	0x33
 3389 0de5 01       		.byte	0x1
 3390 0de6 FA0D0000 		.4byte	0xdfa
 3391 0dea 0B       		.uleb128 0xb
 3392 0deb B9000000 		.4byte	0xb9
 3393 0def 0B       		.uleb128 0xb
 3394 0df0 87010000 		.4byte	0x187
 3395 0df4 0B       		.uleb128 0xb
 3396 0df5 87010000 		.4byte	0x187
 3397 0df9 00       		.byte	0
 3398 0dfa 2E       		.uleb128 0x2e
 3399 0dfb 01       		.byte	0x1
 3400 0dfc 83020000 		.4byte	.LASF62
 3401 0e00 04       		.byte	0x4
 3402 0e01 34       		.byte	0x34
 3403 0e02 01       		.byte	0x1
 3404 0e03 01       		.byte	0x1
 3405 0e04 0B       		.uleb128 0xb
 3406 0e05 D20D0000 		.4byte	0xdd2
 3407 0e09 00       		.byte	0
 3408 0e0a 00       		.byte	0
 3409              		.section	.debug_abbrev,"",%progbits
 3410              	.Ldebug_abbrev0:
 3411 0000 01       		.uleb128 0x1
 3412 0001 11       		.uleb128 0x11
 3413 0002 01       		.byte	0x1
 3414 0003 25       		.uleb128 0x25
ARM GAS  /tmp/cc1XYtGL.s 			page 61


 3415 0004 0E       		.uleb128 0xe
 3416 0005 13       		.uleb128 0x13
 3417 0006 0B       		.uleb128 0xb
 3418 0007 03       		.uleb128 0x3
 3419 0008 0E       		.uleb128 0xe
 3420 0009 55       		.uleb128 0x55
 3421 000a 06       		.uleb128 0x6
 3422 000b 11       		.uleb128 0x11
 3423 000c 01       		.uleb128 0x1
 3424 000d 52       		.uleb128 0x52
 3425 000e 01       		.uleb128 0x1
 3426 000f 10       		.uleb128 0x10
 3427 0010 06       		.uleb128 0x6
 3428 0011 00       		.byte	0
 3429 0012 00       		.byte	0
 3430 0013 02       		.uleb128 0x2
 3431 0014 24       		.uleb128 0x24
 3432 0015 00       		.byte	0
 3433 0016 0B       		.uleb128 0xb
 3434 0017 0B       		.uleb128 0xb
 3435 0018 3E       		.uleb128 0x3e
 3436 0019 0B       		.uleb128 0xb
 3437 001a 03       		.uleb128 0x3
 3438 001b 08       		.uleb128 0x8
 3439 001c 00       		.byte	0
 3440 001d 00       		.byte	0
 3441 001e 03       		.uleb128 0x3
 3442 001f 24       		.uleb128 0x24
 3443 0020 00       		.byte	0
 3444 0021 0B       		.uleb128 0xb
 3445 0022 0B       		.uleb128 0xb
 3446 0023 3E       		.uleb128 0x3e
 3447 0024 0B       		.uleb128 0xb
 3448 0025 03       		.uleb128 0x3
 3449 0026 0E       		.uleb128 0xe
 3450 0027 00       		.byte	0
 3451 0028 00       		.byte	0
 3452 0029 04       		.uleb128 0x4
 3453 002a 16       		.uleb128 0x16
 3454 002b 00       		.byte	0
 3455 002c 03       		.uleb128 0x3
 3456 002d 0E       		.uleb128 0xe
 3457 002e 3A       		.uleb128 0x3a
 3458 002f 0B       		.uleb128 0xb
 3459 0030 3B       		.uleb128 0x3b
 3460 0031 0B       		.uleb128 0xb
 3461 0032 49       		.uleb128 0x49
 3462 0033 13       		.uleb128 0x13
 3463 0034 00       		.byte	0
 3464 0035 00       		.byte	0
 3465 0036 05       		.uleb128 0x5
 3466 0037 0F       		.uleb128 0xf
 3467 0038 00       		.byte	0
 3468 0039 0B       		.uleb128 0xb
 3469 003a 0B       		.uleb128 0xb
 3470 003b 00       		.byte	0
 3471 003c 00       		.byte	0
ARM GAS  /tmp/cc1XYtGL.s 			page 62


 3472 003d 06       		.uleb128 0x6
 3473 003e 0F       		.uleb128 0xf
 3474 003f 00       		.byte	0
 3475 0040 0B       		.uleb128 0xb
 3476 0041 0B       		.uleb128 0xb
 3477 0042 49       		.uleb128 0x49
 3478 0043 13       		.uleb128 0x13
 3479 0044 00       		.byte	0
 3480 0045 00       		.byte	0
 3481 0046 07       		.uleb128 0x7
 3482 0047 26       		.uleb128 0x26
 3483 0048 00       		.byte	0
 3484 0049 49       		.uleb128 0x49
 3485 004a 13       		.uleb128 0x13
 3486 004b 00       		.byte	0
 3487 004c 00       		.byte	0
 3488 004d 08       		.uleb128 0x8
 3489 004e 13       		.uleb128 0x13
 3490 004f 01       		.byte	0x1
 3491 0050 03       		.uleb128 0x3
 3492 0051 0E       		.uleb128 0xe
 3493 0052 0B       		.uleb128 0xb
 3494 0053 0B       		.uleb128 0xb
 3495 0054 3A       		.uleb128 0x3a
 3496 0055 0B       		.uleb128 0xb
 3497 0056 3B       		.uleb128 0x3b
 3498 0057 0B       		.uleb128 0xb
 3499 0058 01       		.uleb128 0x1
 3500 0059 13       		.uleb128 0x13
 3501 005a 00       		.byte	0
 3502 005b 00       		.byte	0
 3503 005c 09       		.uleb128 0x9
 3504 005d 0D       		.uleb128 0xd
 3505 005e 00       		.byte	0
 3506 005f 03       		.uleb128 0x3
 3507 0060 0E       		.uleb128 0xe
 3508 0061 3A       		.uleb128 0x3a
 3509 0062 0B       		.uleb128 0xb
 3510 0063 3B       		.uleb128 0x3b
 3511 0064 0B       		.uleb128 0xb
 3512 0065 49       		.uleb128 0x49
 3513 0066 13       		.uleb128 0x13
 3514 0067 38       		.uleb128 0x38
 3515 0068 0A       		.uleb128 0xa
 3516 0069 00       		.byte	0
 3517 006a 00       		.byte	0
 3518 006b 0A       		.uleb128 0xa
 3519 006c 15       		.uleb128 0x15
 3520 006d 01       		.byte	0x1
 3521 006e 27       		.uleb128 0x27
 3522 006f 0C       		.uleb128 0xc
 3523 0070 01       		.uleb128 0x1
 3524 0071 13       		.uleb128 0x13
 3525 0072 00       		.byte	0
 3526 0073 00       		.byte	0
 3527 0074 0B       		.uleb128 0xb
 3528 0075 05       		.uleb128 0x5
ARM GAS  /tmp/cc1XYtGL.s 			page 63


 3529 0076 00       		.byte	0
 3530 0077 49       		.uleb128 0x49
 3531 0078 13       		.uleb128 0x13
 3532 0079 00       		.byte	0
 3533 007a 00       		.byte	0
 3534 007b 0C       		.uleb128 0xc
 3535 007c 15       		.uleb128 0x15
 3536 007d 01       		.byte	0x1
 3537 007e 27       		.uleb128 0x27
 3538 007f 0C       		.uleb128 0xc
 3539 0080 49       		.uleb128 0x49
 3540 0081 13       		.uleb128 0x13
 3541 0082 01       		.uleb128 0x1
 3542 0083 13       		.uleb128 0x13
 3543 0084 00       		.byte	0
 3544 0085 00       		.byte	0
 3545 0086 0D       		.uleb128 0xd
 3546 0087 04       		.uleb128 0x4
 3547 0088 01       		.byte	0x1
 3548 0089 03       		.uleb128 0x3
 3549 008a 0E       		.uleb128 0xe
 3550 008b 0B       		.uleb128 0xb
 3551 008c 0B       		.uleb128 0xb
 3552 008d 3A       		.uleb128 0x3a
 3553 008e 0B       		.uleb128 0xb
 3554 008f 3B       		.uleb128 0x3b
 3555 0090 0B       		.uleb128 0xb
 3556 0091 01       		.uleb128 0x1
 3557 0092 13       		.uleb128 0x13
 3558 0093 00       		.byte	0
 3559 0094 00       		.byte	0
 3560 0095 0E       		.uleb128 0xe
 3561 0096 28       		.uleb128 0x28
 3562 0097 00       		.byte	0
 3563 0098 03       		.uleb128 0x3
 3564 0099 0E       		.uleb128 0xe
 3565 009a 1C       		.uleb128 0x1c
 3566 009b 0D       		.uleb128 0xd
 3567 009c 00       		.byte	0
 3568 009d 00       		.byte	0
 3569 009e 0F       		.uleb128 0xf
 3570 009f 2E       		.uleb128 0x2e
 3571 00a0 01       		.byte	0x1
 3572 00a1 03       		.uleb128 0x3
 3573 00a2 0E       		.uleb128 0xe
 3574 00a3 3A       		.uleb128 0x3a
 3575 00a4 0B       		.uleb128 0xb
 3576 00a5 3B       		.uleb128 0x3b
 3577 00a6 0B       		.uleb128 0xb
 3578 00a7 27       		.uleb128 0x27
 3579 00a8 0C       		.uleb128 0xc
 3580 00a9 49       		.uleb128 0x49
 3581 00aa 13       		.uleb128 0x13
 3582 00ab 20       		.uleb128 0x20
 3583 00ac 0B       		.uleb128 0xb
 3584 00ad 01       		.uleb128 0x1
 3585 00ae 13       		.uleb128 0x13
ARM GAS  /tmp/cc1XYtGL.s 			page 64


 3586 00af 00       		.byte	0
 3587 00b0 00       		.byte	0
 3588 00b1 10       		.uleb128 0x10
 3589 00b2 05       		.uleb128 0x5
 3590 00b3 00       		.byte	0
 3591 00b4 03       		.uleb128 0x3
 3592 00b5 0E       		.uleb128 0xe
 3593 00b6 3A       		.uleb128 0x3a
 3594 00b7 0B       		.uleb128 0xb
 3595 00b8 3B       		.uleb128 0x3b
 3596 00b9 0B       		.uleb128 0xb
 3597 00ba 49       		.uleb128 0x49
 3598 00bb 13       		.uleb128 0x13
 3599 00bc 00       		.byte	0
 3600 00bd 00       		.byte	0
 3601 00be 11       		.uleb128 0x11
 3602 00bf 34       		.uleb128 0x34
 3603 00c0 00       		.byte	0
 3604 00c1 03       		.uleb128 0x3
 3605 00c2 08       		.uleb128 0x8
 3606 00c3 3A       		.uleb128 0x3a
 3607 00c4 0B       		.uleb128 0xb
 3608 00c5 3B       		.uleb128 0x3b
 3609 00c6 0B       		.uleb128 0xb
 3610 00c7 49       		.uleb128 0x49
 3611 00c8 13       		.uleb128 0x13
 3612 00c9 00       		.byte	0
 3613 00ca 00       		.byte	0
 3614 00cb 12       		.uleb128 0x12
 3615 00cc 34       		.uleb128 0x34
 3616 00cd 00       		.byte	0
 3617 00ce 03       		.uleb128 0x3
 3618 00cf 0E       		.uleb128 0xe
 3619 00d0 3A       		.uleb128 0x3a
 3620 00d1 0B       		.uleb128 0xb
 3621 00d2 3B       		.uleb128 0x3b
 3622 00d3 0B       		.uleb128 0xb
 3623 00d4 49       		.uleb128 0x49
 3624 00d5 13       		.uleb128 0x13
 3625 00d6 00       		.byte	0
 3626 00d7 00       		.byte	0
 3627 00d8 13       		.uleb128 0x13
 3628 00d9 2E       		.uleb128 0x2e
 3629 00da 01       		.byte	0x1
 3630 00db 03       		.uleb128 0x3
 3631 00dc 0E       		.uleb128 0xe
 3632 00dd 3A       		.uleb128 0x3a
 3633 00de 0B       		.uleb128 0xb
 3634 00df 3B       		.uleb128 0x3b
 3635 00e0 0B       		.uleb128 0xb
 3636 00e1 27       		.uleb128 0x27
 3637 00e2 0C       		.uleb128 0xc
 3638 00e3 49       		.uleb128 0x49
 3639 00e4 13       		.uleb128 0x13
 3640 00e5 11       		.uleb128 0x11
 3641 00e6 01       		.uleb128 0x1
 3642 00e7 12       		.uleb128 0x12
ARM GAS  /tmp/cc1XYtGL.s 			page 65


 3643 00e8 01       		.uleb128 0x1
 3644 00e9 40       		.uleb128 0x40
 3645 00ea 06       		.uleb128 0x6
 3646 00eb 9642     		.uleb128 0x2116
 3647 00ed 0C       		.uleb128 0xc
 3648 00ee 01       		.uleb128 0x1
 3649 00ef 13       		.uleb128 0x13
 3650 00f0 00       		.byte	0
 3651 00f1 00       		.byte	0
 3652 00f2 14       		.uleb128 0x14
 3653 00f3 05       		.uleb128 0x5
 3654 00f4 00       		.byte	0
 3655 00f5 03       		.uleb128 0x3
 3656 00f6 0E       		.uleb128 0xe
 3657 00f7 3A       		.uleb128 0x3a
 3658 00f8 0B       		.uleb128 0xb
 3659 00f9 3B       		.uleb128 0x3b
 3660 00fa 0B       		.uleb128 0xb
 3661 00fb 49       		.uleb128 0x49
 3662 00fc 13       		.uleb128 0x13
 3663 00fd 02       		.uleb128 0x2
 3664 00fe 06       		.uleb128 0x6
 3665 00ff 00       		.byte	0
 3666 0100 00       		.byte	0
 3667 0101 15       		.uleb128 0x15
 3668 0102 05       		.uleb128 0x5
 3669 0103 00       		.byte	0
 3670 0104 03       		.uleb128 0x3
 3671 0105 08       		.uleb128 0x8
 3672 0106 3A       		.uleb128 0x3a
 3673 0107 0B       		.uleb128 0xb
 3674 0108 3B       		.uleb128 0x3b
 3675 0109 0B       		.uleb128 0xb
 3676 010a 49       		.uleb128 0x49
 3677 010b 13       		.uleb128 0x13
 3678 010c 02       		.uleb128 0x2
 3679 010d 06       		.uleb128 0x6
 3680 010e 00       		.byte	0
 3681 010f 00       		.byte	0
 3682 0110 16       		.uleb128 0x16
 3683 0111 34       		.uleb128 0x34
 3684 0112 00       		.byte	0
 3685 0113 03       		.uleb128 0x3
 3686 0114 0E       		.uleb128 0xe
 3687 0115 3A       		.uleb128 0x3a
 3688 0116 0B       		.uleb128 0xb
 3689 0117 3B       		.uleb128 0x3b
 3690 0118 0B       		.uleb128 0xb
 3691 0119 49       		.uleb128 0x49
 3692 011a 13       		.uleb128 0x13
 3693 011b 02       		.uleb128 0x2
 3694 011c 06       		.uleb128 0x6
 3695 011d 00       		.byte	0
 3696 011e 00       		.byte	0
 3697 011f 17       		.uleb128 0x17
 3698 0120 34       		.uleb128 0x34
 3699 0121 00       		.byte	0
ARM GAS  /tmp/cc1XYtGL.s 			page 66


 3700 0122 03       		.uleb128 0x3
 3701 0123 08       		.uleb128 0x8
 3702 0124 3A       		.uleb128 0x3a
 3703 0125 0B       		.uleb128 0xb
 3704 0126 3B       		.uleb128 0x3b
 3705 0127 0B       		.uleb128 0xb
 3706 0128 49       		.uleb128 0x49
 3707 0129 13       		.uleb128 0x13
 3708 012a 02       		.uleb128 0x2
 3709 012b 06       		.uleb128 0x6
 3710 012c 00       		.byte	0
 3711 012d 00       		.byte	0
 3712 012e 18       		.uleb128 0x18
 3713 012f 898201   		.uleb128 0x4109
 3714 0132 01       		.byte	0x1
 3715 0133 11       		.uleb128 0x11
 3716 0134 01       		.uleb128 0x1
 3717 0135 31       		.uleb128 0x31
 3718 0136 13       		.uleb128 0x13
 3719 0137 01       		.uleb128 0x1
 3720 0138 13       		.uleb128 0x13
 3721 0139 00       		.byte	0
 3722 013a 00       		.byte	0
 3723 013b 19       		.uleb128 0x19
 3724 013c 8A8201   		.uleb128 0x410a
 3725 013f 00       		.byte	0
 3726 0140 02       		.uleb128 0x2
 3727 0141 0A       		.uleb128 0xa
 3728 0142 9142     		.uleb128 0x2111
 3729 0144 0A       		.uleb128 0xa
 3730 0145 00       		.byte	0
 3731 0146 00       		.byte	0
 3732 0147 1A       		.uleb128 0x1a
 3733 0148 898201   		.uleb128 0x4109
 3734 014b 01       		.byte	0x1
 3735 014c 11       		.uleb128 0x11
 3736 014d 01       		.uleb128 0x1
 3737 014e 31       		.uleb128 0x31
 3738 014f 13       		.uleb128 0x13
 3739 0150 00       		.byte	0
 3740 0151 00       		.byte	0
 3741 0152 1B       		.uleb128 0x1b
 3742 0153 2E       		.uleb128 0x2e
 3743 0154 01       		.byte	0x1
 3744 0155 03       		.uleb128 0x3
 3745 0156 0E       		.uleb128 0xe
 3746 0157 3A       		.uleb128 0x3a
 3747 0158 0B       		.uleb128 0xb
 3748 0159 3B       		.uleb128 0x3b
 3749 015a 0B       		.uleb128 0xb
 3750 015b 27       		.uleb128 0x27
 3751 015c 0C       		.uleb128 0xc
 3752 015d 11       		.uleb128 0x11
 3753 015e 01       		.uleb128 0x1
 3754 015f 12       		.uleb128 0x12
 3755 0160 01       		.uleb128 0x1
 3756 0161 40       		.uleb128 0x40
ARM GAS  /tmp/cc1XYtGL.s 			page 67


 3757 0162 06       		.uleb128 0x6
 3758 0163 9742     		.uleb128 0x2117
 3759 0165 0C       		.uleb128 0xc
 3760 0166 01       		.uleb128 0x1
 3761 0167 13       		.uleb128 0x13
 3762 0168 00       		.byte	0
 3763 0169 00       		.byte	0
 3764 016a 1C       		.uleb128 0x1c
 3765 016b 05       		.uleb128 0x5
 3766 016c 00       		.byte	0
 3767 016d 03       		.uleb128 0x3
 3768 016e 0E       		.uleb128 0xe
 3769 016f 3A       		.uleb128 0x3a
 3770 0170 0B       		.uleb128 0xb
 3771 0171 3B       		.uleb128 0x3b
 3772 0172 0B       		.uleb128 0xb
 3773 0173 49       		.uleb128 0x49
 3774 0174 13       		.uleb128 0x13
 3775 0175 02       		.uleb128 0x2
 3776 0176 0A       		.uleb128 0xa
 3777 0177 00       		.byte	0
 3778 0178 00       		.byte	0
 3779 0179 1D       		.uleb128 0x1d
 3780 017a 898201   		.uleb128 0x4109
 3781 017d 01       		.byte	0x1
 3782 017e 11       		.uleb128 0x11
 3783 017f 01       		.uleb128 0x1
 3784 0180 01       		.uleb128 0x1
 3785 0181 13       		.uleb128 0x13
 3786 0182 00       		.byte	0
 3787 0183 00       		.byte	0
 3788 0184 1E       		.uleb128 0x1e
 3789 0185 2E       		.uleb128 0x2e
 3790 0186 01       		.byte	0x1
 3791 0187 3F       		.uleb128 0x3f
 3792 0188 0C       		.uleb128 0xc
 3793 0189 03       		.uleb128 0x3
 3794 018a 0E       		.uleb128 0xe
 3795 018b 3A       		.uleb128 0x3a
 3796 018c 0B       		.uleb128 0xb
 3797 018d 3B       		.uleb128 0x3b
 3798 018e 0B       		.uleb128 0xb
 3799 018f 27       		.uleb128 0x27
 3800 0190 0C       		.uleb128 0xc
 3801 0191 49       		.uleb128 0x49
 3802 0192 13       		.uleb128 0x13
 3803 0193 11       		.uleb128 0x11
 3804 0194 01       		.uleb128 0x1
 3805 0195 12       		.uleb128 0x12
 3806 0196 01       		.uleb128 0x1
 3807 0197 40       		.uleb128 0x40
 3808 0198 06       		.uleb128 0x6
 3809 0199 9742     		.uleb128 0x2117
 3810 019b 0C       		.uleb128 0xc
 3811 019c 01       		.uleb128 0x1
 3812 019d 13       		.uleb128 0x13
 3813 019e 00       		.byte	0
ARM GAS  /tmp/cc1XYtGL.s 			page 68


 3814 019f 00       		.byte	0
 3815 01a0 1F       		.uleb128 0x1f
 3816 01a1 2E       		.uleb128 0x2e
 3817 01a2 01       		.byte	0x1
 3818 01a3 03       		.uleb128 0x3
 3819 01a4 0E       		.uleb128 0xe
 3820 01a5 3A       		.uleb128 0x3a
 3821 01a6 0B       		.uleb128 0xb
 3822 01a7 3B       		.uleb128 0x3b
 3823 01a8 0B       		.uleb128 0xb
 3824 01a9 27       		.uleb128 0x27
 3825 01aa 0C       		.uleb128 0xc
 3826 01ab 20       		.uleb128 0x20
 3827 01ac 0B       		.uleb128 0xb
 3828 01ad 01       		.uleb128 0x1
 3829 01ae 13       		.uleb128 0x13
 3830 01af 00       		.byte	0
 3831 01b0 00       		.byte	0
 3832 01b1 20       		.uleb128 0x20
 3833 01b2 05       		.uleb128 0x5
 3834 01b3 00       		.byte	0
 3835 01b4 03       		.uleb128 0x3
 3836 01b5 08       		.uleb128 0x8
 3837 01b6 3A       		.uleb128 0x3a
 3838 01b7 0B       		.uleb128 0xb
 3839 01b8 3B       		.uleb128 0x3b
 3840 01b9 0B       		.uleb128 0xb
 3841 01ba 49       		.uleb128 0x49
 3842 01bb 13       		.uleb128 0x13
 3843 01bc 00       		.byte	0
 3844 01bd 00       		.byte	0
 3845 01be 21       		.uleb128 0x21
 3846 01bf 2E       		.uleb128 0x2e
 3847 01c0 01       		.byte	0x1
 3848 01c1 3F       		.uleb128 0x3f
 3849 01c2 0C       		.uleb128 0xc
 3850 01c3 03       		.uleb128 0x3
 3851 01c4 0E       		.uleb128 0xe
 3852 01c5 3A       		.uleb128 0x3a
 3853 01c6 0B       		.uleb128 0xb
 3854 01c7 3B       		.uleb128 0x3b
 3855 01c8 0B       		.uleb128 0xb
 3856 01c9 27       		.uleb128 0x27
 3857 01ca 0C       		.uleb128 0xc
 3858 01cb 11       		.uleb128 0x11
 3859 01cc 01       		.uleb128 0x1
 3860 01cd 12       		.uleb128 0x12
 3861 01ce 01       		.uleb128 0x1
 3862 01cf 40       		.uleb128 0x40
 3863 01d0 06       		.uleb128 0x6
 3864 01d1 9642     		.uleb128 0x2116
 3865 01d3 0C       		.uleb128 0xc
 3866 01d4 01       		.uleb128 0x1
 3867 01d5 13       		.uleb128 0x13
 3868 01d6 00       		.byte	0
 3869 01d7 00       		.byte	0
 3870 01d8 22       		.uleb128 0x22
ARM GAS  /tmp/cc1XYtGL.s 			page 69


 3871 01d9 1D       		.uleb128 0x1d
 3872 01da 01       		.byte	0x1
 3873 01db 31       		.uleb128 0x31
 3874 01dc 13       		.uleb128 0x13
 3875 01dd 11       		.uleb128 0x11
 3876 01de 01       		.uleb128 0x1
 3877 01df 12       		.uleb128 0x12
 3878 01e0 01       		.uleb128 0x1
 3879 01e1 58       		.uleb128 0x58
 3880 01e2 0B       		.uleb128 0xb
 3881 01e3 59       		.uleb128 0x59
 3882 01e4 0B       		.uleb128 0xb
 3883 01e5 01       		.uleb128 0x1
 3884 01e6 13       		.uleb128 0x13
 3885 01e7 00       		.byte	0
 3886 01e8 00       		.byte	0
 3887 01e9 23       		.uleb128 0x23
 3888 01ea 05       		.uleb128 0x5
 3889 01eb 00       		.byte	0
 3890 01ec 31       		.uleb128 0x31
 3891 01ed 13       		.uleb128 0x13
 3892 01ee 02       		.uleb128 0x2
 3893 01ef 06       		.uleb128 0x6
 3894 01f0 00       		.byte	0
 3895 01f1 00       		.byte	0
 3896 01f2 24       		.uleb128 0x24
 3897 01f3 05       		.uleb128 0x5
 3898 01f4 00       		.byte	0
 3899 01f5 31       		.uleb128 0x31
 3900 01f6 13       		.uleb128 0x13
 3901 01f7 02       		.uleb128 0x2
 3902 01f8 0A       		.uleb128 0xa
 3903 01f9 00       		.byte	0
 3904 01fa 00       		.byte	0
 3905 01fb 25       		.uleb128 0x25
 3906 01fc 0B       		.uleb128 0xb
 3907 01fd 01       		.byte	0x1
 3908 01fe 11       		.uleb128 0x11
 3909 01ff 01       		.uleb128 0x1
 3910 0200 12       		.uleb128 0x12
 3911 0201 01       		.uleb128 0x1
 3912 0202 00       		.byte	0
 3913 0203 00       		.byte	0
 3914 0204 26       		.uleb128 0x26
 3915 0205 34       		.uleb128 0x34
 3916 0206 00       		.byte	0
 3917 0207 31       		.uleb128 0x31
 3918 0208 13       		.uleb128 0x13
 3919 0209 02       		.uleb128 0x2
 3920 020a 06       		.uleb128 0x6
 3921 020b 00       		.byte	0
 3922 020c 00       		.byte	0
 3923 020d 27       		.uleb128 0x27
 3924 020e 05       		.uleb128 0x5
 3925 020f 00       		.byte	0
 3926 0210 31       		.uleb128 0x31
 3927 0211 13       		.uleb128 0x13
ARM GAS  /tmp/cc1XYtGL.s 			page 70


 3928 0212 1C       		.uleb128 0x1c
 3929 0213 0B       		.uleb128 0xb
 3930 0214 00       		.byte	0
 3931 0215 00       		.byte	0
 3932 0216 28       		.uleb128 0x28
 3933 0217 1D       		.uleb128 0x1d
 3934 0218 01       		.byte	0x1
 3935 0219 31       		.uleb128 0x31
 3936 021a 13       		.uleb128 0x13
 3937 021b 52       		.uleb128 0x52
 3938 021c 01       		.uleb128 0x1
 3939 021d 55       		.uleb128 0x55
 3940 021e 06       		.uleb128 0x6
 3941 021f 58       		.uleb128 0x58
 3942 0220 0B       		.uleb128 0xb
 3943 0221 59       		.uleb128 0x59
 3944 0222 0B       		.uleb128 0xb
 3945 0223 01       		.uleb128 0x1
 3946 0224 13       		.uleb128 0x13
 3947 0225 00       		.byte	0
 3948 0226 00       		.byte	0
 3949 0227 29       		.uleb128 0x29
 3950 0228 0B       		.uleb128 0xb
 3951 0229 01       		.byte	0x1
 3952 022a 55       		.uleb128 0x55
 3953 022b 06       		.uleb128 0x6
 3954 022c 00       		.byte	0
 3955 022d 00       		.byte	0
 3956 022e 2A       		.uleb128 0x2a
 3957 022f 05       		.uleb128 0x5
 3958 0230 00       		.byte	0
 3959 0231 31       		.uleb128 0x31
 3960 0232 13       		.uleb128 0x13
 3961 0233 00       		.byte	0
 3962 0234 00       		.byte	0
 3963 0235 2B       		.uleb128 0x2b
 3964 0236 898201   		.uleb128 0x4109
 3965 0239 01       		.byte	0x1
 3966 023a 11       		.uleb128 0x11
 3967 023b 01       		.uleb128 0x1
 3968 023c 9342     		.uleb128 0x2113
 3969 023e 0A       		.uleb128 0xa
 3970 023f 01       		.uleb128 0x1
 3971 0240 13       		.uleb128 0x13
 3972 0241 00       		.byte	0
 3973 0242 00       		.byte	0
 3974 0243 2C       		.uleb128 0x2c
 3975 0244 2E       		.uleb128 0x2e
 3976 0245 01       		.byte	0x1
 3977 0246 3F       		.uleb128 0x3f
 3978 0247 0C       		.uleb128 0xc
 3979 0248 03       		.uleb128 0x3
 3980 0249 0E       		.uleb128 0xe
 3981 024a 3A       		.uleb128 0x3a
 3982 024b 0B       		.uleb128 0xb
 3983 024c 3B       		.uleb128 0x3b
 3984 024d 0B       		.uleb128 0xb
ARM GAS  /tmp/cc1XYtGL.s 			page 71


 3985 024e 27       		.uleb128 0x27
 3986 024f 0C       		.uleb128 0xc
 3987 0250 11       		.uleb128 0x11
 3988 0251 01       		.uleb128 0x1
 3989 0252 12       		.uleb128 0x12
 3990 0253 01       		.uleb128 0x1
 3991 0254 40       		.uleb128 0x40
 3992 0255 06       		.uleb128 0x6
 3993 0256 9742     		.uleb128 0x2117
 3994 0258 0C       		.uleb128 0xc
 3995 0259 01       		.uleb128 0x1
 3996 025a 13       		.uleb128 0x13
 3997 025b 00       		.byte	0
 3998 025c 00       		.byte	0
 3999 025d 2D       		.uleb128 0x2d
 4000 025e 2E       		.uleb128 0x2e
 4001 025f 01       		.byte	0x1
 4002 0260 3F       		.uleb128 0x3f
 4003 0261 0C       		.uleb128 0xc
 4004 0262 03       		.uleb128 0x3
 4005 0263 0E       		.uleb128 0xe
 4006 0264 3A       		.uleb128 0x3a
 4007 0265 0B       		.uleb128 0xb
 4008 0266 3B       		.uleb128 0x3b
 4009 0267 0B       		.uleb128 0xb
 4010 0268 27       		.uleb128 0x27
 4011 0269 0C       		.uleb128 0xc
 4012 026a 49       		.uleb128 0x49
 4013 026b 13       		.uleb128 0x13
 4014 026c 3C       		.uleb128 0x3c
 4015 026d 0C       		.uleb128 0xc
 4016 026e 01       		.uleb128 0x1
 4017 026f 13       		.uleb128 0x13
 4018 0270 00       		.byte	0
 4019 0271 00       		.byte	0
 4020 0272 2E       		.uleb128 0x2e
 4021 0273 2E       		.uleb128 0x2e
 4022 0274 01       		.byte	0x1
 4023 0275 3F       		.uleb128 0x3f
 4024 0276 0C       		.uleb128 0xc
 4025 0277 03       		.uleb128 0x3
 4026 0278 0E       		.uleb128 0xe
 4027 0279 3A       		.uleb128 0x3a
 4028 027a 0B       		.uleb128 0xb
 4029 027b 3B       		.uleb128 0x3b
 4030 027c 0B       		.uleb128 0xb
 4031 027d 27       		.uleb128 0x27
 4032 027e 0C       		.uleb128 0xc
 4033 027f 3C       		.uleb128 0x3c
 4034 0280 0C       		.uleb128 0xc
 4035 0281 00       		.byte	0
 4036 0282 00       		.byte	0
 4037 0283 00       		.byte	0
 4038              		.section	.debug_loc,"",%progbits
 4039              	.Ldebug_loc0:
 4040              	.LLST0:
 4041 0000 00000000 		.4byte	.LFB40
ARM GAS  /tmp/cc1XYtGL.s 			page 72


 4042 0004 02000000 		.4byte	.LCFI0
 4043 0008 0200     		.2byte	0x2
 4044 000a 7D       		.byte	0x7d
 4045 000b 00       		.sleb128 0
 4046 000c 02000000 		.4byte	.LCFI0
 4047 0010 34000000 		.4byte	.LFE40
 4048 0014 0200     		.2byte	0x2
 4049 0016 7D       		.byte	0x7d
 4050 0017 18       		.sleb128 24
 4051 0018 00000000 		.4byte	0
 4052 001c 00000000 		.4byte	0
 4053              	.LLST1:
 4054 0020 00000000 		.4byte	.LVL0
 4055 0024 0D000000 		.4byte	.LVL2-1
 4056 0028 0100     		.2byte	0x1
 4057 002a 50       		.byte	0x50
 4058 002b 0D000000 		.4byte	.LVL2-1
 4059 002f 24000000 		.4byte	.LVL5
 4060 0033 0100     		.2byte	0x1
 4061 0035 54       		.byte	0x54
 4062 0036 24000000 		.4byte	.LVL5
 4063 003a 34000000 		.4byte	.LFE40
 4064 003e 0400     		.2byte	0x4
 4065 0040 F3       		.byte	0xf3
 4066 0041 01       		.uleb128 0x1
 4067 0042 50       		.byte	0x50
 4068 0043 9F       		.byte	0x9f
 4069 0044 00000000 		.4byte	0
 4070 0048 00000000 		.4byte	0
 4071              	.LLST2:
 4072 004c 00000000 		.4byte	.LVL0
 4073 0050 06000000 		.4byte	.LVL1
 4074 0054 0100     		.2byte	0x1
 4075 0056 51       		.byte	0x51
 4076 0057 06000000 		.4byte	.LVL1
 4077 005b 34000000 		.4byte	.LFE40
 4078 005f 0400     		.2byte	0x4
 4079 0061 F3       		.byte	0xf3
 4080 0062 01       		.uleb128 0x1
 4081 0063 51       		.byte	0x51
 4082 0064 9F       		.byte	0x9f
 4083 0065 00000000 		.4byte	0
 4084 0069 00000000 		.4byte	0
 4085              	.LLST3:
 4086 006d 00000000 		.4byte	.LVL0
 4087 0071 0D000000 		.4byte	.LVL2-1
 4088 0075 0100     		.2byte	0x1
 4089 0077 52       		.byte	0x52
 4090 0078 0D000000 		.4byte	.LVL2-1
 4091 007c 22000000 		.4byte	.LVL4
 4092 0080 0400     		.2byte	0x4
 4093 0082 F3       		.byte	0xf3
 4094 0083 01       		.uleb128 0x1
 4095 0084 52       		.byte	0x52
 4096 0085 9F       		.byte	0x9f
 4097 0086 22000000 		.4byte	.LVL4
 4098 008a 24000000 		.4byte	.LVL5
ARM GAS  /tmp/cc1XYtGL.s 			page 73


 4099 008e 2300     		.2byte	0x23
 4100 0090 71       		.byte	0x71
 4101 0091 00       		.sleb128 0
 4102 0092 74       		.byte	0x74
 4103 0093 0C       		.sleb128 12
 4104 0094 94       		.byte	0x94
 4105 0095 01       		.byte	0x1
 4106 0096 08       		.byte	0x8
 4107 0097 FF       		.byte	0xff
 4108 0098 1A       		.byte	0x1a
 4109 0099 77       		.byte	0x77
 4110 009a 00       		.sleb128 0
 4111 009b 1C       		.byte	0x1c
 4112 009c 71       		.byte	0x71
 4113 009d 00       		.sleb128 0
 4114 009e 22       		.byte	0x22
 4115 009f 40       		.byte	0x40
 4116 00a0 24       		.byte	0x24
 4117 00a1 40       		.byte	0x40
 4118 00a2 26       		.byte	0x26
 4119 00a3 75       		.byte	0x75
 4120 00a4 00       		.sleb128 0
 4121 00a5 0A       		.byte	0xa
 4122 00a6 FFFF     		.2byte	0xffff
 4123 00a8 1A       		.byte	0x1a
 4124 00a9 14       		.byte	0x14
 4125 00aa 14       		.byte	0x14
 4126 00ab 1B       		.byte	0x1b
 4127 00ac 1E       		.byte	0x1e
 4128 00ad 1C       		.byte	0x1c
 4129 00ae 1C       		.byte	0x1c
 4130 00af 75       		.byte	0x75
 4131 00b0 00       		.sleb128 0
 4132 00b1 22       		.byte	0x22
 4133 00b2 9F       		.byte	0x9f
 4134 00b3 24000000 		.4byte	.LVL5
 4135 00b7 2A000000 		.4byte	.LVL6
 4136 00bb 2600     		.2byte	0x26
 4137 00bd 71       		.byte	0x71
 4138 00be 00       		.sleb128 0
 4139 00bf F3       		.byte	0xf3
 4140 00c0 01       		.uleb128 0x1
 4141 00c1 50       		.byte	0x50
 4142 00c2 23       		.byte	0x23
 4143 00c3 0C       		.uleb128 0xc
 4144 00c4 94       		.byte	0x94
 4145 00c5 01       		.byte	0x1
 4146 00c6 08       		.byte	0x8
 4147 00c7 FF       		.byte	0xff
 4148 00c8 1A       		.byte	0x1a
 4149 00c9 77       		.byte	0x77
 4150 00ca 00       		.sleb128 0
 4151 00cb 1C       		.byte	0x1c
 4152 00cc 71       		.byte	0x71
 4153 00cd 00       		.sleb128 0
 4154 00ce 22       		.byte	0x22
 4155 00cf 40       		.byte	0x40
ARM GAS  /tmp/cc1XYtGL.s 			page 74


 4156 00d0 24       		.byte	0x24
 4157 00d1 40       		.byte	0x40
 4158 00d2 26       		.byte	0x26
 4159 00d3 75       		.byte	0x75
 4160 00d4 00       		.sleb128 0
 4161 00d5 0A       		.byte	0xa
 4162 00d6 FFFF     		.2byte	0xffff
 4163 00d8 1A       		.byte	0x1a
 4164 00d9 14       		.byte	0x14
 4165 00da 14       		.byte	0x14
 4166 00db 1B       		.byte	0x1b
 4167 00dc 1E       		.byte	0x1e
 4168 00dd 1C       		.byte	0x1c
 4169 00de 1C       		.byte	0x1c
 4170 00df 75       		.byte	0x75
 4171 00e0 00       		.sleb128 0
 4172 00e1 22       		.byte	0x22
 4173 00e2 9F       		.byte	0x9f
 4174 00e3 2A000000 		.4byte	.LVL6
 4175 00e7 2D000000 		.4byte	.LVL7-1
 4176 00eb 2600     		.2byte	0x26
 4177 00ed 72       		.byte	0x72
 4178 00ee 00       		.sleb128 0
 4179 00ef F3       		.byte	0xf3
 4180 00f0 01       		.uleb128 0x1
 4181 00f1 50       		.byte	0x50
 4182 00f2 23       		.byte	0x23
 4183 00f3 0C       		.uleb128 0xc
 4184 00f4 94       		.byte	0x94
 4185 00f5 01       		.byte	0x1
 4186 00f6 08       		.byte	0x8
 4187 00f7 FF       		.byte	0xff
 4188 00f8 1A       		.byte	0x1a
 4189 00f9 77       		.byte	0x77
 4190 00fa 00       		.sleb128 0
 4191 00fb 1C       		.byte	0x1c
 4192 00fc 72       		.byte	0x72
 4193 00fd 00       		.sleb128 0
 4194 00fe 22       		.byte	0x22
 4195 00ff 40       		.byte	0x40
 4196 0100 24       		.byte	0x24
 4197 0101 40       		.byte	0x40
 4198 0102 26       		.byte	0x26
 4199 0103 75       		.byte	0x75
 4200 0104 00       		.sleb128 0
 4201 0105 0A       		.byte	0xa
 4202 0106 FFFF     		.2byte	0xffff
 4203 0108 1A       		.byte	0x1a
 4204 0109 14       		.byte	0x14
 4205 010a 14       		.byte	0x14
 4206 010b 1B       		.byte	0x1b
 4207 010c 1E       		.byte	0x1e
 4208 010d 1C       		.byte	0x1c
 4209 010e 1C       		.byte	0x1c
 4210 010f 75       		.byte	0x75
 4211 0110 00       		.sleb128 0
 4212 0111 22       		.byte	0x22
ARM GAS  /tmp/cc1XYtGL.s 			page 75


 4213 0112 9F       		.byte	0x9f
 4214 0113 00000000 		.4byte	0
 4215 0117 00000000 		.4byte	0
 4216              	.LLST4:
 4217 011b 22000000 		.4byte	.LVL4
 4218 011f 32000000 		.4byte	.LVL8
 4219 0123 0100     		.2byte	0x1
 4220 0125 55       		.byte	0x55
 4221 0126 00000000 		.4byte	0
 4222 012a 00000000 		.4byte	0
 4223              	.LLST5:
 4224 012e 22000000 		.4byte	.LVL4
 4225 0132 24000000 		.4byte	.LVL5
 4226 0136 0E00     		.2byte	0xe
 4227 0138 74       		.byte	0x74
 4228 0139 0C       		.sleb128 12
 4229 013a 94       		.byte	0x94
 4230 013b 01       		.byte	0x1
 4231 013c 08       		.byte	0x8
 4232 013d FF       		.byte	0xff
 4233 013e 1A       		.byte	0x1a
 4234 013f 77       		.byte	0x77
 4235 0140 00       		.sleb128 0
 4236 0141 1C       		.byte	0x1c
 4237 0142 71       		.byte	0x71
 4238 0143 00       		.sleb128 0
 4239 0144 22       		.byte	0x22
 4240 0145 9F       		.byte	0x9f
 4241 0146 24000000 		.4byte	.LVL5
 4242 014a 2A000000 		.4byte	.LVL6
 4243 014e 1100     		.2byte	0x11
 4244 0150 F3       		.byte	0xf3
 4245 0151 01       		.uleb128 0x1
 4246 0152 50       		.byte	0x50
 4247 0153 23       		.byte	0x23
 4248 0154 0C       		.uleb128 0xc
 4249 0155 94       		.byte	0x94
 4250 0156 01       		.byte	0x1
 4251 0157 08       		.byte	0x8
 4252 0158 FF       		.byte	0xff
 4253 0159 1A       		.byte	0x1a
 4254 015a 77       		.byte	0x77
 4255 015b 00       		.sleb128 0
 4256 015c 1C       		.byte	0x1c
 4257 015d 71       		.byte	0x71
 4258 015e 00       		.sleb128 0
 4259 015f 22       		.byte	0x22
 4260 0160 9F       		.byte	0x9f
 4261 0161 2A000000 		.4byte	.LVL6
 4262 0165 2D000000 		.4byte	.LVL7-1
 4263 0169 1100     		.2byte	0x11
 4264 016b F3       		.byte	0xf3
 4265 016c 01       		.uleb128 0x1
 4266 016d 50       		.byte	0x50
 4267 016e 23       		.byte	0x23
 4268 016f 0C       		.uleb128 0xc
 4269 0170 94       		.byte	0x94
ARM GAS  /tmp/cc1XYtGL.s 			page 76


 4270 0171 01       		.byte	0x1
 4271 0172 08       		.byte	0x8
 4272 0173 FF       		.byte	0xff
 4273 0174 1A       		.byte	0x1a
 4274 0175 77       		.byte	0x77
 4275 0176 00       		.sleb128 0
 4276 0177 1C       		.byte	0x1c
 4277 0178 72       		.byte	0x72
 4278 0179 00       		.sleb128 0
 4279 017a 22       		.byte	0x22
 4280 017b 9F       		.byte	0x9f
 4281 017c 00000000 		.4byte	0
 4282 0180 00000000 		.4byte	0
 4283              	.LLST6:
 4284 0184 00000000 		.4byte	.LFB44
 4285 0188 02000000 		.4byte	.LCFI1
 4286 018c 0200     		.2byte	0x2
 4287 018e 7D       		.byte	0x7d
 4288 018f 00       		.sleb128 0
 4289 0190 02000000 		.4byte	.LCFI1
 4290 0194 0C000000 		.4byte	.LCFI2
 4291 0198 0200     		.2byte	0x2
 4292 019a 7D       		.byte	0x7d
 4293 019b 14       		.sleb128 20
 4294 019c 0C000000 		.4byte	.LCFI2
 4295 01a0 10000000 		.4byte	.LCFI3
 4296 01a4 0200     		.2byte	0x2
 4297 01a6 7D       		.byte	0x7d
 4298 01a7 24       		.sleb128 36
 4299 01a8 10000000 		.4byte	.LCFI3
 4300 01ac 84000000 		.4byte	.LFE44
 4301 01b0 0200     		.2byte	0x2
 4302 01b2 7D       		.byte	0x7d
 4303 01b3 30       		.sleb128 48
 4304 01b4 00000000 		.4byte	0
 4305 01b8 00000000 		.4byte	0
 4306              	.LLST7:
 4307 01bc 00000000 		.4byte	.LVL9
 4308 01c0 1C000000 		.4byte	.LVL10
 4309 01c4 0100     		.2byte	0x1
 4310 01c6 50       		.byte	0x50
 4311 01c7 1C000000 		.4byte	.LVL10
 4312 01cb 2E000000 		.4byte	.LVL15
 4313 01cf 0100     		.2byte	0x1
 4314 01d1 54       		.byte	0x54
 4315 01d2 2E000000 		.4byte	.LVL15
 4316 01d6 78000000 		.4byte	.LVL33
 4317 01da 0100     		.2byte	0x1
 4318 01dc 5B       		.byte	0x5b
 4319 01dd 78000000 		.4byte	.LVL33
 4320 01e1 84000000 		.4byte	.LFE44
 4321 01e5 0400     		.2byte	0x4
 4322 01e7 F3       		.byte	0xf3
 4323 01e8 01       		.uleb128 0x1
 4324 01e9 50       		.byte	0x50
 4325 01ea 9F       		.byte	0x9f
 4326 01eb 00000000 		.4byte	0
ARM GAS  /tmp/cc1XYtGL.s 			page 77


 4327 01ef 00000000 		.4byte	0
 4328              	.LLST8:
 4329 01f3 00000000 		.4byte	.LVL9
 4330 01f7 2E000000 		.4byte	.LVL15
 4331 01fb 0100     		.2byte	0x1
 4332 01fd 51       		.byte	0x51
 4333 01fe 2E000000 		.4byte	.LVL15
 4334 0202 84000000 		.4byte	.LFE44
 4335 0206 0400     		.2byte	0x4
 4336 0208 F3       		.byte	0xf3
 4337 0209 01       		.uleb128 0x1
 4338 020a 51       		.byte	0x51
 4339 020b 9F       		.byte	0x9f
 4340 020c 00000000 		.4byte	0
 4341 0210 00000000 		.4byte	0
 4342              	.LLST9:
 4343 0214 00000000 		.4byte	.LVL9
 4344 0218 1E000000 		.4byte	.LVL11
 4345 021c 0100     		.2byte	0x1
 4346 021e 52       		.byte	0x52
 4347 021f 1E000000 		.4byte	.LVL11
 4348 0223 84000000 		.4byte	.LFE44
 4349 0227 0400     		.2byte	0x4
 4350 0229 F3       		.byte	0xf3
 4351 022a 01       		.uleb128 0x1
 4352 022b 52       		.byte	0x52
 4353 022c 9F       		.byte	0x9f
 4354 022d 00000000 		.4byte	0
 4355 0231 00000000 		.4byte	0
 4356              	.LLST10:
 4357 0235 00000000 		.4byte	.LVL9
 4358 0239 22000000 		.4byte	.LVL12
 4359 023d 0100     		.2byte	0x1
 4360 023f 53       		.byte	0x53
 4361 0240 22000000 		.4byte	.LVL12
 4362 0244 84000000 		.4byte	.LFE44
 4363 0248 0200     		.2byte	0x2
 4364 024a 91       		.byte	0x91
 4365 024b 54       		.sleb128 -44
 4366 024c 00000000 		.4byte	0
 4367 0250 00000000 		.4byte	0
 4368              	.LLST11:
 4369 0254 00000000 		.4byte	.LVL9
 4370 0258 2E000000 		.4byte	.LVL15
 4371 025c 0200     		.2byte	0x2
 4372 025e 91       		.byte	0x91
 4373 025f 00       		.sleb128 0
 4374 0260 00000000 		.4byte	0
 4375 0264 00000000 		.4byte	0
 4376              	.LLST12:
 4377 0268 24000000 		.4byte	.LVL13
 4378 026c 2C000000 		.4byte	.LVL14
 4379 0270 0100     		.2byte	0x1
 4380 0272 57       		.byte	0x57
 4381 0273 2C000000 		.4byte	.LVL14
 4382 0277 3C000000 		.4byte	.LVL17
 4383 027b 0100     		.2byte	0x1
ARM GAS  /tmp/cc1XYtGL.s 			page 78


 4384 027d 55       		.byte	0x55
 4385 027e 3C000000 		.4byte	.LVL17
 4386 0282 3E000000 		.4byte	.LVL18
 4387 0286 0100     		.2byte	0x1
 4388 0288 50       		.byte	0x50
 4389 0289 42000000 		.4byte	.LVL19
 4390 028d 64000000 		.4byte	.LVL24
 4391 0291 0100     		.2byte	0x1
 4392 0293 55       		.byte	0x55
 4393 0294 64000000 		.4byte	.LVL24
 4394 0298 66000000 		.4byte	.LVL25
 4395 029c 0100     		.2byte	0x1
 4396 029e 53       		.byte	0x53
 4397 029f 66000000 		.4byte	.LVL25
 4398 02a3 74000000 		.4byte	.LVL29
 4399 02a7 0100     		.2byte	0x1
 4400 02a9 55       		.byte	0x55
 4401 02aa 74000000 		.4byte	.LVL29
 4402 02ae 76000000 		.4byte	.LVL30
 4403 02b2 0100     		.2byte	0x1
 4404 02b4 50       		.byte	0x50
 4405 02b5 76000000 		.4byte	.LVL30
 4406 02b9 78000000 		.4byte	.LVL31
 4407 02bd 0100     		.2byte	0x1
 4408 02bf 55       		.byte	0x55
 4409 02c0 00000000 		.4byte	0
 4410 02c4 00000000 		.4byte	0
 4411              	.LLST13:
 4412 02c8 00000000 		.4byte	.LVL9
 4413 02cc 2E000000 		.4byte	.LVL15
 4414 02d0 0200     		.2byte	0x2
 4415 02d2 30       		.byte	0x30
 4416 02d3 9F       		.byte	0x9f
 4417 02d4 2E000000 		.4byte	.LVL15
 4418 02d8 3C000000 		.4byte	.LVL17
 4419 02dc 0100     		.2byte	0x1
 4420 02de 57       		.byte	0x57
 4421 02df 3C000000 		.4byte	.LVL17
 4422 02e3 3E000000 		.4byte	.LVL18
 4423 02e7 0100     		.2byte	0x1
 4424 02e9 54       		.byte	0x54
 4425 02ea 42000000 		.4byte	.LVL19
 4426 02ee 72000000 		.4byte	.LVL28
 4427 02f2 0100     		.2byte	0x1
 4428 02f4 57       		.byte	0x57
 4429 02f5 74000000 		.4byte	.LVL29
 4430 02f9 76000000 		.4byte	.LVL30
 4431 02fd 0300     		.2byte	0x3
 4432 02ff 08       		.byte	0x8
 4433 0300 20       		.byte	0x20
 4434 0301 9F       		.byte	0x9f
 4435 0302 76000000 		.4byte	.LVL30
 4436 0306 78000000 		.4byte	.LVL32
 4437 030a 0100     		.2byte	0x1
 4438 030c 57       		.byte	0x57
 4439 030d 00000000 		.4byte	0
 4440 0311 00000000 		.4byte	0
ARM GAS  /tmp/cc1XYtGL.s 			page 79


 4441              	.LLST14:
 4442 0315 2E000000 		.4byte	.LVL15
 4443 0319 42000000 		.4byte	.LVL19
 4444 031d 0100     		.2byte	0x1
 4445 031f 54       		.byte	0x54
 4446 0320 4E000000 		.4byte	.LVL21
 4447 0324 58000000 		.4byte	.LVL22
 4448 0328 0100     		.2byte	0x1
 4449 032a 50       		.byte	0x50
 4450 032b 58000000 		.4byte	.LVL22
 4451 032f 66000000 		.4byte	.LVL25
 4452 0333 0100     		.2byte	0x1
 4453 0335 54       		.byte	0x54
 4454 0336 66000000 		.4byte	.LVL25
 4455 033a 6A000000 		.4byte	.LVL26
 4456 033e 0100     		.2byte	0x1
 4457 0340 50       		.byte	0x50
 4458 0341 6A000000 		.4byte	.LVL26
 4459 0345 76000000 		.4byte	.LVL30
 4460 0349 0100     		.2byte	0x1
 4461 034b 54       		.byte	0x54
 4462 034c 00000000 		.4byte	0
 4463 0350 00000000 		.4byte	0
 4464              	.LLST15:
 4465 0354 00000000 		.4byte	.LFB42
 4466 0358 02000000 		.4byte	.LCFI4
 4467 035c 0200     		.2byte	0x2
 4468 035e 7D       		.byte	0x7d
 4469 035f 00       		.sleb128 0
 4470 0360 02000000 		.4byte	.LCFI4
 4471 0364 08000000 		.4byte	.LCFI5
 4472 0368 0200     		.2byte	0x2
 4473 036a 7D       		.byte	0x7d
 4474 036b 14       		.sleb128 20
 4475 036c 08000000 		.4byte	.LCFI5
 4476 0370 0A000000 		.4byte	.LCFI6
 4477 0374 0200     		.2byte	0x2
 4478 0376 7D       		.byte	0x7d
 4479 0377 1C       		.sleb128 28
 4480 0378 0A000000 		.4byte	.LCFI6
 4481 037c 5C010000 		.4byte	.LFE42
 4482 0380 0200     		.2byte	0x2
 4483 0382 7D       		.byte	0x7d
 4484 0383 28       		.sleb128 40
 4485 0384 00000000 		.4byte	0
 4486 0388 00000000 		.4byte	0
 4487              	.LLST16:
 4488 038c 00000000 		.4byte	.LVL34
 4489 0390 1C000000 		.4byte	.LVL37
 4490 0394 0100     		.2byte	0x1
 4491 0396 50       		.byte	0x50
 4492 0397 1C000000 		.4byte	.LVL37
 4493 039b 36000000 		.4byte	.LVL39
 4494 039f 0100     		.2byte	0x1
 4495 03a1 58       		.byte	0x58
 4496 03a2 36000000 		.4byte	.LVL39
 4497 03a6 3B000000 		.4byte	.LVL40-1
ARM GAS  /tmp/cc1XYtGL.s 			page 80


 4498 03aa 0100     		.2byte	0x1
 4499 03ac 50       		.byte	0x50
 4500 03ad 3B000000 		.4byte	.LVL40-1
 4501 03b1 F2000000 		.4byte	.LVL64
 4502 03b5 0100     		.2byte	0x1
 4503 03b7 58       		.byte	0x58
 4504 03b8 F2000000 		.4byte	.LVL64
 4505 03bc FA000000 		.4byte	.LVL65
 4506 03c0 0400     		.2byte	0x4
 4507 03c2 F3       		.byte	0xf3
 4508 03c3 01       		.uleb128 0x1
 4509 03c4 50       		.byte	0x50
 4510 03c5 9F       		.byte	0x9f
 4511 03c6 FA000000 		.4byte	.LVL65
 4512 03ca 48010000 		.4byte	.LVL84
 4513 03ce 0100     		.2byte	0x1
 4514 03d0 58       		.byte	0x58
 4515 03d1 48010000 		.4byte	.LVL84
 4516 03d5 4F010000 		.4byte	.LVL85-1
 4517 03d9 0100     		.2byte	0x1
 4518 03db 50       		.byte	0x50
 4519 03dc 4F010000 		.4byte	.LVL85-1
 4520 03e0 5C010000 		.4byte	.LFE42
 4521 03e4 0100     		.2byte	0x1
 4522 03e6 58       		.byte	0x58
 4523 03e7 00000000 		.4byte	0
 4524 03eb 00000000 		.4byte	0
 4525              	.LLST17:
 4526 03ef 00000000 		.4byte	.LVL34
 4527 03f3 EE000000 		.4byte	.LVL63
 4528 03f7 0100     		.2byte	0x1
 4529 03f9 51       		.byte	0x51
 4530 03fa EE000000 		.4byte	.LVL63
 4531 03fe 5C010000 		.4byte	.LFE42
 4532 0402 0200     		.2byte	0x2
 4533 0404 91       		.byte	0x91
 4534 0405 5C       		.sleb128 -36
 4535 0406 00000000 		.4byte	0
 4536 040a 00000000 		.4byte	0
 4537              	.LLST18:
 4538 040e 00000000 		.4byte	.LVL34
 4539 0412 16000000 		.4byte	.LVL35
 4540 0416 0100     		.2byte	0x1
 4541 0418 52       		.byte	0x52
 4542 0419 00000000 		.4byte	0
 4543 041d 00000000 		.4byte	0
 4544              	.LLST19:
 4545 0421 00000000 		.4byte	.LVL34
 4546 0425 1A000000 		.4byte	.LVL36
 4547 0429 0100     		.2byte	0x1
 4548 042b 53       		.byte	0x53
 4549 042c 1A000000 		.4byte	.LVL36
 4550 0430 5C010000 		.4byte	.LFE42
 4551 0434 0400     		.2byte	0x4
 4552 0436 F3       		.byte	0xf3
 4553 0437 01       		.uleb128 0x1
 4554 0438 53       		.byte	0x53
ARM GAS  /tmp/cc1XYtGL.s 			page 81


 4555 0439 9F       		.byte	0x9f
 4556 043a 00000000 		.4byte	0
 4557 043e 00000000 		.4byte	0
 4558              	.LLST20:
 4559 0442 00000000 		.4byte	.LVL34
 4560 0446 36000000 		.4byte	.LVL39
 4561 044a 0200     		.2byte	0x2
 4562 044c 30       		.byte	0x30
 4563 044d 9F       		.byte	0x9f
 4564 044e 42000000 		.4byte	.LVL42
 4565 0452 74000000 		.4byte	.LVL45
 4566 0456 0100     		.2byte	0x1
 4567 0458 54       		.byte	0x54
 4568 0459 74000000 		.4byte	.LVL45
 4569 045d 76000000 		.4byte	.LVL46
 4570 0461 0100     		.2byte	0x1
 4571 0463 57       		.byte	0x57
 4572 0464 76000000 		.4byte	.LVL46
 4573 0468 78000000 		.4byte	.LVL47
 4574 046c 0100     		.2byte	0x1
 4575 046e 54       		.byte	0x54
 4576 046f 8A000000 		.4byte	.LVL50
 4577 0473 8E000000 		.4byte	.LVL51
 4578 0477 0100     		.2byte	0x1
 4579 0479 54       		.byte	0x54
 4580 047a AC000000 		.4byte	.LVL54
 4581 047e B6000000 		.4byte	.LVL56
 4582 0482 0100     		.2byte	0x1
 4583 0484 54       		.byte	0x54
 4584 0485 C0000000 		.4byte	.LVL58
 4585 0489 EA000000 		.4byte	.LVL62
 4586 048d 0100     		.2byte	0x1
 4587 048f 54       		.byte	0x54
 4588 0490 EA000000 		.4byte	.LVL62
 4589 0494 EE000000 		.4byte	.LVL63
 4590 0498 0100     		.2byte	0x1
 4591 049a 53       		.byte	0x53
 4592 049b 08010000 		.4byte	.LVL69
 4593 049f 0A010000 		.4byte	.LVL70
 4594 04a3 0100     		.2byte	0x1
 4595 04a5 50       		.byte	0x50
 4596 04a6 18010000 		.4byte	.LVL73
 4597 04aa 1A010000 		.4byte	.LVL74
 4598 04ae 0100     		.2byte	0x1
 4599 04b0 52       		.byte	0x52
 4600 04b1 1A010000 		.4byte	.LVL74
 4601 04b5 28010000 		.4byte	.LVL76
 4602 04b9 0100     		.2byte	0x1
 4603 04bb 54       		.byte	0x54
 4604 04bc 28010000 		.4byte	.LVL76
 4605 04c0 2A010000 		.4byte	.LVL77
 4606 04c4 0100     		.2byte	0x1
 4607 04c6 56       		.byte	0x56
 4608 04c7 2A010000 		.4byte	.LVL77
 4609 04cb 38010000 		.4byte	.LVL79
 4610 04cf 0100     		.2byte	0x1
 4611 04d1 54       		.byte	0x54
ARM GAS  /tmp/cc1XYtGL.s 			page 82


 4612 04d2 40010000 		.4byte	.LVL81
 4613 04d6 44010000 		.4byte	.LVL82
 4614 04da 0100     		.2byte	0x1
 4615 04dc 54       		.byte	0x54
 4616 04dd 44010000 		.4byte	.LVL82
 4617 04e1 46010000 		.4byte	.LVL83
 4618 04e5 0100     		.2byte	0x1
 4619 04e7 57       		.byte	0x57
 4620 04e8 46010000 		.4byte	.LVL83
 4621 04ec 48010000 		.4byte	.LVL84
 4622 04f0 0100     		.2byte	0x1
 4623 04f2 54       		.byte	0x54
 4624 04f3 48010000 		.4byte	.LVL84
 4625 04f7 54010000 		.4byte	.LVL86
 4626 04fb 0200     		.2byte	0x2
 4627 04fd 30       		.byte	0x30
 4628 04fe 9F       		.byte	0x9f
 4629 04ff 54010000 		.4byte	.LVL86
 4630 0503 5C010000 		.4byte	.LFE42
 4631 0507 0100     		.2byte	0x1
 4632 0509 50       		.byte	0x50
 4633 050a 00000000 		.4byte	0
 4634 050e 00000000 		.4byte	0
 4635              	.LLST21:
 4636 0512 00000000 		.4byte	.LVL34
 4637 0516 3E000000 		.4byte	.LVL41
 4638 051a 0200     		.2byte	0x2
 4639 051c 30       		.byte	0x30
 4640 051d 9F       		.byte	0x9f
 4641 051e 42000000 		.4byte	.LVL42
 4642 0522 74000000 		.4byte	.LVL45
 4643 0526 0200     		.2byte	0x2
 4644 0528 30       		.byte	0x30
 4645 0529 9F       		.byte	0x9f
 4646 052a 8A000000 		.4byte	.LVL50
 4647 052e 8E000000 		.4byte	.LVL51
 4648 0532 0200     		.2byte	0x2
 4649 0534 30       		.byte	0x30
 4650 0535 9F       		.byte	0x9f
 4651 0536 C0000000 		.4byte	.LVL58
 4652 053a EE000000 		.4byte	.LVL63
 4653 053e 0200     		.2byte	0x2
 4654 0540 30       		.byte	0x30
 4655 0541 9F       		.byte	0x9f
 4656 0542 08010000 		.4byte	.LVL69
 4657 0546 0A010000 		.4byte	.LVL70
 4658 054a 0300     		.2byte	0x3
 4659 054c 08       		.byte	0x8
 4660 054d 20       		.byte	0x20
 4661 054e 9F       		.byte	0x9f
 4662 054f 1A010000 		.4byte	.LVL74
 4663 0553 44010000 		.4byte	.LVL82
 4664 0557 0200     		.2byte	0x2
 4665 0559 30       		.byte	0x30
 4666 055a 9F       		.byte	0x9f
 4667 055b 48010000 		.4byte	.LVL84
 4668 055f 54010000 		.4byte	.LVL86
ARM GAS  /tmp/cc1XYtGL.s 			page 83


 4669 0563 0200     		.2byte	0x2
 4670 0565 30       		.byte	0x30
 4671 0566 9F       		.byte	0x9f
 4672 0567 54010000 		.4byte	.LVL86
 4673 056b 5C010000 		.4byte	.LFE42
 4674 056f 0300     		.2byte	0x3
 4675 0571 08       		.byte	0x8
 4676 0572 20       		.byte	0x20
 4677 0573 9F       		.byte	0x9f
 4678 0574 00000000 		.4byte	0
 4679 0578 00000000 		.4byte	0
 4680              	.LLST22:
 4681 057c 9E000000 		.4byte	.LVL53
 4682 0580 AC000000 		.4byte	.LVL54
 4683 0584 0100     		.2byte	0x1
 4684 0586 50       		.byte	0x50
 4685 0587 AC000000 		.4byte	.LVL54
 4686 058b B8000000 		.4byte	.LVL57
 4687 058f 0100     		.2byte	0x1
 4688 0591 56       		.byte	0x56
 4689 0592 FA000000 		.4byte	.LVL65
 4690 0596 FE000000 		.4byte	.LVL66
 4691 059a 0100     		.2byte	0x1
 4692 059c 50       		.byte	0x50
 4693 059d FE000000 		.4byte	.LVL66
 4694 05a1 06010000 		.4byte	.LVL68
 4695 05a5 0100     		.2byte	0x1
 4696 05a7 56       		.byte	0x56
 4697 05a8 0A010000 		.4byte	.LVL70
 4698 05ac 10010000 		.4byte	.LVL71
 4699 05b0 0100     		.2byte	0x1
 4700 05b2 50       		.byte	0x50
 4701 05b3 10010000 		.4byte	.LVL71
 4702 05b7 1A010000 		.4byte	.LVL74
 4703 05bb 0100     		.2byte	0x1
 4704 05bd 56       		.byte	0x56
 4705 05be 00000000 		.4byte	0
 4706 05c2 00000000 		.4byte	0
 4707              	.LLST23:
 4708 05c6 00000000 		.4byte	.LFB46
 4709 05ca 02000000 		.4byte	.LCFI7
 4710 05ce 0200     		.2byte	0x2
 4711 05d0 7D       		.byte	0x7d
 4712 05d1 00       		.sleb128 0
 4713 05d2 02000000 		.4byte	.LCFI7
 4714 05d6 0C000000 		.4byte	.LCFI8
 4715 05da 0200     		.2byte	0x2
 4716 05dc 7D       		.byte	0x7d
 4717 05dd 14       		.sleb128 20
 4718 05de 0C000000 		.4byte	.LCFI8
 4719 05e2 0E000000 		.4byte	.LCFI9
 4720 05e6 0200     		.2byte	0x2
 4721 05e8 7D       		.byte	0x7d
 4722 05e9 24       		.sleb128 36
 4723 05ea 0E000000 		.4byte	.LCFI9
 4724 05ee B4030000 		.4byte	.LFE46
 4725 05f2 0300     		.2byte	0x3
ARM GAS  /tmp/cc1XYtGL.s 			page 84


 4726 05f4 7D       		.byte	0x7d
 4727 05f5 D000     		.sleb128 80
 4728 05f7 00000000 		.4byte	0
 4729 05fb 00000000 		.4byte	0
 4730              	.LLST24:
 4731 05ff 00000000 		.4byte	.LVL87
 4732 0603 28000000 		.4byte	.LVL92
 4733 0607 0100     		.2byte	0x1
 4734 0609 50       		.byte	0x50
 4735 060a 28000000 		.4byte	.LVL92
 4736 060e CC000000 		.4byte	.LVL105
 4737 0612 0100     		.2byte	0x1
 4738 0614 55       		.byte	0x55
 4739 0615 CC000000 		.4byte	.LVL105
 4740 0619 D8000000 		.4byte	.LVL106
 4741 061d 0400     		.2byte	0x4
 4742 061f F3       		.byte	0xf3
 4743 0620 01       		.uleb128 0x1
 4744 0621 50       		.byte	0x50
 4745 0622 9F       		.byte	0x9f
 4746 0623 D8000000 		.4byte	.LVL106
 4747 0627 A8010000 		.4byte	.LVL129
 4748 062b 0100     		.2byte	0x1
 4749 062d 55       		.byte	0x55
 4750 062e A8010000 		.4byte	.LVL129
 4751 0632 AD010000 		.4byte	.LVL130-1
 4752 0636 0100     		.2byte	0x1
 4753 0638 50       		.byte	0x50
 4754 0639 AD010000 		.4byte	.LVL130-1
 4755 063d F8010000 		.4byte	.LVL141
 4756 0641 0100     		.2byte	0x1
 4757 0643 55       		.byte	0x55
 4758 0644 F8010000 		.4byte	.LVL141
 4759 0648 FD010000 		.4byte	.LVL142-1
 4760 064c 0100     		.2byte	0x1
 4761 064e 50       		.byte	0x50
 4762 064f FD010000 		.4byte	.LVL142-1
 4763 0653 76020000 		.4byte	.LVL152
 4764 0657 0100     		.2byte	0x1
 4765 0659 55       		.byte	0x55
 4766 065a 76020000 		.4byte	.LVL152
 4767 065e 7B020000 		.4byte	.LVL153-1
 4768 0662 0100     		.2byte	0x1
 4769 0664 50       		.byte	0x50
 4770 0665 7B020000 		.4byte	.LVL153-1
 4771 0669 78030000 		.4byte	.LVL186
 4772 066d 0100     		.2byte	0x1
 4773 066f 55       		.byte	0x55
 4774 0670 78030000 		.4byte	.LVL186
 4775 0674 7D030000 		.4byte	.LVL187-1
 4776 0678 0100     		.2byte	0x1
 4777 067a 50       		.byte	0x50
 4778 067b 7D030000 		.4byte	.LVL187-1
 4779 067f B4030000 		.4byte	.LFE46
 4780 0683 0100     		.2byte	0x1
 4781 0685 55       		.byte	0x55
 4782 0686 00000000 		.4byte	0
ARM GAS  /tmp/cc1XYtGL.s 			page 85


 4783 068a 00000000 		.4byte	0
 4784              	.LLST25:
 4785 068e 00000000 		.4byte	.LVL87
 4786 0692 2A000000 		.4byte	.LVL93
 4787 0696 0100     		.2byte	0x1
 4788 0698 51       		.byte	0x51
 4789 0699 2A000000 		.4byte	.LVL93
 4790 069d CA000000 		.4byte	.LVL104
 4791 06a1 0400     		.2byte	0x4
 4792 06a3 F3       		.byte	0xf3
 4793 06a4 01       		.uleb128 0x1
 4794 06a5 51       		.byte	0x51
 4795 06a6 9F       		.byte	0x9f
 4796 06a7 D8000000 		.4byte	.LVL106
 4797 06ab 28030000 		.4byte	.LVL179
 4798 06af 0400     		.2byte	0x4
 4799 06b1 F3       		.byte	0xf3
 4800 06b2 01       		.uleb128 0x1
 4801 06b3 51       		.byte	0x51
 4802 06b4 9F       		.byte	0x9f
 4803 06b5 28030000 		.4byte	.LVL179
 4804 06b9 40030000 		.4byte	.LVL181
 4805 06bd 0100     		.2byte	0x1
 4806 06bf 57       		.byte	0x57
 4807 06c0 40030000 		.4byte	.LVL181
 4808 06c4 B4030000 		.4byte	.LFE46
 4809 06c8 0400     		.2byte	0x4
 4810 06ca F3       		.byte	0xf3
 4811 06cb 01       		.uleb128 0x1
 4812 06cc 51       		.byte	0x51
 4813 06cd 9F       		.byte	0x9f
 4814 06ce 00000000 		.4byte	0
 4815 06d2 00000000 		.4byte	0
 4816              	.LLST26:
 4817 06d6 00000000 		.4byte	.LVL87
 4818 06da 16000000 		.4byte	.LVL89
 4819 06de 0100     		.2byte	0x1
 4820 06e0 52       		.byte	0x52
 4821 06e1 16000000 		.4byte	.LVL89
 4822 06e5 B4030000 		.4byte	.LFE46
 4823 06e9 0400     		.2byte	0x4
 4824 06eb F3       		.byte	0xf3
 4825 06ec 01       		.uleb128 0x1
 4826 06ed 52       		.byte	0x52
 4827 06ee 9F       		.byte	0x9f
 4828 06ef 00000000 		.4byte	0
 4829 06f3 00000000 		.4byte	0
 4830              	.LLST27:
 4831 06f7 00000000 		.4byte	.LVL87
 4832 06fb 12000000 		.4byte	.LVL88
 4833 06ff 0100     		.2byte	0x1
 4834 0701 53       		.byte	0x53
 4835 0702 12000000 		.4byte	.LVL88
 4836 0706 B4030000 		.4byte	.LFE46
 4837 070a 0400     		.2byte	0x4
 4838 070c F3       		.byte	0xf3
 4839 070d 01       		.uleb128 0x1
ARM GAS  /tmp/cc1XYtGL.s 			page 86


 4840 070e 53       		.byte	0x53
 4841 070f 9F       		.byte	0x9f
 4842 0710 00000000 		.4byte	0
 4843 0714 00000000 		.4byte	0
 4844              	.LLST28:
 4845 0718 00000000 		.4byte	.LVL87
 4846 071c BA000000 		.4byte	.LVL103
 4847 0720 0200     		.2byte	0x2
 4848 0722 91       		.byte	0x91
 4849 0723 04       		.sleb128 4
 4850 0724 00000000 		.4byte	0
 4851 0728 00000000 		.4byte	0
 4852              	.LLST29:
 4853 072c 18030000 		.4byte	.LVL177
 4854 0730 20030000 		.4byte	.LVL178
 4855 0734 0100     		.2byte	0x1
 4856 0736 50       		.byte	0x50
 4857 0737 00000000 		.4byte	0
 4858 073b 00000000 		.4byte	0
 4859              	.LLST30:
 4860 073f 1E000000 		.4byte	.LVL90
 4861 0743 24000000 		.4byte	.LVL91
 4862 0747 0200     		.2byte	0x2
 4863 0749 73       		.byte	0x73
 4864 074a 00       		.sleb128 0
 4865 074b 00000000 		.4byte	0
 4866 074f 00000000 		.4byte	0
 4867              	.LLST31:
 4868 0753 1E000000 		.4byte	.LVL90
 4869 0757 5E000000 		.4byte	.LVL96
 4870 075b 0200     		.2byte	0x2
 4871 075d 30       		.byte	0x30
 4872 075e 9F       		.byte	0x9f
 4873 075f 6C000000 		.4byte	.LVL97
 4874 0763 8A000000 		.4byte	.LVL99
 4875 0767 0200     		.2byte	0x2
 4876 0769 30       		.byte	0x30
 4877 076a 9F       		.byte	0x9f
 4878 076b 98000000 		.4byte	.LVL100
 4879 076f BA000000 		.4byte	.LVL103
 4880 0773 0200     		.2byte	0x2
 4881 0775 30       		.byte	0x30
 4882 0776 9F       		.byte	0x9f
 4883 0777 00000000 		.4byte	0
 4884 077b 00000000 		.4byte	0
 4885              	.LLST32:
 4886 077f 1E000000 		.4byte	.LVL90
 4887 0783 54000000 		.4byte	.LVL95
 4888 0787 0200     		.2byte	0x2
 4889 0789 30       		.byte	0x30
 4890 078a 9F       		.byte	0x9f
 4891 078b 00000000 		.4byte	0
 4892 078f 00000000 		.4byte	0
 4893              	.LLST33:
 4894 0793 1E000000 		.4byte	.LVL90
 4895 0797 24000000 		.4byte	.LVL91
 4896 079b 0200     		.2byte	0x2
ARM GAS  /tmp/cc1XYtGL.s 			page 87


 4897 079d 30       		.byte	0x30
 4898 079e 9F       		.byte	0x9f
 4899 079f 9C000000 		.4byte	.LVL101
 4900 07a3 B2000000 		.4byte	.LVL102
 4901 07a7 0100     		.2byte	0x1
 4902 07a9 50       		.byte	0x50
 4903 07aa 00000000 		.4byte	0
 4904 07ae 00000000 		.4byte	0
 4905              	.LLST34:
 4906 07b2 F4000000 		.4byte	.LVL109
 4907 07b6 0C030000 		.4byte	.LVL176
 4908 07ba 0200     		.2byte	0x2
 4909 07bc 91       		.byte	0x91
 4910 07bd 0C       		.sleb128 12
 4911 07be 40030000 		.4byte	.LVL181
 4912 07c2 B4030000 		.4byte	.LFE46
 4913 07c6 0200     		.2byte	0x2
 4914 07c8 91       		.byte	0x91
 4915 07c9 0C       		.sleb128 12
 4916 07ca 00000000 		.4byte	0
 4917 07ce 00000000 		.4byte	0
 4918              	.LLST35:
 4919 07d2 F4000000 		.4byte	.LVL109
 4920 07d6 0C030000 		.4byte	.LVL176
 4921 07da 0200     		.2byte	0x2
 4922 07dc 91       		.byte	0x91
 4923 07dd 08       		.sleb128 8
 4924 07de 40030000 		.4byte	.LVL181
 4925 07e2 B4030000 		.4byte	.LFE46
 4926 07e6 0200     		.2byte	0x2
 4927 07e8 91       		.byte	0x91
 4928 07e9 08       		.sleb128 8
 4929 07ea 00000000 		.4byte	0
 4930 07ee 00000000 		.4byte	0
 4931              	.LLST36:
 4932 07f2 F4000000 		.4byte	.LVL109
 4933 07f6 0C030000 		.4byte	.LVL176
 4934 07fa 0100     		.2byte	0x1
 4935 07fc 54       		.byte	0x54
 4936 07fd 40030000 		.4byte	.LVL181
 4937 0801 B4030000 		.4byte	.LFE46
 4938 0805 0100     		.2byte	0x1
 4939 0807 54       		.byte	0x54
 4940 0808 00000000 		.4byte	0
 4941 080c 00000000 		.4byte	0
 4942              	.LLST37:
 4943 0810 CA000000 		.4byte	.LVL104
 4944 0814 D8000000 		.4byte	.LVL106
 4945 0818 0200     		.2byte	0x2
 4946 081a 91       		.byte	0x91
 4947 081b 50       		.sleb128 -48
 4948 081c F4000000 		.4byte	.LVL109
 4949 0820 0C030000 		.4byte	.LVL176
 4950 0824 0200     		.2byte	0x2
 4951 0826 91       		.byte	0x91
 4952 0827 50       		.sleb128 -48
 4953 0828 40030000 		.4byte	.LVL181
ARM GAS  /tmp/cc1XYtGL.s 			page 88


 4954 082c B4030000 		.4byte	.LFE46
 4955 0830 0200     		.2byte	0x2
 4956 0832 91       		.byte	0x91
 4957 0833 50       		.sleb128 -48
 4958 0834 00000000 		.4byte	0
 4959 0838 00000000 		.4byte	0
 4960              	.LLST38:
 4961 083c F0000000 		.4byte	.LVL108
 4962 0840 0C030000 		.4byte	.LVL176
 4963 0844 0100     		.2byte	0x1
 4964 0846 58       		.byte	0x58
 4965 0847 40030000 		.4byte	.LVL181
 4966 084b B4030000 		.4byte	.LFE46
 4967 084f 0100     		.2byte	0x1
 4968 0851 58       		.byte	0x58
 4969 0852 00000000 		.4byte	0
 4970 0856 00000000 		.4byte	0
 4971              	.LLST39:
 4972 085a F0000000 		.4byte	.LVL108
 4973 085e 48010000 		.4byte	.LVL116
 4974 0862 0100     		.2byte	0x1
 4975 0864 5B       		.byte	0x5b
 4976 0865 00000000 		.4byte	0
 4977 0869 00000000 		.4byte	0
 4978              	.LLST40:
 4979 086d F0000000 		.4byte	.LVL108
 4980 0871 A8010000 		.4byte	.LVL129
 4981 0875 0100     		.2byte	0x1
 4982 0877 55       		.byte	0x55
 4983 0878 A8010000 		.4byte	.LVL129
 4984 087c AD010000 		.4byte	.LVL130-1
 4985 0880 0100     		.2byte	0x1
 4986 0882 50       		.byte	0x50
 4987 0883 AD010000 		.4byte	.LVL130-1
 4988 0887 F8010000 		.4byte	.LVL141
 4989 088b 0100     		.2byte	0x1
 4990 088d 55       		.byte	0x55
 4991 088e F8010000 		.4byte	.LVL141
 4992 0892 FD010000 		.4byte	.LVL142-1
 4993 0896 0100     		.2byte	0x1
 4994 0898 50       		.byte	0x50
 4995 0899 FD010000 		.4byte	.LVL142-1
 4996 089d 76020000 		.4byte	.LVL152
 4997 08a1 0100     		.2byte	0x1
 4998 08a3 55       		.byte	0x55
 4999 08a4 76020000 		.4byte	.LVL152
 5000 08a8 7B020000 		.4byte	.LVL153-1
 5001 08ac 0100     		.2byte	0x1
 5002 08ae 50       		.byte	0x50
 5003 08af 7B020000 		.4byte	.LVL153-1
 5004 08b3 0C030000 		.4byte	.LVL176
 5005 08b7 0100     		.2byte	0x1
 5006 08b9 55       		.byte	0x55
 5007 08ba 40030000 		.4byte	.LVL181
 5008 08be 78030000 		.4byte	.LVL186
 5009 08c2 0100     		.2byte	0x1
 5010 08c4 55       		.byte	0x55
ARM GAS  /tmp/cc1XYtGL.s 			page 89


 5011 08c5 78030000 		.4byte	.LVL186
 5012 08c9 7D030000 		.4byte	.LVL187-1
 5013 08cd 0100     		.2byte	0x1
 5014 08cf 50       		.byte	0x50
 5015 08d0 7D030000 		.4byte	.LVL187-1
 5016 08d4 B4030000 		.4byte	.LFE46
 5017 08d8 0100     		.2byte	0x1
 5018 08da 55       		.byte	0x55
 5019 08db 00000000 		.4byte	0
 5020 08df 00000000 		.4byte	0
 5021              	.LLST41:
 5022 08e3 72010000 		.4byte	.LVL122
 5023 08e7 78010000 		.4byte	.LVL123
 5024 08eb 0100     		.2byte	0x1
 5025 08ed 52       		.byte	0x52
 5026 08ee 78010000 		.4byte	.LVL123
 5027 08f2 B8010000 		.4byte	.LVL131
 5028 08f6 0100     		.2byte	0x1
 5029 08f8 59       		.byte	0x59
 5030 08f9 C2010000 		.4byte	.LVL132
 5031 08fd E0010000 		.4byte	.LVL136
 5032 0901 0100     		.2byte	0x1
 5033 0903 59       		.byte	0x59
 5034 0904 08020000 		.4byte	.LVL143
 5035 0908 10020000 		.4byte	.LVL144
 5036 090c 0100     		.2byte	0x1
 5037 090e 52       		.byte	0x52
 5038 090f 58020000 		.4byte	.LVL150
 5039 0913 76020000 		.4byte	.LVL152
 5040 0917 0100     		.2byte	0x1
 5041 0919 59       		.byte	0x59
 5042 091a E4020000 		.4byte	.LVL168
 5043 091e E8020000 		.4byte	.LVL169
 5044 0922 0100     		.2byte	0x1
 5045 0924 52       		.byte	0x52
 5046 0925 E8020000 		.4byte	.LVL169
 5047 0929 F6020000 		.4byte	.LVL171
 5048 092d 0100     		.2byte	0x1
 5049 092f 59       		.byte	0x59
 5050 0930 0A030000 		.4byte	.LVL175
 5051 0934 0C030000 		.4byte	.LVL176
 5052 0938 0100     		.2byte	0x1
 5053 093a 52       		.byte	0x52
 5054 093b 78030000 		.4byte	.LVL186
 5055 093f A0030000 		.4byte	.LVL190
 5056 0943 0100     		.2byte	0x1
 5057 0945 59       		.byte	0x59
 5058 0946 B2030000 		.4byte	.LVL192
 5059 094a B4030000 		.4byte	.LFE46
 5060 094e 0100     		.2byte	0x1
 5061 0950 52       		.byte	0x52
 5062 0951 00000000 		.4byte	0
 5063 0955 00000000 		.4byte	0
 5064              	.LLST42:
 5065 0959 F4000000 		.4byte	.LVL109
 5066 095d 1C010000 		.4byte	.LVL112
 5067 0961 0200     		.2byte	0x2
ARM GAS  /tmp/cc1XYtGL.s 			page 90


 5068 0963 30       		.byte	0x30
 5069 0964 9F       		.byte	0x9f
 5070 0965 28010000 		.4byte	.LVL113
 5071 0969 34010000 		.4byte	.LVL115
 5072 096d 0200     		.2byte	0x2
 5073 096f 30       		.byte	0x30
 5074 0970 9F       		.byte	0x9f
 5075 0971 5A010000 		.4byte	.LVL120
 5076 0975 84010000 		.4byte	.LVL126
 5077 0979 0200     		.2byte	0x2
 5078 097b 30       		.byte	0x30
 5079 097c 9F       		.byte	0x9f
 5080 097d 84010000 		.4byte	.LVL126
 5081 0981 D2010000 		.4byte	.LVL134
 5082 0985 0200     		.2byte	0x2
 5083 0987 91       		.byte	0x91
 5084 0988 44       		.sleb128 -60
 5085 0989 DA010000 		.4byte	.LVL135
 5086 098d D4020000 		.4byte	.LVL165
 5087 0991 0200     		.2byte	0x2
 5088 0993 91       		.byte	0x91
 5089 0994 44       		.sleb128 -60
 5090 0995 E4020000 		.4byte	.LVL168
 5091 0999 0C030000 		.4byte	.LVL176
 5092 099d 0200     		.2byte	0x2
 5093 099f 91       		.byte	0x91
 5094 09a0 44       		.sleb128 -60
 5095 09a1 40030000 		.4byte	.LVL181
 5096 09a5 78030000 		.4byte	.LVL186
 5097 09a9 0200     		.2byte	0x2
 5098 09ab 30       		.byte	0x30
 5099 09ac 9F       		.byte	0x9f
 5100 09ad 78030000 		.4byte	.LVL186
 5101 09b1 B4030000 		.4byte	.LFE46
 5102 09b5 0200     		.2byte	0x2
 5103 09b7 91       		.byte	0x91
 5104 09b8 44       		.sleb128 -60
 5105 09b9 00000000 		.4byte	0
 5106 09bd 00000000 		.4byte	0
 5107              	.LLST43:
 5108 09c1 F2010000 		.4byte	.LVL139
 5109 09c5 F4010000 		.4byte	.LVL140
 5110 09c9 0100     		.2byte	0x1
 5111 09cb 50       		.byte	0x50
 5112 09cc F4010000 		.4byte	.LVL140
 5113 09d0 20020000 		.4byte	.LVL146
 5114 09d4 0100     		.2byte	0x1
 5115 09d6 57       		.byte	0x57
 5116 09d7 76020000 		.4byte	.LVL152
 5117 09db 80020000 		.4byte	.LVL154
 5118 09df 0100     		.2byte	0x1
 5119 09e1 57       		.byte	0x57
 5120 09e2 E4020000 		.4byte	.LVL168
 5121 09e6 F8020000 		.4byte	.LVL172
 5122 09ea 0100     		.2byte	0x1
 5123 09ec 57       		.byte	0x57
 5124 09ed 00000000 		.4byte	0
ARM GAS  /tmp/cc1XYtGL.s 			page 91


 5125 09f1 00000000 		.4byte	0
 5126              	.LLST44:
 5127 09f5 F4000000 		.4byte	.LVL109
 5128 09f9 7E010000 		.4byte	.LVL124
 5129 09fd 0200     		.2byte	0x2
 5130 09ff 30       		.byte	0x30
 5131 0a00 9F       		.byte	0x9f
 5132 0a01 1E020000 		.4byte	.LVL145
 5133 0a05 20020000 		.4byte	.LVL146
 5134 0a09 0100     		.2byte	0x1
 5135 0a0b 57       		.byte	0x57
 5136 0a0c 20020000 		.4byte	.LVL146
 5137 0a10 66020000 		.4byte	.LVL151
 5138 0a14 0100     		.2byte	0x1
 5139 0a16 5A       		.byte	0x5a
 5140 0a17 A8020000 		.4byte	.LVL160
 5141 0a1b AC020000 		.4byte	.LVL161
 5142 0a1f 0300     		.2byte	0x3
 5143 0a21 08       		.byte	0x8
 5144 0a22 20       		.byte	0x20
 5145 0a23 9F       		.byte	0x9f
 5146 0a24 AC020000 		.4byte	.LVL161
 5147 0a28 D0020000 		.4byte	.LVL164
 5148 0a2c 0100     		.2byte	0x1
 5149 0a2e 5A       		.byte	0x5a
 5150 0a2f E0020000 		.4byte	.LVL167
 5151 0a33 E4020000 		.4byte	.LVL168
 5152 0a37 0300     		.2byte	0x3
 5153 0a39 08       		.byte	0x8
 5154 0a3a 20       		.byte	0x20
 5155 0a3b 9F       		.byte	0x9f
 5156 0a3c F8020000 		.4byte	.LVL172
 5157 0a40 FA020000 		.4byte	.LVL173
 5158 0a44 0100     		.2byte	0x1
 5159 0a46 51       		.byte	0x51
 5160 0a47 FA020000 		.4byte	.LVL173
 5161 0a4b 0C030000 		.4byte	.LVL176
 5162 0a4f 0100     		.2byte	0x1
 5163 0a51 5A       		.byte	0x5a
 5164 0a52 40030000 		.4byte	.LVL181
 5165 0a56 74030000 		.4byte	.LVL185
 5166 0a5a 0200     		.2byte	0x2
 5167 0a5c 30       		.byte	0x30
 5168 0a5d 9F       		.byte	0x9f
 5169 0a5e 74030000 		.4byte	.LVL185
 5170 0a62 78030000 		.4byte	.LVL186
 5171 0a66 0300     		.2byte	0x3
 5172 0a68 08       		.byte	0x8
 5173 0a69 20       		.byte	0x20
 5174 0a6a 9F       		.byte	0x9f
 5175 0a6b 00000000 		.4byte	0
 5176 0a6f 00000000 		.4byte	0
 5177              	.LLST45:
 5178 0a73 CA000000 		.4byte	.LVL104
 5179 0a77 D8000000 		.4byte	.LVL106
 5180 0a7b 0200     		.2byte	0x2
 5181 0a7d 91       		.byte	0x91
ARM GAS  /tmp/cc1XYtGL.s 			page 92


 5182 0a7e 54       		.sleb128 -44
 5183 0a7f 54010000 		.4byte	.LVL118
 5184 0a83 0C030000 		.4byte	.LVL176
 5185 0a87 0200     		.2byte	0x2
 5186 0a89 91       		.byte	0x91
 5187 0a8a 54       		.sleb128 -44
 5188 0a8b 40030000 		.4byte	.LVL181
 5189 0a8f B4030000 		.4byte	.LFE46
 5190 0a93 0200     		.2byte	0x2
 5191 0a95 91       		.byte	0x91
 5192 0a96 54       		.sleb128 -44
 5193 0a97 00000000 		.4byte	0
 5194 0a9b 00000000 		.4byte	0
 5195              	.LLST46:
 5196 0a9f 76020000 		.4byte	.LVL152
 5197 0aa3 90020000 		.4byte	.LVL156
 5198 0aa7 0100     		.2byte	0x1
 5199 0aa9 59       		.byte	0x59
 5200 0aaa 90020000 		.4byte	.LVL156
 5201 0aae 9F020000 		.4byte	.LVL158-1
 5202 0ab2 0100     		.2byte	0x1
 5203 0ab4 52       		.byte	0x52
 5204 0ab5 E0020000 		.4byte	.LVL167
 5205 0ab9 E4020000 		.4byte	.LVL168
 5206 0abd 0100     		.2byte	0x1
 5207 0abf 51       		.byte	0x51
 5208 0ac0 74030000 		.4byte	.LVL185
 5209 0ac4 78030000 		.4byte	.LVL186
 5210 0ac8 0100     		.2byte	0x1
 5211 0aca 51       		.byte	0x51
 5212 0acb 78030000 		.4byte	.LVL186
 5213 0acf 92030000 		.4byte	.LVL189
 5214 0ad3 0100     		.2byte	0x1
 5215 0ad5 59       		.byte	0x59
 5216 0ad6 00000000 		.4byte	0
 5217 0ada 00000000 		.4byte	0
 5218              	.LLST47:
 5219 0ade 76020000 		.4byte	.LVL152
 5220 0ae2 7B020000 		.4byte	.LVL153-1
 5221 0ae6 0100     		.2byte	0x1
 5222 0ae8 50       		.byte	0x50
 5223 0ae9 7B020000 		.4byte	.LVL153-1
 5224 0aed E4020000 		.4byte	.LVL168
 5225 0af1 0100     		.2byte	0x1
 5226 0af3 55       		.byte	0x55
 5227 0af4 40030000 		.4byte	.LVL181
 5228 0af8 78030000 		.4byte	.LVL186
 5229 0afc 0100     		.2byte	0x1
 5230 0afe 55       		.byte	0x55
 5231 0aff 78030000 		.4byte	.LVL186
 5232 0b03 7D030000 		.4byte	.LVL187-1
 5233 0b07 0100     		.2byte	0x1
 5234 0b09 50       		.byte	0x50
 5235 0b0a 7D030000 		.4byte	.LVL187-1
 5236 0b0e A0030000 		.4byte	.LVL190
 5237 0b12 0100     		.2byte	0x1
 5238 0b14 55       		.byte	0x55
ARM GAS  /tmp/cc1XYtGL.s 			page 93


 5239 0b15 00000000 		.4byte	0
 5240 0b19 00000000 		.4byte	0
 5241              	.LLST48:
 5242 0b1d 90020000 		.4byte	.LVL156
 5243 0b21 A4020000 		.4byte	.LVL159
 5244 0b25 0100     		.2byte	0x1
 5245 0b27 57       		.byte	0x57
 5246 0b28 00000000 		.4byte	0
 5247 0b2c 00000000 		.4byte	0
 5248              	.LLST49:
 5249 0b30 90020000 		.4byte	.LVL156
 5250 0b34 9A020000 		.4byte	.LVL157
 5251 0b38 0E00     		.2byte	0xe
 5252 0b3a 75       		.byte	0x75
 5253 0b3b 0C       		.sleb128 12
 5254 0b3c 94       		.byte	0x94
 5255 0b3d 01       		.byte	0x1
 5256 0b3e 08       		.byte	0x8
 5257 0b3f FF       		.byte	0xff
 5258 0b40 1A       		.byte	0x1a
 5259 0b41 7B       		.byte	0x7b
 5260 0b42 00       		.sleb128 0
 5261 0b43 22       		.byte	0x22
 5262 0b44 71       		.byte	0x71
 5263 0b45 00       		.sleb128 0
 5264 0b46 1C       		.byte	0x1c
 5265 0b47 9F       		.byte	0x9f
 5266 0b48 9A020000 		.4byte	.LVL157
 5267 0b4c 9F020000 		.4byte	.LVL158-1
 5268 0b50 0E00     		.2byte	0xe
 5269 0b52 75       		.byte	0x75
 5270 0b53 0C       		.sleb128 12
 5271 0b54 94       		.byte	0x94
 5272 0b55 01       		.byte	0x1
 5273 0b56 08       		.byte	0x8
 5274 0b57 FF       		.byte	0xff
 5275 0b58 1A       		.byte	0x1a
 5276 0b59 7B       		.byte	0x7b
 5277 0b5a 00       		.sleb128 0
 5278 0b5b 22       		.byte	0x22
 5279 0b5c 72       		.byte	0x72
 5280 0b5d 00       		.sleb128 0
 5281 0b5e 1C       		.byte	0x1c
 5282 0b5f 9F       		.byte	0x9f
 5283 0b60 00000000 		.4byte	0
 5284 0b64 00000000 		.4byte	0
 5285              	.LLST50:
 5286 0b68 00000000 		.4byte	.LFB47
 5287 0b6c 02000000 		.4byte	.LCFI10
 5288 0b70 0200     		.2byte	0x2
 5289 0b72 7D       		.byte	0x7d
 5290 0b73 00       		.sleb128 0
 5291 0b74 02000000 		.4byte	.LCFI10
 5292 0b78 04000000 		.4byte	.LCFI11
 5293 0b7c 0200     		.2byte	0x2
 5294 0b7e 7D       		.byte	0x7d
 5295 0b7f 08       		.sleb128 8
ARM GAS  /tmp/cc1XYtGL.s 			page 94


 5296 0b80 04000000 		.4byte	.LCFI11
 5297 0b84 20000000 		.4byte	.LFE47
 5298 0b88 0200     		.2byte	0x2
 5299 0b8a 7D       		.byte	0x7d
 5300 0b8b 18       		.sleb128 24
 5301 0b8c 00000000 		.4byte	0
 5302 0b90 00000000 		.4byte	0
 5303              	.LLST51:
 5304 0b94 00000000 		.4byte	.LVL193
 5305 0b98 1B000000 		.4byte	.LVL195-1
 5306 0b9c 0100     		.2byte	0x1
 5307 0b9e 50       		.byte	0x50
 5308 0b9f 1B000000 		.4byte	.LVL195-1
 5309 0ba3 20000000 		.4byte	.LFE47
 5310 0ba7 0400     		.2byte	0x4
 5311 0ba9 F3       		.byte	0xf3
 5312 0baa 01       		.uleb128 0x1
 5313 0bab 50       		.byte	0x50
 5314 0bac 9F       		.byte	0x9f
 5315 0bad 00000000 		.4byte	0
 5316 0bb1 00000000 		.4byte	0
 5317              	.LLST52:
 5318 0bb5 00000000 		.4byte	.LVL193
 5319 0bb9 1B000000 		.4byte	.LVL195-1
 5320 0bbd 0100     		.2byte	0x1
 5321 0bbf 51       		.byte	0x51
 5322 0bc0 1B000000 		.4byte	.LVL195-1
 5323 0bc4 20000000 		.4byte	.LFE47
 5324 0bc8 0400     		.2byte	0x4
 5325 0bca F3       		.byte	0xf3
 5326 0bcb 01       		.uleb128 0x1
 5327 0bcc 51       		.byte	0x51
 5328 0bcd 9F       		.byte	0x9f
 5329 0bce 00000000 		.4byte	0
 5330 0bd2 00000000 		.4byte	0
 5331              	.LLST53:
 5332 0bd6 00000000 		.4byte	.LVL193
 5333 0bda 1B000000 		.4byte	.LVL195-1
 5334 0bde 0100     		.2byte	0x1
 5335 0be0 52       		.byte	0x52
 5336 0be1 1B000000 		.4byte	.LVL195-1
 5337 0be5 20000000 		.4byte	.LFE47
 5338 0be9 0400     		.2byte	0x4
 5339 0beb F3       		.byte	0xf3
 5340 0bec 01       		.uleb128 0x1
 5341 0bed 52       		.byte	0x52
 5342 0bee 9F       		.byte	0x9f
 5343 0bef 00000000 		.4byte	0
 5344 0bf3 00000000 		.4byte	0
 5345              	.LLST54:
 5346 0bf7 00000000 		.4byte	.LVL193
 5347 0bfb 06000000 		.4byte	.LVL194
 5348 0bff 0100     		.2byte	0x1
 5349 0c01 53       		.byte	0x53
 5350 0c02 06000000 		.4byte	.LVL194
 5351 0c06 20000000 		.4byte	.LFE47
 5352 0c0a 0400     		.2byte	0x4
ARM GAS  /tmp/cc1XYtGL.s 			page 95


 5353 0c0c F3       		.byte	0xf3
 5354 0c0d 01       		.uleb128 0x1
 5355 0c0e 53       		.byte	0x53
 5356 0c0f 9F       		.byte	0x9f
 5357 0c10 00000000 		.4byte	0
 5358 0c14 00000000 		.4byte	0
 5359              		.section	.debug_aranges,"",%progbits
 5360 0000 3C000000 		.4byte	0x3c
 5361 0004 0200     		.2byte	0x2
 5362 0006 00000000 		.4byte	.Ldebug_info0
 5363 000a 04       		.byte	0x4
 5364 000b 00       		.byte	0
 5365 000c 0000     		.2byte	0
 5366 000e 0000     		.2byte	0
 5367 0010 00000000 		.4byte	.LFB40
 5368 0014 34000000 		.4byte	.LFE40-.LFB40
 5369 0018 00000000 		.4byte	.LFB44
 5370 001c 84000000 		.4byte	.LFE44-.LFB44
 5371 0020 00000000 		.4byte	.LFB42
 5372 0024 5C010000 		.4byte	.LFE42-.LFB42
 5373 0028 00000000 		.4byte	.LFB46
 5374 002c B4030000 		.4byte	.LFE46-.LFB46
 5375 0030 00000000 		.4byte	.LFB47
 5376 0034 20000000 		.4byte	.LFE47-.LFB47
 5377 0038 00000000 		.4byte	0
 5378 003c 00000000 		.4byte	0
 5379              		.section	.debug_ranges,"",%progbits
 5380              	.Ldebug_ranges0:
 5381 0000 F4000000 		.4byte	.LBB10
 5382 0004 0C030000 		.4byte	.LBE10
 5383 0008 40030000 		.4byte	.LBB21
 5384 000c B4030000 		.4byte	.LBE21
 5385 0010 00000000 		.4byte	0
 5386 0014 00000000 		.4byte	0
 5387 0018 F4000000 		.4byte	.LBB11
 5388 001c 0C030000 		.4byte	.LBE11
 5389 0020 40030000 		.4byte	.LBB20
 5390 0024 B4030000 		.4byte	.LBE20
 5391 0028 00000000 		.4byte	0
 5392 002c 00000000 		.4byte	0
 5393 0030 A0010000 		.4byte	.LBB12
 5394 0034 A2010000 		.4byte	.LBE12
 5395 0038 F2010000 		.4byte	.LBB17
 5396 003c F4010000 		.4byte	.LBE17
 5397 0040 76020000 		.4byte	.LBB18
 5398 0044 E4020000 		.4byte	.LBE18
 5399 0048 40030000 		.4byte	.LBB19
 5400 004c A0030000 		.4byte	.LBE19
 5401 0050 00000000 		.4byte	0
 5402 0054 00000000 		.4byte	0
 5403 0058 A0010000 		.4byte	.LBB13
 5404 005c A2010000 		.4byte	.LBE13
 5405 0060 F2010000 		.4byte	.LBB14
 5406 0064 F4010000 		.4byte	.LBE14
 5407 0068 76020000 		.4byte	.LBB15
 5408 006c E4020000 		.4byte	.LBE15
 5409 0070 40030000 		.4byte	.LBB16
ARM GAS  /tmp/cc1XYtGL.s 			page 96


 5410 0074 A0030000 		.4byte	.LBE16
 5411 0078 00000000 		.4byte	0
 5412 007c 00000000 		.4byte	0
 5413 0080 00000000 		.4byte	.LFB40
 5414 0084 34000000 		.4byte	.LFE40
 5415 0088 00000000 		.4byte	.LFB44
 5416 008c 84000000 		.4byte	.LFE44
 5417 0090 00000000 		.4byte	.LFB42
 5418 0094 5C010000 		.4byte	.LFE42
 5419 0098 00000000 		.4byte	.LFB46
 5420 009c B4030000 		.4byte	.LFE46
 5421 00a0 00000000 		.4byte	.LFB47
 5422 00a4 20000000 		.4byte	.LFE47
 5423 00a8 00000000 		.4byte	0
 5424 00ac 00000000 		.4byte	0
 5425              		.section	.debug_line,"",%progbits
 5426              	.Ldebug_line0:
 5427 0000 07030000 		.section	.debug_str,"MS",%progbits,1
 5427      02001301 
 5427      00000201 
 5427      FB0E0D00 
 5427      01010101 
 5428              	.LASF39:
 5429 0000 72657375 		.ascii	"result\000"
 5429      6C7400
 5430              	.LASF36:
 5431 0007 74657874 		.ascii	"text\000"
 5431      00
 5432              	.LASF2:
 5433 000c 696E7438 		.ascii	"int8_t\000"
 5433      5F7400
 5434              	.LASF30:
 5435 0013 6D665F73 		.ascii	"mf_str\000"
 5435      747200
 5436              	.LASF43:
 5437 001a 73746174 		.ascii	"state\000"
 5437      6500
 5438              	.LASF40:
 5439 0020 666F6E74 		.ascii	"font\000"
 5439      00
 5440              	.LASF6:
 5441 0025 73686F72 		.ascii	"short int\000"
 5441      7420696E 
 5441      7400
 5442              	.LASF14:
 5443 002f 73697A65 		.ascii	"sizetype\000"
 5443      74797065 
 5443      00
 5444              	.LASF54:
 5445 0038 474E5520 		.ascii	"GNU C 4.7.4 20130913 (prerelease)\000"
 5445      4320342E 
 5445      372E3420 
 5445      32303133 
 5445      30393133 
 5446              	.LASF52:
 5447 005a 6D665F67 		.ascii	"mf_getchar\000"
 5447      65746368 
ARM GAS  /tmp/cc1XYtGL.s 			page 97


 5447      617200
 5448              	.LASF45:
 5449 0065 73747269 		.ascii	"strip_spaces\000"
 5449      705F7370 
 5449      61636573 
 5449      00
 5450              	.LASF28:
 5451 0072 72656E64 		.ascii	"render_character\000"
 5451      65725F63 
 5451      68617261 
 5451      63746572 
 5451      00
 5452              	.LASF55:
 5453 0083 2F686F6D 		.ascii	"/home/matt/arm_cortex/ChibiOS/ext/ugfx/src/gdisp/mc"
 5453      652F6D61 
 5453      74742F61 
 5453      726D5F63 
 5453      6F727465 
 5454 00b6 75666F6E 		.ascii	"ufont/mf_justify.c\000"
 5454      742F6D66 
 5454      5F6A7573 
 5454      74696679 
 5454      2E6300
 5455              	.LASF38:
 5456 00c9 6C617374 		.ascii	"last_char\000"
 5456      5F636861 
 5456      7200
 5457              	.LASF3:
 5458 00d3 75696E74 		.ascii	"uint8_t\000"
 5458      385F7400 
 5459              	.LASF29:
 5460 00db 6D665F63 		.ascii	"mf_char\000"
 5460      68617200 
 5461              	.LASF37:
 5462 00e3 636F756E 		.ascii	"count\000"
 5462      7400
 5463              	.LASF56:
 5464 00e9 6D665F66 		.ascii	"mf_font_s\000"
 5464      6F6E745F 
 5464      7300
 5465              	.LASF34:
 5466 00f3 4D465F41 		.ascii	"MF_ALIGN_RIGHT\000"
 5466      4C49474E 
 5466      5F524947 
 5466      485400
 5467              	.LASF20:
 5468 0102 6D696E5F 		.ascii	"min_x_advance\000"
 5468      785F6164 
 5468      76616E63 
 5468      6500
 5469              	.LASF18:
 5470 0110 77696474 		.ascii	"width\000"
 5470      6800
 5471              	.LASF57:
 5472 0116 6D665F61 		.ascii	"mf_align_t\000"
 5472      6C69676E 
 5472      5F7400
ARM GAS  /tmp/cc1XYtGL.s 			page 98


 5473              	.LASF11:
 5474 0121 6C6F6E67 		.ascii	"long long int\000"
 5474      206C6F6E 
 5474      6720696E 
 5474      7400
 5475              	.LASF35:
 5476 012f 6D665F63 		.ascii	"mf_character_callback_t\000"
 5476      68617261 
 5476      63746572 
 5476      5F63616C 
 5476      6C626163 
 5477              	.LASF46:
 5478 0147 6D665F72 		.ascii	"mf_round_to_prev_tab\000"
 5478      6F756E64 
 5478      5F746F5F 
 5478      70726576 
 5478      5F746162 
 5479              	.LASF9:
 5480 015c 6C6F6E67 		.ascii	"long int\000"
 5480      20696E74 
 5480      00
 5481              	.LASF53:
 5482 0165 6D665F63 		.ascii	"mf_compute_kerning\000"
 5482      6F6D7075 
 5482      74655F6B 
 5482      65726E69 
 5482      6E6700
 5483              	.LASF16:
 5484 0178 66756C6C 		.ascii	"full_name\000"
 5484      5F6E616D 
 5484      6500
 5485              	.LASF17:
 5486 0182 73686F72 		.ascii	"short_name\000"
 5486      745F6E61 
 5486      6D6500
 5487              	.LASF4:
 5488 018d 756E7369 		.ascii	"unsigned char\000"
 5488      676E6564 
 5488      20636861 
 5488      7200
 5489              	.LASF1:
 5490 019b 7369676E 		.ascii	"signed char\000"
 5490      65642063 
 5490      68617200 
 5491              	.LASF25:
 5492 01a7 666C6167 		.ascii	"flags\000"
 5492      7300
 5493              	.LASF12:
 5494 01ad 6C6F6E67 		.ascii	"long long unsigned int\000"
 5494      206C6F6E 
 5494      6720756E 
 5494      7369676E 
 5494      65642069 
 5495              	.LASF19:
 5496 01c4 68656967 		.ascii	"height\000"
 5496      687400
 5497              	.LASF0:
ARM GAS  /tmp/cc1XYtGL.s 			page 99


 5498 01cb 756E7369 		.ascii	"unsigned int\000"
 5498      676E6564 
 5498      20696E74 
 5498      00
 5499              	.LASF7:
 5500 01d8 75696E74 		.ascii	"uint16_t\000"
 5500      31365F74 
 5500      00
 5501              	.LASF44:
 5502 01e1 6B65726E 		.ascii	"kern\000"
 5502      00
 5503              	.LASF61:
 5504 01e6 72656E64 		.ascii	"render_right\000"
 5504      65725F72 
 5504      69676874 
 5504      00
 5505              	.LASF49:
 5506 01f3 6D665F72 		.ascii	"mf_render_aligned\000"
 5506      656E6465 
 5506      725F616C 
 5506      69676E65 
 5506      6400
 5507              	.LASF21:
 5508 0205 6D61785F 		.ascii	"max_x_advance\000"
 5508      785F6164 
 5508      76616E63 
 5508      6500
 5509              	.LASF15:
 5510 0213 63686172 		.ascii	"char\000"
 5510      00
 5511              	.LASF22:
 5512 0218 62617365 		.ascii	"baseline_x\000"
 5512      6C696E65 
 5512      5F7800
 5513              	.LASF23:
 5514 0223 62617365 		.ascii	"baseline_y\000"
 5514      6C696E65 
 5514      5F7900
 5515              	.LASF58:
 5516 022e 6D665F72 		.ascii	"mf_round_to_tab\000"
 5516      6F756E64 
 5516      5F746F5F 
 5516      74616200 
 5517              	.LASF33:
 5518 023e 4D465F41 		.ascii	"MF_ALIGN_CENTER\000"
 5518      4C49474E 
 5518      5F43454E 
 5518      54455200 
 5519              	.LASF8:
 5520 024e 73686F72 		.ascii	"short unsigned int\000"
 5520      7420756E 
 5520      7369676E 
 5520      65642069 
 5520      6E7400
 5521              	.LASF31:
 5522 0261 6D665F70 		.ascii	"mf_pixel_callback_t\000"
 5522      6978656C 
ARM GAS  /tmp/cc1XYtGL.s 			page 100


 5522      5F63616C 
 5522      6C626163 
 5522      6B5F7400 
 5523              	.LASF5:
 5524 0275 696E7431 		.ascii	"int16_t\000"
 5524      365F7400 
 5525              	.LASF13:
 5526 027d 5F426F6F 		.ascii	"_Bool\000"
 5526      6C00
 5527              	.LASF62:
 5528 0283 6D665F72 		.ascii	"mf_rewind\000"
 5528      6577696E 
 5528      6400
 5529              	.LASF10:
 5530 028d 6C6F6E67 		.ascii	"long unsigned int\000"
 5530      20756E73 
 5530      69676E65 
 5530      6420696E 
 5530      7400
 5531              	.LASF50:
 5532 029f 6D665F72 		.ascii	"mf_render_justified\000"
 5532      656E6465 
 5532      725F6A75 
 5532      73746966 
 5532      69656400 
 5533              	.LASF24:
 5534 02b3 6C696E65 		.ascii	"line_height\000"
 5534      5F686569 
 5534      67687400 
 5535              	.LASF47:
 5536 02bf 616C6967 		.ascii	"align\000"
 5536      6E00
 5537              	.LASF41:
 5538 02c5 74616277 		.ascii	"tabw\000"
 5538      00
 5539              	.LASF59:
 5540 02ca 72656E64 		.ascii	"render_left\000"
 5540      65725F6C 
 5540      65667400 
 5541              	.LASF26:
 5542 02d6 66616C6C 		.ascii	"fallback_character\000"
 5542      6261636B 
 5542      5F636861 
 5542      72616374 
 5542      657200
 5543              	.LASF27:
 5544 02e9 63686172 		.ascii	"character_width\000"
 5544      61637465 
 5544      725F7769 
 5544      64746800 
 5545              	.LASF32:
 5546 02f9 4D465F41 		.ascii	"MF_ALIGN_LEFT\000"
 5546      4C49474E 
 5546      5F4C4546 
 5546      5400
 5547              	.LASF48:
 5548 0307 73747269 		.ascii	"string_width\000"
ARM GAS  /tmp/cc1XYtGL.s 			page 101


 5548      6E675F77 
 5548      69647468 
 5548      00
 5549              	.LASF51:
 5550 0314 6D665F63 		.ascii	"mf_character_width\000"
 5550      68617261 
 5550      63746572 
 5550      5F776964 
 5550      746800
 5551              	.LASF60:
 5552 0327 6D665F67 		.ascii	"mf_get_string_width\000"
 5552      65745F73 
 5552      7472696E 
 5552      675F7769 
 5552      64746800 
 5553              	.LASF42:
 5554 033b 63616C6C 		.ascii	"callback\000"
 5554      6261636B 
 5554      00
 5555              		.ident	"GCC: (GNU Tools for ARM Embedded Processors / bleeding-edge-toolchain-131005) 4.7.4 201309
ARM GAS  /tmp/cc1XYtGL.s 			page 102


DEFINED SYMBOLS
                            *ABS*:0000000000000000 mf_justify.c
     /tmp/cc1XYtGL.s:19     .text.mf_round_to_tab:0000000000000000 $t
     /tmp/cc1XYtGL.s:24     .text.mf_round_to_tab:0000000000000000 mf_round_to_tab
     /tmp/cc1XYtGL.s:89     .text.render_left:0000000000000000 $t
     /tmp/cc1XYtGL.s:94     .text.render_left:0000000000000000 render_left
     /tmp/cc1XYtGL.s:231    .text.mf_get_string_width:0000000000000000 $t
     /tmp/cc1XYtGL.s:237    .text.mf_get_string_width:0000000000000000 mf_get_string_width
     /tmp/cc1XYtGL.s:529    .text.mf_get_string_width:0000000000000158 $d
     /tmp/cc1XYtGL.s:534    .text.mf_render_aligned:0000000000000000 $t
     /tmp/cc1XYtGL.s:540    .text.mf_render_aligned:0000000000000000 mf_render_aligned
     /tmp/cc1XYtGL.s:1231   .text.mf_render_aligned:000000000000033c $d
     /tmp/cc1XYtGL.s:1239   .text.mf_render_aligned:0000000000000340 $t
     /tmp/cc1XYtGL.s:1334   .text.mf_render_justified:0000000000000000 $t
     /tmp/cc1XYtGL.s:1340   .text.mf_render_justified:0000000000000000 mf_render_justified
                     .debug_frame:0000000000000010 $d
     /tmp/cc1XYtGL.s:533    .text.mf_get_string_width:000000000000015c $t

UNDEFINED SYMBOLS
__aeabi_idivmod
mf_character_width
mf_getchar
mf_compute_kerning
mf_rewind
