ARM GAS  /tmp/ccaofhaY.s 			page 1


   1              		.cpu cortex-m0
   2              		.fpu softvfp
   3              		.eabi_attribute 20, 1
   4              		.eabi_attribute 21, 1
   5              		.eabi_attribute 23, 3
   6              		.eabi_attribute 24, 1
   7              		.eabi_attribute 25, 1
   8              		.eabi_attribute 26, 1
   9              		.eabi_attribute 30, 2
  10              		.eabi_attribute 34, 0
  11              		.eabi_attribute 18, 4
  12              		.code	16
  13              		.file	"mf_kerning.c"
  14              		.text
  15              	.Ltext0:
  16              		.cfi_sections	.debug_frame
  17              		.global	__aeabi_idiv
  18              		.section	.text.fit_leftedge,"ax",%progbits
  19              		.align	2
  20              		.p2align 4,,15
  21              		.code	16
  22              		.thumb_func
  23              		.type	fit_leftedge, %function
  24              	fit_leftedge:
  25              	.LFB40:
  26              		.file 1 "/home/matt/arm_cortex/ChibiOS/ext/ugfx/src/gdisp/mcufont/mf_kerning.c"
  27              		.loc 1 26 0
  28              		.cfi_startproc
  29              	.LVL0:
  30 0000 10B5     		push	{r4, lr}
  31              	.LCFI0:
  32              		.cfi_def_cfa_offset 8
  33              		.cfi_offset 4, -8
  34              		.cfi_offset 14, -4
  35              	.LVL1:
  36              		.loc 1 26 0
  37 0002 041C     		mov	r4, r0
  38 0004 081C     		mov	r0, r1
  39              	.LVL2:
  40              		.loc 1 30 0
  41 0006 072B     		cmp	r3, #7
  42 0008 0AD9     		bls	.L1
  43              	.LVL3:
  44              	.LBB12:
  45              	.LBB13:
  46              	.LBB14:
  47              		.loc 1 32 0
  48 000a 029A     		ldr	r2, [sp, #8]
  49              	.LVL4:
  50 000c 117C     		ldrb	r1, [r2, #16]
  51              	.LVL5:
  52 000e FFF7FEFF 		bl	__aeabi_idiv
  53              	.LVL6:
  54              		.loc 1 33 0
  55 0012 FF23     		mov	r3, #255
  56 0014 0299     		ldr	r1, [sp, #8]
  57 0016 1840     		and	r0, r3
ARM GAS  /tmp/ccaofhaY.s 			page 2


  58 0018 0A5C     		ldrb	r2, [r1, r0]
  59 001a 9442     		cmp	r4, r2
  60 001c 00DA     		bge	.L1
  61              		.loc 1 34 0
  62 001e 0C54     		strb	r4, [r1, r0]
  63              	.LVL7:
  64              	.L1:
  65              	.LBE14:
  66              	.LBE13:
  67              	.LBE12:
  68              		.loc 1 36 0
  69              		@ sp needed for prologue
  70 0020 10BD     		pop	{r4, pc}
  71              		.cfi_endproc
  72              	.LFE40:
  73              		.size	fit_leftedge, .-fit_leftedge
  74 0022 C046C046 		.section	.text.fit_rightedge,"ax",%progbits
  74      C046C046 
  74      C046C046 
  74      C046
  75              		.align	2
  76              		.p2align 4,,15
  77              		.code	16
  78              		.thumb_func
  79              		.type	fit_rightedge, %function
  80              	fit_rightedge:
  81              	.LFB41:
  82              		.loc 1 41 0
  83              		.cfi_startproc
  84              	.LVL8:
  85 0000 10B5     		push	{r4, lr}
  86              	.LCFI1:
  87              		.cfi_def_cfa_offset 8
  88              		.cfi_offset 4, -8
  89              		.cfi_offset 14, -4
  90              	.LVL9:
  91              		.loc 1 44 0
  92 0002 072B     		cmp	r3, #7
  93 0004 10D9     		bls	.L4
  94              	.LVL10:
  95              	.LBB18:
  96              	.LBB19:
  97              	.LBB20:
  98              		.loc 1 47 0
  99 0006 0138     		sub	r0, r0, #1
 100              	.LVL11:
 101 0008 1218     		add	r2, r2, r0
 102              	.LVL12:
 103              		.loc 1 46 0
 104 000a 0298     		ldr	r0, [sp, #8]
 105              	.LVL13:
 106              		.loc 1 47 0
 107 000c 94B2     		uxth	r4, r2
 108              	.LVL14:
 109              		.loc 1 46 0
 110 000e 037C     		ldrb	r3, [r0, #16]
 111              	.LVL15:
ARM GAS  /tmp/ccaofhaY.s 			page 3


 112 0010 081C     		mov	r0, r1
 113 0012 191C     		mov	r1, r3
 114              	.LVL16:
 115 0014 FFF7FEFF 		bl	__aeabi_idiv
 116              	.LVL17:
 117              		.loc 1 48 0
 118 0018 FF21     		mov	r1, #255
 119 001a 0840     		and	r0, r1
 120 001c 0299     		ldr	r1, [sp, #8]
 121 001e 22B2     		sxth	r2, r4
 122 0020 0B5C     		ldrb	r3, [r1, r0]
 123 0022 9A42     		cmp	r2, r3
 124 0024 00DD     		ble	.L4
 125              		.loc 1 49 0
 126 0026 0C54     		strb	r4, [r1, r0]
 127              	.LVL18:
 128              	.L4:
 129              	.LBE20:
 130              	.LBE19:
 131              	.LBE18:
 132              		.loc 1 51 0
 133              		@ sp needed for prologue
 134 0028 10BD     		pop	{r4, pc}
 135              		.cfi_endproc
 136              	.LFE41:
 137              		.size	fit_rightedge, .-fit_rightedge
 138 002a C046C046 		.section	.text.do_kerning,"ax",%progbits
 138      C046
 139              		.align	2
 140              		.p2align 4,,15
 141              		.code	16
 142              		.thumb_func
 143              		.type	do_kerning, %function
 144              	do_kerning:
 145              	.LFB42:
 146              		.loc 1 55 0
 147              		.cfi_startproc
 148              	.LVL19:
 149              		.loc 1 57 0
 150 0000 2028     		cmp	r0, #32
 151 0002 0CD0     		beq	.L11
 152              		.loc 1 57 0 is_stmt 0 discriminator 1
 153 0004 0A28     		cmp	r0, #10
 154 0006 0AD0     		beq	.L11
 155 0008 0D28     		cmp	r0, #13
 156 000a 08D0     		beq	.L11
 157              	.LVL20:
 158              	.LBB23:
 159              	.LBB24:
 160              		.loc 1 57 0
 161 000c 0928     		cmp	r0, #9
 162 000e 06D0     		beq	.L11
 163              		.loc 1 62 0 is_stmt 1
 164 0010 3038     		sub	r0, r0, #48
 165              	.LVL21:
 166 0012 C0B2     		uxtb	r0, r0
 167              	.LVL22:
ARM GAS  /tmp/ccaofhaY.s 			page 4


 168 0014 0923     		mov	r3, #9
 169 0016 8342     		cmp	r3, r0
 170 0018 8941     		sbc	r1, r1, r1
 171 001a 4842     		neg	r0, r1
 172 001c 00E0     		b	.L7
 173              	.LVL23:
 174              	.L11:
 175              	.LBE24:
 176              	.LBE23:
 177              		.loc 1 58 0
 178 001e 0020     		mov	r0, #0
 179              	.LVL24:
 180              	.L7:
 181              		.loc 1 66 0
 182              		@ sp needed for prologue
 183 0020 7047     		bx	lr
 184              		.cfi_endproc
 185              	.LFE42:
 186              		.size	do_kerning, .-do_kerning
 187 0022 C046C046 		.section	.text.mf_compute_kerning,"ax",%progbits
 187      C046C046 
 187      C046C046 
 187      C046
 188              		.align	2
 189              		.p2align 4,,15
 190              		.global	mf_compute_kerning
 191              		.code	16
 192              		.thumb_func
 193              		.type	mf_compute_kerning, %function
 194              	mf_compute_kerning:
 195              	.LFB45:
 196              		.loc 1 74 0
 197              		.cfi_startproc
 198              	.LVL25:
 199 0000 F0B5     		push	{r4, r5, r6, r7, lr}
 200              	.LCFI2:
 201              		.cfi_def_cfa_offset 20
 202              		.cfi_offset 4, -20
 203              		.cfi_offset 5, -16
 204              		.cfi_offset 6, -12
 205              		.cfi_offset 7, -8
 206              		.cfi_offset 14, -4
 207 0002 5746     		mov	r7, sl
 208 0004 4E46     		mov	r6, r9
 209 0006 4546     		mov	r5, r8
 210 0008 E0B4     		push	{r5, r6, r7}
 211              	.LCFI3:
 212              		.cfi_def_cfa_offset 32
 213              		.cfi_offset 8, -32
 214              		.cfi_offset 9, -28
 215              		.cfi_offset 10, -24
 216              		.loc 1 79 0
 217 000a C47B     		ldrb	r4, [r0, #15]
 218              		.loc 1 74 0
 219 000c 8CB0     		sub	sp, sp, #48
 220              	.LCFI4:
 221              		.cfi_def_cfa_offset 80
ARM GAS  /tmp/ccaofhaY.s 			page 5


 222              		.loc 1 74 0
 223 000e 8046     		mov	r8, r0
 224 0010 8946     		mov	r9, r1
 225 0012 9246     		mov	sl, r2
 226              		.loc 1 79 0
 227 0014 E207     		lsl	r2, r4, #31
 228 0016 00D5     		bpl	.LCB214
 229 0018 27E1     		b	.L16	@long jump
 230              	.LCB214:
 231              	.LVL26:
 232              		.loc 1 82 0
 233 001a 081C     		mov	r0, r1
 234              	.LVL27:
 235 001c FFF7FEFF 		bl	do_kerning
 236              	.LVL28:
 237 0020 0028     		cmp	r0, #0
 238 0022 00D1     		bne	.LCB222
 239 0024 21E1     		b	.L16	@long jump
 240              	.LCB222:
 241              		.loc 1 82 0 is_stmt 0 discriminator 1
 242 0026 5046     		mov	r0, sl
 243 0028 FFF7FEFF 		bl	do_kerning
 244              	.LVL29:
 245 002c 0028     		cmp	r0, #0
 246 002e 00D1     		bne	.LCB227
 247 0030 1BE1     		b	.L16	@long jump
 248              	.LCB227:
 249              		.loc 1 86 0 is_stmt 1
 250 0032 4246     		mov	r2, r8
 251 0034 537A     		ldrb	r3, [r2, #9]
 252 0036 0F33     		add	r3, r3, #15
 253 0038 1909     		lsr	r1, r3, #4
 254              	.LVL30:
 255              		.loc 1 87 0
 256 003a 00D1     		bne	.L17
 257 003c 0121     		mov	r1, #1
 258              	.LVL31:
 259              	.L17:
 260              		.loc 1 90 0
 261 003e 02AC     		add	r4, sp, #8
 262 0040 07AD     		add	r5, sp, #28
 263              		.loc 1 93 0
 264 0042 FF27     		mov	r7, #255
 265              		.loc 1 94 0
 266 0044 0026     		mov	r6, #0
 267              		.loc 1 90 0
 268 0046 2974     		strb	r1, [r5, #16]
 269 0048 2174     		strb	r1, [r4, #16]
 270              	.LVL32:
 271              		.loc 1 93 0
 272 004a 2770     		strb	r7, [r4]
 273 004c 6770     		strb	r7, [r4, #1]
 274 004e A770     		strb	r7, [r4, #2]
 275 0050 E770     		strb	r7, [r4, #3]
 276 0052 2771     		strb	r7, [r4, #4]
 277 0054 6771     		strb	r7, [r4, #5]
 278 0056 A771     		strb	r7, [r4, #6]
ARM GAS  /tmp/ccaofhaY.s 			page 6


 279 0058 E771     		strb	r7, [r4, #7]
 280 005a 2772     		strb	r7, [r4, #8]
 281 005c 6772     		strb	r7, [r4, #9]
 282 005e A772     		strb	r7, [r4, #10]
 283 0060 E772     		strb	r7, [r4, #11]
 284 0062 2773     		strb	r7, [r4, #12]
 285 0064 6773     		strb	r7, [r4, #13]
 286 0066 A773     		strb	r7, [r4, #14]
 287 0068 E773     		strb	r7, [r4, #15]
 288              		.loc 1 94 0
 289 006a 2E70     		strb	r6, [r5]
 290              	.LVL33:
 291 006c 6E70     		strb	r6, [r5, #1]
 292              	.LVL34:
 293 006e AE70     		strb	r6, [r5, #2]
 294              	.LVL35:
 295 0070 EE70     		strb	r6, [r5, #3]
 296              	.LVL36:
 297 0072 2E71     		strb	r6, [r5, #4]
 298              	.LVL37:
 299 0074 6E71     		strb	r6, [r5, #5]
 300              	.LVL38:
 301 0076 AE71     		strb	r6, [r5, #6]
 302              	.LVL39:
 303 0078 EE71     		strb	r6, [r5, #7]
 304              	.LVL40:
 305 007a 2E72     		strb	r6, [r5, #8]
 306              	.LVL41:
 307 007c 6E72     		strb	r6, [r5, #9]
 308              	.LVL42:
 309 007e AE72     		strb	r6, [r5, #10]
 310              	.LVL43:
 311 0080 EE72     		strb	r6, [r5, #11]
 312              	.LVL44:
 313 0082 2E73     		strb	r6, [r5, #12]
 314              	.LVL45:
 315 0084 6E73     		strb	r6, [r5, #13]
 316              	.LVL46:
 317 0086 AE73     		strb	r6, [r5, #14]
 318              	.LVL47:
 319 0088 EE73     		strb	r6, [r5, #15]
 320              	.LVL48:
 321              		.loc 1 98 0
 322 008a 8C48     		ldr	r0, .L173
 323 008c 0021     		mov	r1, #0
 324 008e 0090     		str	r0, [sp]
 325 0090 0022     		mov	r2, #0
 326 0092 4046     		mov	r0, r8
 327 0094 4B46     		mov	r3, r9
 328 0096 0195     		str	r5, [sp, #4]
 329 0098 FFF7FEFF 		bl	mf_render_character
 330              	.LVL49:
 331              		.loc 1 99 0
 332 009c 884A     		ldr	r2, .L173+4
 333 009e 5346     		mov	r3, sl
 334 00a0 0092     		str	r2, [sp]
 335              		.loc 1 98 0
ARM GAS  /tmp/ccaofhaY.s 			page 7


 336 00a2 071C     		mov	r7, r0
 337              	.LVL50:
 338              		.loc 1 99 0
 339 00a4 0194     		str	r4, [sp, #4]
 340 00a6 4046     		mov	r0, r8
 341              	.LVL51:
 342 00a8 0021     		mov	r1, #0
 343 00aa 0022     		mov	r2, #0
 344 00ac FFF7FEFF 		bl	mf_render_character
 345              	.LVL52:
 346              	.LBB25:
 347              		.loc 1 106 0
 348 00b0 2378     		ldrb	r3, [r4]
 349              	.LBE25:
 350              		.loc 1 99 0
 351 00b2 8046     		mov	r8, r0
 352              	.LVL53:
 353              	.LBB26:
 354              		.loc 1 106 0
 355 00b4 FF2B     		cmp	r3, #255
 356 00b6 00D1     		bne	.LCB327
 357 00b8 DFE0     		b	.L55	@long jump
 358              	.LCB327:
 359 00ba 2978     		ldrb	r1, [r5]
 360              		.loc 1 102 0
 361 00bc FF26     		mov	r6, #255
 362              		.loc 1 106 0
 363 00be 0029     		cmp	r1, #0
 364 00c0 02D0     		beq	.L18
 365              	.LVL54:
 366              		.loc 1 109 0
 367 00c2 5E1A     		sub	r6, r3, r1
 368 00c4 B819     		add	r0, r7, r6
 369              	.LVL55:
 370 00c6 C6B2     		uxtb	r6, r0
 371              	.LVL56:
 372              	.L18:
 373              		.loc 1 106 0
 374 00c8 6378     		ldrb	r3, [r4, #1]
 375 00ca FF2B     		cmp	r3, #255
 376 00cc 08D0     		beq	.L20
 377 00ce 6A78     		ldrb	r2, [r5, #1]
 378 00d0 002A     		cmp	r2, #0
 379 00d2 05D0     		beq	.L20
 380              	.LVL57:
 381              		.loc 1 109 0
 382 00d4 991A     		sub	r1, r3, r2
 383 00d6 7818     		add	r0, r7, r1
 384 00d8 C3B2     		uxtb	r3, r0
 385              	.LVL58:
 386 00da 9E42     		cmp	r6, r3
 387 00dc 00D9     		bls	.LCB357
 388 00de EAE0     		b	.L158	@long jump
 389              	.LCB357:
 390              	.LVL59:
 391              	.L20:
 392              		.loc 1 106 0
ARM GAS  /tmp/ccaofhaY.s 			page 8


 393 00e0 A178     		ldrb	r1, [r4, #2]
 394 00e2 FF29     		cmp	r1, #255
 395 00e4 08D0     		beq	.L22
 396 00e6 AA78     		ldrb	r2, [r5, #2]
 397 00e8 002A     		cmp	r2, #0
 398 00ea 05D0     		beq	.L22
 399              	.LVL60:
 400              		.loc 1 109 0
 401 00ec 881A     		sub	r0, r1, r2
 402 00ee 3B18     		add	r3, r7, r0
 403 00f0 D9B2     		uxtb	r1, r3
 404              	.LVL61:
 405 00f2 8E42     		cmp	r6, r1
 406 00f4 00D9     		bls	.LCB378
 407 00f6 DCE0     		b	.L159	@long jump
 408              	.LCB378:
 409              	.LVL62:
 410              	.L22:
 411              		.loc 1 106 0
 412 00f8 E078     		ldrb	r0, [r4, #3]
 413 00fa FF28     		cmp	r0, #255
 414 00fc 08D0     		beq	.L24
 415 00fe EA78     		ldrb	r2, [r5, #3]
 416 0100 002A     		cmp	r2, #0
 417 0102 05D0     		beq	.L24
 418              	.LVL63:
 419              		.loc 1 109 0
 420 0104 831A     		sub	r3, r0, r2
 421 0106 F918     		add	r1, r7, r3
 422 0108 C8B2     		uxtb	r0, r1
 423              	.LVL64:
 424 010a 8642     		cmp	r6, r0
 425 010c 00D9     		bls	.LCB399
 426 010e CEE0     		b	.L160	@long jump
 427              	.LCB399:
 428              	.LVL65:
 429              	.L24:
 430              		.loc 1 106 0
 431 0110 2379     		ldrb	r3, [r4, #4]
 432 0112 FF2B     		cmp	r3, #255
 433 0114 08D0     		beq	.L26
 434 0116 2A79     		ldrb	r2, [r5, #4]
 435 0118 002A     		cmp	r2, #0
 436 011a 05D0     		beq	.L26
 437              	.LVL66:
 438              		.loc 1 109 0
 439 011c 991A     		sub	r1, r3, r2
 440 011e 7818     		add	r0, r7, r1
 441 0120 C3B2     		uxtb	r3, r0
 442              	.LVL67:
 443 0122 9E42     		cmp	r6, r3
 444 0124 00D9     		bls	.LCB420
 445 0126 C0E0     		b	.L161	@long jump
 446              	.LCB420:
 447              	.LVL68:
 448              	.L26:
 449              		.loc 1 106 0
ARM GAS  /tmp/ccaofhaY.s 			page 9


 450 0128 6179     		ldrb	r1, [r4, #5]
 451 012a FF29     		cmp	r1, #255
 452 012c 08D0     		beq	.L28
 453 012e 6A79     		ldrb	r2, [r5, #5]
 454 0130 002A     		cmp	r2, #0
 455 0132 05D0     		beq	.L28
 456              	.LVL69:
 457              		.loc 1 109 0
 458 0134 881A     		sub	r0, r1, r2
 459 0136 3B18     		add	r3, r7, r0
 460 0138 D9B2     		uxtb	r1, r3
 461              	.LVL70:
 462 013a 8E42     		cmp	r6, r1
 463 013c 00D9     		bls	.LCB441
 464 013e B2E0     		b	.L162	@long jump
 465              	.LCB441:
 466              	.LVL71:
 467              	.L28:
 468              		.loc 1 106 0
 469 0140 A079     		ldrb	r0, [r4, #6]
 470 0142 FF28     		cmp	r0, #255
 471 0144 08D0     		beq	.L30
 472 0146 AA79     		ldrb	r2, [r5, #6]
 473 0148 002A     		cmp	r2, #0
 474 014a 05D0     		beq	.L30
 475              	.LVL72:
 476              		.loc 1 109 0
 477 014c 831A     		sub	r3, r0, r2
 478 014e F918     		add	r1, r7, r3
 479 0150 C8B2     		uxtb	r0, r1
 480              	.LVL73:
 481 0152 8642     		cmp	r6, r0
 482 0154 00D9     		bls	.LCB462
 483 0156 A4E0     		b	.L163	@long jump
 484              	.LCB462:
 485              	.LVL74:
 486              	.L30:
 487              		.loc 1 106 0
 488 0158 E379     		ldrb	r3, [r4, #7]
 489 015a FF2B     		cmp	r3, #255
 490 015c 08D0     		beq	.L32
 491 015e EA79     		ldrb	r2, [r5, #7]
 492 0160 002A     		cmp	r2, #0
 493 0162 05D0     		beq	.L32
 494              	.LVL75:
 495              		.loc 1 109 0
 496 0164 991A     		sub	r1, r3, r2
 497 0166 7818     		add	r0, r7, r1
 498 0168 C3B2     		uxtb	r3, r0
 499              	.LVL76:
 500 016a 9E42     		cmp	r6, r3
 501 016c 00D9     		bls	.LCB483
 502 016e 96E0     		b	.L164	@long jump
 503              	.LCB483:
 504              	.LVL77:
 505              	.L32:
 506              		.loc 1 106 0
ARM GAS  /tmp/ccaofhaY.s 			page 10


 507 0170 217A     		ldrb	r1, [r4, #8]
 508 0172 FF29     		cmp	r1, #255
 509 0174 08D0     		beq	.L34
 510 0176 2A7A     		ldrb	r2, [r5, #8]
 511 0178 002A     		cmp	r2, #0
 512 017a 05D0     		beq	.L34
 513              	.LVL78:
 514              		.loc 1 109 0
 515 017c 881A     		sub	r0, r1, r2
 516 017e 3B18     		add	r3, r7, r0
 517 0180 D9B2     		uxtb	r1, r3
 518              	.LVL79:
 519 0182 8E42     		cmp	r6, r1
 520 0184 00D9     		bls	.LCB504
 521 0186 88E0     		b	.L165	@long jump
 522              	.LCB504:
 523              	.LVL80:
 524              	.L34:
 525              		.loc 1 106 0
 526 0188 607A     		ldrb	r0, [r4, #9]
 527 018a FF28     		cmp	r0, #255
 528 018c 08D0     		beq	.L36
 529 018e 6A7A     		ldrb	r2, [r5, #9]
 530 0190 002A     		cmp	r2, #0
 531 0192 05D0     		beq	.L36
 532              	.LVL81:
 533              		.loc 1 109 0
 534 0194 831A     		sub	r3, r0, r2
 535 0196 F918     		add	r1, r7, r3
 536 0198 C8B2     		uxtb	r0, r1
 537              	.LVL82:
 538 019a 8642     		cmp	r6, r0
 539 019c 00D9     		bls	.LCB525
 540 019e 7AE0     		b	.L166	@long jump
 541              	.LCB525:
 542              	.LVL83:
 543              	.L36:
 544              		.loc 1 106 0
 545 01a0 A37A     		ldrb	r3, [r4, #10]
 546 01a2 FF2B     		cmp	r3, #255
 547 01a4 07D0     		beq	.L38
 548 01a6 AA7A     		ldrb	r2, [r5, #10]
 549 01a8 002A     		cmp	r2, #0
 550 01aa 04D0     		beq	.L38
 551              	.LVL84:
 552              		.loc 1 109 0
 553 01ac 991A     		sub	r1, r3, r2
 554 01ae 7818     		add	r0, r7, r1
 555 01b0 C3B2     		uxtb	r3, r0
 556              	.LVL85:
 557 01b2 9E42     		cmp	r6, r3
 558 01b4 6DD8     		bhi	.L167
 559              	.LVL86:
 560              	.L38:
 561              		.loc 1 106 0
 562 01b6 E17A     		ldrb	r1, [r4, #11]
 563 01b8 FF29     		cmp	r1, #255
ARM GAS  /tmp/ccaofhaY.s 			page 11


 564 01ba 07D0     		beq	.L40
 565 01bc EA7A     		ldrb	r2, [r5, #11]
 566 01be 002A     		cmp	r2, #0
 567 01c0 04D0     		beq	.L40
 568              	.LVL87:
 569              		.loc 1 109 0
 570 01c2 881A     		sub	r0, r1, r2
 571 01c4 3B18     		add	r3, r7, r0
 572 01c6 D9B2     		uxtb	r1, r3
 573              	.LVL88:
 574 01c8 8E42     		cmp	r6, r1
 575 01ca 60D8     		bhi	.L168
 576              	.LVL89:
 577              	.L40:
 578              		.loc 1 106 0
 579 01cc 207B     		ldrb	r0, [r4, #12]
 580 01ce FF28     		cmp	r0, #255
 581 01d0 07D0     		beq	.L42
 582 01d2 2A7B     		ldrb	r2, [r5, #12]
 583 01d4 002A     		cmp	r2, #0
 584 01d6 04D0     		beq	.L42
 585              	.LVL90:
 586              		.loc 1 109 0
 587 01d8 831A     		sub	r3, r0, r2
 588 01da F918     		add	r1, r7, r3
 589 01dc C8B2     		uxtb	r0, r1
 590              	.LVL91:
 591 01de 8642     		cmp	r6, r0
 592 01e0 53D8     		bhi	.L169
 593              	.LVL92:
 594              	.L42:
 595              		.loc 1 106 0
 596 01e2 637B     		ldrb	r3, [r4, #13]
 597 01e4 FF2B     		cmp	r3, #255
 598 01e6 07D0     		beq	.L44
 599 01e8 6A7B     		ldrb	r2, [r5, #13]
 600 01ea 002A     		cmp	r2, #0
 601 01ec 04D0     		beq	.L44
 602              	.LVL93:
 603              		.loc 1 109 0
 604 01ee 991A     		sub	r1, r3, r2
 605 01f0 7818     		add	r0, r7, r1
 606 01f2 C3B2     		uxtb	r3, r0
 607              	.LVL94:
 608 01f4 9E42     		cmp	r6, r3
 609 01f6 46D8     		bhi	.L170
 610              	.LVL95:
 611              	.L44:
 612              		.loc 1 106 0
 613 01f8 A17B     		ldrb	r1, [r4, #14]
 614 01fa FF29     		cmp	r1, #255
 615 01fc 07D0     		beq	.L46
 616 01fe AA7B     		ldrb	r2, [r5, #14]
 617 0200 002A     		cmp	r2, #0
 618 0202 04D0     		beq	.L46
 619              	.LVL96:
 620              		.loc 1 109 0
ARM GAS  /tmp/ccaofhaY.s 			page 12


 621 0204 881A     		sub	r0, r1, r2
 622 0206 3B18     		add	r3, r7, r0
 623 0208 D9B2     		uxtb	r1, r3
 624              	.LVL97:
 625 020a 8E42     		cmp	r6, r1
 626 020c 39D8     		bhi	.L171
 627              	.LVL98:
 628              	.L46:
 629              		.loc 1 106 0
 630 020e E47B     		ldrb	r4, [r4, #15]
 631 0210 FF2C     		cmp	r4, #255
 632 0212 08D0     		beq	.L48
 633              		.loc 1 106 0 is_stmt 0 discriminator 1
 634 0214 ED7B     		ldrb	r5, [r5, #15]
 635 0216 002D     		cmp	r5, #0
 636 0218 05D0     		beq	.L48
 637              	.LVL99:
 638              		.loc 1 109 0 is_stmt 1
 639 021a 621B     		sub	r2, r4, r5
 640 021c B818     		add	r0, r7, r2
 641 021e C3B2     		uxtb	r3, r0
 642 0220 B342     		cmp	r3, r6
 643 0222 2CD8     		bhi	.L172
 644              	.L49:
 645 0224 1E1C     		mov	r6, r3
 646              	.LVL100:
 647              	.L48:
 648              	.LBE26:
 649              		.loc 1 114 0
 650 0226 FF2E     		cmp	r6, #255
 651 0228 1FD0     		beq	.L16
 652              	.LVL101:
 653              	.LBB27:
 654              	.LBB28:
 655              		.loc 1 70 0
 656 022a 4146     		mov	r1, r8
 657 022c 7C18     		add	r4, r7, r1
 658 022e 6510     		asr	r5, r4, #1
 659              	.LBE28:
 660              	.LBE27:
 661              		.loc 1 118 0
 662 0230 2A01     		lsl	r2, r5, #4
 663 0232 501B     		sub	r0, r2, r5
 664 0234 6421     		mov	r1, #100
 665 0236 FFF7FEFF 		bl	__aeabi_idiv
 666              	.LVL102:
 667              		.loc 1 119 0
 668 023a 0330     		add	r0, r0, #3
 669              		.loc 1 120 0
 670 023c 801B     		sub	r0, r0, r6
 671 023e 86B2     		uxth	r6, r0
 672              	.LVL103:
 673              		.loc 1 123 0
 674 0240 34B2     		sxth	r4, r6
 675 0242 0020     		mov	r0, #0
 676              	.LVL104:
 677 0244 002C     		cmp	r4, #0
ARM GAS  /tmp/ccaofhaY.s 			page 13


 678 0246 11DC     		bgt	.L15
 679              	.LBB29:
 680              	.LBB30:
 681              		.loc 1 69 0
 682 0248 4346     		mov	r3, r8
 683 024a 18B2     		sxth	r0, r3
 684 024c 3FB2     		sxth	r7, r7
 685              	.LVL105:
 686 024e B842     		cmp	r0, r7
 687 0250 00DA     		bge	.L51
 688 0252 381C     		mov	r0, r7
 689              	.L51:
 690              	.LBE30:
 691              	.LBE29:
 692              		.loc 1 121 0
 693 0254 0521     		mov	r1, #5
 694 0256 4942     		neg	r1, r1
 695 0258 FFF7FEFF 		bl	__aeabi_idiv
 696              	.LVL106:
 697 025c 85B2     		uxth	r5, r0
 698              	.LVL107:
 699              		.loc 1 124 0
 700 025e 2AB2     		sxth	r2, r5
 701 0260 F0B2     		uxtb	r0, r6
 702 0262 9442     		cmp	r4, r2
 703 0264 02DA     		bge	.L15
 704 0266 E8B2     		uxtb	r0, r5
 705 0268 00E0     		b	.L15
 706              	.LVL108:
 707              	.L16:
 708              		.loc 1 80 0
 709 026a 0020     		mov	r0, #0
 710              	.L15:
 711 026c 40B2     		sxtb	r0, r0
 712              		.loc 1 127 0
 713 026e 0CB0     		add	sp, sp, #48
 714              		@ sp needed for prologue
 715 0270 1CBC     		pop	{r2, r3, r4}
 716 0272 9046     		mov	r8, r2
 717 0274 9946     		mov	r9, r3
 718 0276 A246     		mov	sl, r4
 719 0278 F0BD     		pop	{r4, r5, r6, r7, pc}
 720              	.LVL109:
 721              	.L55:
 722              	.LBB31:
 723              		.loc 1 102 0
 724 027a FF26     		mov	r6, #255
 725 027c 24E7     		b	.L18
 726              	.LVL110:
 727              	.L172:
 728 027e 331C     		mov	r3, r6
 729 0280 D0E7     		b	.L49
 730              	.LVL111:
 731              	.L171:
 732 0282 0E1C     		mov	r6, r1
 733              	.LVL112:
 734 0284 C3E7     		b	.L46
ARM GAS  /tmp/ccaofhaY.s 			page 14


 735              	.LVL113:
 736              	.L170:
 737 0286 1E1C     		mov	r6, r3
 738              	.LVL114:
 739 0288 B6E7     		b	.L44
 740              	.LVL115:
 741              	.L169:
 742 028a 061C     		mov	r6, r0
 743              	.LVL116:
 744 028c A9E7     		b	.L42
 745              	.LVL117:
 746              	.L168:
 747 028e 0E1C     		mov	r6, r1
 748              	.LVL118:
 749 0290 9CE7     		b	.L40
 750              	.LVL119:
 751              	.L167:
 752 0292 1E1C     		mov	r6, r3
 753              	.LVL120:
 754 0294 8FE7     		b	.L38
 755              	.LVL121:
 756              	.L166:
 757 0296 061C     		mov	r6, r0
 758              	.LVL122:
 759 0298 82E7     		b	.L36
 760              	.LVL123:
 761              	.L165:
 762 029a 0E1C     		mov	r6, r1
 763              	.LVL124:
 764 029c 74E7     		b	.L34
 765              	.LVL125:
 766              	.L164:
 767 029e 1E1C     		mov	r6, r3
 768              	.LVL126:
 769 02a0 66E7     		b	.L32
 770              	.LVL127:
 771              	.L163:
 772 02a2 061C     		mov	r6, r0
 773              	.LVL128:
 774 02a4 58E7     		b	.L30
 775              	.LVL129:
 776              	.L162:
 777 02a6 0E1C     		mov	r6, r1
 778              	.LVL130:
 779 02a8 4AE7     		b	.L28
 780              	.LVL131:
 781              	.L161:
 782 02aa 1E1C     		mov	r6, r3
 783              	.LVL132:
 784 02ac 3CE7     		b	.L26
 785              	.LVL133:
 786              	.L160:
 787 02ae 061C     		mov	r6, r0
 788              	.LVL134:
 789 02b0 2EE7     		b	.L24
 790              	.LVL135:
 791              	.L159:
ARM GAS  /tmp/ccaofhaY.s 			page 15


 792 02b2 0E1C     		mov	r6, r1
 793              	.LVL136:
 794 02b4 20E7     		b	.L22
 795              	.LVL137:
 796              	.L158:
 797 02b6 1E1C     		mov	r6, r3
 798              	.LVL138:
 799 02b8 12E7     		b	.L20
 800              	.L174:
 801 02ba C046     		.align	2
 802              	.L173:
 803 02bc 00000000 		.word	fit_rightedge
 804 02c0 00000000 		.word	fit_leftedge
 805              	.LBE31:
 806              		.cfi_endproc
 807              	.LFE45:
 808              		.size	mf_compute_kerning, .-mf_compute_kerning
 809 02c4 C046C046 		.text
 809      C046C046 
 809      C046C046 
 810              	.Letext0:
 811              		.file 2 "/home/matt/arm_cortex/gcc-arm-none-eabi/bin/../lib/gcc/arm-none-eabi/4.7.4/../../../../ar
 812              		.file 3 "/home/matt/arm_cortex/ChibiOS/ext/ugfx/src/gdisp/mcufont/mf_font.h"
 813              		.file 4 "/home/matt/arm_cortex/ChibiOS/ext/ugfx/src/gdisp/mcufont/mf_encoding.h"
 814              		.section	.debug_info,"",%progbits
 815              	.Ldebug_info0:
 816 0000 BF060000 		.4byte	0x6bf
 817 0004 0200     		.2byte	0x2
 818 0006 00000000 		.4byte	.Ldebug_abbrev0
 819 000a 04       		.byte	0x4
 820 000b 01       		.uleb128 0x1
 821 000c 3F000000 		.4byte	.LASF51
 822 0010 01       		.byte	0x1
 823 0011 DE000000 		.4byte	.LASF52
 824 0015 20000000 		.4byte	.Ldebug_ranges0+0x20
 825 0019 00000000 		.4byte	0
 826 001d 00000000 		.4byte	0
 827 0021 00000000 		.4byte	.Ldebug_line0
 828 0025 02       		.uleb128 0x2
 829 0026 04       		.byte	0x4
 830 0027 05       		.byte	0x5
 831 0028 696E7400 		.ascii	"int\000"
 832 002c 03       		.uleb128 0x3
 833 002d 04       		.byte	0x4
 834 002e 07       		.byte	0x7
 835 002f A5010000 		.4byte	.LASF0
 836 0033 04       		.uleb128 0x4
 837 0034 1A000000 		.4byte	.LASF2
 838 0038 02       		.byte	0x2
 839 0039 29       		.byte	0x29
 840 003a 3E000000 		.4byte	0x3e
 841 003e 03       		.uleb128 0x3
 842 003f 01       		.byte	0x1
 843 0040 06       		.byte	0x6
 844 0041 71010000 		.4byte	.LASF1
 845 0045 04       		.uleb128 0x4
 846 0046 82000000 		.4byte	.LASF3
ARM GAS  /tmp/ccaofhaY.s 			page 16


 847 004a 02       		.byte	0x2
 848 004b 2A       		.byte	0x2a
 849 004c 50000000 		.4byte	0x50
 850 0050 03       		.uleb128 0x3
 851 0051 01       		.byte	0x1
 852 0052 08       		.byte	0x8
 853 0053 53010000 		.4byte	.LASF4
 854 0057 04       		.uleb128 0x4
 855 0058 1D020000 		.4byte	.LASF5
 856 005c 02       		.byte	0x2
 857 005d 35       		.byte	0x35
 858 005e 62000000 		.4byte	0x62
 859 0062 03       		.uleb128 0x3
 860 0063 02       		.byte	0x2
 861 0064 05       		.byte	0x5
 862 0065 2C000000 		.4byte	.LASF6
 863 0069 03       		.uleb128 0x3
 864 006a 02       		.byte	0x2
 865 006b 07       		.byte	0x7
 866 006c CD010000 		.4byte	.LASF7
 867 0070 03       		.uleb128 0x3
 868 0071 04       		.byte	0x4
 869 0072 05       		.byte	0x5
 870 0073 D5000000 		.4byte	.LASF8
 871 0077 03       		.uleb128 0x3
 872 0078 04       		.byte	0x4
 873 0079 07       		.byte	0x7
 874 007a 44020000 		.4byte	.LASF9
 875 007e 03       		.uleb128 0x3
 876 007f 08       		.byte	0x8
 877 0080 05       		.byte	0x5
 878 0081 AD000000 		.4byte	.LASF10
 879 0085 03       		.uleb128 0x3
 880 0086 08       		.byte	0x8
 881 0087 07       		.byte	0x7
 882 0088 83010000 		.4byte	.LASF11
 883 008c 03       		.uleb128 0x3
 884 008d 01       		.byte	0x1
 885 008e 02       		.byte	0x2
 886 008f 25020000 		.4byte	.LASF12
 887 0093 05       		.uleb128 0x5
 888 0094 04       		.byte	0x4
 889 0095 03       		.uleb128 0x3
 890 0096 04       		.byte	0x4
 891 0097 07       		.byte	0x7
 892 0098 36000000 		.4byte	.LASF13
 893 009c 06       		.uleb128 0x6
 894 009d 04       		.byte	0x4
 895 009e A2000000 		.4byte	0xa2
 896 00a2 07       		.uleb128 0x7
 897 00a3 A7000000 		.4byte	0xa7
 898 00a7 03       		.uleb128 0x3
 899 00a8 01       		.byte	0x1
 900 00a9 08       		.byte	0x8
 901 00aa EE010000 		.4byte	.LASF14
 902 00ae 08       		.uleb128 0x8
 903 00af 45000000 		.4byte	0x45
ARM GAS  /tmp/ccaofhaY.s 			page 17


 904 00b3 BE000000 		.4byte	0xbe
 905 00b7 09       		.uleb128 0x9
 906 00b8 95000000 		.4byte	0x95
 907 00bc 0F       		.byte	0xf
 908 00bd 00       		.byte	0
 909 00be 06       		.uleb128 0x6
 910 00bf 04       		.byte	0x4
 911 00c0 C4000000 		.4byte	0xc4
 912 00c4 07       		.uleb128 0x7
 913 00c5 C9000000 		.4byte	0xc9
 914 00c9 0A       		.uleb128 0xa
 915 00ca 92000000 		.4byte	.LASF30
 916 00ce 1C       		.byte	0x1c
 917 00cf 03       		.byte	0x3
 918 00d0 1D       		.byte	0x1d
 919 00d1 8C010000 		.4byte	0x18c
 920 00d5 0B       		.uleb128 0xb
 921 00d6 37010000 		.4byte	.LASF15
 922 00da 03       		.byte	0x3
 923 00db 20       		.byte	0x20
 924 00dc 9C000000 		.4byte	0x9c
 925 00e0 02       		.byte	0x2
 926 00e1 23       		.byte	0x23
 927 00e2 00       		.uleb128 0
 928 00e3 0B       		.uleb128 0xb
 929 00e4 48010000 		.4byte	.LASF16
 930 00e8 03       		.byte	0x3
 931 00e9 23       		.byte	0x23
 932 00ea 9C000000 		.4byte	0x9c
 933 00ee 02       		.byte	0x2
 934 00ef 23       		.byte	0x23
 935 00f0 04       		.uleb128 0x4
 936 00f1 0B       		.uleb128 0xb
 937 00f2 A7000000 		.4byte	.LASF17
 938 00f6 03       		.byte	0x3
 939 00f7 26       		.byte	0x26
 940 00f8 45000000 		.4byte	0x45
 941 00fc 02       		.byte	0x2
 942 00fd 23       		.byte	0x23
 943 00fe 08       		.uleb128 0x8
 944 00ff 0B       		.uleb128 0xb
 945 0100 2B020000 		.4byte	.LASF18
 946 0104 03       		.byte	0x3
 947 0105 27       		.byte	0x27
 948 0106 45000000 		.4byte	0x45
 949 010a 02       		.byte	0x2
 950 010b 23       		.byte	0x23
 951 010c 09       		.uleb128 0x9
 952 010d 0B       		.uleb128 0xb
 953 010e C7000000 		.4byte	.LASF19
 954 0112 03       		.byte	0x3
 955 0113 2A       		.byte	0x2a
 956 0114 45000000 		.4byte	0x45
 957 0118 02       		.byte	0x2
 958 0119 23       		.byte	0x23
 959 011a 0A       		.uleb128 0xa
 960 011b 0B       		.uleb128 0xb
ARM GAS  /tmp/ccaofhaY.s 			page 18


 961 011c E0010000 		.4byte	.LASF20
 962 0120 03       		.byte	0x3
 963 0121 2B       		.byte	0x2b
 964 0122 45000000 		.4byte	0x45
 965 0126 02       		.byte	0x2
 966 0127 23       		.byte	0x23
 967 0128 0B       		.uleb128 0xb
 968 0129 0B       		.uleb128 0xb
 969 012a F3010000 		.4byte	.LASF21
 970 012e 03       		.byte	0x3
 971 012f 2E       		.byte	0x2e
 972 0130 45000000 		.4byte	0x45
 973 0134 02       		.byte	0x2
 974 0135 23       		.byte	0x23
 975 0136 0C       		.uleb128 0xc
 976 0137 0B       		.uleb128 0xb
 977 0138 FE010000 		.4byte	.LASF22
 978 013c 03       		.byte	0x3
 979 013d 2F       		.byte	0x2f
 980 013e 45000000 		.4byte	0x45
 981 0142 02       		.byte	0x2
 982 0143 23       		.byte	0x23
 983 0144 0D       		.uleb128 0xd
 984 0145 0B       		.uleb128 0xb
 985 0146 BB000000 		.4byte	.LASF23
 986 014a 03       		.byte	0x3
 987 014b 32       		.byte	0x32
 988 014c 45000000 		.4byte	0x45
 989 0150 02       		.byte	0x2
 990 0151 23       		.byte	0x23
 991 0152 0E       		.uleb128 0xe
 992 0153 0B       		.uleb128 0xb
 993 0154 7D010000 		.4byte	.LASF24
 994 0158 03       		.byte	0x3
 995 0159 35       		.byte	0x35
 996 015a 45000000 		.4byte	0x45
 997 015e 02       		.byte	0x2
 998 015f 23       		.byte	0x23
 999 0160 0F       		.uleb128 0xf
 1000 0161 0B       		.uleb128 0xb
 1001 0162 75020000 		.4byte	.LASF25
 1002 0166 03       		.byte	0x3
 1003 0167 38       		.byte	0x38
 1004 0168 8C010000 		.4byte	0x18c
 1005 016c 02       		.byte	0x2
 1006 016d 23       		.byte	0x23
 1007 016e 10       		.uleb128 0x10
 1008 016f 0B       		.uleb128 0xb
 1009 0170 88020000 		.4byte	.LASF26
 1010 0174 03       		.byte	0x3
 1011 0175 3C       		.byte	0x3c
 1012 0176 DD010000 		.4byte	0x1dd
 1013 017a 02       		.byte	0x2
 1014 017b 23       		.byte	0x23
 1015 017c 14       		.uleb128 0x14
 1016 017d 0B       		.uleb128 0xb
 1017 017e 61000000 		.4byte	.LASF27
ARM GAS  /tmp/ccaofhaY.s 			page 19


 1018 0182 03       		.byte	0x3
 1019 0183 40       		.byte	0x40
 1020 0184 0C020000 		.4byte	0x20c
 1021 0188 02       		.byte	0x2
 1022 0189 23       		.byte	0x23
 1023 018a 18       		.uleb128 0x18
 1024 018b 00       		.byte	0
 1025 018c 04       		.uleb128 0x4
 1026 018d 8A000000 		.4byte	.LASF28
 1027 0191 04       		.byte	0x4
 1028 0192 16       		.byte	0x16
 1029 0193 A7000000 		.4byte	0xa7
 1030 0197 04       		.uleb128 0x4
 1031 0198 09020000 		.4byte	.LASF29
 1032 019c 03       		.byte	0x3
 1033 019d 19       		.byte	0x19
 1034 019e A2010000 		.4byte	0x1a2
 1035 01a2 06       		.uleb128 0x6
 1036 01a3 04       		.byte	0x4
 1037 01a4 A8010000 		.4byte	0x1a8
 1038 01a8 0C       		.uleb128 0xc
 1039 01a9 01       		.byte	0x1
 1040 01aa C8010000 		.4byte	0x1c8
 1041 01ae 0D       		.uleb128 0xd
 1042 01af 57000000 		.4byte	0x57
 1043 01b3 0D       		.uleb128 0xd
 1044 01b4 57000000 		.4byte	0x57
 1045 01b8 0D       		.uleb128 0xd
 1046 01b9 45000000 		.4byte	0x45
 1047 01bd 0D       		.uleb128 0xd
 1048 01be 45000000 		.4byte	0x45
 1049 01c2 0D       		.uleb128 0xd
 1050 01c3 93000000 		.4byte	0x93
 1051 01c7 00       		.byte	0
 1052 01c8 0E       		.uleb128 0xe
 1053 01c9 01       		.byte	0x1
 1054 01ca 45000000 		.4byte	0x45
 1055 01ce DD010000 		.4byte	0x1dd
 1056 01d2 0D       		.uleb128 0xd
 1057 01d3 BE000000 		.4byte	0xbe
 1058 01d7 0D       		.uleb128 0xd
 1059 01d8 8C010000 		.4byte	0x18c
 1060 01dc 00       		.byte	0
 1061 01dd 06       		.uleb128 0x6
 1062 01de 04       		.byte	0x4
 1063 01df C8010000 		.4byte	0x1c8
 1064 01e3 0E       		.uleb128 0xe
 1065 01e4 01       		.byte	0x1
 1066 01e5 45000000 		.4byte	0x45
 1067 01e9 0C020000 		.4byte	0x20c
 1068 01ed 0D       		.uleb128 0xd
 1069 01ee BE000000 		.4byte	0xbe
 1070 01f2 0D       		.uleb128 0xd
 1071 01f3 57000000 		.4byte	0x57
 1072 01f7 0D       		.uleb128 0xd
 1073 01f8 57000000 		.4byte	0x57
 1074 01fc 0D       		.uleb128 0xd
ARM GAS  /tmp/ccaofhaY.s 			page 20


 1075 01fd 8C010000 		.4byte	0x18c
 1076 0201 0D       		.uleb128 0xd
 1077 0202 97010000 		.4byte	0x197
 1078 0206 0D       		.uleb128 0xd
 1079 0207 93000000 		.4byte	0x93
 1080 020b 00       		.byte	0
 1081 020c 06       		.uleb128 0x6
 1082 020d 04       		.byte	0x4
 1083 020e E3010000 		.4byte	0x1e3
 1084 0212 0A       		.uleb128 0xa
 1085 0213 72000000 		.4byte	.LASF31
 1086 0217 11       		.byte	0x11
 1087 0218 01       		.byte	0x1
 1088 0219 11       		.byte	0x11
 1089 021a 3B020000 		.4byte	0x23b
 1090 021e 0B       		.uleb128 0xb
 1091 021f B2010000 		.4byte	.LASF32
 1092 0223 01       		.byte	0x1
 1093 0224 13       		.byte	0x13
 1094 0225 AE000000 		.4byte	0xae
 1095 0229 02       		.byte	0x2
 1096 022a 23       		.byte	0x23
 1097 022b 00       		.uleb128 0
 1098 022c 0B       		.uleb128 0xb
 1099 022d 9A010000 		.4byte	.LASF33
 1100 0231 01       		.byte	0x1
 1101 0232 14       		.byte	0x14
 1102 0233 45000000 		.4byte	0x45
 1103 0237 02       		.byte	0x2
 1104 0238 23       		.byte	0x23
 1105 0239 10       		.uleb128 0x10
 1106 023a 00       		.byte	0
 1107 023b 0F       		.uleb128 0xf
 1108 023c 32020000 		.4byte	.LASF38
 1109 0240 01       		.byte	0x1
 1110 0241 18       		.byte	0x18
 1111 0242 01       		.byte	0x1
 1112 0243 01       		.byte	0x1
 1113 0244 92020000 		.4byte	0x292
 1114 0248 10       		.uleb128 0x10
 1115 0249 7800     		.ascii	"x\000"
 1116 024b 01       		.byte	0x1
 1117 024c 18       		.byte	0x18
 1118 024d 57000000 		.4byte	0x57
 1119 0251 10       		.uleb128 0x10
 1120 0252 7900     		.ascii	"y\000"
 1121 0254 01       		.byte	0x1
 1122 0255 18       		.byte	0x18
 1123 0256 57000000 		.4byte	0x57
 1124 025a 11       		.uleb128 0x11
 1125 025b 69020000 		.4byte	.LASF34
 1126 025f 01       		.byte	0x1
 1127 0260 18       		.byte	0x18
 1128 0261 45000000 		.4byte	0x45
 1129 0265 11       		.uleb128 0x11
 1130 0266 63020000 		.4byte	.LASF35
 1131 026a 01       		.byte	0x1
ARM GAS  /tmp/ccaofhaY.s 			page 21


 1132 026b 18       		.byte	0x18
 1133 026c 45000000 		.4byte	0x45
 1134 0270 11       		.uleb128 0x11
 1135 0271 21000000 		.4byte	.LASF36
 1136 0275 01       		.byte	0x1
 1137 0276 19       		.byte	0x19
 1138 0277 93000000 		.4byte	0x93
 1139 027b 12       		.uleb128 0x12
 1140 027c 7300     		.ascii	"s\000"
 1141 027e 01       		.byte	0x1
 1142 027f 1B       		.byte	0x1b
 1143 0280 92020000 		.4byte	0x292
 1144 0284 13       		.uleb128 0x13
 1145 0285 14       		.uleb128 0x14
 1146 0286 3F020000 		.4byte	.LASF37
 1147 028a 01       		.byte	0x1
 1148 028b 20       		.byte	0x20
 1149 028c 45000000 		.4byte	0x45
 1150 0290 00       		.byte	0
 1151 0291 00       		.byte	0
 1152 0292 06       		.uleb128 0x6
 1153 0293 04       		.byte	0x4
 1154 0294 12020000 		.4byte	0x212
 1155 0298 0F       		.uleb128 0xf
 1156 0299 98020000 		.4byte	.LASF39
 1157 029d 01       		.byte	0x1
 1158 029e 27       		.byte	0x27
 1159 029f 01       		.byte	0x1
 1160 02a0 01       		.byte	0x1
 1161 02a1 EF020000 		.4byte	0x2ef
 1162 02a5 10       		.uleb128 0x10
 1163 02a6 7800     		.ascii	"x\000"
 1164 02a8 01       		.byte	0x1
 1165 02a9 27       		.byte	0x27
 1166 02aa 57000000 		.4byte	0x57
 1167 02ae 10       		.uleb128 0x10
 1168 02af 7900     		.ascii	"y\000"
 1169 02b1 01       		.byte	0x1
 1170 02b2 27       		.byte	0x27
 1171 02b3 57000000 		.4byte	0x57
 1172 02b7 11       		.uleb128 0x11
 1173 02b8 69020000 		.4byte	.LASF34
 1174 02bc 01       		.byte	0x1
 1175 02bd 27       		.byte	0x27
 1176 02be 45000000 		.4byte	0x45
 1177 02c2 11       		.uleb128 0x11
 1178 02c3 63020000 		.4byte	.LASF35
 1179 02c7 01       		.byte	0x1
 1180 02c8 27       		.byte	0x27
 1181 02c9 45000000 		.4byte	0x45
 1182 02cd 11       		.uleb128 0x11
 1183 02ce 21000000 		.4byte	.LASF36
 1184 02d2 01       		.byte	0x1
 1185 02d3 28       		.byte	0x28
 1186 02d4 93000000 		.4byte	0x93
 1187 02d8 12       		.uleb128 0x12
 1188 02d9 7300     		.ascii	"s\000"
ARM GAS  /tmp/ccaofhaY.s 			page 22


 1189 02db 01       		.byte	0x1
 1190 02dc 2A       		.byte	0x2a
 1191 02dd 92020000 		.4byte	0x292
 1192 02e1 13       		.uleb128 0x13
 1193 02e2 14       		.uleb128 0x14
 1194 02e3 3F020000 		.4byte	.LASF37
 1195 02e7 01       		.byte	0x1
 1196 02e8 2E       		.byte	0x2e
 1197 02e9 45000000 		.4byte	0x45
 1198 02ed 00       		.byte	0
 1199 02ee 00       		.byte	0
 1200 02ef 15       		.uleb128 0x15
 1201 02f0 A6020000 		.4byte	.LASF40
 1202 02f4 01       		.byte	0x1
 1203 02f5 36       		.byte	0x36
 1204 02f6 01       		.byte	0x1
 1205 02f7 8C000000 		.4byte	0x8c
 1206 02fb 01       		.byte	0x1
 1207 02fc 0A030000 		.4byte	0x30a
 1208 0300 10       		.uleb128 0x10
 1209 0301 6300     		.ascii	"c\000"
 1210 0303 01       		.byte	0x1
 1211 0304 36       		.byte	0x36
 1212 0305 8C010000 		.4byte	0x18c
 1213 0309 00       		.byte	0
 1214 030a 15       		.uleb128 0x15
 1215 030b 00000000 		.4byte	.LASF41
 1216 030f 01       		.byte	0x1
 1217 0310 46       		.byte	0x46
 1218 0311 01       		.byte	0x1
 1219 0312 57000000 		.4byte	0x57
 1220 0316 01       		.byte	0x1
 1221 0317 2E030000 		.4byte	0x32e
 1222 031b 10       		.uleb128 0x10
 1223 031c 6100     		.ascii	"a\000"
 1224 031e 01       		.byte	0x1
 1225 031f 46       		.byte	0x46
 1226 0320 57000000 		.4byte	0x57
 1227 0324 10       		.uleb128 0x10
 1228 0325 6200     		.ascii	"b\000"
 1229 0327 01       		.byte	0x1
 1230 0328 46       		.byte	0x46
 1231 0329 57000000 		.4byte	0x57
 1232 032d 00       		.byte	0
 1233 032e 15       		.uleb128 0x15
 1234 032f 6F020000 		.4byte	.LASF42
 1235 0333 01       		.byte	0x1
 1236 0334 45       		.byte	0x45
 1237 0335 01       		.byte	0x1
 1238 0336 57000000 		.4byte	0x57
 1239 033a 01       		.byte	0x1
 1240 033b 52030000 		.4byte	0x352
 1241 033f 10       		.uleb128 0x10
 1242 0340 6100     		.ascii	"a\000"
 1243 0342 01       		.byte	0x1
 1244 0343 45       		.byte	0x45
 1245 0344 57000000 		.4byte	0x57
ARM GAS  /tmp/ccaofhaY.s 			page 23


 1246 0348 10       		.uleb128 0x10
 1247 0349 6200     		.ascii	"b\000"
 1248 034b 01       		.byte	0x1
 1249 034c 45       		.byte	0x45
 1250 034d 57000000 		.4byte	0x57
 1251 0351 00       		.byte	0
 1252 0352 16       		.uleb128 0x16
 1253 0353 3B020000 		.4byte	0x23b
 1254 0357 00000000 		.4byte	.LFB40
 1255 035b 22000000 		.4byte	.LFE40
 1256 035f 00000000 		.4byte	.LLST0
 1257 0363 01       		.byte	0x1
 1258 0364 F4030000 		.4byte	0x3f4
 1259 0368 17       		.uleb128 0x17
 1260 0369 48020000 		.4byte	0x248
 1261 036d 20000000 		.4byte	.LLST1
 1262 0371 17       		.uleb128 0x17
 1263 0372 51020000 		.4byte	0x251
 1264 0376 41000000 		.4byte	.LLST2
 1265 037a 17       		.uleb128 0x17
 1266 037b 5A020000 		.4byte	0x25a
 1267 037f 62000000 		.4byte	.LLST3
 1268 0383 17       		.uleb128 0x17
 1269 0384 65020000 		.4byte	0x265
 1270 0388 83000000 		.4byte	.LLST4
 1271 038c 18       		.uleb128 0x18
 1272 038d 70020000 		.4byte	0x270
 1273 0391 02       		.byte	0x2
 1274 0392 91       		.byte	0x91
 1275 0393 00       		.sleb128 0
 1276 0394 19       		.uleb128 0x19
 1277 0395 7B020000 		.4byte	0x27b
 1278 0399 02       		.byte	0x2
 1279 039a 91       		.byte	0x91
 1280 039b 00       		.sleb128 0
 1281 039c 1A       		.uleb128 0x1a
 1282 039d 3B020000 		.4byte	0x23b
 1283 03a1 0A000000 		.4byte	.LBB12
 1284 03a5 20000000 		.4byte	.LBE12
 1285 03a9 01       		.byte	0x1
 1286 03aa 18       		.byte	0x18
 1287 03ab 17       		.uleb128 0x17
 1288 03ac 70020000 		.4byte	0x270
 1289 03b0 A4000000 		.4byte	.LLST5
 1290 03b4 17       		.uleb128 0x17
 1291 03b5 51020000 		.4byte	0x251
 1292 03b9 B8000000 		.4byte	.LLST6
 1293 03bd 17       		.uleb128 0x17
 1294 03be 48020000 		.4byte	0x248
 1295 03c2 CB000000 		.4byte	.LLST7
 1296 03c6 1B       		.uleb128 0x1b
 1297 03c7 0A000000 		.4byte	.LBB13
 1298 03cb 20000000 		.4byte	.LBE13
 1299 03cf 1C       		.uleb128 0x1c
 1300 03d0 7B020000 		.4byte	0x27b
 1301 03d4 1D       		.uleb128 0x1d
 1302 03d5 65020000 		.4byte	0x265
ARM GAS  /tmp/ccaofhaY.s 			page 24


 1303 03d9 1D       		.uleb128 0x1d
 1304 03da 5A020000 		.4byte	0x25a
 1305 03de 1B       		.uleb128 0x1b
 1306 03df 0A000000 		.4byte	.LBB14
 1307 03e3 20000000 		.4byte	.LBE14
 1308 03e7 1E       		.uleb128 0x1e
 1309 03e8 85020000 		.4byte	0x285
 1310 03ec DE000000 		.4byte	.LLST8
 1311 03f0 00       		.byte	0
 1312 03f1 00       		.byte	0
 1313 03f2 00       		.byte	0
 1314 03f3 00       		.byte	0
 1315 03f4 16       		.uleb128 0x16
 1316 03f5 98020000 		.4byte	0x298
 1317 03f9 00000000 		.4byte	.LFB41
 1318 03fd 2A000000 		.4byte	.LFE41
 1319 0401 02010000 		.4byte	.LLST9
 1320 0405 01       		.byte	0x1
 1321 0406 9A040000 		.4byte	0x49a
 1322 040a 17       		.uleb128 0x17
 1323 040b A5020000 		.4byte	0x2a5
 1324 040f 22010000 		.4byte	.LLST10
 1325 0413 17       		.uleb128 0x17
 1326 0414 AE020000 		.4byte	0x2ae
 1327 0418 43010000 		.4byte	.LLST11
 1328 041c 17       		.uleb128 0x17
 1329 041d B7020000 		.4byte	0x2b7
 1330 0421 64010000 		.4byte	.LLST12
 1331 0425 17       		.uleb128 0x17
 1332 0426 C2020000 		.4byte	0x2c2
 1333 042a 85010000 		.4byte	.LLST13
 1334 042e 18       		.uleb128 0x18
 1335 042f CD020000 		.4byte	0x2cd
 1336 0433 02       		.byte	0x2
 1337 0434 91       		.byte	0x91
 1338 0435 00       		.sleb128 0
 1339 0436 19       		.uleb128 0x19
 1340 0437 D8020000 		.4byte	0x2d8
 1341 043b 02       		.byte	0x2
 1342 043c 91       		.byte	0x91
 1343 043d 00       		.sleb128 0
 1344 043e 1A       		.uleb128 0x1a
 1345 043f 98020000 		.4byte	0x298
 1346 0443 06000000 		.4byte	.LBB18
 1347 0447 28000000 		.4byte	.LBE18
 1348 044b 01       		.byte	0x1
 1349 044c 27       		.byte	0x27
 1350 044d 17       		.uleb128 0x17
 1351 044e CD020000 		.4byte	0x2cd
 1352 0452 A6010000 		.4byte	.LLST14
 1353 0456 17       		.uleb128 0x17
 1354 0457 B7020000 		.4byte	0x2b7
 1355 045b BA010000 		.4byte	.LLST15
 1356 045f 17       		.uleb128 0x17
 1357 0460 AE020000 		.4byte	0x2ae
 1358 0464 CD010000 		.4byte	.LLST16
 1359 0468 17       		.uleb128 0x17
ARM GAS  /tmp/ccaofhaY.s 			page 25


 1360 0469 A5020000 		.4byte	0x2a5
 1361 046d EB010000 		.4byte	.LLST17
 1362 0471 1B       		.uleb128 0x1b
 1363 0472 06000000 		.4byte	.LBB19
 1364 0476 28000000 		.4byte	.LBE19
 1365 047a 1C       		.uleb128 0x1c
 1366 047b D8020000 		.4byte	0x2d8
 1367 047f 1D       		.uleb128 0x1d
 1368 0480 C2020000 		.4byte	0x2c2
 1369 0484 1B       		.uleb128 0x1b
 1370 0485 06000000 		.4byte	.LBB20
 1371 0489 28000000 		.4byte	.LBE20
 1372 048d 1E       		.uleb128 0x1e
 1373 048e E2020000 		.4byte	0x2e2
 1374 0492 21020000 		.4byte	.LLST18
 1375 0496 00       		.byte	0
 1376 0497 00       		.byte	0
 1377 0498 00       		.byte	0
 1378 0499 00       		.byte	0
 1379 049a 1F       		.uleb128 0x1f
 1380 049b EF020000 		.4byte	0x2ef
 1381 049f 00000000 		.4byte	.LFB42
 1382 04a3 22000000 		.4byte	.LFE42
 1383 04a7 02       		.byte	0x2
 1384 04a8 7D       		.byte	0x7d
 1385 04a9 00       		.sleb128 0
 1386 04aa 01       		.byte	0x1
 1387 04ab D2040000 		.4byte	0x4d2
 1388 04af 17       		.uleb128 0x17
 1389 04b0 00030000 		.4byte	0x300
 1390 04b4 61020000 		.4byte	.LLST19
 1391 04b8 1A       		.uleb128 0x1a
 1392 04b9 EF020000 		.4byte	0x2ef
 1393 04bd 0C000000 		.4byte	.LBB23
 1394 04c1 1E000000 		.4byte	.LBE23
 1395 04c5 01       		.byte	0x1
 1396 04c6 36       		.byte	0x36
 1397 04c7 17       		.uleb128 0x17
 1398 04c8 00030000 		.4byte	0x300
 1399 04cc 9B020000 		.4byte	.LLST20
 1400 04d0 00       		.byte	0
 1401 04d1 00       		.byte	0
 1402 04d2 20       		.uleb128 0x20
 1403 04d3 01       		.byte	0x1
 1404 04d4 24010000 		.4byte	.LASF53
 1405 04d8 01       		.byte	0x1
 1406 04d9 48       		.byte	0x48
 1407 04da 01       		.byte	0x1
 1408 04db 33000000 		.4byte	0x33
 1409 04df 00000000 		.4byte	.LFB45
 1410 04e3 C4020000 		.4byte	.LFE45
 1411 04e7 BB020000 		.4byte	.LLST21
 1412 04eb 01       		.byte	0x1
 1413 04ec 95060000 		.4byte	0x695
 1414 04f0 21       		.uleb128 0x21
 1415 04f1 27000000 		.4byte	.LASF43
 1416 04f5 01       		.byte	0x1
ARM GAS  /tmp/ccaofhaY.s 			page 26


 1417 04f6 48       		.byte	0x48
 1418 04f7 BE000000 		.4byte	0xbe
 1419 04fb F4020000 		.4byte	.LLST22
 1420 04ff 22       		.uleb128 0x22
 1421 0500 633100   		.ascii	"c1\000"
 1422 0503 01       		.byte	0x1
 1423 0504 49       		.byte	0x49
 1424 0505 8C010000 		.4byte	0x18c
 1425 0509 20030000 		.4byte	.LLST23
 1426 050d 22       		.uleb128 0x22
 1427 050e 633200   		.ascii	"c2\000"
 1428 0511 01       		.byte	0x1
 1429 0512 49       		.byte	0x49
 1430 0513 8C010000 		.4byte	0x18c
 1431 0517 41030000 		.4byte	.LLST24
 1432 051b 23       		.uleb128 0x23
 1433 051c BA010000 		.4byte	.LASF44
 1434 0520 01       		.byte	0x1
 1435 0521 4B       		.byte	0x4b
 1436 0522 12020000 		.4byte	0x212
 1437 0526 03       		.byte	0x3
 1438 0527 91       		.byte	0x91
 1439 0528 B87F     		.sleb128 -72
 1440 052a 23       		.uleb128 0x23
 1441 052b 61010000 		.4byte	.LASF45
 1442 052f 01       		.byte	0x1
 1443 0530 4B       		.byte	0x4b
 1444 0531 12020000 		.4byte	0x212
 1445 0535 02       		.byte	0x2
 1446 0536 91       		.byte	0x91
 1447 0537 4C       		.sleb128 -52
 1448 0538 24       		.uleb128 0x24
 1449 0539 773100   		.ascii	"w1\000"
 1450 053c 01       		.byte	0x1
 1451 053d 4C       		.byte	0x4c
 1452 053e 45000000 		.4byte	0x45
 1453 0542 62030000 		.4byte	.LLST25
 1454 0546 24       		.uleb128 0x24
 1455 0547 773200   		.ascii	"w2\000"
 1456 054a 01       		.byte	0x1
 1457 054b 4C       		.byte	0x4c
 1458 054c 45000000 		.4byte	0x45
 1459 0550 8B030000 		.4byte	.LLST26
 1460 0554 24       		.uleb128 0x24
 1461 0555 6900     		.ascii	"i\000"
 1462 0557 01       		.byte	0x1
 1463 0558 4C       		.byte	0x4c
 1464 0559 45000000 		.4byte	0x45
 1465 055d BF030000 		.4byte	.LLST27
 1466 0561 25       		.uleb128 0x25
 1467 0562 C3010000 		.4byte	.LASF46
 1468 0566 01       		.byte	0x1
 1469 0567 4C       		.byte	0x4c
 1470 0568 45000000 		.4byte	0x45
 1471 056c 2A060000 		.4byte	.LLST28
 1472 0570 25       		.uleb128 0x25
 1473 0571 56020000 		.4byte	.LASF47
ARM GAS  /tmp/ccaofhaY.s 			page 27


 1474 0575 01       		.byte	0x1
 1475 0576 4D       		.byte	0x4d
 1476 0577 57000000 		.4byte	0x57
 1477 057b F1060000 		.4byte	.LLST29
 1478 057f 25       		.uleb128 0x25
 1479 0580 41010000 		.4byte	.LASF48
 1480 0584 01       		.byte	0x1
 1481 0585 4D       		.byte	0x4d
 1482 0586 57000000 		.4byte	0x57
 1483 058a 18070000 		.4byte	.LLST30
 1484 058e 25       		.uleb128 0x25
 1485 058f 9C000000 		.4byte	.LASF49
 1486 0593 01       		.byte	0x1
 1487 0594 4D       		.byte	0x4d
 1488 0595 57000000 		.4byte	0x57
 1489 0599 36070000 		.4byte	.LLST31
 1490 059d 26       		.uleb128 0x26
 1491 059e 00000000 		.4byte	.Ldebug_ranges0+0
 1492 05a2 B6050000 		.4byte	0x5b6
 1493 05a6 25       		.uleb128 0x25
 1494 05a7 6B010000 		.4byte	.LASF50
 1495 05ab 01       		.byte	0x1
 1496 05ac 69       		.byte	0x69
 1497 05ad 45000000 		.4byte	0x45
 1498 05b1 63070000 		.4byte	.LLST32
 1499 05b5 00       		.byte	0
 1500 05b6 27       		.uleb128 0x27
 1501 05b7 0A030000 		.4byte	0x30a
 1502 05bb 2A020000 		.4byte	.LBB27
 1503 05bf 30020000 		.4byte	.LBE27
 1504 05c3 01       		.byte	0x1
 1505 05c4 76       		.byte	0x76
 1506 05c5 DC050000 		.4byte	0x5dc
 1507 05c9 17       		.uleb128 0x17
 1508 05ca 24030000 		.4byte	0x324
 1509 05ce FA0A0000 		.4byte	.LLST33
 1510 05d2 17       		.uleb128 0x17
 1511 05d3 1B030000 		.4byte	0x31b
 1512 05d7 120B0000 		.4byte	.LLST34
 1513 05db 00       		.byte	0
 1514 05dc 27       		.uleb128 0x27
 1515 05dd 2E030000 		.4byte	0x32e
 1516 05e1 48020000 		.4byte	.LBB29
 1517 05e5 54020000 		.4byte	.LBE29
 1518 05e9 01       		.byte	0x1
 1519 05ea 79       		.byte	0x79
 1520 05eb 02060000 		.4byte	0x602
 1521 05ef 17       		.uleb128 0x17
 1522 05f0 48030000 		.4byte	0x348
 1523 05f4 2A0B0000 		.4byte	.LLST35
 1524 05f8 17       		.uleb128 0x17
 1525 05f9 3F030000 		.4byte	0x33f
 1526 05fd 420B0000 		.4byte	.LLST36
 1527 0601 00       		.byte	0
 1528 0602 28       		.uleb128 0x28
 1529 0603 20000000 		.4byte	.LVL28
 1530 0607 EF020000 		.4byte	0x2ef
ARM GAS  /tmp/ccaofhaY.s 			page 28


 1531 060b 16060000 		.4byte	0x616
 1532 060f 29       		.uleb128 0x29
 1533 0610 01       		.byte	0x1
 1534 0611 50       		.byte	0x50
 1535 0612 02       		.byte	0x2
 1536 0613 79       		.byte	0x79
 1537 0614 00       		.sleb128 0
 1538 0615 00       		.byte	0
 1539 0616 28       		.uleb128 0x28
 1540 0617 2C000000 		.4byte	.LVL29
 1541 061b EF020000 		.4byte	0x2ef
 1542 061f 2A060000 		.4byte	0x62a
 1543 0623 29       		.uleb128 0x29
 1544 0624 01       		.byte	0x1
 1545 0625 50       		.byte	0x50
 1546 0626 02       		.byte	0x2
 1547 0627 7A       		.byte	0x7a
 1548 0628 00       		.sleb128 0
 1549 0629 00       		.byte	0
 1550 062a 28       		.uleb128 0x28
 1551 062b 9C000000 		.4byte	.LVL49
 1552 062f 95060000 		.4byte	0x695
 1553 0633 61060000 		.4byte	0x661
 1554 0637 29       		.uleb128 0x29
 1555 0638 01       		.byte	0x1
 1556 0639 53       		.byte	0x53
 1557 063a 02       		.byte	0x2
 1558 063b 79       		.byte	0x79
 1559 063c 00       		.sleb128 0
 1560 063d 29       		.uleb128 0x29
 1561 063e 01       		.byte	0x1
 1562 063f 52       		.byte	0x52
 1563 0640 02       		.byte	0x2
 1564 0641 76       		.byte	0x76
 1565 0642 00       		.sleb128 0
 1566 0643 29       		.uleb128 0x29
 1567 0644 01       		.byte	0x1
 1568 0645 51       		.byte	0x51
 1569 0646 02       		.byte	0x2
 1570 0647 76       		.byte	0x76
 1571 0648 00       		.sleb128 0
 1572 0649 29       		.uleb128 0x29
 1573 064a 01       		.byte	0x1
 1574 064b 50       		.byte	0x50
 1575 064c 02       		.byte	0x2
 1576 064d 78       		.byte	0x78
 1577 064e 00       		.sleb128 0
 1578 064f 29       		.uleb128 0x29
 1579 0650 02       		.byte	0x2
 1580 0651 7D       		.byte	0x7d
 1581 0652 04       		.sleb128 4
 1582 0653 02       		.byte	0x2
 1583 0654 75       		.byte	0x75
 1584 0655 00       		.sleb128 0
 1585 0656 29       		.uleb128 0x29
 1586 0657 02       		.byte	0x2
 1587 0658 7D       		.byte	0x7d
ARM GAS  /tmp/ccaofhaY.s 			page 29


 1588 0659 00       		.sleb128 0
 1589 065a 05       		.byte	0x5
 1590 065b 03       		.byte	0x3
 1591 065c 00000000 		.4byte	fit_rightedge
 1592 0660 00       		.byte	0
 1593 0661 2A       		.uleb128 0x2a
 1594 0662 B0000000 		.4byte	.LVL52
 1595 0666 95060000 		.4byte	0x695
 1596 066a 29       		.uleb128 0x29
 1597 066b 01       		.byte	0x1
 1598 066c 53       		.byte	0x53
 1599 066d 02       		.byte	0x2
 1600 066e 7A       		.byte	0x7a
 1601 066f 00       		.sleb128 0
 1602 0670 29       		.uleb128 0x29
 1603 0671 01       		.byte	0x1
 1604 0672 52       		.byte	0x52
 1605 0673 02       		.byte	0x2
 1606 0674 76       		.byte	0x76
 1607 0675 00       		.sleb128 0
 1608 0676 29       		.uleb128 0x29
 1609 0677 01       		.byte	0x1
 1610 0678 51       		.byte	0x51
 1611 0679 02       		.byte	0x2
 1612 067a 76       		.byte	0x76
 1613 067b 00       		.sleb128 0
 1614 067c 29       		.uleb128 0x29
 1615 067d 01       		.byte	0x1
 1616 067e 50       		.byte	0x50
 1617 067f 02       		.byte	0x2
 1618 0680 78       		.byte	0x78
 1619 0681 00       		.sleb128 0
 1620 0682 29       		.uleb128 0x29
 1621 0683 02       		.byte	0x2
 1622 0684 7D       		.byte	0x7d
 1623 0685 04       		.sleb128 4
 1624 0686 02       		.byte	0x2
 1625 0687 74       		.byte	0x74
 1626 0688 00       		.sleb128 0
 1627 0689 29       		.uleb128 0x29
 1628 068a 02       		.byte	0x2
 1629 068b 7D       		.byte	0x7d
 1630 068c 00       		.sleb128 0
 1631 068d 05       		.byte	0x5
 1632 068e 03       		.byte	0x3
 1633 068f 00000000 		.4byte	fit_leftedge
 1634 0693 00       		.byte	0
 1635 0694 00       		.byte	0
 1636 0695 2B       		.uleb128 0x2b
 1637 0696 01       		.byte	0x1
 1638 0697 06000000 		.4byte	.LASF54
 1639 069b 03       		.byte	0x3
 1640 069c 5D       		.byte	0x5d
 1641 069d 01       		.byte	0x1
 1642 069e 45000000 		.4byte	0x45
 1643 06a2 01       		.byte	0x1
 1644 06a3 0D       		.uleb128 0xd
ARM GAS  /tmp/ccaofhaY.s 			page 30


 1645 06a4 BE000000 		.4byte	0xbe
 1646 06a8 0D       		.uleb128 0xd
 1647 06a9 57000000 		.4byte	0x57
 1648 06ad 0D       		.uleb128 0xd
 1649 06ae 57000000 		.4byte	0x57
 1650 06b2 0D       		.uleb128 0xd
 1651 06b3 8C010000 		.4byte	0x18c
 1652 06b7 0D       		.uleb128 0xd
 1653 06b8 97010000 		.4byte	0x197
 1654 06bc 0D       		.uleb128 0xd
 1655 06bd 93000000 		.4byte	0x93
 1656 06c1 00       		.byte	0
 1657 06c2 00       		.byte	0
 1658              		.section	.debug_abbrev,"",%progbits
 1659              	.Ldebug_abbrev0:
 1660 0000 01       		.uleb128 0x1
 1661 0001 11       		.uleb128 0x11
 1662 0002 01       		.byte	0x1
 1663 0003 25       		.uleb128 0x25
 1664 0004 0E       		.uleb128 0xe
 1665 0005 13       		.uleb128 0x13
 1666 0006 0B       		.uleb128 0xb
 1667 0007 03       		.uleb128 0x3
 1668 0008 0E       		.uleb128 0xe
 1669 0009 55       		.uleb128 0x55
 1670 000a 06       		.uleb128 0x6
 1671 000b 11       		.uleb128 0x11
 1672 000c 01       		.uleb128 0x1
 1673 000d 52       		.uleb128 0x52
 1674 000e 01       		.uleb128 0x1
 1675 000f 10       		.uleb128 0x10
 1676 0010 06       		.uleb128 0x6
 1677 0011 00       		.byte	0
 1678 0012 00       		.byte	0
 1679 0013 02       		.uleb128 0x2
 1680 0014 24       		.uleb128 0x24
 1681 0015 00       		.byte	0
 1682 0016 0B       		.uleb128 0xb
 1683 0017 0B       		.uleb128 0xb
 1684 0018 3E       		.uleb128 0x3e
 1685 0019 0B       		.uleb128 0xb
 1686 001a 03       		.uleb128 0x3
 1687 001b 08       		.uleb128 0x8
 1688 001c 00       		.byte	0
 1689 001d 00       		.byte	0
 1690 001e 03       		.uleb128 0x3
 1691 001f 24       		.uleb128 0x24
 1692 0020 00       		.byte	0
 1693 0021 0B       		.uleb128 0xb
 1694 0022 0B       		.uleb128 0xb
 1695 0023 3E       		.uleb128 0x3e
 1696 0024 0B       		.uleb128 0xb
 1697 0025 03       		.uleb128 0x3
 1698 0026 0E       		.uleb128 0xe
 1699 0027 00       		.byte	0
 1700 0028 00       		.byte	0
 1701 0029 04       		.uleb128 0x4
ARM GAS  /tmp/ccaofhaY.s 			page 31


 1702 002a 16       		.uleb128 0x16
 1703 002b 00       		.byte	0
 1704 002c 03       		.uleb128 0x3
 1705 002d 0E       		.uleb128 0xe
 1706 002e 3A       		.uleb128 0x3a
 1707 002f 0B       		.uleb128 0xb
 1708 0030 3B       		.uleb128 0x3b
 1709 0031 0B       		.uleb128 0xb
 1710 0032 49       		.uleb128 0x49
 1711 0033 13       		.uleb128 0x13
 1712 0034 00       		.byte	0
 1713 0035 00       		.byte	0
 1714 0036 05       		.uleb128 0x5
 1715 0037 0F       		.uleb128 0xf
 1716 0038 00       		.byte	0
 1717 0039 0B       		.uleb128 0xb
 1718 003a 0B       		.uleb128 0xb
 1719 003b 00       		.byte	0
 1720 003c 00       		.byte	0
 1721 003d 06       		.uleb128 0x6
 1722 003e 0F       		.uleb128 0xf
 1723 003f 00       		.byte	0
 1724 0040 0B       		.uleb128 0xb
 1725 0041 0B       		.uleb128 0xb
 1726 0042 49       		.uleb128 0x49
 1727 0043 13       		.uleb128 0x13
 1728 0044 00       		.byte	0
 1729 0045 00       		.byte	0
 1730 0046 07       		.uleb128 0x7
 1731 0047 26       		.uleb128 0x26
 1732 0048 00       		.byte	0
 1733 0049 49       		.uleb128 0x49
 1734 004a 13       		.uleb128 0x13
 1735 004b 00       		.byte	0
 1736 004c 00       		.byte	0
 1737 004d 08       		.uleb128 0x8
 1738 004e 01       		.uleb128 0x1
 1739 004f 01       		.byte	0x1
 1740 0050 49       		.uleb128 0x49
 1741 0051 13       		.uleb128 0x13
 1742 0052 01       		.uleb128 0x1
 1743 0053 13       		.uleb128 0x13
 1744 0054 00       		.byte	0
 1745 0055 00       		.byte	0
 1746 0056 09       		.uleb128 0x9
 1747 0057 21       		.uleb128 0x21
 1748 0058 00       		.byte	0
 1749 0059 49       		.uleb128 0x49
 1750 005a 13       		.uleb128 0x13
 1751 005b 2F       		.uleb128 0x2f
 1752 005c 0B       		.uleb128 0xb
 1753 005d 00       		.byte	0
 1754 005e 00       		.byte	0
 1755 005f 0A       		.uleb128 0xa
 1756 0060 13       		.uleb128 0x13
 1757 0061 01       		.byte	0x1
 1758 0062 03       		.uleb128 0x3
ARM GAS  /tmp/ccaofhaY.s 			page 32


 1759 0063 0E       		.uleb128 0xe
 1760 0064 0B       		.uleb128 0xb
 1761 0065 0B       		.uleb128 0xb
 1762 0066 3A       		.uleb128 0x3a
 1763 0067 0B       		.uleb128 0xb
 1764 0068 3B       		.uleb128 0x3b
 1765 0069 0B       		.uleb128 0xb
 1766 006a 01       		.uleb128 0x1
 1767 006b 13       		.uleb128 0x13
 1768 006c 00       		.byte	0
 1769 006d 00       		.byte	0
 1770 006e 0B       		.uleb128 0xb
 1771 006f 0D       		.uleb128 0xd
 1772 0070 00       		.byte	0
 1773 0071 03       		.uleb128 0x3
 1774 0072 0E       		.uleb128 0xe
 1775 0073 3A       		.uleb128 0x3a
 1776 0074 0B       		.uleb128 0xb
 1777 0075 3B       		.uleb128 0x3b
 1778 0076 0B       		.uleb128 0xb
 1779 0077 49       		.uleb128 0x49
 1780 0078 13       		.uleb128 0x13
 1781 0079 38       		.uleb128 0x38
 1782 007a 0A       		.uleb128 0xa
 1783 007b 00       		.byte	0
 1784 007c 00       		.byte	0
 1785 007d 0C       		.uleb128 0xc
 1786 007e 15       		.uleb128 0x15
 1787 007f 01       		.byte	0x1
 1788 0080 27       		.uleb128 0x27
 1789 0081 0C       		.uleb128 0xc
 1790 0082 01       		.uleb128 0x1
 1791 0083 13       		.uleb128 0x13
 1792 0084 00       		.byte	0
 1793 0085 00       		.byte	0
 1794 0086 0D       		.uleb128 0xd
 1795 0087 05       		.uleb128 0x5
 1796 0088 00       		.byte	0
 1797 0089 49       		.uleb128 0x49
 1798 008a 13       		.uleb128 0x13
 1799 008b 00       		.byte	0
 1800 008c 00       		.byte	0
 1801 008d 0E       		.uleb128 0xe
 1802 008e 15       		.uleb128 0x15
 1803 008f 01       		.byte	0x1
 1804 0090 27       		.uleb128 0x27
 1805 0091 0C       		.uleb128 0xc
 1806 0092 49       		.uleb128 0x49
 1807 0093 13       		.uleb128 0x13
 1808 0094 01       		.uleb128 0x1
 1809 0095 13       		.uleb128 0x13
 1810 0096 00       		.byte	0
 1811 0097 00       		.byte	0
 1812 0098 0F       		.uleb128 0xf
 1813 0099 2E       		.uleb128 0x2e
 1814 009a 01       		.byte	0x1
 1815 009b 03       		.uleb128 0x3
ARM GAS  /tmp/ccaofhaY.s 			page 33


 1816 009c 0E       		.uleb128 0xe
 1817 009d 3A       		.uleb128 0x3a
 1818 009e 0B       		.uleb128 0xb
 1819 009f 3B       		.uleb128 0x3b
 1820 00a0 0B       		.uleb128 0xb
 1821 00a1 27       		.uleb128 0x27
 1822 00a2 0C       		.uleb128 0xc
 1823 00a3 20       		.uleb128 0x20
 1824 00a4 0B       		.uleb128 0xb
 1825 00a5 01       		.uleb128 0x1
 1826 00a6 13       		.uleb128 0x13
 1827 00a7 00       		.byte	0
 1828 00a8 00       		.byte	0
 1829 00a9 10       		.uleb128 0x10
 1830 00aa 05       		.uleb128 0x5
 1831 00ab 00       		.byte	0
 1832 00ac 03       		.uleb128 0x3
 1833 00ad 08       		.uleb128 0x8
 1834 00ae 3A       		.uleb128 0x3a
 1835 00af 0B       		.uleb128 0xb
 1836 00b0 3B       		.uleb128 0x3b
 1837 00b1 0B       		.uleb128 0xb
 1838 00b2 49       		.uleb128 0x49
 1839 00b3 13       		.uleb128 0x13
 1840 00b4 00       		.byte	0
 1841 00b5 00       		.byte	0
 1842 00b6 11       		.uleb128 0x11
 1843 00b7 05       		.uleb128 0x5
 1844 00b8 00       		.byte	0
 1845 00b9 03       		.uleb128 0x3
 1846 00ba 0E       		.uleb128 0xe
 1847 00bb 3A       		.uleb128 0x3a
 1848 00bc 0B       		.uleb128 0xb
 1849 00bd 3B       		.uleb128 0x3b
 1850 00be 0B       		.uleb128 0xb
 1851 00bf 49       		.uleb128 0x49
 1852 00c0 13       		.uleb128 0x13
 1853 00c1 00       		.byte	0
 1854 00c2 00       		.byte	0
 1855 00c3 12       		.uleb128 0x12
 1856 00c4 34       		.uleb128 0x34
 1857 00c5 00       		.byte	0
 1858 00c6 03       		.uleb128 0x3
 1859 00c7 08       		.uleb128 0x8
 1860 00c8 3A       		.uleb128 0x3a
 1861 00c9 0B       		.uleb128 0xb
 1862 00ca 3B       		.uleb128 0x3b
 1863 00cb 0B       		.uleb128 0xb
 1864 00cc 49       		.uleb128 0x49
 1865 00cd 13       		.uleb128 0x13
 1866 00ce 00       		.byte	0
 1867 00cf 00       		.byte	0
 1868 00d0 13       		.uleb128 0x13
 1869 00d1 0B       		.uleb128 0xb
 1870 00d2 01       		.byte	0x1
 1871 00d3 00       		.byte	0
 1872 00d4 00       		.byte	0
ARM GAS  /tmp/ccaofhaY.s 			page 34


 1873 00d5 14       		.uleb128 0x14
 1874 00d6 34       		.uleb128 0x34
 1875 00d7 00       		.byte	0
 1876 00d8 03       		.uleb128 0x3
 1877 00d9 0E       		.uleb128 0xe
 1878 00da 3A       		.uleb128 0x3a
 1879 00db 0B       		.uleb128 0xb
 1880 00dc 3B       		.uleb128 0x3b
 1881 00dd 0B       		.uleb128 0xb
 1882 00de 49       		.uleb128 0x49
 1883 00df 13       		.uleb128 0x13
 1884 00e0 00       		.byte	0
 1885 00e1 00       		.byte	0
 1886 00e2 15       		.uleb128 0x15
 1887 00e3 2E       		.uleb128 0x2e
 1888 00e4 01       		.byte	0x1
 1889 00e5 03       		.uleb128 0x3
 1890 00e6 0E       		.uleb128 0xe
 1891 00e7 3A       		.uleb128 0x3a
 1892 00e8 0B       		.uleb128 0xb
 1893 00e9 3B       		.uleb128 0x3b
 1894 00ea 0B       		.uleb128 0xb
 1895 00eb 27       		.uleb128 0x27
 1896 00ec 0C       		.uleb128 0xc
 1897 00ed 49       		.uleb128 0x49
 1898 00ee 13       		.uleb128 0x13
 1899 00ef 20       		.uleb128 0x20
 1900 00f0 0B       		.uleb128 0xb
 1901 00f1 01       		.uleb128 0x1
 1902 00f2 13       		.uleb128 0x13
 1903 00f3 00       		.byte	0
 1904 00f4 00       		.byte	0
 1905 00f5 16       		.uleb128 0x16
 1906 00f6 2E       		.uleb128 0x2e
 1907 00f7 01       		.byte	0x1
 1908 00f8 31       		.uleb128 0x31
 1909 00f9 13       		.uleb128 0x13
 1910 00fa 11       		.uleb128 0x11
 1911 00fb 01       		.uleb128 0x1
 1912 00fc 12       		.uleb128 0x12
 1913 00fd 01       		.uleb128 0x1
 1914 00fe 40       		.uleb128 0x40
 1915 00ff 06       		.uleb128 0x6
 1916 0100 9642     		.uleb128 0x2116
 1917 0102 0C       		.uleb128 0xc
 1918 0103 01       		.uleb128 0x1
 1919 0104 13       		.uleb128 0x13
 1920 0105 00       		.byte	0
 1921 0106 00       		.byte	0
 1922 0107 17       		.uleb128 0x17
 1923 0108 05       		.uleb128 0x5
 1924 0109 00       		.byte	0
 1925 010a 31       		.uleb128 0x31
 1926 010b 13       		.uleb128 0x13
 1927 010c 02       		.uleb128 0x2
 1928 010d 06       		.uleb128 0x6
 1929 010e 00       		.byte	0
ARM GAS  /tmp/ccaofhaY.s 			page 35


 1930 010f 00       		.byte	0
 1931 0110 18       		.uleb128 0x18
 1932 0111 05       		.uleb128 0x5
 1933 0112 00       		.byte	0
 1934 0113 31       		.uleb128 0x31
 1935 0114 13       		.uleb128 0x13
 1936 0115 02       		.uleb128 0x2
 1937 0116 0A       		.uleb128 0xa
 1938 0117 00       		.byte	0
 1939 0118 00       		.byte	0
 1940 0119 19       		.uleb128 0x19
 1941 011a 34       		.uleb128 0x34
 1942 011b 00       		.byte	0
 1943 011c 31       		.uleb128 0x31
 1944 011d 13       		.uleb128 0x13
 1945 011e 02       		.uleb128 0x2
 1946 011f 0A       		.uleb128 0xa
 1947 0120 00       		.byte	0
 1948 0121 00       		.byte	0
 1949 0122 1A       		.uleb128 0x1a
 1950 0123 1D       		.uleb128 0x1d
 1951 0124 01       		.byte	0x1
 1952 0125 31       		.uleb128 0x31
 1953 0126 13       		.uleb128 0x13
 1954 0127 11       		.uleb128 0x11
 1955 0128 01       		.uleb128 0x1
 1956 0129 12       		.uleb128 0x12
 1957 012a 01       		.uleb128 0x1
 1958 012b 58       		.uleb128 0x58
 1959 012c 0B       		.uleb128 0xb
 1960 012d 59       		.uleb128 0x59
 1961 012e 0B       		.uleb128 0xb
 1962 012f 00       		.byte	0
 1963 0130 00       		.byte	0
 1964 0131 1B       		.uleb128 0x1b
 1965 0132 0B       		.uleb128 0xb
 1966 0133 01       		.byte	0x1
 1967 0134 11       		.uleb128 0x11
 1968 0135 01       		.uleb128 0x1
 1969 0136 12       		.uleb128 0x12
 1970 0137 01       		.uleb128 0x1
 1971 0138 00       		.byte	0
 1972 0139 00       		.byte	0
 1973 013a 1C       		.uleb128 0x1c
 1974 013b 34       		.uleb128 0x34
 1975 013c 00       		.byte	0
 1976 013d 31       		.uleb128 0x31
 1977 013e 13       		.uleb128 0x13
 1978 013f 00       		.byte	0
 1979 0140 00       		.byte	0
 1980 0141 1D       		.uleb128 0x1d
 1981 0142 05       		.uleb128 0x5
 1982 0143 00       		.byte	0
 1983 0144 31       		.uleb128 0x31
 1984 0145 13       		.uleb128 0x13
 1985 0146 00       		.byte	0
 1986 0147 00       		.byte	0
ARM GAS  /tmp/ccaofhaY.s 			page 36


 1987 0148 1E       		.uleb128 0x1e
 1988 0149 34       		.uleb128 0x34
 1989 014a 00       		.byte	0
 1990 014b 31       		.uleb128 0x31
 1991 014c 13       		.uleb128 0x13
 1992 014d 02       		.uleb128 0x2
 1993 014e 06       		.uleb128 0x6
 1994 014f 00       		.byte	0
 1995 0150 00       		.byte	0
 1996 0151 1F       		.uleb128 0x1f
 1997 0152 2E       		.uleb128 0x2e
 1998 0153 01       		.byte	0x1
 1999 0154 31       		.uleb128 0x31
 2000 0155 13       		.uleb128 0x13
 2001 0156 11       		.uleb128 0x11
 2002 0157 01       		.uleb128 0x1
 2003 0158 12       		.uleb128 0x12
 2004 0159 01       		.uleb128 0x1
 2005 015a 40       		.uleb128 0x40
 2006 015b 0A       		.uleb128 0xa
 2007 015c 9742     		.uleb128 0x2117
 2008 015e 0C       		.uleb128 0xc
 2009 015f 01       		.uleb128 0x1
 2010 0160 13       		.uleb128 0x13
 2011 0161 00       		.byte	0
 2012 0162 00       		.byte	0
 2013 0163 20       		.uleb128 0x20
 2014 0164 2E       		.uleb128 0x2e
 2015 0165 01       		.byte	0x1
 2016 0166 3F       		.uleb128 0x3f
 2017 0167 0C       		.uleb128 0xc
 2018 0168 03       		.uleb128 0x3
 2019 0169 0E       		.uleb128 0xe
 2020 016a 3A       		.uleb128 0x3a
 2021 016b 0B       		.uleb128 0xb
 2022 016c 3B       		.uleb128 0x3b
 2023 016d 0B       		.uleb128 0xb
 2024 016e 27       		.uleb128 0x27
 2025 016f 0C       		.uleb128 0xc
 2026 0170 49       		.uleb128 0x49
 2027 0171 13       		.uleb128 0x13
 2028 0172 11       		.uleb128 0x11
 2029 0173 01       		.uleb128 0x1
 2030 0174 12       		.uleb128 0x12
 2031 0175 01       		.uleb128 0x1
 2032 0176 40       		.uleb128 0x40
 2033 0177 06       		.uleb128 0x6
 2034 0178 9642     		.uleb128 0x2116
 2035 017a 0C       		.uleb128 0xc
 2036 017b 01       		.uleb128 0x1
 2037 017c 13       		.uleb128 0x13
 2038 017d 00       		.byte	0
 2039 017e 00       		.byte	0
 2040 017f 21       		.uleb128 0x21
 2041 0180 05       		.uleb128 0x5
 2042 0181 00       		.byte	0
 2043 0182 03       		.uleb128 0x3
ARM GAS  /tmp/ccaofhaY.s 			page 37


 2044 0183 0E       		.uleb128 0xe
 2045 0184 3A       		.uleb128 0x3a
 2046 0185 0B       		.uleb128 0xb
 2047 0186 3B       		.uleb128 0x3b
 2048 0187 0B       		.uleb128 0xb
 2049 0188 49       		.uleb128 0x49
 2050 0189 13       		.uleb128 0x13
 2051 018a 02       		.uleb128 0x2
 2052 018b 06       		.uleb128 0x6
 2053 018c 00       		.byte	0
 2054 018d 00       		.byte	0
 2055 018e 22       		.uleb128 0x22
 2056 018f 05       		.uleb128 0x5
 2057 0190 00       		.byte	0
 2058 0191 03       		.uleb128 0x3
 2059 0192 08       		.uleb128 0x8
 2060 0193 3A       		.uleb128 0x3a
 2061 0194 0B       		.uleb128 0xb
 2062 0195 3B       		.uleb128 0x3b
 2063 0196 0B       		.uleb128 0xb
 2064 0197 49       		.uleb128 0x49
 2065 0198 13       		.uleb128 0x13
 2066 0199 02       		.uleb128 0x2
 2067 019a 06       		.uleb128 0x6
 2068 019b 00       		.byte	0
 2069 019c 00       		.byte	0
 2070 019d 23       		.uleb128 0x23
 2071 019e 34       		.uleb128 0x34
 2072 019f 00       		.byte	0
 2073 01a0 03       		.uleb128 0x3
 2074 01a1 0E       		.uleb128 0xe
 2075 01a2 3A       		.uleb128 0x3a
 2076 01a3 0B       		.uleb128 0xb
 2077 01a4 3B       		.uleb128 0x3b
 2078 01a5 0B       		.uleb128 0xb
 2079 01a6 49       		.uleb128 0x49
 2080 01a7 13       		.uleb128 0x13
 2081 01a8 02       		.uleb128 0x2
 2082 01a9 0A       		.uleb128 0xa
 2083 01aa 00       		.byte	0
 2084 01ab 00       		.byte	0
 2085 01ac 24       		.uleb128 0x24
 2086 01ad 34       		.uleb128 0x34
 2087 01ae 00       		.byte	0
 2088 01af 03       		.uleb128 0x3
 2089 01b0 08       		.uleb128 0x8
 2090 01b1 3A       		.uleb128 0x3a
 2091 01b2 0B       		.uleb128 0xb
 2092 01b3 3B       		.uleb128 0x3b
 2093 01b4 0B       		.uleb128 0xb
 2094 01b5 49       		.uleb128 0x49
 2095 01b6 13       		.uleb128 0x13
 2096 01b7 02       		.uleb128 0x2
 2097 01b8 06       		.uleb128 0x6
 2098 01b9 00       		.byte	0
 2099 01ba 00       		.byte	0
 2100 01bb 25       		.uleb128 0x25
ARM GAS  /tmp/ccaofhaY.s 			page 38


 2101 01bc 34       		.uleb128 0x34
 2102 01bd 00       		.byte	0
 2103 01be 03       		.uleb128 0x3
 2104 01bf 0E       		.uleb128 0xe
 2105 01c0 3A       		.uleb128 0x3a
 2106 01c1 0B       		.uleb128 0xb
 2107 01c2 3B       		.uleb128 0x3b
 2108 01c3 0B       		.uleb128 0xb
 2109 01c4 49       		.uleb128 0x49
 2110 01c5 13       		.uleb128 0x13
 2111 01c6 02       		.uleb128 0x2
 2112 01c7 06       		.uleb128 0x6
 2113 01c8 00       		.byte	0
 2114 01c9 00       		.byte	0
 2115 01ca 26       		.uleb128 0x26
 2116 01cb 0B       		.uleb128 0xb
 2117 01cc 01       		.byte	0x1
 2118 01cd 55       		.uleb128 0x55
 2119 01ce 06       		.uleb128 0x6
 2120 01cf 01       		.uleb128 0x1
 2121 01d0 13       		.uleb128 0x13
 2122 01d1 00       		.byte	0
 2123 01d2 00       		.byte	0
 2124 01d3 27       		.uleb128 0x27
 2125 01d4 1D       		.uleb128 0x1d
 2126 01d5 01       		.byte	0x1
 2127 01d6 31       		.uleb128 0x31
 2128 01d7 13       		.uleb128 0x13
 2129 01d8 11       		.uleb128 0x11
 2130 01d9 01       		.uleb128 0x1
 2131 01da 12       		.uleb128 0x12
 2132 01db 01       		.uleb128 0x1
 2133 01dc 58       		.uleb128 0x58
 2134 01dd 0B       		.uleb128 0xb
 2135 01de 59       		.uleb128 0x59
 2136 01df 0B       		.uleb128 0xb
 2137 01e0 01       		.uleb128 0x1
 2138 01e1 13       		.uleb128 0x13
 2139 01e2 00       		.byte	0
 2140 01e3 00       		.byte	0
 2141 01e4 28       		.uleb128 0x28
 2142 01e5 898201   		.uleb128 0x4109
 2143 01e8 01       		.byte	0x1
 2144 01e9 11       		.uleb128 0x11
 2145 01ea 01       		.uleb128 0x1
 2146 01eb 31       		.uleb128 0x31
 2147 01ec 13       		.uleb128 0x13
 2148 01ed 01       		.uleb128 0x1
 2149 01ee 13       		.uleb128 0x13
 2150 01ef 00       		.byte	0
 2151 01f0 00       		.byte	0
 2152 01f1 29       		.uleb128 0x29
 2153 01f2 8A8201   		.uleb128 0x410a
 2154 01f5 00       		.byte	0
 2155 01f6 02       		.uleb128 0x2
 2156 01f7 0A       		.uleb128 0xa
 2157 01f8 9142     		.uleb128 0x2111
ARM GAS  /tmp/ccaofhaY.s 			page 39


 2158 01fa 0A       		.uleb128 0xa
 2159 01fb 00       		.byte	0
 2160 01fc 00       		.byte	0
 2161 01fd 2A       		.uleb128 0x2a
 2162 01fe 898201   		.uleb128 0x4109
 2163 0201 01       		.byte	0x1
 2164 0202 11       		.uleb128 0x11
 2165 0203 01       		.uleb128 0x1
 2166 0204 31       		.uleb128 0x31
 2167 0205 13       		.uleb128 0x13
 2168 0206 00       		.byte	0
 2169 0207 00       		.byte	0
 2170 0208 2B       		.uleb128 0x2b
 2171 0209 2E       		.uleb128 0x2e
 2172 020a 01       		.byte	0x1
 2173 020b 3F       		.uleb128 0x3f
 2174 020c 0C       		.uleb128 0xc
 2175 020d 03       		.uleb128 0x3
 2176 020e 0E       		.uleb128 0xe
 2177 020f 3A       		.uleb128 0x3a
 2178 0210 0B       		.uleb128 0xb
 2179 0211 3B       		.uleb128 0x3b
 2180 0212 0B       		.uleb128 0xb
 2181 0213 27       		.uleb128 0x27
 2182 0214 0C       		.uleb128 0xc
 2183 0215 49       		.uleb128 0x49
 2184 0216 13       		.uleb128 0x13
 2185 0217 3C       		.uleb128 0x3c
 2186 0218 0C       		.uleb128 0xc
 2187 0219 00       		.byte	0
 2188 021a 00       		.byte	0
 2189 021b 00       		.byte	0
 2190              		.section	.debug_loc,"",%progbits
 2191              	.Ldebug_loc0:
 2192              	.LLST0:
 2193 0000 00000000 		.4byte	.LFB40
 2194 0004 02000000 		.4byte	.LCFI0
 2195 0008 0200     		.2byte	0x2
 2196 000a 7D       		.byte	0x7d
 2197 000b 00       		.sleb128 0
 2198 000c 02000000 		.4byte	.LCFI0
 2199 0010 22000000 		.4byte	.LFE40
 2200 0014 0200     		.2byte	0x2
 2201 0016 7D       		.byte	0x7d
 2202 0017 08       		.sleb128 8
 2203 0018 00000000 		.4byte	0
 2204 001c 00000000 		.4byte	0
 2205              	.LLST1:
 2206 0020 00000000 		.4byte	.LVL0
 2207 0024 06000000 		.4byte	.LVL2
 2208 0028 0100     		.2byte	0x1
 2209 002a 50       		.byte	0x50
 2210 002b 06000000 		.4byte	.LVL2
 2211 002f 22000000 		.4byte	.LFE40
 2212 0033 0400     		.2byte	0x4
 2213 0035 F3       		.byte	0xf3
 2214 0036 01       		.uleb128 0x1
ARM GAS  /tmp/ccaofhaY.s 			page 40


 2215 0037 50       		.byte	0x50
 2216 0038 9F       		.byte	0x9f
 2217 0039 00000000 		.4byte	0
 2218 003d 00000000 		.4byte	0
 2219              	.LLST2:
 2220 0041 00000000 		.4byte	.LVL0
 2221 0045 0E000000 		.4byte	.LVL5
 2222 0049 0100     		.2byte	0x1
 2223 004b 51       		.byte	0x51
 2224 004c 0E000000 		.4byte	.LVL5
 2225 0050 22000000 		.4byte	.LFE40
 2226 0054 0400     		.2byte	0x4
 2227 0056 F3       		.byte	0xf3
 2228 0057 01       		.uleb128 0x1
 2229 0058 51       		.byte	0x51
 2230 0059 9F       		.byte	0x9f
 2231 005a 00000000 		.4byte	0
 2232 005e 00000000 		.4byte	0
 2233              	.LLST3:
 2234 0062 00000000 		.4byte	.LVL0
 2235 0066 0C000000 		.4byte	.LVL4
 2236 006a 0100     		.2byte	0x1
 2237 006c 52       		.byte	0x52
 2238 006d 0C000000 		.4byte	.LVL4
 2239 0071 22000000 		.4byte	.LFE40
 2240 0075 0400     		.2byte	0x4
 2241 0077 F3       		.byte	0xf3
 2242 0078 01       		.uleb128 0x1
 2243 0079 52       		.byte	0x52
 2244 007a 9F       		.byte	0x9f
 2245 007b 00000000 		.4byte	0
 2246 007f 00000000 		.4byte	0
 2247              	.LLST4:
 2248 0083 00000000 		.4byte	.LVL0
 2249 0087 11000000 		.4byte	.LVL6-1
 2250 008b 0100     		.2byte	0x1
 2251 008d 53       		.byte	0x53
 2252 008e 11000000 		.4byte	.LVL6-1
 2253 0092 22000000 		.4byte	.LFE40
 2254 0096 0400     		.2byte	0x4
 2255 0098 F3       		.byte	0xf3
 2256 0099 01       		.uleb128 0x1
 2257 009a 53       		.byte	0x53
 2258 009b 9F       		.byte	0x9f
 2259 009c 00000000 		.4byte	0
 2260 00a0 00000000 		.4byte	0
 2261              	.LLST5:
 2262 00a4 0A000000 		.4byte	.LVL3
 2263 00a8 20000000 		.4byte	.LVL7
 2264 00ac 0200     		.2byte	0x2
 2265 00ae 91       		.byte	0x91
 2266 00af 00       		.sleb128 0
 2267 00b0 00000000 		.4byte	0
 2268 00b4 00000000 		.4byte	0
 2269              	.LLST6:
 2270 00b8 0A000000 		.4byte	.LVL3
 2271 00bc 11000000 		.4byte	.LVL6-1
ARM GAS  /tmp/ccaofhaY.s 			page 41


 2272 00c0 0100     		.2byte	0x1
 2273 00c2 50       		.byte	0x50
 2274 00c3 00000000 		.4byte	0
 2275 00c7 00000000 		.4byte	0
 2276              	.LLST7:
 2277 00cb 0A000000 		.4byte	.LVL3
 2278 00cf 20000000 		.4byte	.LVL7
 2279 00d3 0100     		.2byte	0x1
 2280 00d5 54       		.byte	0x54
 2281 00d6 00000000 		.4byte	0
 2282 00da 00000000 		.4byte	0
 2283              	.LLST8:
 2284 00de 0A000000 		.4byte	.LVL3
 2285 00e2 11000000 		.4byte	.LVL6-1
 2286 00e6 1200     		.2byte	0x12
 2287 00e8 70       		.byte	0x70
 2288 00e9 00       		.sleb128 0
 2289 00ea 40       		.byte	0x40
 2290 00eb 24       		.byte	0x24
 2291 00ec 40       		.byte	0x40
 2292 00ed 26       		.byte	0x26
 2293 00ee 91       		.byte	0x91
 2294 00ef 00       		.sleb128 0
 2295 00f0 06       		.byte	0x6
 2296 00f1 23       		.byte	0x23
 2297 00f2 10       		.uleb128 0x10
 2298 00f3 94       		.byte	0x94
 2299 00f4 01       		.byte	0x1
 2300 00f5 08       		.byte	0x8
 2301 00f6 FF       		.byte	0xff
 2302 00f7 1A       		.byte	0x1a
 2303 00f8 1B       		.byte	0x1b
 2304 00f9 9F       		.byte	0x9f
 2305 00fa 00000000 		.4byte	0
 2306 00fe 00000000 		.4byte	0
 2307              	.LLST9:
 2308 0102 00000000 		.4byte	.LFB41
 2309 0106 02000000 		.4byte	.LCFI1
 2310 010a 0200     		.2byte	0x2
 2311 010c 7D       		.byte	0x7d
 2312 010d 00       		.sleb128 0
 2313 010e 02000000 		.4byte	.LCFI1
 2314 0112 2A000000 		.4byte	.LFE41
 2315 0116 0200     		.2byte	0x2
 2316 0118 7D       		.byte	0x7d
 2317 0119 08       		.sleb128 8
 2318 011a 00000000 		.4byte	0
 2319 011e 00000000 		.4byte	0
 2320              	.LLST10:
 2321 0122 00000000 		.4byte	.LVL8
 2322 0126 08000000 		.4byte	.LVL11
 2323 012a 0100     		.2byte	0x1
 2324 012c 50       		.byte	0x50
 2325 012d 08000000 		.4byte	.LVL11
 2326 0131 2A000000 		.4byte	.LFE41
 2327 0135 0400     		.2byte	0x4
 2328 0137 F3       		.byte	0xf3
ARM GAS  /tmp/ccaofhaY.s 			page 42


 2329 0138 01       		.uleb128 0x1
 2330 0139 50       		.byte	0x50
 2331 013a 9F       		.byte	0x9f
 2332 013b 00000000 		.4byte	0
 2333 013f 00000000 		.4byte	0
 2334              	.LLST11:
 2335 0143 00000000 		.4byte	.LVL8
 2336 0147 14000000 		.4byte	.LVL16
 2337 014b 0100     		.2byte	0x1
 2338 014d 51       		.byte	0x51
 2339 014e 14000000 		.4byte	.LVL16
 2340 0152 2A000000 		.4byte	.LFE41
 2341 0156 0400     		.2byte	0x4
 2342 0158 F3       		.byte	0xf3
 2343 0159 01       		.uleb128 0x1
 2344 015a 51       		.byte	0x51
 2345 015b 9F       		.byte	0x9f
 2346 015c 00000000 		.4byte	0
 2347 0160 00000000 		.4byte	0
 2348              	.LLST12:
 2349 0164 00000000 		.4byte	.LVL8
 2350 0168 0A000000 		.4byte	.LVL12
 2351 016c 0100     		.2byte	0x1
 2352 016e 52       		.byte	0x52
 2353 016f 0A000000 		.4byte	.LVL12
 2354 0173 2A000000 		.4byte	.LFE41
 2355 0177 0400     		.2byte	0x4
 2356 0179 F3       		.byte	0xf3
 2357 017a 01       		.uleb128 0x1
 2358 017b 52       		.byte	0x52
 2359 017c 9F       		.byte	0x9f
 2360 017d 00000000 		.4byte	0
 2361 0181 00000000 		.4byte	0
 2362              	.LLST13:
 2363 0185 00000000 		.4byte	.LVL8
 2364 0189 10000000 		.4byte	.LVL15
 2365 018d 0100     		.2byte	0x1
 2366 018f 53       		.byte	0x53
 2367 0190 10000000 		.4byte	.LVL15
 2368 0194 2A000000 		.4byte	.LFE41
 2369 0198 0400     		.2byte	0x4
 2370 019a F3       		.byte	0xf3
 2371 019b 01       		.uleb128 0x1
 2372 019c 53       		.byte	0x53
 2373 019d 9F       		.byte	0x9f
 2374 019e 00000000 		.4byte	0
 2375 01a2 00000000 		.4byte	0
 2376              	.LLST14:
 2377 01a6 06000000 		.4byte	.LVL10
 2378 01aa 28000000 		.4byte	.LVL18
 2379 01ae 0200     		.2byte	0x2
 2380 01b0 91       		.byte	0x91
 2381 01b1 00       		.sleb128 0
 2382 01b2 00000000 		.4byte	0
 2383 01b6 00000000 		.4byte	0
 2384              	.LLST15:
 2385 01ba 06000000 		.4byte	.LVL10
ARM GAS  /tmp/ccaofhaY.s 			page 43


 2386 01be 0A000000 		.4byte	.LVL12
 2387 01c2 0100     		.2byte	0x1
 2388 01c4 52       		.byte	0x52
 2389 01c5 00000000 		.4byte	0
 2390 01c9 00000000 		.4byte	0
 2391              	.LLST16:
 2392 01cd 06000000 		.4byte	.LVL10
 2393 01d1 14000000 		.4byte	.LVL16
 2394 01d5 0100     		.2byte	0x1
 2395 01d7 51       		.byte	0x51
 2396 01d8 14000000 		.4byte	.LVL16
 2397 01dc 17000000 		.4byte	.LVL17-1
 2398 01e0 0100     		.2byte	0x1
 2399 01e2 50       		.byte	0x50
 2400 01e3 00000000 		.4byte	0
 2401 01e7 00000000 		.4byte	0
 2402              	.LLST17:
 2403 01eb 06000000 		.4byte	.LVL10
 2404 01ef 08000000 		.4byte	.LVL11
 2405 01f3 0100     		.2byte	0x1
 2406 01f5 50       		.byte	0x50
 2407 01f6 08000000 		.4byte	.LVL11
 2408 01fa 0C000000 		.4byte	.LVL13
 2409 01fe 0300     		.2byte	0x3
 2410 0200 70       		.byte	0x70
 2411 0201 01       		.sleb128 1
 2412 0202 9F       		.byte	0x9f
 2413 0203 0E000000 		.4byte	.LVL14
 2414 0207 17000000 		.4byte	.LVL17-1
 2415 020b 0100     		.2byte	0x1
 2416 020d 52       		.byte	0x52
 2417 020e 17000000 		.4byte	.LVL17-1
 2418 0212 28000000 		.4byte	.LVL18
 2419 0216 0100     		.2byte	0x1
 2420 0218 54       		.byte	0x54
 2421 0219 00000000 		.4byte	0
 2422 021d 00000000 		.4byte	0
 2423              	.LLST18:
 2424 0221 06000000 		.4byte	.LVL10
 2425 0225 14000000 		.4byte	.LVL16
 2426 0229 1200     		.2byte	0x12
 2427 022b 71       		.byte	0x71
 2428 022c 00       		.sleb128 0
 2429 022d 40       		.byte	0x40
 2430 022e 24       		.byte	0x24
 2431 022f 40       		.byte	0x40
 2432 0230 26       		.byte	0x26
 2433 0231 91       		.byte	0x91
 2434 0232 00       		.sleb128 0
 2435 0233 06       		.byte	0x6
 2436 0234 23       		.byte	0x23
 2437 0235 10       		.uleb128 0x10
 2438 0236 94       		.byte	0x94
 2439 0237 01       		.byte	0x1
 2440 0238 08       		.byte	0x8
 2441 0239 FF       		.byte	0xff
 2442 023a 1A       		.byte	0x1a
ARM GAS  /tmp/ccaofhaY.s 			page 44


 2443 023b 1B       		.byte	0x1b
 2444 023c 9F       		.byte	0x9f
 2445 023d 14000000 		.4byte	.LVL16
 2446 0241 17000000 		.4byte	.LVL17-1
 2447 0245 1200     		.2byte	0x12
 2448 0247 70       		.byte	0x70
 2449 0248 00       		.sleb128 0
 2450 0249 40       		.byte	0x40
 2451 024a 24       		.byte	0x24
 2452 024b 40       		.byte	0x40
 2453 024c 26       		.byte	0x26
 2454 024d 91       		.byte	0x91
 2455 024e 00       		.sleb128 0
 2456 024f 06       		.byte	0x6
 2457 0250 23       		.byte	0x23
 2458 0251 10       		.uleb128 0x10
 2459 0252 94       		.byte	0x94
 2460 0253 01       		.byte	0x1
 2461 0254 08       		.byte	0x8
 2462 0255 FF       		.byte	0xff
 2463 0256 1A       		.byte	0x1a
 2464 0257 1B       		.byte	0x1b
 2465 0258 9F       		.byte	0x9f
 2466 0259 00000000 		.4byte	0
 2467 025d 00000000 		.4byte	0
 2468              	.LLST19:
 2469 0261 00000000 		.4byte	.LVL19
 2470 0265 12000000 		.4byte	.LVL21
 2471 0269 0100     		.2byte	0x1
 2472 026b 50       		.byte	0x50
 2473 026c 12000000 		.4byte	.LVL21
 2474 0270 1E000000 		.4byte	.LVL23
 2475 0274 0400     		.2byte	0x4
 2476 0276 F3       		.byte	0xf3
 2477 0277 01       		.uleb128 0x1
 2478 0278 50       		.byte	0x50
 2479 0279 9F       		.byte	0x9f
 2480 027a 1E000000 		.4byte	.LVL23
 2481 027e 20000000 		.4byte	.LVL24
 2482 0282 0100     		.2byte	0x1
 2483 0284 50       		.byte	0x50
 2484 0285 20000000 		.4byte	.LVL24
 2485 0289 22000000 		.4byte	.LFE42
 2486 028d 0400     		.2byte	0x4
 2487 028f F3       		.byte	0xf3
 2488 0290 01       		.uleb128 0x1
 2489 0291 50       		.byte	0x50
 2490 0292 9F       		.byte	0x9f
 2491 0293 00000000 		.4byte	0
 2492 0297 00000000 		.4byte	0
 2493              	.LLST20:
 2494 029b 0C000000 		.4byte	.LVL20
 2495 029f 12000000 		.4byte	.LVL21
 2496 02a3 0100     		.2byte	0x1
 2497 02a5 50       		.byte	0x50
 2498 02a6 12000000 		.4byte	.LVL21
 2499 02aa 14000000 		.4byte	.LVL22
ARM GAS  /tmp/ccaofhaY.s 			page 45


 2500 02ae 0300     		.2byte	0x3
 2501 02b0 70       		.byte	0x70
 2502 02b1 30       		.sleb128 48
 2503 02b2 9F       		.byte	0x9f
 2504 02b3 00000000 		.4byte	0
 2505 02b7 00000000 		.4byte	0
 2506              	.LLST21:
 2507 02bb 00000000 		.4byte	.LFB45
 2508 02bf 02000000 		.4byte	.LCFI2
 2509 02c3 0200     		.2byte	0x2
 2510 02c5 7D       		.byte	0x7d
 2511 02c6 00       		.sleb128 0
 2512 02c7 02000000 		.4byte	.LCFI2
 2513 02cb 0A000000 		.4byte	.LCFI3
 2514 02cf 0200     		.2byte	0x2
 2515 02d1 7D       		.byte	0x7d
 2516 02d2 14       		.sleb128 20
 2517 02d3 0A000000 		.4byte	.LCFI3
 2518 02d7 0E000000 		.4byte	.LCFI4
 2519 02db 0200     		.2byte	0x2
 2520 02dd 7D       		.byte	0x7d
 2521 02de 20       		.sleb128 32
 2522 02df 0E000000 		.4byte	.LCFI4
 2523 02e3 C4020000 		.4byte	.LFE45
 2524 02e7 0300     		.2byte	0x3
 2525 02e9 7D       		.byte	0x7d
 2526 02ea D000     		.sleb128 80
 2527 02ec 00000000 		.4byte	0
 2528 02f0 00000000 		.4byte	0
 2529              	.LLST22:
 2530 02f4 00000000 		.4byte	.LVL25
 2531 02f8 1C000000 		.4byte	.LVL27
 2532 02fc 0100     		.2byte	0x1
 2533 02fe 50       		.byte	0x50
 2534 02ff 1C000000 		.4byte	.LVL27
 2535 0303 B4000000 		.4byte	.LVL53
 2536 0307 0100     		.2byte	0x1
 2537 0309 58       		.byte	0x58
 2538 030a B4000000 		.4byte	.LVL53
 2539 030e C4020000 		.4byte	.LFE45
 2540 0312 0400     		.2byte	0x4
 2541 0314 F3       		.byte	0xf3
 2542 0315 01       		.uleb128 0x1
 2543 0316 50       		.byte	0x50
 2544 0317 9F       		.byte	0x9f
 2545 0318 00000000 		.4byte	0
 2546 031c 00000000 		.4byte	0
 2547              	.LLST23:
 2548 0320 00000000 		.4byte	.LVL25
 2549 0324 1F000000 		.4byte	.LVL28-1
 2550 0328 0100     		.2byte	0x1
 2551 032a 51       		.byte	0x51
 2552 032b 1F000000 		.4byte	.LVL28-1
 2553 032f C4020000 		.4byte	.LFE45
 2554 0333 0400     		.2byte	0x4
 2555 0335 F3       		.byte	0xf3
 2556 0336 01       		.uleb128 0x1
ARM GAS  /tmp/ccaofhaY.s 			page 46


 2557 0337 51       		.byte	0x51
 2558 0338 9F       		.byte	0x9f
 2559 0339 00000000 		.4byte	0
 2560 033d 00000000 		.4byte	0
 2561              	.LLST24:
 2562 0341 00000000 		.4byte	.LVL25
 2563 0345 1A000000 		.4byte	.LVL26
 2564 0349 0100     		.2byte	0x1
 2565 034b 52       		.byte	0x52
 2566 034c 1A000000 		.4byte	.LVL26
 2567 0350 C4020000 		.4byte	.LFE45
 2568 0354 0400     		.2byte	0x4
 2569 0356 F3       		.byte	0xf3
 2570 0357 01       		.uleb128 0x1
 2571 0358 52       		.byte	0x52
 2572 0359 9F       		.byte	0x9f
 2573 035a 00000000 		.4byte	0
 2574 035e 00000000 		.4byte	0
 2575              	.LLST25:
 2576 0362 A4000000 		.4byte	.LVL50
 2577 0366 A8000000 		.4byte	.LVL51
 2578 036a 0100     		.2byte	0x1
 2579 036c 50       		.byte	0x50
 2580 036d A8000000 		.4byte	.LVL51
 2581 0371 4E020000 		.4byte	.LVL105
 2582 0375 0100     		.2byte	0x1
 2583 0377 57       		.byte	0x57
 2584 0378 7A020000 		.4byte	.LVL109
 2585 037c C4020000 		.4byte	.LFE45
 2586 0380 0100     		.2byte	0x1
 2587 0382 57       		.byte	0x57
 2588 0383 00000000 		.4byte	0
 2589 0387 00000000 		.4byte	0
 2590              	.LLST26:
 2591 038b B4000000 		.4byte	.LVL53
 2592 038f C6000000 		.4byte	.LVL55
 2593 0393 0100     		.2byte	0x1
 2594 0395 50       		.byte	0x50
 2595 0396 C6000000 		.4byte	.LVL55
 2596 039a 6A020000 		.4byte	.LVL108
 2597 039e 0100     		.2byte	0x1
 2598 03a0 58       		.byte	0x58
 2599 03a1 7A020000 		.4byte	.LVL109
 2600 03a5 7E020000 		.4byte	.LVL110
 2601 03a9 0100     		.2byte	0x1
 2602 03ab 50       		.byte	0x50
 2603 03ac 7E020000 		.4byte	.LVL110
 2604 03b0 C4020000 		.4byte	.LFE45
 2605 03b4 0100     		.2byte	0x1
 2606 03b6 58       		.byte	0x58
 2607 03b7 00000000 		.4byte	0
 2608 03bb 00000000 		.4byte	0
 2609              	.LLST27:
 2610 03bf 3A000000 		.4byte	.LVL30
 2611 03c3 4A000000 		.4byte	.LVL32
 2612 03c7 0100     		.2byte	0x1
 2613 03c9 51       		.byte	0x51
ARM GAS  /tmp/ccaofhaY.s 			page 47


 2614 03ca 4A000000 		.4byte	.LVL32
 2615 03ce 6C000000 		.4byte	.LVL33
 2616 03d2 0200     		.2byte	0x2
 2617 03d4 30       		.byte	0x30
 2618 03d5 9F       		.byte	0x9f
 2619 03d6 6C000000 		.4byte	.LVL33
 2620 03da 6E000000 		.4byte	.LVL34
 2621 03de 0200     		.2byte	0x2
 2622 03e0 31       		.byte	0x31
 2623 03e1 9F       		.byte	0x9f
 2624 03e2 6E000000 		.4byte	.LVL34
 2625 03e6 70000000 		.4byte	.LVL35
 2626 03ea 0200     		.2byte	0x2
 2627 03ec 32       		.byte	0x32
 2628 03ed 9F       		.byte	0x9f
 2629 03ee 70000000 		.4byte	.LVL35
 2630 03f2 72000000 		.4byte	.LVL36
 2631 03f6 0200     		.2byte	0x2
 2632 03f8 33       		.byte	0x33
 2633 03f9 9F       		.byte	0x9f
 2634 03fa 72000000 		.4byte	.LVL36
 2635 03fe 74000000 		.4byte	.LVL37
 2636 0402 0200     		.2byte	0x2
 2637 0404 34       		.byte	0x34
 2638 0405 9F       		.byte	0x9f
 2639 0406 74000000 		.4byte	.LVL37
 2640 040a 76000000 		.4byte	.LVL38
 2641 040e 0200     		.2byte	0x2
 2642 0410 35       		.byte	0x35
 2643 0411 9F       		.byte	0x9f
 2644 0412 76000000 		.4byte	.LVL38
 2645 0416 78000000 		.4byte	.LVL39
 2646 041a 0200     		.2byte	0x2
 2647 041c 36       		.byte	0x36
 2648 041d 9F       		.byte	0x9f
 2649 041e 78000000 		.4byte	.LVL39
 2650 0422 7A000000 		.4byte	.LVL40
 2651 0426 0200     		.2byte	0x2
 2652 0428 37       		.byte	0x37
 2653 0429 9F       		.byte	0x9f
 2654 042a 7A000000 		.4byte	.LVL40
 2655 042e 7C000000 		.4byte	.LVL41
 2656 0432 0200     		.2byte	0x2
 2657 0434 38       		.byte	0x38
 2658 0435 9F       		.byte	0x9f
 2659 0436 7C000000 		.4byte	.LVL41
 2660 043a 7E000000 		.4byte	.LVL42
 2661 043e 0200     		.2byte	0x2
 2662 0440 39       		.byte	0x39
 2663 0441 9F       		.byte	0x9f
 2664 0442 7E000000 		.4byte	.LVL42
 2665 0446 80000000 		.4byte	.LVL43
 2666 044a 0200     		.2byte	0x2
 2667 044c 3A       		.byte	0x3a
 2668 044d 9F       		.byte	0x9f
 2669 044e 80000000 		.4byte	.LVL43
 2670 0452 82000000 		.4byte	.LVL44
ARM GAS  /tmp/ccaofhaY.s 			page 48


 2671 0456 0200     		.2byte	0x2
 2672 0458 3B       		.byte	0x3b
 2673 0459 9F       		.byte	0x9f
 2674 045a 82000000 		.4byte	.LVL44
 2675 045e 84000000 		.4byte	.LVL45
 2676 0462 0200     		.2byte	0x2
 2677 0464 3C       		.byte	0x3c
 2678 0465 9F       		.byte	0x9f
 2679 0466 84000000 		.4byte	.LVL45
 2680 046a 86000000 		.4byte	.LVL46
 2681 046e 0200     		.2byte	0x2
 2682 0470 3D       		.byte	0x3d
 2683 0471 9F       		.byte	0x9f
 2684 0472 86000000 		.4byte	.LVL46
 2685 0476 88000000 		.4byte	.LVL47
 2686 047a 0200     		.2byte	0x2
 2687 047c 3E       		.byte	0x3e
 2688 047d 9F       		.byte	0x9f
 2689 047e 88000000 		.4byte	.LVL47
 2690 0482 8A000000 		.4byte	.LVL48
 2691 0486 0200     		.2byte	0x2
 2692 0488 3F       		.byte	0x3f
 2693 0489 9F       		.byte	0x9f
 2694 048a 8A000000 		.4byte	.LVL48
 2695 048e B4000000 		.4byte	.LVL53
 2696 0492 0200     		.2byte	0x2
 2697 0494 40       		.byte	0x40
 2698 0495 9F       		.byte	0x9f
 2699 0496 B4000000 		.4byte	.LVL53
 2700 049a C8000000 		.4byte	.LVL56
 2701 049e 0200     		.2byte	0x2
 2702 04a0 30       		.byte	0x30
 2703 04a1 9F       		.byte	0x9f
 2704 04a2 C8000000 		.4byte	.LVL56
 2705 04a6 E0000000 		.4byte	.LVL59
 2706 04aa 0200     		.2byte	0x2
 2707 04ac 31       		.byte	0x31
 2708 04ad 9F       		.byte	0x9f
 2709 04ae E0000000 		.4byte	.LVL59
 2710 04b2 F8000000 		.4byte	.LVL62
 2711 04b6 0200     		.2byte	0x2
 2712 04b8 32       		.byte	0x32
 2713 04b9 9F       		.byte	0x9f
 2714 04ba F8000000 		.4byte	.LVL62
 2715 04be 10010000 		.4byte	.LVL65
 2716 04c2 0200     		.2byte	0x2
 2717 04c4 33       		.byte	0x33
 2718 04c5 9F       		.byte	0x9f
 2719 04c6 10010000 		.4byte	.LVL65
 2720 04ca 28010000 		.4byte	.LVL68
 2721 04ce 0200     		.2byte	0x2
 2722 04d0 34       		.byte	0x34
 2723 04d1 9F       		.byte	0x9f
 2724 04d2 28010000 		.4byte	.LVL68
 2725 04d6 40010000 		.4byte	.LVL71
 2726 04da 0200     		.2byte	0x2
 2727 04dc 35       		.byte	0x35
ARM GAS  /tmp/ccaofhaY.s 			page 49


 2728 04dd 9F       		.byte	0x9f
 2729 04de 40010000 		.4byte	.LVL71
 2730 04e2 58010000 		.4byte	.LVL74
 2731 04e6 0200     		.2byte	0x2
 2732 04e8 36       		.byte	0x36
 2733 04e9 9F       		.byte	0x9f
 2734 04ea 58010000 		.4byte	.LVL74
 2735 04ee 70010000 		.4byte	.LVL77
 2736 04f2 0200     		.2byte	0x2
 2737 04f4 37       		.byte	0x37
 2738 04f5 9F       		.byte	0x9f
 2739 04f6 70010000 		.4byte	.LVL77
 2740 04fa 88010000 		.4byte	.LVL80
 2741 04fe 0200     		.2byte	0x2
 2742 0500 38       		.byte	0x38
 2743 0501 9F       		.byte	0x9f
 2744 0502 88010000 		.4byte	.LVL80
 2745 0506 A0010000 		.4byte	.LVL83
 2746 050a 0200     		.2byte	0x2
 2747 050c 39       		.byte	0x39
 2748 050d 9F       		.byte	0x9f
 2749 050e A0010000 		.4byte	.LVL83
 2750 0512 B6010000 		.4byte	.LVL86
 2751 0516 0200     		.2byte	0x2
 2752 0518 3A       		.byte	0x3a
 2753 0519 9F       		.byte	0x9f
 2754 051a B6010000 		.4byte	.LVL86
 2755 051e CC010000 		.4byte	.LVL89
 2756 0522 0200     		.2byte	0x2
 2757 0524 3B       		.byte	0x3b
 2758 0525 9F       		.byte	0x9f
 2759 0526 CC010000 		.4byte	.LVL89
 2760 052a E2010000 		.4byte	.LVL92
 2761 052e 0200     		.2byte	0x2
 2762 0530 3C       		.byte	0x3c
 2763 0531 9F       		.byte	0x9f
 2764 0532 E2010000 		.4byte	.LVL92
 2765 0536 F8010000 		.4byte	.LVL95
 2766 053a 0200     		.2byte	0x2
 2767 053c 3D       		.byte	0x3d
 2768 053d 9F       		.byte	0x9f
 2769 053e F8010000 		.4byte	.LVL95
 2770 0542 0E020000 		.4byte	.LVL98
 2771 0546 0200     		.2byte	0x2
 2772 0548 3E       		.byte	0x3e
 2773 0549 9F       		.byte	0x9f
 2774 054a 0E020000 		.4byte	.LVL98
 2775 054e 26020000 		.4byte	.LVL100
 2776 0552 0200     		.2byte	0x2
 2777 0554 3F       		.byte	0x3f
 2778 0555 9F       		.byte	0x9f
 2779 0556 26020000 		.4byte	.LVL100
 2780 055a 6A020000 		.4byte	.LVL108
 2781 055e 0200     		.2byte	0x2
 2782 0560 40       		.byte	0x40
 2783 0561 9F       		.byte	0x9f
 2784 0562 7A020000 		.4byte	.LVL109
ARM GAS  /tmp/ccaofhaY.s 			page 50


 2785 0566 7E020000 		.4byte	.LVL110
 2786 056a 0200     		.2byte	0x2
 2787 056c 30       		.byte	0x30
 2788 056d 9F       		.byte	0x9f
 2789 056e 7E020000 		.4byte	.LVL110
 2790 0572 82020000 		.4byte	.LVL111
 2791 0576 0200     		.2byte	0x2
 2792 0578 3F       		.byte	0x3f
 2793 0579 9F       		.byte	0x9f
 2794 057a 82020000 		.4byte	.LVL111
 2795 057e 86020000 		.4byte	.LVL113
 2796 0582 0200     		.2byte	0x2
 2797 0584 3E       		.byte	0x3e
 2798 0585 9F       		.byte	0x9f
 2799 0586 86020000 		.4byte	.LVL113
 2800 058a 8A020000 		.4byte	.LVL115
 2801 058e 0200     		.2byte	0x2
 2802 0590 3D       		.byte	0x3d
 2803 0591 9F       		.byte	0x9f
 2804 0592 8A020000 		.4byte	.LVL115
 2805 0596 8E020000 		.4byte	.LVL117
 2806 059a 0200     		.2byte	0x2
 2807 059c 3C       		.byte	0x3c
 2808 059d 9F       		.byte	0x9f
 2809 059e 8E020000 		.4byte	.LVL117
 2810 05a2 92020000 		.4byte	.LVL119
 2811 05a6 0200     		.2byte	0x2
 2812 05a8 3B       		.byte	0x3b
 2813 05a9 9F       		.byte	0x9f
 2814 05aa 92020000 		.4byte	.LVL119
 2815 05ae 96020000 		.4byte	.LVL121
 2816 05b2 0200     		.2byte	0x2
 2817 05b4 3A       		.byte	0x3a
 2818 05b5 9F       		.byte	0x9f
 2819 05b6 96020000 		.4byte	.LVL121
 2820 05ba 9A020000 		.4byte	.LVL123
 2821 05be 0200     		.2byte	0x2
 2822 05c0 39       		.byte	0x39
 2823 05c1 9F       		.byte	0x9f
 2824 05c2 9A020000 		.4byte	.LVL123
 2825 05c6 9E020000 		.4byte	.LVL125
 2826 05ca 0200     		.2byte	0x2
 2827 05cc 38       		.byte	0x38
 2828 05cd 9F       		.byte	0x9f
 2829 05ce 9E020000 		.4byte	.LVL125
 2830 05d2 A2020000 		.4byte	.LVL127
 2831 05d6 0200     		.2byte	0x2
 2832 05d8 37       		.byte	0x37
 2833 05d9 9F       		.byte	0x9f
 2834 05da A2020000 		.4byte	.LVL127
 2835 05de A6020000 		.4byte	.LVL129
 2836 05e2 0200     		.2byte	0x2
 2837 05e4 36       		.byte	0x36
 2838 05e5 9F       		.byte	0x9f
 2839 05e6 A6020000 		.4byte	.LVL129
 2840 05ea AA020000 		.4byte	.LVL131
 2841 05ee 0200     		.2byte	0x2
ARM GAS  /tmp/ccaofhaY.s 			page 51


 2842 05f0 35       		.byte	0x35
 2843 05f1 9F       		.byte	0x9f
 2844 05f2 AA020000 		.4byte	.LVL131
 2845 05f6 AE020000 		.4byte	.LVL133
 2846 05fa 0200     		.2byte	0x2
 2847 05fc 34       		.byte	0x34
 2848 05fd 9F       		.byte	0x9f
 2849 05fe AE020000 		.4byte	.LVL133
 2850 0602 B2020000 		.4byte	.LVL135
 2851 0606 0200     		.2byte	0x2
 2852 0608 33       		.byte	0x33
 2853 0609 9F       		.byte	0x9f
 2854 060a B2020000 		.4byte	.LVL135
 2855 060e B6020000 		.4byte	.LVL137
 2856 0612 0200     		.2byte	0x2
 2857 0614 32       		.byte	0x32
 2858 0615 9F       		.byte	0x9f
 2859 0616 B6020000 		.4byte	.LVL137
 2860 061a C4020000 		.4byte	.LFE45
 2861 061e 0200     		.2byte	0x2
 2862 0620 31       		.byte	0x31
 2863 0621 9F       		.byte	0x9f
 2864 0622 00000000 		.4byte	0
 2865 0626 00000000 		.4byte	0
 2866              	.LLST28:
 2867 062a B4000000 		.4byte	.LVL53
 2868 062e C8000000 		.4byte	.LVL56
 2869 0632 0300     		.2byte	0x3
 2870 0634 09       		.byte	0x9
 2871 0635 FF       		.byte	0xff
 2872 0636 9F       		.byte	0x9f
 2873 0637 C8000000 		.4byte	.LVL56
 2874 063b 40020000 		.4byte	.LVL103
 2875 063f 0100     		.2byte	0x1
 2876 0641 56       		.byte	0x56
 2877 0642 7A020000 		.4byte	.LVL109
 2878 0646 7E020000 		.4byte	.LVL110
 2879 064a 0300     		.2byte	0x3
 2880 064c 09       		.byte	0x9
 2881 064d FF       		.byte	0xff
 2882 064e 9F       		.byte	0x9f
 2883 064f 7E020000 		.4byte	.LVL110
 2884 0653 84020000 		.4byte	.LVL112
 2885 0657 0100     		.2byte	0x1
 2886 0659 56       		.byte	0x56
 2887 065a 86020000 		.4byte	.LVL113
 2888 065e 88020000 		.4byte	.LVL114
 2889 0662 0100     		.2byte	0x1
 2890 0664 56       		.byte	0x56
 2891 0665 8A020000 		.4byte	.LVL115
 2892 0669 8C020000 		.4byte	.LVL116
 2893 066d 0100     		.2byte	0x1
 2894 066f 56       		.byte	0x56
 2895 0670 8E020000 		.4byte	.LVL117
 2896 0674 90020000 		.4byte	.LVL118
 2897 0678 0100     		.2byte	0x1
 2898 067a 56       		.byte	0x56
ARM GAS  /tmp/ccaofhaY.s 			page 52


 2899 067b 92020000 		.4byte	.LVL119
 2900 067f 94020000 		.4byte	.LVL120
 2901 0683 0100     		.2byte	0x1
 2902 0685 56       		.byte	0x56
 2903 0686 96020000 		.4byte	.LVL121
 2904 068a 98020000 		.4byte	.LVL122
 2905 068e 0100     		.2byte	0x1
 2906 0690 56       		.byte	0x56
 2907 0691 9A020000 		.4byte	.LVL123
 2908 0695 9C020000 		.4byte	.LVL124
 2909 0699 0100     		.2byte	0x1
 2910 069b 56       		.byte	0x56
 2911 069c 9E020000 		.4byte	.LVL125
 2912 06a0 A0020000 		.4byte	.LVL126
 2913 06a4 0100     		.2byte	0x1
 2914 06a6 56       		.byte	0x56
 2915 06a7 A2020000 		.4byte	.LVL127
 2916 06ab A4020000 		.4byte	.LVL128
 2917 06af 0100     		.2byte	0x1
 2918 06b1 56       		.byte	0x56
 2919 06b2 A6020000 		.4byte	.LVL129
 2920 06b6 A8020000 		.4byte	.LVL130
 2921 06ba 0100     		.2byte	0x1
 2922 06bc 56       		.byte	0x56
 2923 06bd AA020000 		.4byte	.LVL131
 2924 06c1 AC020000 		.4byte	.LVL132
 2925 06c5 0100     		.2byte	0x1
 2926 06c7 56       		.byte	0x56
 2927 06c8 AE020000 		.4byte	.LVL133
 2928 06cc B0020000 		.4byte	.LVL134
 2929 06d0 0100     		.2byte	0x1
 2930 06d2 56       		.byte	0x56
 2931 06d3 B2020000 		.4byte	.LVL135
 2932 06d7 B4020000 		.4byte	.LVL136
 2933 06db 0100     		.2byte	0x1
 2934 06dd 56       		.byte	0x56
 2935 06de B6020000 		.4byte	.LVL137
 2936 06e2 B8020000 		.4byte	.LVL138
 2937 06e6 0100     		.2byte	0x1
 2938 06e8 56       		.byte	0x56
 2939 06e9 00000000 		.4byte	0
 2940 06ed 00000000 		.4byte	0
 2941              	.LLST29:
 2942 06f1 2A020000 		.4byte	.LVL101
 2943 06f5 4E020000 		.4byte	.LVL105
 2944 06f9 1500     		.2byte	0x15
 2945 06fb 77       		.byte	0x77
 2946 06fc 00       		.sleb128 0
 2947 06fd 08       		.byte	0x8
 2948 06fe FF       		.byte	0xff
 2949 06ff 1A       		.byte	0x1a
 2950 0700 78       		.byte	0x78
 2951 0701 00       		.sleb128 0
 2952 0702 08       		.byte	0x8
 2953 0703 FF       		.byte	0xff
 2954 0704 1A       		.byte	0x1a
 2955 0705 22       		.byte	0x22
ARM GAS  /tmp/ccaofhaY.s 			page 53


 2956 0706 31       		.byte	0x31
 2957 0707 26       		.byte	0x26
 2958 0708 3F       		.byte	0x3f
 2959 0709 1E       		.byte	0x1e
 2960 070a 08       		.byte	0x8
 2961 070b 64       		.byte	0x64
 2962 070c 1B       		.byte	0x1b
 2963 070d 23       		.byte	0x23
 2964 070e 03       		.uleb128 0x3
 2965 070f 9F       		.byte	0x9f
 2966 0710 00000000 		.4byte	0
 2967 0714 00000000 		.4byte	0
 2968              	.LLST30:
 2969 0718 40020000 		.4byte	.LVL103
 2970 071c 44020000 		.4byte	.LVL104
 2971 0720 0100     		.2byte	0x1
 2972 0722 50       		.byte	0x50
 2973 0723 44020000 		.4byte	.LVL104
 2974 0727 5E020000 		.4byte	.LVL107
 2975 072b 0100     		.2byte	0x1
 2976 072d 56       		.byte	0x56
 2977 072e 00000000 		.4byte	0
 2978 0732 00000000 		.4byte	0
 2979              	.LLST31:
 2980 0736 40020000 		.4byte	.LVL103
 2981 073a 4E020000 		.4byte	.LVL105
 2982 073e 1B00     		.2byte	0x1b
 2983 0740 78       		.byte	0x78
 2984 0741 00       		.sleb128 0
 2985 0742 08       		.byte	0x8
 2986 0743 FF       		.byte	0xff
 2987 0744 1A       		.byte	0x1a
 2988 0745 12       		.byte	0x12
 2989 0746 40       		.byte	0x40
 2990 0747 24       		.byte	0x24
 2991 0748 77       		.byte	0x77
 2992 0749 00       		.sleb128 0
 2993 074a 08       		.byte	0x8
 2994 074b FF       		.byte	0xff
 2995 074c 1A       		.byte	0x1a
 2996 074d 16       		.byte	0x16
 2997 074e 14       		.byte	0x14
 2998 074f 40       		.byte	0x40
 2999 0750 24       		.byte	0x24
 3000 0751 2B       		.byte	0x2b
 3001 0752 28       		.byte	0x28
 3002 0753 0100     		.2byte	0x1
 3003 0755 16       		.byte	0x16
 3004 0756 13       		.byte	0x13
 3005 0757 09       		.byte	0x9
 3006 0758 FB       		.byte	0xfb
 3007 0759 1B       		.byte	0x1b
 3008 075a 9F       		.byte	0x9f
 3009 075b 00000000 		.4byte	0
 3010 075f 00000000 		.4byte	0
 3011              	.LLST32:
 3012 0763 C2000000 		.4byte	.LVL54
ARM GAS  /tmp/ccaofhaY.s 			page 54


 3013 0767 C8000000 		.4byte	.LVL56
 3014 076b 0900     		.2byte	0x9
 3015 076d 73       		.byte	0x73
 3016 076e 00       		.sleb128 0
 3017 076f 71       		.byte	0x71
 3018 0770 00       		.sleb128 0
 3019 0771 1C       		.byte	0x1c
 3020 0772 77       		.byte	0x77
 3021 0773 00       		.sleb128 0
 3022 0774 22       		.byte	0x22
 3023 0775 9F       		.byte	0x9f
 3024 0776 D4000000 		.4byte	.LVL57
 3025 077a DA000000 		.4byte	.LVL58
 3026 077e 0900     		.2byte	0x9
 3027 0780 73       		.byte	0x73
 3028 0781 00       		.sleb128 0
 3029 0782 72       		.byte	0x72
 3030 0783 00       		.sleb128 0
 3031 0784 1C       		.byte	0x1c
 3032 0785 77       		.byte	0x77
 3033 0786 00       		.sleb128 0
 3034 0787 22       		.byte	0x22
 3035 0788 9F       		.byte	0x9f
 3036 0789 DA000000 		.4byte	.LVL58
 3037 078d E0000000 		.4byte	.LVL59
 3038 0791 0B00     		.2byte	0xb
 3039 0793 74       		.byte	0x74
 3040 0794 01       		.sleb128 1
 3041 0795 94       		.byte	0x94
 3042 0796 01       		.byte	0x1
 3043 0797 72       		.byte	0x72
 3044 0798 00       		.sleb128 0
 3045 0799 1C       		.byte	0x1c
 3046 079a 77       		.byte	0x77
 3047 079b 00       		.sleb128 0
 3048 079c 22       		.byte	0x22
 3049 079d 9F       		.byte	0x9f
 3050 079e EC000000 		.4byte	.LVL60
 3051 07a2 F2000000 		.4byte	.LVL61
 3052 07a6 0900     		.2byte	0x9
 3053 07a8 71       		.byte	0x71
 3054 07a9 00       		.sleb128 0
 3055 07aa 72       		.byte	0x72
 3056 07ab 00       		.sleb128 0
 3057 07ac 1C       		.byte	0x1c
 3058 07ad 77       		.byte	0x77
 3059 07ae 00       		.sleb128 0
 3060 07af 22       		.byte	0x22
 3061 07b0 9F       		.byte	0x9f
 3062 07b1 F2000000 		.4byte	.LVL61
 3063 07b5 F8000000 		.4byte	.LVL62
 3064 07b9 0B00     		.2byte	0xb
 3065 07bb 74       		.byte	0x74
 3066 07bc 02       		.sleb128 2
 3067 07bd 94       		.byte	0x94
 3068 07be 01       		.byte	0x1
 3069 07bf 72       		.byte	0x72
ARM GAS  /tmp/ccaofhaY.s 			page 55


 3070 07c0 00       		.sleb128 0
 3071 07c1 1C       		.byte	0x1c
 3072 07c2 77       		.byte	0x77
 3073 07c3 00       		.sleb128 0
 3074 07c4 22       		.byte	0x22
 3075 07c5 9F       		.byte	0x9f
 3076 07c6 04010000 		.4byte	.LVL63
 3077 07ca 0A010000 		.4byte	.LVL64
 3078 07ce 0900     		.2byte	0x9
 3079 07d0 70       		.byte	0x70
 3080 07d1 00       		.sleb128 0
 3081 07d2 72       		.byte	0x72
 3082 07d3 00       		.sleb128 0
 3083 07d4 1C       		.byte	0x1c
 3084 07d5 77       		.byte	0x77
 3085 07d6 00       		.sleb128 0
 3086 07d7 22       		.byte	0x22
 3087 07d8 9F       		.byte	0x9f
 3088 07d9 0A010000 		.4byte	.LVL64
 3089 07dd 10010000 		.4byte	.LVL65
 3090 07e1 0B00     		.2byte	0xb
 3091 07e3 74       		.byte	0x74
 3092 07e4 03       		.sleb128 3
 3093 07e5 94       		.byte	0x94
 3094 07e6 01       		.byte	0x1
 3095 07e7 72       		.byte	0x72
 3096 07e8 00       		.sleb128 0
 3097 07e9 1C       		.byte	0x1c
 3098 07ea 77       		.byte	0x77
 3099 07eb 00       		.sleb128 0
 3100 07ec 22       		.byte	0x22
 3101 07ed 9F       		.byte	0x9f
 3102 07ee 1C010000 		.4byte	.LVL66
 3103 07f2 22010000 		.4byte	.LVL67
 3104 07f6 0900     		.2byte	0x9
 3105 07f8 73       		.byte	0x73
 3106 07f9 00       		.sleb128 0
 3107 07fa 72       		.byte	0x72
 3108 07fb 00       		.sleb128 0
 3109 07fc 1C       		.byte	0x1c
 3110 07fd 77       		.byte	0x77
 3111 07fe 00       		.sleb128 0
 3112 07ff 22       		.byte	0x22
 3113 0800 9F       		.byte	0x9f
 3114 0801 22010000 		.4byte	.LVL67
 3115 0805 28010000 		.4byte	.LVL68
 3116 0809 0B00     		.2byte	0xb
 3117 080b 74       		.byte	0x74
 3118 080c 04       		.sleb128 4
 3119 080d 94       		.byte	0x94
 3120 080e 01       		.byte	0x1
 3121 080f 72       		.byte	0x72
 3122 0810 00       		.sleb128 0
 3123 0811 1C       		.byte	0x1c
 3124 0812 77       		.byte	0x77
 3125 0813 00       		.sleb128 0
 3126 0814 22       		.byte	0x22
ARM GAS  /tmp/ccaofhaY.s 			page 56


 3127 0815 9F       		.byte	0x9f
 3128 0816 34010000 		.4byte	.LVL69
 3129 081a 3A010000 		.4byte	.LVL70
 3130 081e 0900     		.2byte	0x9
 3131 0820 71       		.byte	0x71
 3132 0821 00       		.sleb128 0
 3133 0822 72       		.byte	0x72
 3134 0823 00       		.sleb128 0
 3135 0824 1C       		.byte	0x1c
 3136 0825 77       		.byte	0x77
 3137 0826 00       		.sleb128 0
 3138 0827 22       		.byte	0x22
 3139 0828 9F       		.byte	0x9f
 3140 0829 3A010000 		.4byte	.LVL70
 3141 082d 40010000 		.4byte	.LVL71
 3142 0831 0B00     		.2byte	0xb
 3143 0833 74       		.byte	0x74
 3144 0834 05       		.sleb128 5
 3145 0835 94       		.byte	0x94
 3146 0836 01       		.byte	0x1
 3147 0837 72       		.byte	0x72
 3148 0838 00       		.sleb128 0
 3149 0839 1C       		.byte	0x1c
 3150 083a 77       		.byte	0x77
 3151 083b 00       		.sleb128 0
 3152 083c 22       		.byte	0x22
 3153 083d 9F       		.byte	0x9f
 3154 083e 4C010000 		.4byte	.LVL72
 3155 0842 52010000 		.4byte	.LVL73
 3156 0846 0900     		.2byte	0x9
 3157 0848 70       		.byte	0x70
 3158 0849 00       		.sleb128 0
 3159 084a 72       		.byte	0x72
 3160 084b 00       		.sleb128 0
 3161 084c 1C       		.byte	0x1c
 3162 084d 77       		.byte	0x77
 3163 084e 00       		.sleb128 0
 3164 084f 22       		.byte	0x22
 3165 0850 9F       		.byte	0x9f
 3166 0851 52010000 		.4byte	.LVL73
 3167 0855 58010000 		.4byte	.LVL74
 3168 0859 0B00     		.2byte	0xb
 3169 085b 74       		.byte	0x74
 3170 085c 06       		.sleb128 6
 3171 085d 94       		.byte	0x94
 3172 085e 01       		.byte	0x1
 3173 085f 72       		.byte	0x72
 3174 0860 00       		.sleb128 0
 3175 0861 1C       		.byte	0x1c
 3176 0862 77       		.byte	0x77
 3177 0863 00       		.sleb128 0
 3178 0864 22       		.byte	0x22
 3179 0865 9F       		.byte	0x9f
 3180 0866 64010000 		.4byte	.LVL75
 3181 086a 6A010000 		.4byte	.LVL76
 3182 086e 0900     		.2byte	0x9
 3183 0870 73       		.byte	0x73
ARM GAS  /tmp/ccaofhaY.s 			page 57


 3184 0871 00       		.sleb128 0
 3185 0872 72       		.byte	0x72
 3186 0873 00       		.sleb128 0
 3187 0874 1C       		.byte	0x1c
 3188 0875 77       		.byte	0x77
 3189 0876 00       		.sleb128 0
 3190 0877 22       		.byte	0x22
 3191 0878 9F       		.byte	0x9f
 3192 0879 6A010000 		.4byte	.LVL76
 3193 087d 70010000 		.4byte	.LVL77
 3194 0881 0B00     		.2byte	0xb
 3195 0883 74       		.byte	0x74
 3196 0884 07       		.sleb128 7
 3197 0885 94       		.byte	0x94
 3198 0886 01       		.byte	0x1
 3199 0887 72       		.byte	0x72
 3200 0888 00       		.sleb128 0
 3201 0889 1C       		.byte	0x1c
 3202 088a 77       		.byte	0x77
 3203 088b 00       		.sleb128 0
 3204 088c 22       		.byte	0x22
 3205 088d 9F       		.byte	0x9f
 3206 088e 7C010000 		.4byte	.LVL78
 3207 0892 82010000 		.4byte	.LVL79
 3208 0896 0900     		.2byte	0x9
 3209 0898 71       		.byte	0x71
 3210 0899 00       		.sleb128 0
 3211 089a 72       		.byte	0x72
 3212 089b 00       		.sleb128 0
 3213 089c 1C       		.byte	0x1c
 3214 089d 77       		.byte	0x77
 3215 089e 00       		.sleb128 0
 3216 089f 22       		.byte	0x22
 3217 08a0 9F       		.byte	0x9f
 3218 08a1 82010000 		.4byte	.LVL79
 3219 08a5 88010000 		.4byte	.LVL80
 3220 08a9 0B00     		.2byte	0xb
 3221 08ab 74       		.byte	0x74
 3222 08ac 08       		.sleb128 8
 3223 08ad 94       		.byte	0x94
 3224 08ae 01       		.byte	0x1
 3225 08af 72       		.byte	0x72
 3226 08b0 00       		.sleb128 0
 3227 08b1 1C       		.byte	0x1c
 3228 08b2 77       		.byte	0x77
 3229 08b3 00       		.sleb128 0
 3230 08b4 22       		.byte	0x22
 3231 08b5 9F       		.byte	0x9f
 3232 08b6 94010000 		.4byte	.LVL81
 3233 08ba 9A010000 		.4byte	.LVL82
 3234 08be 0900     		.2byte	0x9
 3235 08c0 70       		.byte	0x70
 3236 08c1 00       		.sleb128 0
 3237 08c2 72       		.byte	0x72
 3238 08c3 00       		.sleb128 0
 3239 08c4 1C       		.byte	0x1c
 3240 08c5 77       		.byte	0x77
ARM GAS  /tmp/ccaofhaY.s 			page 58


 3241 08c6 00       		.sleb128 0
 3242 08c7 22       		.byte	0x22
 3243 08c8 9F       		.byte	0x9f
 3244 08c9 9A010000 		.4byte	.LVL82
 3245 08cd A0010000 		.4byte	.LVL83
 3246 08d1 0B00     		.2byte	0xb
 3247 08d3 74       		.byte	0x74
 3248 08d4 09       		.sleb128 9
 3249 08d5 94       		.byte	0x94
 3250 08d6 01       		.byte	0x1
 3251 08d7 72       		.byte	0x72
 3252 08d8 00       		.sleb128 0
 3253 08d9 1C       		.byte	0x1c
 3254 08da 77       		.byte	0x77
 3255 08db 00       		.sleb128 0
 3256 08dc 22       		.byte	0x22
 3257 08dd 9F       		.byte	0x9f
 3258 08de AC010000 		.4byte	.LVL84
 3259 08e2 B2010000 		.4byte	.LVL85
 3260 08e6 0900     		.2byte	0x9
 3261 08e8 73       		.byte	0x73
 3262 08e9 00       		.sleb128 0
 3263 08ea 72       		.byte	0x72
 3264 08eb 00       		.sleb128 0
 3265 08ec 1C       		.byte	0x1c
 3266 08ed 77       		.byte	0x77
 3267 08ee 00       		.sleb128 0
 3268 08ef 22       		.byte	0x22
 3269 08f0 9F       		.byte	0x9f
 3270 08f1 B2010000 		.4byte	.LVL85
 3271 08f5 B6010000 		.4byte	.LVL86
 3272 08f9 0B00     		.2byte	0xb
 3273 08fb 74       		.byte	0x74
 3274 08fc 0A       		.sleb128 10
 3275 08fd 94       		.byte	0x94
 3276 08fe 01       		.byte	0x1
 3277 08ff 72       		.byte	0x72
 3278 0900 00       		.sleb128 0
 3279 0901 1C       		.byte	0x1c
 3280 0902 77       		.byte	0x77
 3281 0903 00       		.sleb128 0
 3282 0904 22       		.byte	0x22
 3283 0905 9F       		.byte	0x9f
 3284 0906 C2010000 		.4byte	.LVL87
 3285 090a C8010000 		.4byte	.LVL88
 3286 090e 0900     		.2byte	0x9
 3287 0910 71       		.byte	0x71
 3288 0911 00       		.sleb128 0
 3289 0912 72       		.byte	0x72
 3290 0913 00       		.sleb128 0
 3291 0914 1C       		.byte	0x1c
 3292 0915 77       		.byte	0x77
 3293 0916 00       		.sleb128 0
 3294 0917 22       		.byte	0x22
 3295 0918 9F       		.byte	0x9f
 3296 0919 C8010000 		.4byte	.LVL88
 3297 091d CC010000 		.4byte	.LVL89
ARM GAS  /tmp/ccaofhaY.s 			page 59


 3298 0921 0B00     		.2byte	0xb
 3299 0923 74       		.byte	0x74
 3300 0924 0B       		.sleb128 11
 3301 0925 94       		.byte	0x94
 3302 0926 01       		.byte	0x1
 3303 0927 72       		.byte	0x72
 3304 0928 00       		.sleb128 0
 3305 0929 1C       		.byte	0x1c
 3306 092a 77       		.byte	0x77
 3307 092b 00       		.sleb128 0
 3308 092c 22       		.byte	0x22
 3309 092d 9F       		.byte	0x9f
 3310 092e D8010000 		.4byte	.LVL90
 3311 0932 DE010000 		.4byte	.LVL91
 3312 0936 0900     		.2byte	0x9
 3313 0938 70       		.byte	0x70
 3314 0939 00       		.sleb128 0
 3315 093a 72       		.byte	0x72
 3316 093b 00       		.sleb128 0
 3317 093c 1C       		.byte	0x1c
 3318 093d 77       		.byte	0x77
 3319 093e 00       		.sleb128 0
 3320 093f 22       		.byte	0x22
 3321 0940 9F       		.byte	0x9f
 3322 0941 DE010000 		.4byte	.LVL91
 3323 0945 E2010000 		.4byte	.LVL92
 3324 0949 0B00     		.2byte	0xb
 3325 094b 74       		.byte	0x74
 3326 094c 0C       		.sleb128 12
 3327 094d 94       		.byte	0x94
 3328 094e 01       		.byte	0x1
 3329 094f 72       		.byte	0x72
 3330 0950 00       		.sleb128 0
 3331 0951 1C       		.byte	0x1c
 3332 0952 77       		.byte	0x77
 3333 0953 00       		.sleb128 0
 3334 0954 22       		.byte	0x22
 3335 0955 9F       		.byte	0x9f
 3336 0956 EE010000 		.4byte	.LVL93
 3337 095a F4010000 		.4byte	.LVL94
 3338 095e 0900     		.2byte	0x9
 3339 0960 73       		.byte	0x73
 3340 0961 00       		.sleb128 0
 3341 0962 72       		.byte	0x72
 3342 0963 00       		.sleb128 0
 3343 0964 1C       		.byte	0x1c
 3344 0965 77       		.byte	0x77
 3345 0966 00       		.sleb128 0
 3346 0967 22       		.byte	0x22
 3347 0968 9F       		.byte	0x9f
 3348 0969 F4010000 		.4byte	.LVL94
 3349 096d F8010000 		.4byte	.LVL95
 3350 0971 0B00     		.2byte	0xb
 3351 0973 74       		.byte	0x74
 3352 0974 0D       		.sleb128 13
 3353 0975 94       		.byte	0x94
 3354 0976 01       		.byte	0x1
ARM GAS  /tmp/ccaofhaY.s 			page 60


 3355 0977 72       		.byte	0x72
 3356 0978 00       		.sleb128 0
 3357 0979 1C       		.byte	0x1c
 3358 097a 77       		.byte	0x77
 3359 097b 00       		.sleb128 0
 3360 097c 22       		.byte	0x22
 3361 097d 9F       		.byte	0x9f
 3362 097e 04020000 		.4byte	.LVL96
 3363 0982 0A020000 		.4byte	.LVL97
 3364 0986 0900     		.2byte	0x9
 3365 0988 71       		.byte	0x71
 3366 0989 00       		.sleb128 0
 3367 098a 72       		.byte	0x72
 3368 098b 00       		.sleb128 0
 3369 098c 1C       		.byte	0x1c
 3370 098d 77       		.byte	0x77
 3371 098e 00       		.sleb128 0
 3372 098f 22       		.byte	0x22
 3373 0990 9F       		.byte	0x9f
 3374 0991 0A020000 		.4byte	.LVL97
 3375 0995 0E020000 		.4byte	.LVL98
 3376 0999 0B00     		.2byte	0xb
 3377 099b 74       		.byte	0x74
 3378 099c 0E       		.sleb128 14
 3379 099d 94       		.byte	0x94
 3380 099e 01       		.byte	0x1
 3381 099f 72       		.byte	0x72
 3382 09a0 00       		.sleb128 0
 3383 09a1 1C       		.byte	0x1c
 3384 09a2 77       		.byte	0x77
 3385 09a3 00       		.sleb128 0
 3386 09a4 22       		.byte	0x22
 3387 09a5 9F       		.byte	0x9f
 3388 09a6 1A020000 		.4byte	.LVL99
 3389 09aa 26020000 		.4byte	.LVL100
 3390 09ae 0900     		.2byte	0x9
 3391 09b0 74       		.byte	0x74
 3392 09b1 00       		.sleb128 0
 3393 09b2 75       		.byte	0x75
 3394 09b3 00       		.sleb128 0
 3395 09b4 1C       		.byte	0x1c
 3396 09b5 77       		.byte	0x77
 3397 09b6 00       		.sleb128 0
 3398 09b7 22       		.byte	0x22
 3399 09b8 9F       		.byte	0x9f
 3400 09b9 7E020000 		.4byte	.LVL110
 3401 09bd 82020000 		.4byte	.LVL111
 3402 09c1 0900     		.2byte	0x9
 3403 09c3 74       		.byte	0x74
 3404 09c4 00       		.sleb128 0
 3405 09c5 75       		.byte	0x75
 3406 09c6 00       		.sleb128 0
 3407 09c7 1C       		.byte	0x1c
 3408 09c8 77       		.byte	0x77
 3409 09c9 00       		.sleb128 0
 3410 09ca 22       		.byte	0x22
 3411 09cb 9F       		.byte	0x9f
ARM GAS  /tmp/ccaofhaY.s 			page 61


 3412 09cc 82020000 		.4byte	.LVL111
 3413 09d0 86020000 		.4byte	.LVL113
 3414 09d4 0B00     		.2byte	0xb
 3415 09d6 74       		.byte	0x74
 3416 09d7 0E       		.sleb128 14
 3417 09d8 94       		.byte	0x94
 3418 09d9 01       		.byte	0x1
 3419 09da 72       		.byte	0x72
 3420 09db 00       		.sleb128 0
 3421 09dc 1C       		.byte	0x1c
 3422 09dd 77       		.byte	0x77
 3423 09de 00       		.sleb128 0
 3424 09df 22       		.byte	0x22
 3425 09e0 9F       		.byte	0x9f
 3426 09e1 86020000 		.4byte	.LVL113
 3427 09e5 8A020000 		.4byte	.LVL115
 3428 09e9 0B00     		.2byte	0xb
 3429 09eb 74       		.byte	0x74
 3430 09ec 0D       		.sleb128 13
 3431 09ed 94       		.byte	0x94
 3432 09ee 01       		.byte	0x1
 3433 09ef 72       		.byte	0x72
 3434 09f0 00       		.sleb128 0
 3435 09f1 1C       		.byte	0x1c
 3436 09f2 77       		.byte	0x77
 3437 09f3 00       		.sleb128 0
 3438 09f4 22       		.byte	0x22
 3439 09f5 9F       		.byte	0x9f
 3440 09f6 8A020000 		.4byte	.LVL115
 3441 09fa 8E020000 		.4byte	.LVL117
 3442 09fe 0B00     		.2byte	0xb
 3443 0a00 74       		.byte	0x74
 3444 0a01 0C       		.sleb128 12
 3445 0a02 94       		.byte	0x94
 3446 0a03 01       		.byte	0x1
 3447 0a04 72       		.byte	0x72
 3448 0a05 00       		.sleb128 0
 3449 0a06 1C       		.byte	0x1c
 3450 0a07 77       		.byte	0x77
 3451 0a08 00       		.sleb128 0
 3452 0a09 22       		.byte	0x22
 3453 0a0a 9F       		.byte	0x9f
 3454 0a0b 8E020000 		.4byte	.LVL117
 3455 0a0f 92020000 		.4byte	.LVL119
 3456 0a13 0B00     		.2byte	0xb
 3457 0a15 74       		.byte	0x74
 3458 0a16 0B       		.sleb128 11
 3459 0a17 94       		.byte	0x94
 3460 0a18 01       		.byte	0x1
 3461 0a19 72       		.byte	0x72
 3462 0a1a 00       		.sleb128 0
 3463 0a1b 1C       		.byte	0x1c
 3464 0a1c 77       		.byte	0x77
 3465 0a1d 00       		.sleb128 0
 3466 0a1e 22       		.byte	0x22
 3467 0a1f 9F       		.byte	0x9f
 3468 0a20 92020000 		.4byte	.LVL119
ARM GAS  /tmp/ccaofhaY.s 			page 62


 3469 0a24 96020000 		.4byte	.LVL121
 3470 0a28 0B00     		.2byte	0xb
 3471 0a2a 74       		.byte	0x74
 3472 0a2b 0A       		.sleb128 10
 3473 0a2c 94       		.byte	0x94
 3474 0a2d 01       		.byte	0x1
 3475 0a2e 72       		.byte	0x72
 3476 0a2f 00       		.sleb128 0
 3477 0a30 1C       		.byte	0x1c
 3478 0a31 77       		.byte	0x77
 3479 0a32 00       		.sleb128 0
 3480 0a33 22       		.byte	0x22
 3481 0a34 9F       		.byte	0x9f
 3482 0a35 96020000 		.4byte	.LVL121
 3483 0a39 9A020000 		.4byte	.LVL123
 3484 0a3d 0B00     		.2byte	0xb
 3485 0a3f 74       		.byte	0x74
 3486 0a40 09       		.sleb128 9
 3487 0a41 94       		.byte	0x94
 3488 0a42 01       		.byte	0x1
 3489 0a43 72       		.byte	0x72
 3490 0a44 00       		.sleb128 0
 3491 0a45 1C       		.byte	0x1c
 3492 0a46 77       		.byte	0x77
 3493 0a47 00       		.sleb128 0
 3494 0a48 22       		.byte	0x22
 3495 0a49 9F       		.byte	0x9f
 3496 0a4a 9A020000 		.4byte	.LVL123
 3497 0a4e 9E020000 		.4byte	.LVL125
 3498 0a52 0B00     		.2byte	0xb
 3499 0a54 74       		.byte	0x74
 3500 0a55 08       		.sleb128 8
 3501 0a56 94       		.byte	0x94
 3502 0a57 01       		.byte	0x1
 3503 0a58 72       		.byte	0x72
 3504 0a59 00       		.sleb128 0
 3505 0a5a 1C       		.byte	0x1c
 3506 0a5b 77       		.byte	0x77
 3507 0a5c 00       		.sleb128 0
 3508 0a5d 22       		.byte	0x22
 3509 0a5e 9F       		.byte	0x9f
 3510 0a5f 9E020000 		.4byte	.LVL125
 3511 0a63 A2020000 		.4byte	.LVL127
 3512 0a67 0B00     		.2byte	0xb
 3513 0a69 74       		.byte	0x74
 3514 0a6a 07       		.sleb128 7
 3515 0a6b 94       		.byte	0x94
 3516 0a6c 01       		.byte	0x1
 3517 0a6d 72       		.byte	0x72
 3518 0a6e 00       		.sleb128 0
 3519 0a6f 1C       		.byte	0x1c
 3520 0a70 77       		.byte	0x77
 3521 0a71 00       		.sleb128 0
 3522 0a72 22       		.byte	0x22
 3523 0a73 9F       		.byte	0x9f
 3524 0a74 A2020000 		.4byte	.LVL127
 3525 0a78 A6020000 		.4byte	.LVL129
ARM GAS  /tmp/ccaofhaY.s 			page 63


 3526 0a7c 0B00     		.2byte	0xb
 3527 0a7e 74       		.byte	0x74
 3528 0a7f 06       		.sleb128 6
 3529 0a80 94       		.byte	0x94
 3530 0a81 01       		.byte	0x1
 3531 0a82 72       		.byte	0x72
 3532 0a83 00       		.sleb128 0
 3533 0a84 1C       		.byte	0x1c
 3534 0a85 77       		.byte	0x77
 3535 0a86 00       		.sleb128 0
 3536 0a87 22       		.byte	0x22
 3537 0a88 9F       		.byte	0x9f
 3538 0a89 A6020000 		.4byte	.LVL129
 3539 0a8d AA020000 		.4byte	.LVL131
 3540 0a91 0B00     		.2byte	0xb
 3541 0a93 74       		.byte	0x74
 3542 0a94 05       		.sleb128 5
 3543 0a95 94       		.byte	0x94
 3544 0a96 01       		.byte	0x1
 3545 0a97 72       		.byte	0x72
 3546 0a98 00       		.sleb128 0
 3547 0a99 1C       		.byte	0x1c
 3548 0a9a 77       		.byte	0x77
 3549 0a9b 00       		.sleb128 0
 3550 0a9c 22       		.byte	0x22
 3551 0a9d 9F       		.byte	0x9f
 3552 0a9e AA020000 		.4byte	.LVL131
 3553 0aa2 AE020000 		.4byte	.LVL133
 3554 0aa6 0B00     		.2byte	0xb
 3555 0aa8 74       		.byte	0x74
 3556 0aa9 04       		.sleb128 4
 3557 0aaa 94       		.byte	0x94
 3558 0aab 01       		.byte	0x1
 3559 0aac 72       		.byte	0x72
 3560 0aad 00       		.sleb128 0
 3561 0aae 1C       		.byte	0x1c
 3562 0aaf 77       		.byte	0x77
 3563 0ab0 00       		.sleb128 0
 3564 0ab1 22       		.byte	0x22
 3565 0ab2 9F       		.byte	0x9f
 3566 0ab3 AE020000 		.4byte	.LVL133
 3567 0ab7 B2020000 		.4byte	.LVL135
 3568 0abb 0B00     		.2byte	0xb
 3569 0abd 74       		.byte	0x74
 3570 0abe 03       		.sleb128 3
 3571 0abf 94       		.byte	0x94
 3572 0ac0 01       		.byte	0x1
 3573 0ac1 72       		.byte	0x72
 3574 0ac2 00       		.sleb128 0
 3575 0ac3 1C       		.byte	0x1c
 3576 0ac4 77       		.byte	0x77
 3577 0ac5 00       		.sleb128 0
 3578 0ac6 22       		.byte	0x22
 3579 0ac7 9F       		.byte	0x9f
 3580 0ac8 B2020000 		.4byte	.LVL135
 3581 0acc B6020000 		.4byte	.LVL137
 3582 0ad0 0B00     		.2byte	0xb
ARM GAS  /tmp/ccaofhaY.s 			page 64


 3583 0ad2 74       		.byte	0x74
 3584 0ad3 02       		.sleb128 2
 3585 0ad4 94       		.byte	0x94
 3586 0ad5 01       		.byte	0x1
 3587 0ad6 72       		.byte	0x72
 3588 0ad7 00       		.sleb128 0
 3589 0ad8 1C       		.byte	0x1c
 3590 0ad9 77       		.byte	0x77
 3591 0ada 00       		.sleb128 0
 3592 0adb 22       		.byte	0x22
 3593 0adc 9F       		.byte	0x9f
 3594 0add B6020000 		.4byte	.LVL137
 3595 0ae1 C4020000 		.4byte	.LFE45
 3596 0ae5 0B00     		.2byte	0xb
 3597 0ae7 74       		.byte	0x74
 3598 0ae8 01       		.sleb128 1
 3599 0ae9 94       		.byte	0x94
 3600 0aea 01       		.byte	0x1
 3601 0aeb 72       		.byte	0x72
 3602 0aec 00       		.sleb128 0
 3603 0aed 1C       		.byte	0x1c
 3604 0aee 77       		.byte	0x77
 3605 0aef 00       		.sleb128 0
 3606 0af0 22       		.byte	0x22
 3607 0af1 9F       		.byte	0x9f
 3608 0af2 00000000 		.4byte	0
 3609 0af6 00000000 		.4byte	0
 3610              	.LLST33:
 3611 0afa 2A020000 		.4byte	.LVL101
 3612 0afe 6A020000 		.4byte	.LVL108
 3613 0b02 0600     		.2byte	0x6
 3614 0b04 78       		.byte	0x78
 3615 0b05 00       		.sleb128 0
 3616 0b06 08       		.byte	0x8
 3617 0b07 FF       		.byte	0xff
 3618 0b08 1A       		.byte	0x1a
 3619 0b09 9F       		.byte	0x9f
 3620 0b0a 00000000 		.4byte	0
 3621 0b0e 00000000 		.4byte	0
 3622              	.LLST34:
 3623 0b12 2A020000 		.4byte	.LVL101
 3624 0b16 4E020000 		.4byte	.LVL105
 3625 0b1a 0600     		.2byte	0x6
 3626 0b1c 77       		.byte	0x77
 3627 0b1d 00       		.sleb128 0
 3628 0b1e 08       		.byte	0x8
 3629 0b1f FF       		.byte	0xff
 3630 0b20 1A       		.byte	0x1a
 3631 0b21 9F       		.byte	0x9f
 3632 0b22 00000000 		.4byte	0
 3633 0b26 00000000 		.4byte	0
 3634              	.LLST35:
 3635 0b2a 40020000 		.4byte	.LVL103
 3636 0b2e 6A020000 		.4byte	.LVL108
 3637 0b32 0600     		.2byte	0x6
 3638 0b34 78       		.byte	0x78
 3639 0b35 00       		.sleb128 0
ARM GAS  /tmp/ccaofhaY.s 			page 65


 3640 0b36 08       		.byte	0x8
 3641 0b37 FF       		.byte	0xff
 3642 0b38 1A       		.byte	0x1a
 3643 0b39 9F       		.byte	0x9f
 3644 0b3a 00000000 		.4byte	0
 3645 0b3e 00000000 		.4byte	0
 3646              	.LLST36:
 3647 0b42 40020000 		.4byte	.LVL103
 3648 0b46 4E020000 		.4byte	.LVL105
 3649 0b4a 0600     		.2byte	0x6
 3650 0b4c 77       		.byte	0x77
 3651 0b4d 00       		.sleb128 0
 3652 0b4e 08       		.byte	0x8
 3653 0b4f FF       		.byte	0xff
 3654 0b50 1A       		.byte	0x1a
 3655 0b51 9F       		.byte	0x9f
 3656 0b52 00000000 		.4byte	0
 3657 0b56 00000000 		.4byte	0
 3658              		.section	.debug_aranges,"",%progbits
 3659 0000 34000000 		.4byte	0x34
 3660 0004 0200     		.2byte	0x2
 3661 0006 00000000 		.4byte	.Ldebug_info0
 3662 000a 04       		.byte	0x4
 3663 000b 00       		.byte	0
 3664 000c 0000     		.2byte	0
 3665 000e 0000     		.2byte	0
 3666 0010 00000000 		.4byte	.LFB40
 3667 0014 22000000 		.4byte	.LFE40-.LFB40
 3668 0018 00000000 		.4byte	.LFB41
 3669 001c 2A000000 		.4byte	.LFE41-.LFB41
 3670 0020 00000000 		.4byte	.LFB42
 3671 0024 22000000 		.4byte	.LFE42-.LFB42
 3672 0028 00000000 		.4byte	.LFB45
 3673 002c C4020000 		.4byte	.LFE45-.LFB45
 3674 0030 00000000 		.4byte	0
 3675 0034 00000000 		.4byte	0
 3676              		.section	.debug_ranges,"",%progbits
 3677              	.Ldebug_ranges0:
 3678 0000 B0000000 		.4byte	.LBB25
 3679 0004 B2000000 		.4byte	.LBE25
 3680 0008 B4000000 		.4byte	.LBB26
 3681 000c 26020000 		.4byte	.LBE26
 3682 0010 7A020000 		.4byte	.LBB31
 3683 0014 C4020000 		.4byte	.LBE31
 3684 0018 00000000 		.4byte	0
 3685 001c 00000000 		.4byte	0
 3686 0020 00000000 		.4byte	.LFB40
 3687 0024 22000000 		.4byte	.LFE40
 3688 0028 00000000 		.4byte	.LFB41
 3689 002c 2A000000 		.4byte	.LFE41
 3690 0030 00000000 		.4byte	.LFB42
 3691 0034 22000000 		.4byte	.LFE42
 3692 0038 00000000 		.4byte	.LFB45
 3693 003c C4020000 		.4byte	.LFE45
 3694 0040 00000000 		.4byte	0
 3695 0044 00000000 		.4byte	0
 3696              		.section	.debug_line,"",%progbits
ARM GAS  /tmp/ccaofhaY.s 			page 66


 3697              	.Ldebug_line0:
 3698 0000 AF010000 		.section	.debug_str,"MS",%progbits,1
 3698      0200F300 
 3698      00000201 
 3698      FB0E0D00 
 3698      01010101 
 3699              	.LASF41:
 3700 0000 61766731 		.ascii	"avg16\000"
 3700      3600
 3701              	.LASF54:
 3702 0006 6D665F72 		.ascii	"mf_render_character\000"
 3702      656E6465 
 3702      725F6368 
 3702      61726163 
 3702      74657200 
 3703              	.LASF2:
 3704 001a 696E7438 		.ascii	"int8_t\000"
 3704      5F7400
 3705              	.LASF36:
 3706 0021 73746174 		.ascii	"state\000"
 3706      6500
 3707              	.LASF43:
 3708 0027 666F6E74 		.ascii	"font\000"
 3708      00
 3709              	.LASF6:
 3710 002c 73686F72 		.ascii	"short int\000"
 3710      7420696E 
 3710      7400
 3711              	.LASF13:
 3712 0036 73697A65 		.ascii	"sizetype\000"
 3712      74797065 
 3712      00
 3713              	.LASF51:
 3714 003f 474E5520 		.ascii	"GNU C 4.7.4 20130913 (prerelease)\000"
 3714      4320342E 
 3714      372E3420 
 3714      32303133 
 3714      30393133 
 3715              	.LASF27:
 3716 0061 72656E64 		.ascii	"render_character\000"
 3716      65725F63 
 3716      68617261 
 3716      63746572 
 3716      00
 3717              	.LASF31:
 3718 0072 6B65726E 		.ascii	"kerning_state_s\000"
 3718      696E675F 
 3718      73746174 
 3718      655F7300 
 3719              	.LASF3:
 3720 0082 75696E74 		.ascii	"uint8_t\000"
 3720      385F7400 
 3721              	.LASF28:
 3722 008a 6D665F63 		.ascii	"mf_char\000"
 3722      68617200 
 3723              	.LASF30:
 3724 0092 6D665F66 		.ascii	"mf_font_s\000"
ARM GAS  /tmp/ccaofhaY.s 			page 67


 3724      6F6E745F 
 3724      7300
 3725              	.LASF49:
 3726 009c 6D61785F 		.ascii	"max_adjust\000"
 3726      61646A75 
 3726      737400
 3727              	.LASF17:
 3728 00a7 77696474 		.ascii	"width\000"
 3728      6800
 3729              	.LASF10:
 3730 00ad 6C6F6E67 		.ascii	"long long int\000"
 3730      206C6F6E 
 3730      6720696E 
 3730      7400
 3731              	.LASF23:
 3732 00bb 6C696E65 		.ascii	"line_height\000"
 3732      5F686569 
 3732      67687400 
 3733              	.LASF19:
 3734 00c7 6D696E5F 		.ascii	"min_x_advance\000"
 3734      785F6164 
 3734      76616E63 
 3734      6500
 3735              	.LASF8:
 3736 00d5 6C6F6E67 		.ascii	"long int\000"
 3736      20696E74 
 3736      00
 3737              	.LASF52:
 3738 00de 2F686F6D 		.ascii	"/home/matt/arm_cortex/ChibiOS/ext/ugfx/src/gdisp/mc"
 3738      652F6D61 
 3738      74742F61 
 3738      726D5F63 
 3738      6F727465 
 3739 0111 75666F6E 		.ascii	"ufont/mf_kerning.c\000"
 3739      742F6D66 
 3739      5F6B6572 
 3739      6E696E67 
 3739      2E6300
 3740              	.LASF53:
 3741 0124 6D665F63 		.ascii	"mf_compute_kerning\000"
 3741      6F6D7075 
 3741      74655F6B 
 3741      65726E69 
 3741      6E6700
 3742              	.LASF15:
 3743 0137 66756C6C 		.ascii	"full_name\000"
 3743      5F6E616D 
 3743      6500
 3744              	.LASF48:
 3745 0141 61646A75 		.ascii	"adjust\000"
 3745      737400
 3746              	.LASF16:
 3747 0148 73686F72 		.ascii	"short_name\000"
 3747      745F6E61 
 3747      6D6500
 3748              	.LASF4:
 3749 0153 756E7369 		.ascii	"unsigned char\000"
ARM GAS  /tmp/ccaofhaY.s 			page 68


 3749      676E6564 
 3749      20636861 
 3749      7200
 3750              	.LASF45:
 3751 0161 72696768 		.ascii	"rightedge\000"
 3751      74656467 
 3751      6500
 3752              	.LASF50:
 3753 016b 73706163 		.ascii	"space\000"
 3753      6500
 3754              	.LASF1:
 3755 0171 7369676E 		.ascii	"signed char\000"
 3755      65642063 
 3755      68617200 
 3756              	.LASF24:
 3757 017d 666C6167 		.ascii	"flags\000"
 3757      7300
 3758              	.LASF11:
 3759 0183 6C6F6E67 		.ascii	"long long unsigned int\000"
 3759      206C6F6E 
 3759      6720756E 
 3759      7369676E 
 3759      65642069 
 3760              	.LASF33:
 3761 019a 7A6F6E65 		.ascii	"zoneheight\000"
 3761      68656967 
 3761      687400
 3762              	.LASF0:
 3763 01a5 756E7369 		.ascii	"unsigned int\000"
 3763      676E6564 
 3763      20696E74 
 3763      00
 3764              	.LASF32:
 3765 01b2 65646765 		.ascii	"edgepos\000"
 3765      706F7300 
 3766              	.LASF44:
 3767 01ba 6C656674 		.ascii	"leftedge\000"
 3767      65646765 
 3767      00
 3768              	.LASF46:
 3769 01c3 6D696E5F 		.ascii	"min_space\000"
 3769      73706163 
 3769      6500
 3770              	.LASF7:
 3771 01cd 73686F72 		.ascii	"short unsigned int\000"
 3771      7420756E 
 3771      7369676E 
 3771      65642069 
 3771      6E7400
 3772              	.LASF20:
 3773 01e0 6D61785F 		.ascii	"max_x_advance\000"
 3773      785F6164 
 3773      76616E63 
 3773      6500
 3774              	.LASF14:
 3775 01ee 63686172 		.ascii	"char\000"
 3775      00
ARM GAS  /tmp/ccaofhaY.s 			page 69


 3776              	.LASF21:
 3777 01f3 62617365 		.ascii	"baseline_x\000"
 3777      6C696E65 
 3777      5F7800
 3778              	.LASF22:
 3779 01fe 62617365 		.ascii	"baseline_y\000"
 3779      6C696E65 
 3779      5F7900
 3780              	.LASF29:
 3781 0209 6D665F70 		.ascii	"mf_pixel_callback_t\000"
 3781      6978656C 
 3781      5F63616C 
 3781      6C626163 
 3781      6B5F7400 
 3782              	.LASF5:
 3783 021d 696E7431 		.ascii	"int16_t\000"
 3783      365F7400 
 3784              	.LASF12:
 3785 0225 5F426F6F 		.ascii	"_Bool\000"
 3785      6C00
 3786              	.LASF18:
 3787 022b 68656967 		.ascii	"height\000"
 3787      687400
 3788              	.LASF38:
 3789 0232 6669745F 		.ascii	"fit_leftedge\000"
 3789      6C656674 
 3789      65646765 
 3789      00
 3790              	.LASF37:
 3791 023f 7A6F6E65 		.ascii	"zone\000"
 3791      00
 3792              	.LASF9:
 3793 0244 6C6F6E67 		.ascii	"long unsigned int\000"
 3793      20756E73 
 3793      69676E65 
 3793      6420696E 
 3793      7400
 3794              	.LASF47:
 3795 0256 6E6F726D 		.ascii	"normal_space\000"
 3795      616C5F73 
 3795      70616365 
 3795      00
 3796              	.LASF35:
 3797 0263 616C7068 		.ascii	"alpha\000"
 3797      6100
 3798              	.LASF34:
 3799 0269 636F756E 		.ascii	"count\000"
 3799      7400
 3800              	.LASF42:
 3801 026f 6D617831 		.ascii	"max16\000"
 3801      3600
 3802              	.LASF25:
 3803 0275 66616C6C 		.ascii	"fallback_character\000"
 3803      6261636B 
 3803      5F636861 
 3803      72616374 
 3803      657200
ARM GAS  /tmp/ccaofhaY.s 			page 70


 3804              	.LASF26:
 3805 0288 63686172 		.ascii	"character_width\000"
 3805      61637465 
 3805      725F7769 
 3805      64746800 
 3806              	.LASF39:
 3807 0298 6669745F 		.ascii	"fit_rightedge\000"
 3807      72696768 
 3807      74656467 
 3807      6500
 3808              	.LASF40:
 3809 02a6 646F5F6B 		.ascii	"do_kerning\000"
 3809      65726E69 
 3809      6E6700
 3810              		.ident	"GCC: (GNU Tools for ARM Embedded Processors / bleeding-edge-toolchain-131005) 4.7.4 201309
ARM GAS  /tmp/ccaofhaY.s 			page 71


DEFINED SYMBOLS
                            *ABS*:0000000000000000 mf_kerning.c
     /tmp/ccaofhaY.s:19     .text.fit_leftedge:0000000000000000 $t
     /tmp/ccaofhaY.s:24     .text.fit_leftedge:0000000000000000 fit_leftedge
     /tmp/ccaofhaY.s:75     .text.fit_rightedge:0000000000000000 $t
     /tmp/ccaofhaY.s:80     .text.fit_rightedge:0000000000000000 fit_rightedge
     /tmp/ccaofhaY.s:139    .text.do_kerning:0000000000000000 $t
     /tmp/ccaofhaY.s:144    .text.do_kerning:0000000000000000 do_kerning
     /tmp/ccaofhaY.s:188    .text.mf_compute_kerning:0000000000000000 $t
     /tmp/ccaofhaY.s:194    .text.mf_compute_kerning:0000000000000000 mf_compute_kerning
     /tmp/ccaofhaY.s:803    .text.mf_compute_kerning:00000000000002bc $d
                     .debug_frame:0000000000000010 $d
     /tmp/ccaofhaY.s:809    .text.mf_compute_kerning:00000000000002c4 $t

UNDEFINED SYMBOLS
__aeabi_idiv
mf_render_character
