ARM GAS  /tmp/ccaofhaY.s 			page 1


   1              		.cpu cortex-m0
   2              		.fpu softvfp
   3              		.eabi_attribute 20, 1
   4              		.eabi_attribute 21, 1
   5              		.eabi_attribute 23, 3
   6              		.eabi_attribute 24, 1
   7              		.eabi_attribute 25, 1
   8              		.eabi_attribute 26, 1
   9              		.eabi_attribute 30, 2
  10              		.eabi_attribute 34, 0
  11              		.eabi_attribute 18, 4
  12              		.code	16
  13              		.file	"mf_kerning.c"
  14              		.text
  15              	.Ltext0:
  16              		.cfi_sections	.debug_frame
  17              		.global	__aeabi_idiv
  18              		.section	.text.fit_leftedge,"ax",%progbits
  19              		.align	2
  20              		.p2align 4,,15
  21              		.code	16
  22              		.thumb_func
  23              		.type	fit_leftedge, %function
  24              	fit_leftedge:
  25              	.LFB40:
  26              		.file 1 "/home/matt/arm_cortex/ChibiOS/ext/ugfx/src/gdisp/mcufont/mf_kerning.c"
  27              		.loc 1 26 0
  28              		.cfi_startproc
  29              	.LVL0:
  30 0000 10B5     		push	{r4, lr}
  31              	.LCFI0:
  32              		.cfi_def_cfa_offset 8
  33              		.cfi_offset 4, -8
  34              		.cfi_offset 14, -4
  35              	.LVL1:
  36              		.loc 1 26 0
  37 0002 041C     		mov	r4, r0
  38 0004 081C     		mov	r0, r1
  39              	.LVL2:
  40              		.loc 1 30 0
  41 0006 072B     		cmp	r3, #7
  42 0008 0AD9     		bls	.L1
  43              	.LVL3:
  44              	.LBB12:
  45              	.LBB13:
  46              	.LBB14:
  47              		.loc 1 32 0
  48 000a 029A     		ldr	r2, [sp, #8]
  49              	.LVL4:
  50 000c 117C     		ldrb	r1, [r2, #16]
  51              	.LVL5:
  52 000e FFF7FEFF 		bl	__aeabi_idiv
  53              	.LVL6:
  54              		.loc 1 33 0
  55 0012 FF23     		mov	r3, #255
  56 0014 0299     		ldr	r1, [sp, #8]
  57 0016 1840     		and	r0, r3
ARM GAS  /tmp/ccaofhaY.s 			page 2


  58 0018 0A5C     		ldrb	r2, [r1, r0]
  59 001a 9442     		cmp	r4, r2
  60 001c 00DA     		bge	.L1
  61              		.loc 1 34 0
  62 001e 0C54     		strb	r4, [r1, r0]
  63              	.LVL7:
  64              	.L1:
  65              	.LBE14:
  66              	.LBE13:
  67              	.LBE12:
  68              		.loc 1 36 0
  69              		@ sp needed for prologue
  70 0020 10BD     		pop	{r4, pc}
  71              		.cfi_endproc
  72              	.LFE40:
  73              		.size	fit_leftedge, .-fit_leftedge
  74 0022 C046C046 		.section	.text.fit_rightedge,"ax",%progbits
  74      C046C046 
  74      C046C046 
  74      C046
  75              		.align	2
  76              		.p2align 4,,15
  77              		.code	16
  78              		.thumb_func
  79              		.type	fit_rightedge, %function
  80              	fit_rightedge:
  81              	.LFB41:
  82              		.loc 1 41 0
  83              		.cfi_startproc
  84              	.LVL8:
  85 0000 10B5     		push	{r4, lr}
  86              	.LCFI1:
  87              		.cfi_def_cfa_offset 8
  88              		.cfi_offset 4, -8
  89              		.cfi_offset 14, -4
  90              	.LVL9:
  91              		.loc 1 44 0
  92 0002 072B     		cmp	r3, #7
  93 0004 10D9     		bls	.L4
  94              	.LVL10:
  95              	.LBB18:
  96              	.LBB19:
  97              	.LBB20:
  98              		.loc 1 47 0
  99 0006 0138     		sub	r0, r0, #1
 100              	.LVL11:
 101 0008 1218     		add	r2, r2, r0
 102              	.LVL12:
 103              		.loc 1 46 0
 104 000a 0298     		ldr	r0, [sp, #8]
 105              	.LVL13:
 106              		.loc 1 47 0
 107 000c 94B2     		uxth	r4, r2
 108              	.LVL14:
 109              		.loc 1 46 0
 110 000e 037C     		ldrb	r3, [r0, #16]
 111              	.LVL15:
ARM GAS  /tmp/ccaofhaY.s 			page 3


 112 0010 081C     		mov	r0, r1
 113 0012 191C     		mov	r1, r3
 114              	.LVL16:
 115 0014 FFF7FEFF 		bl	__aeabi_idiv
 116              	.LVL17:
 117              		.loc 1 48 0
 118 0018 FF21     		mov	r1, #255
 119 001a 0840     		and	r0, r1
 120 001c 0299     		ldr	r1, [sp, #8]
 121 001e 22B2     		sxth	r2, r4
 122 0020 0B5C     		ldrb	r3, [r1, r0]
 123 0022 9A42     		cmp	r2, r3
 124 0024 00DD     		ble	.L4
 125              		.loc 1 49 0
 126 0026 0C54     		strb	r4, [r1, r0]
 127              	.LVL18:
 128              	.L4:
 129              	.LBE20:
 130              	.LBE19:
 131              	.LBE18:
 132              		.loc 1 51 0
 133              		@ sp needed for prologue
 134 0028 10BD     		pop	{r4, pc}
 135              		.cfi_endproc
 136              	.LFE41:
 137              		.size	fit_rightedge, .-fit_rightedge
 138 002a C046C046 		.section	.text.do_kerning,"ax",%progbits
 138      C046
 139              		.align	2
 140              		.p2align 4,,15
 141              		.code	16
 142              		.thumb_func
 143              		.type	do_kerning, %function
 144              	do_kerning:
 145              	.LFB42:
 146              		.loc 1 55 0
 147              		.cfi_startproc
 148              	.LVL19:
 149              		.loc 1 57 0
 150 0000 2028     		cmp	r0, #32
 151 0002 0CD0     		beq	.L11
 152              		.loc 1 57 0 is_stmt 0 discriminator 1
 153 0004 0A28     		cmp	r0, #10
 154 0006 0AD0     		beq	.L11
 155 0008 0D28     		cmp	r0, #13
 156 000a 08D0     		beq	.L11
 157              	.LVL20:
 158              	.LBB23:
 159              	.LBB24:
 160              		.loc 1 57 0
 161 000c 0928     		cmp	r0, #9
 162 000e 06D0     		beq	.L11
 163              		.loc 1 62 0 is_stmt 1
 164 0010 3038     		sub	r0, r0, #48
 165              	.LVL21:
 166 0012 C0B2     		uxtb	r0, r0
 167              	.LVL22:
ARM GAS  /tmp/ccaofhaY.s 			page 4


 168 0014 0923     		mov	r3, #9
 169 0016 8342     		cmp	r3, r0
 170 0018 8941     		sbc	r1, r1, r1
 171 001a 4842     		neg	r0, r1
 172 001c 00E0     		b	.L7
 173              	.LVL23:
 174              	.L11:
 175              	.LBE24:
 176              	.LBE23:
 177              		.loc 1 58 0
 178 001e 0020     		mov	r0, #0
 179              	.LVL24:
 180              	.L7:
 181              		.loc 1 66 0
 182              		@ sp needed for prologue
 183 0020 7047     		bx	lr
 184              		.cfi_endproc
 185              	.LFE42:
 186              		.size	do_kerning, .-do_kerning
 187 0022 C046C046 		.section	.text.mf_compute_kerning,"ax",%progbits
 187      C046C046 
 187      C046C046 
 187      C046
 188              		.align	2
 189              		.p2align 4,,15
 190              		.global	mf_compute_kerning
 191              		.code	16
 192              		.thumb_func
 193              		.type	mf_compute_kerning, %function
 194              	mf_compute_kerning:
 195              	.LFB45:
 196              		.loc 1 74 0
 197              		.cfi_startproc
 198              	.LVL25:
 199 0000 F0B5     		push	{r4, r5, r6, r7, lr}
 200              	.LCFI2:
 201              		.cfi_def_cfa_offset 20
 202              		.cfi_offset 4, -20
 203              		.cfi_offset 5, -16
 204              		.cfi_offset 6, -12
 205              		.cfi_offset 7, -8
 206              		.cfi_offset 14, -4
 207 0002 5746     		mov	r7, sl
 208 0004 4E46     		mov	r6, r9
 209 0006 4546     		mov	r5, r8
 210 0008 E0B4     		push	{r5, r6, r7}
 211              	.LCFI3:
 212              		.cfi_def_cfa_offset 32
 213              		.cfi_offset 8, -32
 214              		.cfi_offset 9, -28
 215              		.cfi_offset 10, -24
 216              		.loc 1 79 0
 217 000a C47B     		ldrb	r4, [r0, #15]
 218              		.loc 1 74 0
 219 000c 8CB0     		sub	sp, sp, #48
 220              	.LCFI4:
 221              		.cfi_def_cfa_offset 80
ARM GAS  /tmp/ccaofhaY.s 			page 5


 222              		.loc 1 74 0
 223 000e 8046     		mov	r8, r0
 224 0010 8946     		mov	r9, r1
 225 0012 9246     		mov	sl, r2
 226              		.loc 1 79 0
 227 0014 E207     		lsl	r2, r4, #31
 228 0016 00D5     		bpl	.LCB214
 229 0018 27E1     		b	.L16	@long jump
 230              	.LCB214:
 231              	.LVL26:
 232              		.loc 1 82 0
 233 001a 081C     		mov	r0, r1
 234              	.LVL27:
 235 001c FFF7FEFF 		bl	do_kerning
 236              	.LVL28:
 237 0020 0028     		cmp	r0, #0
 238 0022 00D1     		bne	.LCB222
 239 0024 21E1     		b	.L16	@long jump
 240              	.LCB222:
 241              		.loc 1 82 0 is_stmt 0 discriminator 1
 242 0026 5046     		mov	r0, sl
 243 0028 FFF7FEFF 		bl	do_kerning
 244              	.LVL29:
 245 002c 0028     		cmp	r0, #0
 246 002e 00D1     		bne	.LCB227
 247 0030 1BE1     		b	.L16	@long jump
 248              	.LCB227:
 249              		.loc 1 86 0 is_stmt 1
 250 0032 4246     		mov	r2, r8
 251 0034 537A     		ldrb	r3, [r2, #9]
 252 0036 0F33     		add	r3, r3, #15
 253 0038 1909     		lsr	r1, r3, #4
 254              	.LVL30:
 255              		.loc 1 87 0
 256 003a 00D1     		bne	.L17
 257 003c 0121     		mov	r1, #1
 258              	.LVL31:
 259              	.L17:
 260              		.loc 1 90 0
 261 003e 02AC     		add	r4, sp, #8
 262 0040 07AD     		add	r5, sp, #28
 263              		.loc 1 93 0
 264 0042 FF27     		mov	r7, #255
 265              		.loc 1 94 0
 266 0044 0026     		mov	r6, #0
 267              		.loc 1 90 0
 268 0046 2974     		strb	r1, [r5, #16]
 269 0048 2174     		strb	r1, [r4, #16]
 270              	.LVL32:
 271              		.loc 1 93 0
 272 004a 2770     		strb	r7, [r4]
 273 004c 6770     		strb	r7, [r4, #1]
 274 004e A770     		strb	r7, [r4, #2]
 275 0050 E770     		strb	r7, [r4, #3]
 276 0052 2771     		strb	r7, [r4, #4]
 277 0054 6771     		strb	r7, [r4, #5]
 278 0056 A771     		strb	r7, [r4, #6]
ARM GAS  /tmp/ccaofhaY.s 			page 6


 279 0058 E771     		strb	r7, [r4, #7]
 280 005a 2772     		strb	r7, [r4, #8]
 281 005c 6772     		strb	r7, [r4, #9]
 282 005e A772     		strb	r7, [r4, #10]
 283 0060 E772     		strb	r7, [r4, #11]
 284 0062 2773     		strb	r7, [r4, #12]
 285 0064 6773     		strb	r7, [r4, #13]
 286 0066 A773     		strb	r7, [r4, #14]
 287 0068 E773     		strb	r7, [r4, #15]
 288              		.loc 1 94 0
 289 006a 2E70     		strb	r6, [r5]
 290              	.LVL33:
 291 006c 6E70     		strb	r6, [r5, #1]
 292              	.LVL34:
 293 006e AE70     		strb	r6, [r5, #2]
 294              	.LVL35:
 295 0070 EE70     		strb	r6, [r5, #3]
 296              	.LVL36:
 297 0072 2E71     		strb	r6, [r5, #4]
 298              	.LVL37:
 299 0074 6E71     		strb	r6, [r5, #5]
 300              	.LVL38:
 301 0076 AE71     		strb	r6, [r5, #6]
 302              	.LVL39:
 303 0078 EE71     		strb	r6, [r5, #7]
 304              	.LVL40:
 305 007a 2E72     		strb	r6, [r5, #8]
 306              	.LVL41:
 307 007c 6E72     		strb	r6, [r5, #9]
 308              	.LVL42:
 309 007e AE72     		strb	r6, [r5, #10]
 310              	.LVL43:
 311 0080 EE72     		strb	r6, [r5, #11]
 312              	.LVL44:
 313 0082 2E73     		strb	r6, [r5, #12]
 314              	.LVL45:
 315 0084 6E73     		strb	r6, [r5, #13]
 316              	.LVL46:
 317 0086 AE73     		strb	r6, [r5, #14]
 318              	.LVL47:
 319 0088 EE73     		strb	r6, [r5, #15]
 320              	.LVL48:
 321              		.loc 1 98 0
 322 008a 8C48     		ldr	r0, .L173
 323 008c 0021     		mov	r1, #0
 324 008e 0090     		str	r0, [sp]
 325 0090 0022     		mov	r2, #0
 326 0092 4046     		mov	r0, r8
 327 0094 4B46     		mov	r3, r9
 328 0096 0195     		str	r5, [sp, #4]
 329 0098 FFF7FEFF 		bl	mf_render_character
 330              	.LVL49:
 331              		.loc 1 99 0
 332 009c 884A     		ldr	r2, .L173+4
 333 009e 5346     		mov	r3, sl
 334 00a0 0092     		str	r2, [sp]
 335              		.loc 1 98 0
ARM GAS  /tmp/ccaofhaY.s 			page 7


 336 00a2 071C     		mov	r7, r0
 337              	.LVL50:
 338              		.loc 1 99 0
 339 00a4 0194     		str	r4, [sp, #4]
 340 00a6 4046     		mov	r0, r8
 341              	.LVL51:
 342 00a8 0021     		mov	r1, #0
 343 00aa 0022     		mov	r2, #0
 344 00ac FFF7FEFF 		bl	mf_render_character
 345              	.LVL52:
 346              	.LBB25:
 347              		.loc 1 106 0
 348 00b0 2378     		ldrb	r3, [r4]
 349              	.LBE25:
 350              		.loc 1 99 0
 351 00b2 8046     		mov	r8, r0
 352              	.LVL53:
 353              	.LBB26:
 354              		.loc 1 106 0
 355 00b4 FF2B     		cmp	r3, #255
 356 00b6 00D1     		bne	.LCB327
 357 00b8 DFE0     		b	.L55	@long jump
 358              	.LCB327:
 359 00ba 2978     		ldrb	r1, [r5]
 360              		.loc 1 102 0
 361 00bc FF26     		mov	r6, #255
 362              		.loc 1 106 0
 363 00be 0029     		cmp	r1, #0
 364 00c0 02D0     		beq	.L18
 365              	.LVL54:
 366              		.loc 1 109 0
 367 00c2 5E1A     		sub	r6, r3, r1
 368 00c4 B819     		add	r0, r7, r6
 369              	.LVL55:
 370 00c6 C6B2     		uxtb	r6, r0
 371              	.LVL56:
 372              	.L18:
 373              		.loc 1 106 0
 374 00c8 6378     		ldrb	r3, [r4, #1]
 375 00ca FF2B     		cmp	r3, #255
 376 00cc 08D0     		beq	.L20
 377 00ce 6A78     		ldrb	r2, [r5, #1]
 378 00d0 002A     		cmp	r2, #0
 379 00d2 05D0     		beq	.L20
 380              	.LVL57:
 381              		.loc 1 109 0
 382 00d4 991A     		sub	r1, r3, r2
 383 00d6 7818     		add	r0, r7, r1
 384 00d8 C3B2     		uxtb	r3, r0
 385              	.LVL58:
 386 00da 9E42     		cmp	r6, r3
 387 00dc 00D9     		bls	.LCB357
 388 00de EAE0     		b	.L158	@long jump
 389              	.LCB357:
 390              	.LVL59:
 391              	.L20:
 392              		.loc 1 106 0
ARM GAS  /tmp/ccaofhaY.s 			page 8


 393 00e0 A178     		ldrb	r1, [r4, #2]
 394 00e2 FF29     		cmp	r1, #255
 395 00e4 08D0     		beq	.L22
 396 00e6 AA78     		ldrb	r2, [r5, #2]
 397 00e8 002A     		cmp	r2, #0
 398 00ea 05D0     		beq	.L22
 399              	.LVL60:
 400              		.loc 1 109 0
 401 00ec 881A     		sub	r0, r1, r2
 402 00ee 3B18     		add	r3, r7, r0
 403 00f0 D9B2     		uxtb	r1, r3
 404              	.LVL61:
 405 00f2 8E42     		cmp	r6, r1
 406 00f4 00D9     		bls	.LCB378
 407 00f6 DCE0     		b	.L159	@long jump
 408              	.LCB378:
 409              	.LVL62:
 410              	.L22:
 411              		.loc 1 106 0
 412 00f8 E078     		ldrb	r0, [r4, #3]
 413 00fa FF28     		cmp	r0, #255
 414 00fc 08D0     		beq	.L24
 415 00fe EA78     		ldrb	r2, [r5, #3]
 416 0100 002A     		cmp	r2, #0
 417 0102 05D0     		beq	.L24
 418              	.LVL63:
 419              		.loc 1 109 0
 420 0104 831A     		sub	r3, r0, r2
 421 0106 F918     		add	r1, r7, r3
 422 0108 C8B2     		uxtb	r0, r1
 423              	.LVL64:
 424 010a 8642     		cmp	r6, r0
 425 010c 00D9     		bls	.LCB399
 426 010e CEE0     		b	.L160	@long jump
 427              	.LCB399:
 428              	.LVL65:
 429              	.L24:
 430              		.loc 1 106 0
 431 0110 2379     		ldrb	r3, [r4, #4]
 432 0112 FF2B     		cmp	r3, #255
 433 0114 08D0     		beq	.L26
 434 0116 2A79     		ldrb	r2, [r5, #4]
 435 0118 002A     		cmp	r2, #0
 436 011a 05D0     		beq	.L26
 437              	.LVL66:
 438              		.loc 1 109 0
 439 011c 991A     		sub	r1, r3, r2
 440 011e 7818     		add	r0, r7, r1
 441 0120 C3B2     		uxtb	r3, r0
 442              	.LVL67:
 443 0122 9E42     		cmp	r6, r3
 444 0124 00D9     		bls	.LCB420
 445 0126 C0E0     		b	.L161	@long jump
 446              	.LCB420:
 447              	.LVL68:
 448              	.L26:
 449              		.loc 1 106 0
ARM GAS  /tmp/ccaofhaY.s 			page 9


 450 0128 6179     		ldrb	r1, [r4, #5]
 451 012a FF29     		cmp	r1, #255
 452 012c 08D0     		beq	.L28
 453 012e 6A79     		ldrb	r2, [r5, #5]
 454 0130 002A     		cmp	r2, #0
 455 0132 05D0     		beq	.L28
 456              	.LVL69:
 457              		.loc 1 109 0
 458 0134 881A     		sub	r0, r1, r2
 459 0136 3B18     		add	r3, r7, r0
 460 0138 D9B2     		uxtb	r1, r3
 461              	.LVL70:
 462 013a 8E42     		cmp	r6, r1
 463 013c 00D9     		bls	.LCB441
 464 013e B2E0     		b	.L162	@long jump
 465              	.LCB441:
 466              	.LVL71:
 467              	.L28:
 468              		.loc 1 106 0
 469 0140 A079     		ldrb	r0, [r4, #6]
 470 0142 FF28     		cmp	r0, #255
 471 0144 08D0     		beq	.L30
 472 0146 AA79     		ldrb	r2, [r5, #6]
 473 0148 002A     		cmp	r2, #0
 474 014a 05D0     		beq	.L30
 475              	.LVL72:
 476              		.loc 1 109 0
 477 014c 831A     		sub	r3, r0, r2
 478 014e F918     		add	r1, r7, r3
 479 0150 C8B2     		uxtb	r0, r1
 480              	.LVL73:
 481 0152 8642     		cmp	r6, r0
 482 0154 00D9     		bls	.LCB462
 483 0156 A4E0     		b	.L163	@long jump
 484              	.LCB462:
 485              	.LVL74:
 486              	.L30:
 487              		.loc 1 106 0
 488 0158 E379     		ldrb	r3, [r4, #7]
 489 015a FF2B     		cmp	r3, #255
 490 015c 08D0     		beq	.L32
 491 015e EA79     		ldrb	r2, [r5, #7]
 492 0160 002A     		cmp	r2, #0
 493 0162 05D0     		beq	.L32
 494              	.LVL75:
 495              		.loc 1 109 0
 496 0164 991A     		sub	r1, r3, r2
 497 0166 7818     		add	r0, r7, r1
 498 0168 C3B2     		uxtb	r3, r0
 499              	.LVL76:
 500 016a 9E42     		cmp	r6, r3
 501 016c 00D9     		bls	.LCB483
 502 016e 96E0     		b	.L164	@long jump
 503              	.LCB483:
 504              	.LVL77:
 505              	.L32:
 506              		.loc 1 106 0
ARM GAS  /tmp/ccaofhaY.s 			page 10


 507 0170 217A     		ldrb	r1, [r4, #8]
 508 0172 FF29     		cmp	r1, #255
 509 0174 08D0     		beq	.L34
 510 0176 2A7A     		ldrb	r2, [r5, #8]
 511 0178 002A     		cmp	r2, #0
 512 017a 05D0     		beq	.L34
 513              	.LVL78:
 514              		.loc 1 109 0
 515 017c 881A     		sub	r0, r1, r2
 516 017e 3B18     		add	r3, r7, r0
 517 0180 D9B2     		uxtb	r1, r3
 518              	.LVL79:
 519 0182 8E42     		cmp	r6, r1
 520 0184 00D9     		bls	.LCB504
 521 0186 88E0     		b	.L165	@long jump
 522              	.LCB504:
 523              	.LVL80:
 524              	.L34:
 525              		.loc 1 106 0
 526 0188 607A     		ldrb	r0, [r4, #9]
 527 018a FF28     		cmp	r0, #255
 528 018c 08D0     		beq	.L36
 529 018e 6A7A     		ldrb	r2, [r5, #9]
 530 0190 002A     		cmp	r2, #0
 531 0192 05D0     		beq	.L36
 532              	.LVL81:
 533              		.loc 1 109 0
 534 0194 831A     		sub	r3, r0, r2
 535 0196 F918     		add	r1, r7, r3
 536 0198 C8B2     		uxtb	r0, r1
 537              	.LVL82:
 538 019a 8642     		cmp	r6, r0
 539 019c 00D9     		bls	.LCB525
 540 019e 7AE0     		b	.L166	@long jump
 541              	.LCB525:
 542              	.LVL83:
 543              	.L36:
 544              		.loc 1 106 0
 545 01a0 A37A     		ldrb	r3, [r4, #10]
 546 01a2 FF2B     		cmp	r3, #255
 547 01a4 07D0     		beq	.L38
 548 01a6 AA7A     		ldrb	r2, [r5, #10]
 549 01a8 002A     		cmp	r2, #0
 550 01aa 04D0     		beq	.L38
 551              	.LVL84:
 552              		.loc 1 109 0
 553 01ac 991A     		sub	r1, r3, r2
 554 01ae 7818     		add	r0, r7, r1
 555 01b0 C3B2     		uxtb	r3, r0
 556              	.LVL85:
 557 01b2 9E42     		cmp	r6, r3
 558 01b4 6DD8     		bhi	.L167
 559              	.LVL86:
 560              	.L38:
 561              		.loc 1 106 0
 562 01b6 E17A     		ldrb	r1, [r4, #11]
 563 01b8 FF29     		cmp	r1, #255
ARM GAS  /tmp/ccaofhaY.s 			page 11


 564 01ba 07D0     		beq	.L40
 565 01bc EA7A     		ldrb	r2, [r5, #11]
 566 01be 002A     		cmp	r2, #0
 567 01c0 04D0     		beq	.L40
 568              	.LVL87:
 569              		.loc 1 109 0
 570 01c2 881A     		sub	r0, r1, r2
 571 01c4 3B18     		add	r3, r7, r0
 572 01c6 D9B2     		uxtb	r1, r3
 573              	.LVL88:
 574 01c8 8E42     		cmp	r6, r1
 575 01ca 60D8     		bhi	.L168
 576              	.LVL89:
 577              	.L40:
 578              		.loc 1 106 0
 579 01cc 207B     		ldrb	r0, [r4, #12]
 580 01ce FF28     		cmp	r0, #255
 581 01d0 07D0     		beq	.L42
 582 01d2 2A7B     		ldrb	r2, [r5, #12]
 583 01d4 002A     		cmp	r2, #0
 584 01d6 04D0     		beq	.L42
 585              	.LVL90:
 586              		.loc 1 109 0
 587 01d8 831A     		sub	r3, r0, r2
 588 01da F918     		add	r1, r7, r3
 589 01dc C8B2     		uxtb	r0, r1
 590              	.LVL91:
 591 01de 8642     		cmp	r6, r0
 592 01e0 53D8     		bhi	.L169
 593              	.LVL92:
 594              	.L42:
 595              		.loc 1 106 0
 596 01e2 637B     		ldrb	r3, [r4, #13]
 597 01e4 FF2B     		cmp	r3, #255
 598 01e6 07D0     		beq	.L44
 599 01e8 6A7B     		ldrb	r2, [r5, #13]
 600 01ea 002A     		cmp	r2, #0
 601 01ec 04D0     		beq	.L44
 602              	.LVL93:
 603              		.loc 1 109 0
 604 01ee 991A     		sub	r1, r3, r2
 605 01f0 7818     		add	r0, r7, r1
 606 01f2 C3B2     		uxtb	r3, r0
 607              	.LVL94:
 608 01f4 9E42     		cmp	r6, r3
 609 01f6 46D8     		bhi	.L170
 610              	.LVL95:
 611              	.L44:
 612              		.loc 1 106 0
 613 01f8 A17B     		ldrb	r1, [r4, #14]
 614 01fa FF29     		cmp	r1, #255
 615 01fc 07D0     		beq	.L46
 616 01fe AA7B     		ldrb	r2, [r5, #14]
 617 0200 002A     		cmp	r2, #0
 618 0202 04D0     		beq	.L46
 619              	.LVL96:
 620              		.loc 1 109 0
ARM GAS  /tmp/ccaofhaY.s 			page 12


 621 0204 881A     		sub	r0, r1, r2
 622 0206 3B18     		add	r3, r7, r0
 623 0208 D9B2     		uxtb	r1, r3
 624              	.LVL97:
 625 020a 8E42     		cmp	r6, r1
 626 020c 39D8     		bhi	.L171
 627              	.LVL98:
 628              	.L46:
 629              		.loc 1 106 0
 630 020e E47B     		ldrb	r4, [r4, #15]
 631 0210 FF2C     		cmp	r4, #255
 632 0212 08D0     		beq	.L48
 633              		.loc 1 106 0 is_stmt 0 discriminator 1
 634 0214 ED7B     		ldrb	r5, [r5, #15]
 635 0216 002D     		cmp	r5, #0
 636 0218 05D0     		beq	.L48
 637              	.LVL99:
 638              		.loc 1 109 0 is_stmt 1
 639 021a 621B     		sub	r2, r4, r5
 640 021c B818     		add	r0, r7, r2
 641 021e C3B2     		uxtb	r3, r0
 642 0220 B342     		cmp	r3, r6
 643 0222 2CD8     		bhi	.L172
 644              	.L49:
 645 0224 1E1C     		mov	r6, r3
 646              	.LVL100:
 647              	.L48:
 648              	.LBE26:
 649              		.loc 1 114 0
 650 0226 FF2E     		cmp	r6, #255
 651 0228 1FD0     		beq	.L16
 652              	.LVL101:
 653              	.LBB27:
 654              	.LBB28:
 655              		.loc 1 70 0
 656 022a 4146     		mov	r1, r8
 657 022c 7C18     		add	r4, r7, r1
 658 022e 6510     		asr	r5, r4, #1
 659              	.LBE28:
 660              	.LBE27:
 661              		.loc 1 118 0
 662 0230 2A01     		lsl	r2, r5, #4
 663 0232 501B     		sub	r0, r2, r5
 664 0234 6421     		mov	r1, #100
 665 0236 FFF7FEFF 		bl	__aeabi_idiv
 666              	.LVL102:
 667              		.loc 1 119 0
 668 023a 0330     		add	r0, r0, #3
 669              		.loc 1 120 0
 670 023c 801B     		sub	r0, r0, r6
 671 023e 86B2     		uxth	r6, r0
 672              	.LVL103:
 673              		.loc 1 123 0
 674 0240 34B2     		sxth	r4, r6
 675 0242 0020     		mov	r0, #0
 676              	.LVL104:
 677 0244 002C     		cmp	r4, #0
ARM GAS  /tmp/ccaofhaY.s 			page 13


 678 0246 11DC     		bgt	.L15
 679              	.LBB29:
 680              	.LBB30:
 681              		.loc 1 69 0
 682 0248 4346     		mov	r3, r8
 683 024a 18B2     		sxth	r0, r3
 684 024c 3FB2     		sxth	r7, r7
 685              	.LVL105:
 686 024e B842     		cmp	r0, r7
 687 0250 00DA     		bge	.L51
 688 0252 381C     		mov	r0, r7
 689              	.L51:
 690              	.LBE30:
 691              	.LBE29:
 692              		.loc 1 121 0
 693 0254 0521     		mov	r1, #5
 694 0256 4942     		neg	r1, r1
 695 0258 FFF7FEFF 		bl	__aeabi_idiv
 696              	.LVL106:
 697 025c 85B2     		uxth	r5, r0
 698              	.LVL107:
 699              		.loc 1 124 0
 700 025e 2AB2     		sxth	r2, r5
 701 0260 F0B2     		uxtb	r0, r6
 702 0262 9442     		cmp	r4, r2
 703 0264 02DA     		bge	.L15
 704 0266 E8B2     		uxtb	r0, r5
 705 0268 00E0     		b	.L15
 706              	.LVL108:
 707              	.L16:
 708              		.loc 1 80 0
 709 026a 0020     		mov	r0, #0
 710              	.L15:
 711 026c 40B2     		sxtb	r0, r0
 712              		.loc 1 127 0
 713 026e 0CB0     		add	sp, sp, #48
 714              		@ sp needed for prologue
 715 0270 1CBC     		pop	{r2, r3, r4}
 716 0272 9046     		mov	r8, r2
 717 0274 9946     		mov	r9, r3
 718 0276 A246     		mov	sl, r4
 719 0278 F0BD     		pop	{r4, r5, r6, r7, pc}
 720              	.LVL109:
 721              	.L55:
 722              	.LBB31:
 723              		.loc 1 102 0
 724 027a FF26     		mov	r6, #255
 725 027c 24E7     		b	.L18
 726              	.LVL110:
 727              	.L172:
 728 027e 331C     		mov	r3, r6
 729 0280 D0E7     		b	.L49
 730              	.LVL111:
 731              	.L171:
 732 0282 0E1C     		mov	r6, r1
 733              	.LVL112:
 734 0284 C3E7     		b	.L46
ARM GAS  /tmp/ccaofhaY.s 			page 14


 735              	.LVL113:
 736              	.L170:
 737 0286 1E1C     		mov	r6, r3
 738              	.LVL114:
 739 0288 B6E7     		b	.L44
 740              	.LVL115:
 741              	.L169:
 742 028a 061C     		mov	r6, r0
 743              	.LVL116:
 744 028c A9E7     		b	.L42
 745              	.LVL117:
 746              	.L168:
 747 028e 0E1C     		mov	r6, r1
 748              	.LVL118:
 749 0290 9CE7     		b	.L40
 750              	.LVL119:
 751              	.L167:
 752 0292 1E1C     		mov	r6, r3
 753              	.LVL120:
 754 0294 8FE7     		b	.L38
 755              	.LVL121:
 756              	.L166:
 757 0296 061C     		mov	r6, r0
 758              	.LVL122:
 759 0298 82E7     		b	.L36
 760              	.LVL123:
 761              	.L165:
 762 029a 0E1C     		mov	r6, r1
 763              	.LVL124:
 764 029c 74E7     		b	.L34
 765              	.LVL125:
 766              	.L164:
 767 029e 1E1C     		mov	r6, r3
 768              	.LVL126:
 769 02a0 66E7     		b	.L32
 770              	.LVL127:
 771              	.L163:
 772 02a2 061C     		mov	r6, r0
 773              	.LVL128:
 774 02a4 58E7     		b	.L30
 775              	.LVL129:
 776              	.L162:
 777 02a6 0E1C     		mov	r6, r1
 778              	.LVL130:
 779 02a8 4AE7     		b	.L28
 780              	.LVL131:
 781              	.L161:
 782 02aa 1E1C     		mov	r6, r3
 783              	.LVL132:
 784 02ac 3CE7     		b	.L26
 785              	.LVL133:
 786              	.L160:
 787 02ae 061C     		mov	r6, r0
 788              	.LVL134:
 789 02b0 2EE7     		b	.L24
 790              	.LVL135:
 791              	.L159:
ARM GAS  /tmp/ccaofhaY.s 			page 15


 792 02b2 0E1C     		mov	r6, r1
 793              	.LVL136:
 794 02b4 20E7     		b	.L22
 795              	.LVL137:
 796              	.L158:
 797 02b6 1E1C     		mov	r6, r3
 798              	.LVL138:
 799 02b8 12E7     		b	.L20
 800              	.L174:
 801 02ba C046     		.align	2
 802              	.L173:
 803 02bc 00000000 		.word	fit_rightedge
 804 02c0 00000000 		.word	fit_leftedge
 805              	.LBE31:
 806              		.cfi_endproc
 807              	.LFE45:
 808              		.size	mf_compute_kerning, .-mf_compute_kerning
 809 02c4 C046C046 		.text
 809      C046C046 
 809      C046C046 
 810              	.Letext0:
 811              		.file 2 "/home/matt/arm_cortex/gcc-arm-none-eabi/bin/../lib/gcc/arm-none-eabi/4.7.4/../../../../ar
 812              		.file 3 "/home/matt/arm_cortex/ChibiOS/ext/ugfx/src/gdisp/mcufont/mf_font.h"
 813              		.file 4 "/home/matt/arm_cortex/ChibiOS/ext/ugfx/src/gdisp/mcufont/mf_encoding.h"