ARM GAS  /tmp/ccCmSPP7.s 			page 1


   1              		.cpu cortex-m0
   2              		.fpu softvfp
   3              		.eabi_attribute 20, 1
   4              		.eabi_attribute 21, 1
   5              		.eabi_attribute 23, 3
   6              		.eabi_attribute 24, 1
   7              		.eabi_attribute 25, 1
   8              		.eabi_attribute 26, 1
   9              		.eabi_attribute 30, 2
  10              		.eabi_attribute 34, 0
  11              		.eabi_attribute 18, 4
  12              		.code	16
  13              		.file	"mf_rlefont.c"
  14              		.text
  15              	.Ltext0:
  16              		.cfi_sections	.debug_frame
  17              		.section	.text.find_glyph,"ax",%progbits
  18              		.align	2
  19              		.p2align 4,,15
  20              		.code	16
  21              		.thumb_func
  22              		.type	find_glyph, %function
  23              	find_glyph:
  24              	.LFB40:
  25              		.file 1 "/home/matt/arm_cortex/ChibiOS/ext/ugfx/src/gdisp/mcufont/mf_rlefont.c"
  26              		.loc 1 40 0
  27              		.cfi_startproc
  28              	.LVL0:
  29 0000 70B5     		push	{r4, r5, r6, lr}
  30              	.LCFI0:
  31              		.cfi_def_cfa_offset 16
  32              		.cfi_offset 4, -16
  33              		.cfi_offset 5, -12
  34              		.cfi_offset 6, -8
  35              		.cfi_offset 14, -4
  36              		.loc 1 43 0
  37 0002 2A23     		mov	r3, #42
  38 0004 C55C     		ldrb	r5, [r0, r3]
  39 0006 002D     		cmp	r5, #0
  40 0008 2ED0     		beq	.L5
  41 000a C36A     		ldr	r3, [r0, #44]
  42 000c 0120     		mov	r0, #1
  43              	.LVL1:
  44              		.loc 1 46 0
  45 000e 1E88     		ldrh	r6, [r3]
  46 0010 6A1E     		sub	r2, r5, #1
  47 0012 041C     		mov	r4, r0
  48 0014 1440     		and	r4, r2
  49              	.LVL2:
  50              		.loc 1 47 0
  51 0016 B142     		cmp	r1, r6
  52 0018 28D2     		bcs	.L21
  53              	.L7:
  54              		.loc 1 43 0
  55 001a 0122     		mov	r2, #1
  56              	.LVL3:
  57 001c 0C33     		add	r3, r3, #12
ARM GAS  /tmp/ccCmSPP7.s 			page 2


  58              	.LVL4:
  59 001e AA42     		cmp	r2, r5
  60 0020 22D2     		bcs	.L5
  61 0022 002C     		cmp	r4, #0
  62 0024 0AD0     		beq	.L4
  63              	.LVL5:
  64              		.loc 1 46 0
  65 0026 1888     		ldrh	r0, [r3]
  66              	.LVL6:
  67              		.loc 1 47 0
  68 0028 8142     		cmp	r1, r0
  69 002a 03D3     		bcc	.L9
  70 002c 5C88     		ldrh	r4, [r3, #2]
  71              		.loc 1 46 0
  72 002e 081A     		sub	r0, r1, r0
  73              		.loc 1 47 0
  74 0030 A042     		cmp	r0, r4
  75 0032 1FD3     		bcc	.L18
  76              	.L9:
  77              		.loc 1 43 0
  78 0034 0132     		add	r2, r2, #1
  79 0036 0C33     		add	r3, r3, #12
  80              	.LVL7:
  81 0038 AA42     		cmp	r2, r5
  82 003a 15D2     		bcs	.L5
  83              	.LVL8:
  84              	.L4:
  85              		.loc 1 46 0
  86 003c 1E88     		ldrh	r6, [r3]
  87              		.loc 1 47 0
  88 003e B142     		cmp	r1, r6
  89 0040 03D3     		bcc	.L3
  90              		.loc 1 47 0 is_stmt 0 discriminator 1
  91 0042 5C88     		ldrh	r4, [r3, #2]
  92              		.loc 1 46 0 is_stmt 1 discriminator 1
  93 0044 881B     		sub	r0, r1, r6
  94              		.loc 1 47 0 discriminator 1
  95 0046 A042     		cmp	r0, r4
  96 0048 14D3     		bcc	.L18
  97              	.L3:
  98 004a 0C33     		add	r3, r3, #12
  99              	.LVL9:
 100              		.loc 1 46 0
 101 004c 1888     		ldrh	r0, [r3]
 102              		.loc 1 43 0
 103 004e 0132     		add	r2, r2, #1
 104 0050 1C1C     		mov	r4, r3
 105              	.LVL10:
 106              		.loc 1 47 0
 107 0052 8142     		cmp	r1, r0
 108 0054 03D3     		bcc	.L12
 109 0056 5E88     		ldrh	r6, [r3, #2]
 110              		.loc 1 46 0
 111 0058 081A     		sub	r0, r1, r0
 112              		.loc 1 47 0
 113 005a B042     		cmp	r0, r6
 114 005c 0AD3     		bcc	.L18
ARM GAS  /tmp/ccCmSPP7.s 			page 3


 115              	.L12:
 116 005e 231C     		mov	r3, r4
 117              	.LVL11:
 118              		.loc 1 43 0
 119 0060 0132     		add	r2, r2, #1
 120 0062 0C33     		add	r3, r3, #12
 121 0064 AA42     		cmp	r2, r5
 122 0066 E9D3     		bcc	.L4
 123              	.LVL12:
 124              	.L5:
 125              		.loc 1 54 0
 126 0068 0020     		mov	r0, #0
 127              	.LVL13:
 128              	.L2:
 129              		.loc 1 55 0
 130              		@ sp needed for prologue
 131 006a 70BD     		pop	{r4, r5, r6, pc}
 132              	.LVL14:
 133              	.L21:
 134              		.loc 1 47 0
 135 006c 5A88     		ldrh	r2, [r3, #2]
 136              		.loc 1 46 0
 137 006e 881B     		sub	r0, r1, r6
 138              		.loc 1 47 0
 139 0070 9042     		cmp	r0, r2
 140 0072 D2D2     		bcs	.L7
 141              	.LVL15:
 142              	.L18:
 143              	.LBB16:
 144              		.loc 1 50 0
 145 0074 5968     		ldr	r1, [r3, #4]
 146              	.LVL16:
 147              		.loc 1 49 0
 148 0076 4500     		lsl	r5, r0, #1
 149              		.loc 1 50 0
 150 0078 6A5A     		ldrh	r2, [r5, r1]
 151 007a 9C68     		ldr	r4, [r3, #8]
 152 007c A018     		add	r0, r4, r2
 153              	.LVL17:
 154 007e F4E7     		b	.L2
 155              	.LBE16:
 156              		.cfi_endproc
 157              	.LFE40:
 158              		.size	find_glyph, .-find_glyph
 159              		.section	.text.write_pixels,"ax",%progbits
 160              		.align	2
 161              		.p2align 4,,15
 162              		.code	16
 163              		.thumb_func
 164              		.type	write_pixels, %function
 165              	write_pixels:
 166              	.LFB41:
 167              		.loc 1 74 0
 168              		.cfi_startproc
 169              	.LVL18:
 170 0000 F0B5     		push	{r4, r5, r6, r7, lr}
 171              	.LCFI1:
ARM GAS  /tmp/ccCmSPP7.s 			page 4


 172              		.cfi_def_cfa_offset 20
 173              		.cfi_offset 4, -20
 174              		.cfi_offset 5, -16
 175              		.cfi_offset 6, -12
 176              		.cfi_offset 7, -8
 177              		.cfi_offset 14, -4
 178 0002 4746     		mov	r7, r8
 179 0004 80B4     		push	{r7}
 180              	.LCFI2:
 181              		.cfi_def_cfa_offset 24
 182              		.cfi_offset 8, -24
 183              		.loc 1 78 0
 184 0006 8588     		ldrh	r5, [r0, #4]
 185 0008 4788     		ldrh	r7, [r0, #2]
 186              		.loc 1 74 0
 187 000a 041C     		mov	r4, r0
 188              		.loc 1 78 0
 189 000c 28B2     		sxth	r0, r5
 190              	.LVL19:
 191              		.loc 1 74 0
 192 000e 9046     		mov	r8, r2
 193              		.loc 1 78 0
 194 0010 3BB2     		sxth	r3, r7
 195 0012 4218     		add	r2, r0, r1
 196              	.LVL20:
 197              		.loc 1 74 0
 198 0014 82B0     		sub	sp, sp, #8
 199              	.LCFI3:
 200              		.cfi_def_cfa_offset 32
 201              		.loc 1 74 0
 202 0016 0E1C     		mov	r6, r1
 203              		.loc 1 78 0
 204 0018 9A42     		cmp	r2, r3
 205 001a 17DB     		blt	.L23
 206 001c E188     		ldrh	r1, [r4, #6]
 207              	.LVL21:
 208              	.L24:
 209              		.loc 1 80 0
 210 001e 7D1B     		sub	r5, r7, r5
 211              		.loc 1 81 0
 212 0020 2769     		ldr	r7, [r4, #16]
 213              		.loc 1 80 0
 214 0022 EDB2     		uxtb	r5, r5
 215              	.LVL22:
 216              		.loc 1 81 0
 217 0024 2A1C     		mov	r2, r5
 218 0026 09B2     		sxth	r1, r1
 219 0028 0097     		str	r7, [sp]
 220 002a 4346     		mov	r3, r8
 221 002c E768     		ldr	r7, [r4, #12]
 222 002e B847     		blx	r7
 223              	.LVL23:
 224              		.loc 1 82 0
 225 0030 761B     		sub	r6, r6, r5
 226              		.loc 1 84 0
 227 0032 E188     		ldrh	r1, [r4, #6]
 228              		.loc 1 83 0
ARM GAS  /tmp/ccCmSPP7.s 			page 5


 229 0034 2588     		ldrh	r5, [r4]
 230              	.LVL24:
 231              		.loc 1 78 0
 232 0036 6788     		ldrh	r7, [r4, #2]
 233              		.loc 1 82 0
 234 0038 B6B2     		uxth	r6, r6
 235              	.LVL25:
 236              		.loc 1 84 0
 237 003a 0131     		add	r1, r1, #1
 238              		.loc 1 78 0
 239 003c 28B2     		sxth	r0, r5
 240              		.loc 1 84 0
 241 003e 89B2     		uxth	r1, r1
 242              		.loc 1 78 0
 243 0040 8219     		add	r2, r0, r6
 244 0042 3BB2     		sxth	r3, r7
 245              		.loc 1 83 0
 246 0044 A580     		strh	r5, [r4, #4]
 247              		.loc 1 84 0
 248 0046 E180     		strh	r1, [r4, #6]
 249              		.loc 1 78 0
 250 0048 9A42     		cmp	r2, r3
 251 004a E8DA     		bge	.L24
 252              	.LVL26:
 253              	.L23:
 254              		.loc 1 88 0
 255 004c 002E     		cmp	r6, #0
 256 004e 0AD0     		beq	.L22
 257              		.loc 1 90 0
 258 0050 2569     		ldr	r5, [r4, #16]
 259 0052 0623     		mov	r3, #6
 260 0054 E15E     		ldrsh	r1, [r4, r3]
 261 0056 F2B2     		uxtb	r2, r6
 262 0058 0095     		str	r5, [sp]
 263 005a 4346     		mov	r3, r8
 264 005c E768     		ldr	r7, [r4, #12]
 265 005e B847     		blx	r7
 266              	.LVL27:
 267              		.loc 1 91 0
 268 0060 A088     		ldrh	r0, [r4, #4]
 269 0062 3618     		add	r6, r6, r0
 270 0064 A680     		strh	r6, [r4, #4]
 271              	.L22:
 272              		.loc 1 93 0
 273 0066 02B0     		add	sp, sp, #8
 274              		@ sp needed for prologue
 275              	.LVL28:
 276 0068 04BC     		pop	{r2}
 277 006a 9046     		mov	r8, r2
 278 006c F0BD     		pop	{r4, r5, r6, r7, pc}
 279              		.cfi_endproc
 280              	.LFE41:
 281              		.size	write_pixels, .-write_pixels
 282 006e C046     		.section	.text.write_ref_codeword,"ax",%progbits
 283              		.align	2
 284              		.p2align 4,,15
 285              		.code	16
ARM GAS  /tmp/ccCmSPP7.s 			page 6


 286              		.thumb_func
 287              		.type	write_ref_codeword, %function
 288              	write_ref_codeword:
 289              	.LFB46:
 290              		.loc 1 195 0
 291              		.cfi_startproc
 292              	.LVL29:
 293 0000 F8B5     		push	{r3, r4, r5, r6, r7, lr}
 294              	.LCFI4:
 295              		.cfi_def_cfa_offset 24
 296              		.cfi_offset 3, -24
 297              		.cfi_offset 4, -20
 298              		.cfi_offset 5, -16
 299              		.cfi_offset 6, -12
 300              		.cfi_offset 7, -8
 301              		.cfi_offset 14, -4
 302 0002 5F46     		mov	r7, fp
 303 0004 4D46     		mov	r5, r9
 304 0006 5646     		mov	r6, sl
 305 0008 4446     		mov	r4, r8
 306 000a F0B4     		push	{r4, r5, r6, r7}
 307              	.LCFI5:
 308              		.cfi_def_cfa_offset 40
 309              		.cfi_offset 8, -40
 310              		.cfi_offset 9, -36
 311              		.cfi_offset 10, -32
 312              		.cfi_offset 11, -28
 313              		.loc 1 195 0
 314 000c 071C     		mov	r7, r0
 315 000e 0D1C     		mov	r5, r1
 316              		.loc 1 196 0
 317 0010 0F2A     		cmp	r2, #15
 318 0012 4BD9     		bls	.L74
 319              		.loc 1 200 0
 320 0014 102A     		cmp	r2, #16
 321 0016 65D0     		beq	.L75
 322              		.loc 1 205 0
 323 0018 172A     		cmp	r2, #23
 324 001a 3CD9     		bls	.L30
 325              		.loc 1 209 0
 326 001c 2823     		mov	r3, #40
 327 001e C05C     		ldrb	r0, [r0, r3]
 328              	.LVL30:
 329 0020 1730     		add	r0, r0, #23
 330 0022 9042     		cmp	r0, r2
 331 0024 61DA     		bge	.L76
 332              	.LVL31:
 333              	.LBB33:
 334              	.LBB34:
 335              	.LBB35:
 336              	.LBB36:
 337              		.loc 1 143 0
 338 0026 0127     		mov	r7, #1
 339              	.LVL32:
 340 0028 FB2A     		cmp	r2, #251
 341 002a 47D9     		bls	.L77
 342              	.LVL33:
ARM GAS  /tmp/ccCmSPP7.s 			page 7


 343              	.L46:
 344              	.LBE36:
 345              	.LBE35:
 346              		.loc 1 163 0
 347 002c 043A     		sub	r2, r2, #4
 348              	.LVL34:
 349 002e D6B2     		uxtb	r6, r2
 350              	.LVL35:
 351              	.LBE34:
 352              		.loc 1 169 0
 353 0030 0122     		mov	r2, #1
 354              	.LVL36:
 355              	.LBB41:
 356              		.loc 1 164 0
 357 0032 0021     		mov	r1, #0
 358              	.LBE41:
 359              		.loc 1 169 0
 360 0034 9046     		mov	r8, r2
 361 0036 07E0     		b	.L53
 362              	.LVL37:
 363              	.L79:
 364              	.LBB42:
 365              		.loc 1 171 0
 366 0038 0131     		add	r1, r1, #1
 367              		.loc 1 167 0
 368 003a 7B1E     		sub	r3, r7, #1
 369              		.loc 1 171 0
 370 003c C9B2     		uxtb	r1, r1
 371              	.LVL38:
 372              		.loc 1 184 0
 373 003e 7608     		lsr	r6, r6, #1
 374              	.LVL39:
 375              		.loc 1 167 0
 376 0040 D8B2     		uxtb	r0, r3
 377              	.LVL40:
 378 0042 002F     		cmp	r7, #0
 379 0044 25D0     		beq	.L78
 380              	.LVL41:
 381              	.L59:
 382 0046 071C     		mov	r7, r0
 383              	.L53:
 384              		.loc 1 169 0
 385 0048 4446     		mov	r4, r8
 386 004a 3442     		tst	r4, r6
 387 004c F4D1     		bne	.L79
 388              		.loc 1 175 0
 389 004e 0029     		cmp	r1, #0
 390 0050 27D1     		bne	.L80
 391              	.L49:
 392              	.LVL42:
 393              	.LBB38:
 394              	.LBB39:
 395              		.loc 1 98 0
 396 0052 AB88     		ldrh	r3, [r5, #4]
 397              		.loc 1 99 0
 398 0054 6A88     		ldrh	r2, [r5, #2]
 399              		.loc 1 98 0
ARM GAS  /tmp/ccCmSPP7.s 			page 8


 400 0056 0133     		add	r3, r3, #1
 401 0058 9BB2     		uxth	r3, r3
 402              		.loc 1 99 0
 403 005a 18B2     		sxth	r0, r3
 404 005c 11B2     		sxth	r1, r2
 405              		.loc 1 98 0
 406 005e AB80     		strh	r3, [r5, #4]
 407              		.loc 1 99 0
 408 0060 8842     		cmp	r0, r1
 409 0062 10DB     		blt	.L52
 410 0064 2C88     		ldrh	r4, [r5]
 411 0066 A21A     		sub	r2, r4, r2
 412              		.loc 1 192 0
 413 0068 EC88     		ldrh	r4, [r5, #6]
 414 006a 90B2     		uxth	r0, r2
 415 006c 0134     		add	r4, r4, #1
 416 006e 8446     		mov	ip, r0
 417 0070 A2B2     		uxth	r2, r4
 418              	.L51:
 419 0072 6344     		add	r3, r3, ip
 420 0074 9BB2     		uxth	r3, r3
 421              		.loc 1 102 0
 422 0076 90B2     		uxth	r0, r2
 423              		.loc 1 99 0
 424 0078 1CB2     		sxth	r4, r3
 425 007a 0132     		add	r2, r2, #1
 426 007c 92B2     		uxth	r2, r2
 427 007e 8C42     		cmp	r4, r1
 428 0080 F7DA     		bge	.L51
 429 0082 AB80     		strh	r3, [r5, #4]
 430 0084 E880     		strh	r0, [r5, #6]
 431              	.L52:
 432              	.LBE39:
 433              	.LBE38:
 434              		.loc 1 167 0
 435 0086 7B1E     		sub	r3, r7, #1
 436              		.loc 1 164 0
 437 0088 0021     		mov	r1, #0
 438              	.LVL43:
 439              		.loc 1 184 0
 440 008a 7608     		lsr	r6, r6, #1
 441              	.LVL44:
 442              		.loc 1 167 0
 443 008c D8B2     		uxtb	r0, r3
 444              	.LVL45:
 445 008e 002F     		cmp	r7, #0
 446 0090 D9D1     		bne	.L59
 447              	.LVL46:
 448              	.L78:
 449              		.loc 1 187 0
 450 0092 0029     		cmp	r1, #0
 451 0094 21D1     		bne	.L81
 452              	.LVL47:
 453              	.L30:
 454              	.LBE42:
 455              	.LBE33:
 456              		.loc 1 217 0
ARM GAS  /tmp/ccCmSPP7.s 			page 9


 457              		@ sp needed for prologue
 458              	.LVL48:
 459 0096 3CBC     		pop	{r2, r3, r4, r5}
 460 0098 9046     		mov	r8, r2
 461 009a 9946     		mov	r9, r3
 462 009c A246     		mov	sl, r4
 463 009e AB46     		mov	fp, r5
 464 00a0 F8BD     		pop	{r3, r4, r5, r6, r7, pc}
 465              	.LVL49:
 466              	.L80:
 467              	.LBB45:
 468              	.LBB43:
 469              		.loc 1 177 0
 470 00a2 281C     		mov	r0, r5
 471 00a4 FF22     		mov	r2, #255
 472 00a6 FFF7FEFF 		bl	write_pixels
 473              	.LVL50:
 474 00aa D2E7     		b	.L49
 475              	.LVL51:
 476              	.L74:
 477              	.LBE43:
 478              	.LBE45:
 479              	.LBB46:
 480              	.LBB47:
 481              		.loc 1 198 0
 482 00ac 1401     		lsl	r4, r2, #4
 483 00ae A018     		add	r0, r4, r2
 484              	.LVL52:
 485 00b0 C2B2     		uxtb	r2, r0
 486              	.LVL53:
 487 00b2 081C     		mov	r0, r1
 488 00b4 0121     		mov	r1, #1
 489              	.LVL54:
 490 00b6 FFF7FEFF 		bl	write_pixels
 491              	.LVL55:
 492 00ba ECE7     		b	.L30
 493              	.LVL56:
 494              	.L77:
 495              	.LBE47:
 496              	.LBE46:
 497              	.LBB48:
 498              	.LBB44:
 499              	.LBB40:
 500              	.LBB37:
 501              		.loc 1 145 0
 502 00bc 0227     		mov	r7, #2
 503 00be F32A     		cmp	r2, #243
 504 00c0 B4D8     		bhi	.L46
 505              		.loc 1 147 0
 506 00c2 0327     		mov	r7, #3
 507 00c4 E32A     		cmp	r2, #227
 508 00c6 B1D8     		bhi	.L46
 509              		.loc 1 149 0
 510 00c8 0427     		mov	r7, #4
 511 00ca C32A     		cmp	r2, #195
 512 00cc AED8     		bhi	.L46
 513              		.loc 1 151 0
ARM GAS  /tmp/ccCmSPP7.s 			page 10


 514 00ce 0027     		mov	r7, #0
 515 00d0 8321     		mov	r1, #131
 516              	.LVL57:
 517 00d2 9142     		cmp	r1, r2
 518 00d4 7F41     		adc	r7, r7, r7
 519 00d6 0537     		add	r7, r7, #5
 520 00d8 A8E7     		b	.L46
 521              	.LVL58:
 522              	.L81:
 523              	.LBE37:
 524              	.LBE40:
 525              		.loc 1 188 0
 526 00da 281C     		mov	r0, r5
 527 00dc FF22     		mov	r2, #255
 528 00de FFF7FEFF 		bl	write_pixels
 529              	.LVL59:
 530 00e2 D8E7     		b	.L30
 531              	.LVL60:
 532              	.L75:
 533              	.LBE44:
 534              	.LBE48:
 535              		.loc 1 203 0
 536 00e4 0F89     		ldrh	r7, [r1, #8]
 537 00e6 CF80     		strh	r7, [r1, #6]
 538 00e8 D5E7     		b	.L30
 539              	.LVL61:
 540              	.L76:
 541              		.loc 1 211 0
 542 00ea 183A     		sub	r2, r2, #24
 543              	.LVL62:
 544              	.LBB49:
 545              	.LBB50:
 546              		.loc 1 111 0
 547 00ec D2B2     		uxtb	r2, r2
 548              	.LVL63:
 549 00ee 7E6A     		ldr	r6, [r7, #36]
 550 00f0 5100     		lsl	r1, r2, #1
 551              	.LVL64:
 552              		.loc 1 112 0
 553 00f2 0132     		add	r2, r2, #1
 554 00f4 5300     		lsl	r3, r2, #1
 555              		.loc 1 111 0
 556 00f6 8C5B     		ldrh	r4, [r1, r6]
 557              	.LVL65:
 558              		.loc 1 112 0
 559 00f8 985B     		ldrh	r0, [r3, r6]
 560 00fa 061B     		sub	r6, r0, r4
 561              	.LVL66:
 562 00fc B1B2     		uxth	r1, r6
 563              	.LVL67:
 564              		.loc 1 115 0
 565 00fe 0029     		cmp	r1, #0
 566 0100 C9D0     		beq	.L30
 567              		.loc 1 192 0
 568 0102 0139     		sub	r1, r1, #1
 569 0104 8BB2     		uxth	r3, r1
 570              	.LBB51:
ARM GAS  /tmp/ccCmSPP7.s 			page 11


 571              		.loc 1 117 0
 572 0106 396A     		ldr	r1, [r7, #32]
 573              	.LBE51:
 574              		.loc 1 192 0
 575 0108 621C     		add	r2, r4, #1
 576              	.LVL68:
 577 010a D018     		add	r0, r2, r3
 578              	.LBB63:
 579              		.loc 1 117 0
 580 010c 0A5D     		ldrb	r2, [r1, r4]
 581              	.LVL69:
 582              	.LBE63:
 583              		.loc 1 192 0
 584 010e 8046     		mov	r8, r0
 585              	.LBB64:
 586              	.LBB52:
 587              		.loc 1 134 0
 588 0110 0F26     		mov	r6, #15
 589              	.LVL70:
 590              	.LBE52:
 591              	.LBE64:
 592              	.LBE50:
 593              		.loc 1 118 0
 594 0112 131C     		mov	r3, r2
 595 0114 3F20     		mov	r0, #63
 596              	.LBB70:
 597              	.LBB65:
 598              	.LBB53:
 599              		.loc 1 134 0
 600 0116 B146     		mov	r9, r6
 601              	.LBE53:
 602              	.LBE65:
 603              	.LBE70:
 604              		.loc 1 118 0
 605 0118 8343     		bic	r3, r0
 606              	.LBB71:
 607              	.LBB66:
 608 011a 25D1     		bne	.L37
 609              	.LVL71:
 610              	.L82:
 611              	.LBB54:
 612              	.LBB55:
 613              		.loc 1 98 0
 614 011c AB88     		ldrh	r3, [r5, #4]
 615              	.LBE55:
 616              	.LBE54:
 617              		.loc 1 120 0
 618 011e 0240     		and	r2, r0
 619              	.LVL72:
 620              	.LBB57:
 621              	.LBB56:
 622              		.loc 1 98 0
 623 0120 D618     		add	r6, r2, r3
 624              		.loc 1 99 0
 625 0122 6888     		ldrh	r0, [r5, #2]
 626              		.loc 1 98 0
 627 0124 B1B2     		uxth	r1, r6
ARM GAS  /tmp/ccCmSPP7.s 			page 12


 628              		.loc 1 99 0
 629 0126 02B2     		sxth	r2, r0
 630 0128 0BB2     		sxth	r3, r1
 631              		.loc 1 98 0
 632 012a A980     		strh	r1, [r5, #4]
 633              		.loc 1 99 0
 634 012c 9446     		mov	ip, r2
 635 012e 9342     		cmp	r3, r2
 636 0130 11DB     		blt	.L39
 637              		.loc 1 192 0
 638 0132 EB88     		ldrh	r3, [r5, #6]
 639 0134 2E88     		ldrh	r6, [r5]
 640 0136 0133     		add	r3, r3, #1
 641 0138 B346     		mov	fp, r6
 642 013a 9BB2     		uxth	r3, r3
 643              	.L40:
 644 013c 5A46     		mov	r2, fp
 645 013e 5118     		add	r1, r2, r1
 646 0140 0E1A     		sub	r6, r1, r0
 647 0142 B2B2     		uxth	r2, r6
 648 0144 91B2     		uxth	r1, r2
 649              		.loc 1 102 0
 650 0146 9EB2     		uxth	r6, r3
 651              		.loc 1 99 0
 652 0148 12B2     		sxth	r2, r2
 653 014a 0133     		add	r3, r3, #1
 654 014c 9BB2     		uxth	r3, r3
 655 014e 6245     		cmp	r2, ip
 656 0150 F4DA     		bge	.L40
 657 0152 A980     		strh	r1, [r5, #4]
 658 0154 EE80     		strh	r6, [r5, #6]
 659              	.LVL73:
 660              	.L39:
 661 0156 0134     		add	r4, r4, #1
 662              	.LBE56:
 663              	.LBE57:
 664              	.LBE66:
 665              		.loc 1 115 0
 666 0158 4445     		cmp	r4, r8
 667 015a 9CD0     		beq	.L30
 668              	.LBB67:
 669              		.loc 1 117 0
 670 015c 396A     		ldr	r1, [r7, #32]
 671              	.LBE67:
 672              	.LBE71:
 673              		.loc 1 118 0
 674 015e 3F20     		mov	r0, #63
 675              	.LBB72:
 676              	.LBB68:
 677              		.loc 1 117 0
 678 0160 0A5D     		ldrb	r2, [r1, r4]
 679              	.LVL74:
 680              	.LBE68:
 681              	.LBE72:
 682              		.loc 1 118 0
 683 0162 131C     		mov	r3, r2
 684 0164 8343     		bic	r3, r0
ARM GAS  /tmp/ccCmSPP7.s 			page 13


 685              	.LBB73:
 686              	.LBB69:
 687 0166 D9D0     		beq	.L82
 688              	.LVL75:
 689              	.L37:
 690              		.loc 1 122 0
 691 0168 402B     		cmp	r3, #64
 692 016a 10D0     		beq	.L83
 693              		.loc 1 126 0
 694 016c 802B     		cmp	r3, #128
 695 016e 2DD0     		beq	.L84
 696              		.loc 1 130 0
 697 0170 C02B     		cmp	r3, #192
 698 0172 F0D1     		bne	.L39
 699              	.LVL76:
 700              	.LBB58:
 701              		.loc 1 134 0
 702 0174 4B46     		mov	r3, r9
 703              		.loc 1 133 0
 704 0176 3F26     		mov	r6, #63
 705 0178 1640     		and	r6, r2
 706              		.loc 1 134 0
 707 017a 1A40     		and	r2, r3
 708              	.LVL77:
 709 017c 1001     		lsl	r0, r2, #4
 710              		.loc 1 133 0
 711 017e 3111     		asr	r1, r6, #4
 712              		.loc 1 134 0
 713 0180 8218     		add	r2, r0, r2
 714              		.loc 1 135 0
 715 0182 0131     		add	r1, r1, #1
 716 0184 D2B2     		uxtb	r2, r2
 717 0186 281C     		mov	r0, r5
 718 0188 FFF7FEFF 		bl	write_pixels
 719              	.LVL78:
 720 018c E3E7     		b	.L39
 721              	.L83:
 722              	.LVL79:
 723              	.LBE58:
 724              		.loc 1 124 0
 725 018e 3F26     		mov	r6, #63
 726 0190 3240     		and	r2, r6
 727              	.LVL80:
 728              	.LBB59:
 729              	.LBB60:
 730              		.loc 1 98 0
 731 0192 AB88     		ldrh	r3, [r5, #4]
 732              	.LBE60:
 733              	.LBE59:
 734              		.loc 1 124 0
 735 0194 0132     		add	r2, r2, #1
 736 0196 9001     		lsl	r0, r2, #6
 737              	.LBB62:
 738              	.LBB61:
 739              		.loc 1 98 0
 740 0198 C218     		add	r2, r0, r3
 741              		.loc 1 99 0
ARM GAS  /tmp/ccCmSPP7.s 			page 14


 742 019a 6E88     		ldrh	r6, [r5, #2]
 743              		.loc 1 98 0
 744 019c 93B2     		uxth	r3, r2
 745              		.loc 1 99 0
 746 019e 19B2     		sxth	r1, r3
 747 01a0 30B2     		sxth	r0, r6
 748              		.loc 1 98 0
 749 01a2 AB80     		strh	r3, [r5, #4]
 750              		.loc 1 99 0
 751 01a4 8142     		cmp	r1, r0
 752 01a6 D6DB     		blt	.L39
 753 01a8 2A88     		ldrh	r2, [r5]
 754 01aa 961B     		sub	r6, r2, r6
 755              		.loc 1 192 0
 756 01ac EA88     		ldrh	r2, [r5, #6]
 757 01ae B1B2     		uxth	r1, r6
 758 01b0 0132     		add	r2, r2, #1
 759 01b2 8B46     		mov	fp, r1
 760 01b4 92B2     		uxth	r2, r2
 761              	.L43:
 762 01b6 5B44     		add	r3, r3, fp
 763 01b8 9BB2     		uxth	r3, r3
 764              		.loc 1 102 0
 765 01ba 96B2     		uxth	r6, r2
 766              		.loc 1 99 0
 767 01bc 19B2     		sxth	r1, r3
 768 01be 0132     		add	r2, r2, #1
 769 01c0 92B2     		uxth	r2, r2
 770 01c2 8142     		cmp	r1, r0
 771 01c4 F7DA     		bge	.L43
 772 01c6 AB80     		strh	r3, [r5, #4]
 773 01c8 EE80     		strh	r6, [r5, #6]
 774 01ca C4E7     		b	.L39
 775              	.LVL81:
 776              	.L84:
 777              	.LBE61:
 778              	.LBE62:
 779              		.loc 1 128 0
 780 01cc 3F21     		mov	r1, #63
 781 01ce 0A40     		and	r2, r1
 782 01d0 511C     		add	r1, r2, #1
 783 01d2 281C     		mov	r0, r5
 784 01d4 FF22     		mov	r2, #255
 785 01d6 FFF7FEFF 		bl	write_pixels
 786              	.LVL82:
 787 01da BCE7     		b	.L39
 788              	.LBE69:
 789              	.LBE73:
 790              	.LBE49:
 791              		.cfi_endproc
 792              	.LFE46:
 793              		.size	write_ref_codeword, .-write_ref_codeword
 794 01dc C046C046 		.section	.text.mf_rlefont_render_character,"ax",%progbits
 795              		.align	2
 796              		.p2align 4,,15
 797              		.global	mf_rlefont_render_character
 798              		.code	16
ARM GAS  /tmp/ccCmSPP7.s 			page 15


 799              		.thumb_func
 800              		.type	mf_rlefont_render_character, %function
 801              	mf_rlefont_render_character:
 802              	.LFB49:
 803              		.loc 1 257 0
 804              		.cfi_startproc
 805              	.LVL83:
 806 0000 F0B5     		push	{r4, r5, r6, r7, lr}
 807              	.LCFI6:
 808              		.cfi_def_cfa_offset 20
 809              		.cfi_offset 4, -20
 810              		.cfi_offset 5, -16
 811              		.cfi_offset 6, -12
 812              		.cfi_offset 7, -8
 813              		.cfi_offset 14, -4
 814 0002 4446     		mov	r4, r8
 815 0004 5F46     		mov	r7, fp
 816 0006 5646     		mov	r6, sl
 817 0008 4D46     		mov	r5, r9
 818 000a F0B4     		push	{r4, r5, r6, r7}
 819              	.LCFI7:
 820              		.cfi_def_cfa_offset 36
 821              		.cfi_offset 8, -36
 822              		.cfi_offset 9, -32
 823              		.cfi_offset 10, -28
 824              		.cfi_offset 11, -24
 825 000c 89B0     		sub	sp, sp, #36
 826              	.LCFI8:
 827              		.cfi_def_cfa_offset 72
 828              		.loc 1 262 0
 829 000e 03AD     		add	r5, sp, #12
 830 0010 2980     		strh	r1, [r5]
 831              		.loc 1 257 0
 832 0012 171C     		mov	r7, r2
 833              		.loc 1 263 0
 834 0014 027A     		ldrb	r2, [r0, #8]
 835              	.LVL84:
 836              		.loc 1 257 0
 837 0016 041C     		mov	r4, r0
 838              		.loc 1 263 0
 839 0018 8818     		add	r0, r1, r2
 840              	.LVL85:
 841 001a 6880     		strh	r0, [r5, #2]
 842              		.loc 1 264 0
 843 001c A980     		strh	r1, [r5, #4]
 844              		.loc 1 265 0
 845 001e EF80     		strh	r7, [r5, #6]
 846              		.loc 1 266 0
 847 0020 617A     		ldrb	r1, [r4, #9]
 848              	.LVL86:
 849              		.loc 1 270 0
 850 0022 201C     		mov	r0, r4
 851              		.loc 1 266 0
 852 0024 7E18     		add	r6, r7, r1
 853              		.loc 1 267 0
 854 0026 1299     		ldr	r1, [sp, #72]
 855              		.loc 1 266 0
ARM GAS  /tmp/ccCmSPP7.s 			page 16


 856 0028 B2B2     		uxth	r2, r6
 857              		.loc 1 268 0
 858 002a 139E     		ldr	r6, [sp, #76]
 859              		.loc 1 267 0
 860 002c E960     		str	r1, [r5, #12]
 861              		.loc 1 270 0
 862 002e 191C     		mov	r1, r3
 863              		.loc 1 266 0
 864 0030 9046     		mov	r8, r2
 865 0032 2A81     		strh	r2, [r5, #8]
 866              		.loc 1 268 0
 867 0034 2E61     		str	r6, [r5, #16]
 868              		.loc 1 270 0
 869 0036 FFF7FEFF 		bl	find_glyph
 870              	.LVL87:
 871              		.loc 1 271 0
 872 003a 0028     		cmp	r0, #0
 873 003c 63D0     		beq	.L92
 874              		.loc 1 274 0
 875 003e 0378     		ldrb	r3, [r0]
 876 0040 461C     		add	r6, r0, #1
 877 0042 4246     		mov	r2, r8
 878              	.LBB79:
 879              	.LBB80:
 880              		.loc 1 240 0
 881 0044 2820     		mov	r0, #40
 882              	.LVL88:
 883              		.loc 1 241 0
 884 0046 2921     		mov	r1, #41
 885              	.LBE80:
 886              	.LBE79:
 887              		.loc 1 274 0
 888 0048 0193     		str	r3, [sp, #4]
 889              	.LVL89:
 890              	.LBB90:
 891              	.LBB85:
 892              		.loc 1 240 0
 893 004a 8146     		mov	r9, r0
 894 004c 13B2     		sxth	r3, r2
 895              		.loc 1 241 0
 896 004e 8A46     		mov	sl, r1
 897              	.L105:
 898              	.LBE85:
 899              	.LBE90:
 900              		.loc 1 275 0 discriminator 1
 901 0050 9F42     		cmp	r7, r3
 902 0052 15DA     		bge	.L86
 903              	.L91:
 904              	.LBB91:
 905              	.LBB86:
 906              		.loc 1 240 0
 907 0054 4846     		mov	r0, r9
 908 0056 215C     		ldrb	r1, [r4, r0]
 909              	.LBE86:
 910              	.LBE91:
 911              		.loc 1 277 0
 912 0058 3278     		ldrb	r2, [r6]
ARM GAS  /tmp/ccCmSPP7.s 			page 17


 913              	.LBB92:
 914              	.LBB87:
 915              		.loc 1 240 0
 916 005a 1731     		add	r1, r1, #23
 917              	.LBE87:
 918              	.LBE92:
 919              		.loc 1 277 0
 920 005c 0136     		add	r6, r6, #1
 921              	.LVL90:
 922              	.LBB93:
 923              	.LBB88:
 924              		.loc 1 240 0
 925 005e 9142     		cmp	r1, r2
 926 0060 04DA     		bge	.L88
 927              		.loc 1 241 0
 928 0062 5046     		mov	r0, sl
 929 0064 215C     		ldrb	r1, [r4, r0]
 930 0066 1731     		add	r1, r1, #23
 931              		.loc 1 240 0
 932 0068 8A42     		cmp	r2, r1
 933 006a 11DD     		ble	.L108
 934              	.L88:
 935              		.loc 1 247 0
 936 006c 291C     		mov	r1, r5
 937 006e 201C     		mov	r0, r4
 938 0070 FFF7FEFF 		bl	write_ref_codeword
 939              	.LVL91:
 940 0074 0621     		mov	r1, #6
 941 0076 6F5E     		ldrsh	r7, [r5, r1]
 942 0078 0822     		mov	r2, #8
 943 007a AB5E     		ldrsh	r3, [r5, r2]
 944              	.LBE88:
 945              	.LBE93:
 946              		.loc 1 275 0
 947 007c 9F42     		cmp	r7, r3
 948 007e E9DB     		blt	.L91
 949              	.LVL92:
 950              	.L86:
 951              		.loc 1 281 0
 952 0080 0198     		ldr	r0, [sp, #4]
 953 0082 09B0     		add	sp, sp, #36
 954              		@ sp needed for prologue
 955 0084 3CBC     		pop	{r2, r3, r4, r5}
 956 0086 9046     		mov	r8, r2
 957 0088 9946     		mov	r9, r3
 958 008a A246     		mov	sl, r4
 959 008c AB46     		mov	fp, r5
 960 008e F0BD     		pop	{r4, r5, r6, r7, pc}
 961              	.LVL93:
 962              	.L108:
 963              	.LBB94:
 964              	.LBB89:
 965              		.loc 1 243 0
 966 0090 183A     		sub	r2, r2, #24
 967              	.LVL94:
 968              	.LBB81:
 969              	.LBB82:
ARM GAS  /tmp/ccCmSPP7.s 			page 18


 970              		.loc 1 224 0
 971 0092 D2B2     		uxtb	r2, r2
 972 0094 606A     		ldr	r0, [r4, #36]
 973 0096 5100     		lsl	r1, r2, #1
 974              		.loc 1 225 0
 975 0098 0132     		add	r2, r2, #1
 976 009a 5200     		lsl	r2, r2, #1
 977              		.loc 1 224 0
 978 009c 095A     		ldrh	r1, [r1, r0]
 979              	.LVL95:
 980              		.loc 1 225 0
 981 009e 105A     		ldrh	r0, [r2, r0]
 982              	.LVL96:
 983 00a0 421A     		sub	r2, r0, r1
 984 00a2 90B2     		uxth	r0, r2
 985              	.LVL97:
 986              		.loc 1 228 0
 987 00a4 0028     		cmp	r0, #0
 988 00a6 D3D0     		beq	.L105
 989              		.loc 1 252 0
 990 00a8 0138     		sub	r0, r0, #1
 991 00aa 4F1C     		add	r7, r1, #1
 992 00ac 83B2     		uxth	r3, r0
 993 00ae BB46     		mov	fp, r7
 994 00b0 9846     		mov	r8, r3
 995 00b2 C843     		mvn	r0, r1
 996 00b4 D844     		add	r8, r8, fp
 997              	.LBB83:
 998              		.loc 1 231 0
 999 00b6 276A     		ldr	r7, [r4, #32]
 1000 00b8 4044     		add	r0, r0, r8
 1001 00ba 0122     		mov	r2, #1
 1002              	.LVL98:
 1003 00bc 0240     		and	r2, r0
 1004 00be 0092     		str	r2, [sp]
 1005              	.LVL99:
 1006 00c0 201C     		mov	r0, r4
 1007 00c2 7A5C     		ldrb	r2, [r7, r1]
 1008 00c4 291C     		mov	r1, r5
 1009              	.LVL100:
 1010 00c6 5F46     		mov	r7, fp
 1011              	.LVL101:
 1012 00c8 FFF7FEFF 		bl	write_ref_codeword
 1013              	.LVL102:
 1014              	.LBE83:
 1015              		.loc 1 228 0
 1016 00cc 4745     		cmp	r7, r8
 1017 00ce 15D0     		beq	.L106
 1018 00d0 0099     		ldr	r1, [sp]
 1019 00d2 0029     		cmp	r1, #0
 1020 00d4 02D0     		beq	.L90
 1021              	.LBB84:
 1022              		.loc 1 231 0
 1023 00d6 206A     		ldr	r0, [r4, #32]
 1024 00d8 C25D     		ldrb	r2, [r0, r7]
 1025 00da 08E0     		b	.L107
 1026              	.L90:
ARM GAS  /tmp/ccCmSPP7.s 			page 19


 1027 00dc 226A     		ldr	r2, [r4, #32]
 1028 00de 291C     		mov	r1, r5
 1029 00e0 D25D     		ldrb	r2, [r2, r7]
 1030 00e2 201C     		mov	r0, r4
 1031 00e4 FFF7FEFF 		bl	write_ref_codeword
 1032              	.LVL103:
 1033 00e8 216A     		ldr	r1, [r4, #32]
 1034 00ea 0137     		add	r7, r7, #1
 1035 00ec CA5D     		ldrb	r2, [r1, r7]
 1036              	.L107:
 1037 00ee 201C     		mov	r0, r4
 1038 00f0 291C     		mov	r1, r5
 1039 00f2 0137     		add	r7, r7, #1
 1040 00f4 FFF7FEFF 		bl	write_ref_codeword
 1041              	.LVL104:
 1042              	.LBE84:
 1043              		.loc 1 228 0
 1044 00f8 4745     		cmp	r7, r8
 1045 00fa EFD1     		bne	.L90
 1046              	.L106:
 1047 00fc 0622     		mov	r2, #6
 1048 00fe AF5E     		ldrsh	r7, [r5, r2]
 1049 0100 0820     		mov	r0, #8
 1050 0102 2B5E     		ldrsh	r3, [r5, r0]
 1051 0104 A4E7     		b	.L105
 1052              	.LVL105:
 1053              	.L92:
 1054              	.LBE82:
 1055              	.LBE81:
 1056              	.LBE89:
 1057              	.LBE94:
 1058              		.loc 1 272 0
 1059 0106 0024     		mov	r4, #0
 1060              	.LVL106:
 1061 0108 0194     		str	r4, [sp, #4]
 1062 010a B9E7     		b	.L86
 1063              		.cfi_endproc
 1064              	.LFE49:
 1065              		.size	mf_rlefont_render_character, .-mf_rlefont_render_character
 1066 010c C046C046 		.section	.text.mf_rlefont_character_width,"ax",%progbits
 1067              		.align	2
 1068              		.p2align 4,,15
 1069              		.global	mf_rlefont_character_width
 1070              		.code	16
 1071              		.thumb_func
 1072              		.type	mf_rlefont_character_width, %function
 1073              	mf_rlefont_character_width:
 1074              	.LFB50:
 1075              		.loc 1 285 0
 1076              		.cfi_startproc
 1077              	.LVL107:
 1078 0000 08B5     		push	{r3, lr}
 1079              	.LCFI9:
 1080              		.cfi_def_cfa_offset 8
 1081              		.cfi_offset 3, -8
 1082              		.cfi_offset 14, -4
 1083              		.loc 1 287 0
ARM GAS  /tmp/ccCmSPP7.s 			page 20


 1084 0002 FFF7FEFF 		bl	find_glyph
 1085              	.LVL108:
 1086              		.loc 1 288 0
 1087 0006 0028     		cmp	r0, #0
 1088 0008 01D0     		beq	.L111
 1089              		.loc 1 291 0
 1090 000a 0078     		ldrb	r0, [r0]
 1091              	.LVL109:
 1092              	.L110:
 1093              		.loc 1 292 0
 1094              		@ sp needed for prologue
 1095 000c 08BD     		pop	{r3, pc}
 1096              	.LVL110:
 1097              	.L111:
 1098              		.loc 1 289 0
 1099 000e 0020     		mov	r0, #0
 1100              	.LVL111:
 1101 0010 FCE7     		b	.L110
 1102              		.cfi_endproc
 1103              	.LFE50:
 1104              		.size	mf_rlefont_character_width, .-mf_rlefont_character_width
 1105 0012 C046C046 		.text
 1105      C046C046 
 1105      C046C046 
 1105      C046
 1106              	.Letext0:
 1107              		.file 2 "/home/matt/arm_cortex/gcc-arm-none-eabi/bin/../lib/gcc/arm-none-eabi/4.7.4/../../../../ar
 1108              		.file 3 "/home/matt/arm_cortex/ChibiOS/ext/ugfx/src/gdisp/mcufont/mf_font.h"
 1109              		.file 4 "/home/matt/arm_cortex/ChibiOS/ext/ugfx/src/gdisp/mcufont/mf_encoding.h"
 1110              		.file 5 "/home/matt/arm_cortex/ChibiOS/ext/ugfx/src/gdisp/mcufont/mf_rlefont.h"