ARM GAS  /tmp/ccswyZ7y.s 			page 1


   1              		.cpu cortex-m0
   2              		.fpu softvfp
   3              		.eabi_attribute 20, 1
   4              		.eabi_attribute 21, 1
   5              		.eabi_attribute 23, 3
   6              		.eabi_attribute 24, 1
   7              		.eabi_attribute 25, 1
   8              		.eabi_attribute 26, 1
   9              		.eabi_attribute 30, 2
  10              		.eabi_attribute 34, 0
  11              		.eabi_attribute 18, 4
  12              		.code	16
  13              		.file	"mf_wordwrap.c"
  14              		.text
  15              	.Ltext0:
  16              		.cfi_sections	.debug_frame
  17              		.section	.text.mf_wordwrap,"ax",%progbits
  18              		.align	2
  19              		.p2align 4,,15
  20              		.global	mf_wordwrap
  21              		.code	16
  22              		.thumb_func
  23              		.type	mf_wordwrap, %function
  24              	mf_wordwrap:
  25              	.LFB41:
  26              		.file 1 "/home/matt/arm_cortex/ChibiOS/ext/ugfx/src/gdisp/mcufont/mf_wordwrap.c"
  27              		.loc 1 231 0
  28              		.cfi_startproc
  29              	.LVL0:
  30 0000 F0B5     		push	{r4, r5, r6, r7, lr}
  31              	.LCFI0:
  32              		.cfi_def_cfa_offset 20
  33              		.cfi_offset 4, -20
  34              		.cfi_offset 5, -16
  35              		.cfi_offset 6, -12
  36              		.cfi_offset 7, -8
  37              		.cfi_offset 14, -4
  38 0002 5F46     		mov	r7, fp
  39 0004 5646     		mov	r6, sl
  40 0006 4446     		mov	r4, r8
  41 0008 4D46     		mov	r5, r9
  42 000a F0B4     		push	{r4, r5, r6, r7}
  43              	.LCFI1:
  44              		.cfi_def_cfa_offset 36
  45              		.cfi_offset 8, -36
  46              		.cfi_offset 9, -32
  47              		.cfi_offset 10, -28
  48              		.cfi_offset 11, -24
  49 000c 85B0     		sub	sp, sp, #20
  50              	.LCFI2:
  51              		.cfi_def_cfa_offset 56
  52              		.loc 1 231 0
  53 000e 0392     		str	r2, [sp, #12]
  54              		.loc 1 243 0
  55 0010 1478     		ldrb	r4, [r2]
  56              		.loc 1 231 0
  57 0012 8246     		mov	sl, r0
ARM GAS  /tmp/ccswyZ7y.s 			page 2


  58 0014 8B46     		mov	fp, r1
  59 0016 0293     		str	r3, [sp, #8]
  60              		.loc 1 243 0
  61 0018 0192     		str	r2, [sp, #4]
  62 001a 002C     		cmp	r4, #0
  63 001c 4BD0     		beq	.L1
  64              	.LVL1:
  65              	.L29:
  66              	.LBB5:
  67              		.loc 1 276 0 discriminator 1
  68 001e 019E     		ldr	r6, [sp, #4]
  69 0020 0020     		mov	r0, #0
  70 0022 B046     		mov	r8, r6
  71 0024 8146     		mov	r9, r0
  72 0026 0025     		mov	r5, #0
  73 0028 0027     		mov	r7, #0
  74 002a 08E0     		b	.L11
  75              	.LVL2:
  76              	.L33:
  77              	.LBB6:
  78              	.LBB7:
  79              		.loc 1 15 0
  80 002c 092C     		cmp	r4, #9
  81 002e 1BD0     		beq	.L8
  82 0030 0D2C     		cmp	r4, #13
  83 0032 19D0     		beq	.L8
  84 0034 2D2C     		cmp	r4, #45
  85 0036 17D0     		beq	.L8
  86 0038 039E     		ldr	r6, [sp, #12]
  87              	.L12:
  88 003a 3478     		ldrb	r4, [r6]
  89              	.LVL3:
  90 003c 8FB2     		uxth	r7, r1
  91              	.LVL4:
  92              	.L11:
  93              	.LBE7:
  94              	.LBE6:
  95              	.LBE5:
  96              		.loc 1 248 0 discriminator 1
  97 003e 002C     		cmp	r4, #0
  98 0040 17D0     		beq	.L7
  99              	.LBB10:
 100              		.loc 1 255 0
 101 0042 03A8     		add	r0, sp, #12
 102 0044 FFF7FEFF 		bl	mf_getchar
 103              	.LVL5:
 104 0048 041C     		mov	r4, r0
 105              	.LVL6:
 106              		.loc 1 256 0
 107 004a 211C     		mov	r1, r4
 108 004c 5046     		mov	r0, sl
 109              	.LVL7:
 110 004e FFF7FEFF 		bl	mf_character_width
 111              	.LVL8:
 112 0052 C319     		add	r3, r0, r7
 113 0054 99B2     		uxth	r1, r3
 114              	.LVL9:
ARM GAS  /tmp/ccswyZ7y.s 			page 3


 115              		.loc 1 258 0
 116 0056 0A2C     		cmp	r4, #10
 117 0058 20D0     		beq	.L31
 118              		.loc 1 265 0
 119 005a 0AB2     		sxth	r2, r1
 120 005c 5A45     		cmp	r2, fp
 121 005e 07DC     		bgt	.L32
 122              		.loc 1 271 0
 123 0060 0135     		add	r5, r5, #1
 124              	.LVL10:
 125 0062 ADB2     		uxth	r5, r5
 126              	.LVL11:
 127              	.LBB9:
 128              	.LBB8:
 129              		.loc 1 15 0
 130 0064 202C     		cmp	r4, #32
 131 0066 E1D1     		bne	.L33
 132              	.L8:
 133              	.LVL12:
 134              	.LBE8:
 135              	.LBE9:
 136              		.loc 1 277 0
 137 0068 039E     		ldr	r6, [sp, #12]
 138              	.LVL13:
 139              		.loc 1 276 0
 140 006a A946     		mov	r9, r5
 141              		.loc 1 277 0
 142 006c B046     		mov	r8, r6
 143 006e E4E7     		b	.L12
 144              	.LVL14:
 145              	.L32:
 146              		.loc 1 267 0
 147 0070 0396     		str	r6, [sp, #12]
 148              	.LVL15:
 149              	.L7:
 150              	.LBE10:
 151              		.loc 1 282 0
 152 0072 4846     		mov	r0, r9
 153 0074 0028     		cmp	r0, #0
 154 0076 02D1     		bne	.L5
 155              	.LVL16:
 156              		.loc 1 285 0
 157 0078 039F     		ldr	r7, [sp, #12]
 158              	.LVL17:
 159 007a A946     		mov	r9, r5
 160 007c B846     		mov	r8, r7
 161              	.LVL18:
 162              	.L5:
 163              		.loc 1 288 0
 164 007e 4B46     		mov	r3, r9
 165 0080 99B2     		uxth	r1, r3
 166 0082 0198     		ldr	r0, [sp, #4]
 167 0084 0E9A     		ldr	r2, [sp, #56]
 168 0086 029E     		ldr	r6, [sp, #8]
 169 0088 B047     		blx	r6
 170              	.LVL19:
 171 008a 0028     		cmp	r0, #0
ARM GAS  /tmp/ccswyZ7y.s 			page 4


 172 008c 13D0     		beq	.L1
 173              	.LVL20:
 174              	.L34:
 175              		.loc 1 292 0
 176 008e 4146     		mov	r1, r8
 177 0090 0391     		str	r1, [sp, #12]
 178              	.LVL21:
 179              		.loc 1 243 0
 180 0092 0C78     		ldrb	r4, [r1]
 181 0094 002C     		cmp	r4, #0
 182 0096 0ED0     		beq	.L1
 183              	.LVL22:
 184 0098 0191     		str	r1, [sp, #4]
 185 009a C0E7     		b	.L29
 186              	.LVL23:
 187              	.L31:
 188              	.LBB11:
 189              		.loc 1 260 0
 190 009c 0135     		add	r5, r5, #1
 191              	.LVL24:
 192 009e ADB2     		uxth	r5, r5
 193              	.LVL25:
 194 00a0 A946     		mov	r9, r5
 195              	.LVL26:
 196              		.loc 1 261 0
 197 00a2 039C     		ldr	r4, [sp, #12]
 198              	.LVL27:
 199              	.LBE11:
 200              		.loc 1 288 0
 201 00a4 4B46     		mov	r3, r9
 202              	.LVL28:
 203 00a6 99B2     		uxth	r1, r3
 204              	.LVL29:
 205 00a8 0198     		ldr	r0, [sp, #4]
 206              	.LVL30:
 207 00aa 0E9A     		ldr	r2, [sp, #56]
 208 00ac 029E     		ldr	r6, [sp, #8]
 209              	.LBB12:
 210              		.loc 1 261 0
 211 00ae A046     		mov	r8, r4
 212              	.LVL31:
 213              	.LBE12:
 214              		.loc 1 288 0
 215 00b0 B047     		blx	r6
 216              	.LVL32:
 217 00b2 0028     		cmp	r0, #0
 218 00b4 EBD1     		bne	.L34
 219              	.LVL33:
 220              	.L1:
 221              		.loc 1 296 0
 222 00b6 05B0     		add	sp, sp, #20
 223              		@ sp needed for prologue
 224              	.LVL34:
 225 00b8 3CBC     		pop	{r2, r3, r4, r5}
 226 00ba 9046     		mov	r8, r2
 227 00bc 9946     		mov	r9, r3
 228 00be A246     		mov	sl, r4
ARM GAS  /tmp/ccswyZ7y.s 			page 5


 229 00c0 AB46     		mov	fp, r5
 230 00c2 F0BD     		pop	{r4, r5, r6, r7, pc}
 231              		.cfi_endproc
 232              	.LFE41:
 233              		.size	mf_wordwrap, .-mf_wordwrap
 234              		.text
 235              	.Letext0:
 236              		.file 2 "/home/matt/arm_cortex/gcc-arm-none-eabi/bin/../lib/gcc/arm-none-eabi/4.7.4/../../../../ar
 237              		.file 3 "/home/matt/arm_cortex/ChibiOS/ext/ugfx/src/gdisp/mcufont/mf_font.h"
 238              		.file 4 "/home/matt/arm_cortex/ChibiOS/ext/ugfx/src/gdisp/mcufont/mf_encoding.h"
 239              		.file 5 "/home/matt/arm_cortex/ChibiOS/ext/ugfx/src/gdisp/mcufont/mf_wordwrap.h"