ARM GAS  /tmp/ccDEDhVY.s 			page 1


   1              		.cpu cortex-m0
   2              		.fpu softvfp
   3              		.eabi_attribute 20, 1
   4              		.eabi_attribute 21, 1
   5              		.eabi_attribute 23, 3
   6              		.eabi_attribute 24, 1
   7              		.eabi_attribute 25, 1
   8              		.eabi_attribute 26, 1
   9              		.eabi_attribute 30, 2
  10              		.eabi_attribute 34, 0
  11              		.eabi_attribute 18, 4
  12              		.code	16
  13              		.file	"testmbox.c"
  14              		.text
  15              	.Ltext0:
  16              		.cfi_sections	.debug_frame
  17              		.section	.text.mbox1_execute,"ax",%progbits
  18              		.align	2
  19              		.p2align 4,,15
  20              		.code	16
  21              		.thumb_func
  22              		.type	mbox1_execute, %function
  23              	mbox1_execute:
  24              	.LFB8:
  25              		.file 1 "/home/matt/arm_cortex/ChibiOS/test/testmbox.c"
  26              		.loc 1 76 0
  27              		.cfi_startproc
  28 0000 70B5     		push	{r4, r5, r6, lr}
  29              	.LCFI0:
  30              		.cfi_def_cfa_offset 16
  31              		.cfi_offset 4, -16
  32              		.cfi_offset 5, -12
  33              		.cfi_offset 6, -8
  34              		.cfi_offset 14, -4
  35              		.loc 1 83 0
  36 0002 5E4C     		ldr	r4, .L29
  37              		.loc 1 76 0
  38 0004 82B0     		sub	sp, sp, #8
  39              	.LCFI1:
  40              		.cfi_def_cfa_offset 24
  41              		.loc 1 83 0
  42 0006 616A     		ldr	r1, [r4, #36]
  43 0008 0120     		mov	r0, #1
  44 000a 0539     		sub	r1, r1, #5
  45 000c 4B42     		neg	r3, r1
  46 000e 5941     		adc	r1, r1, r3
  47 0010 FFF7FEFF 		bl	_test_assert
  48              	.LVL0:
  49 0014 0028     		cmp	r0, #0
  50 0016 40D1     		bne	.L1
  51              		.loc 1 89 0
  52 0018 0122     		mov	r2, #1
  53 001a 4221     		mov	r1, #66
  54 001c 201C     		mov	r0, r4
  55 001e 5242     		neg	r2, r2
  56 0020 FFF7FEFF 		bl	chMBPost
  57              	.LVL1:
ARM GAS  /tmp/ccDEDhVY.s 			page 2


  58              		.loc 1 90 0
  59 0024 4142     		neg	r1, r0
  60 0026 4141     		adc	r1, r1, r0
  61              	.LVL2:
  62 0028 0220     		mov	r0, #2
  63 002a FFF7FEFF 		bl	_test_assert
  64              	.LVL3:
  65 002e 0028     		cmp	r0, #0
  66 0030 33D1     		bne	.L1
  67              	.LVL4:
  68              		.loc 1 89 0
  69 0032 0123     		mov	r3, #1
  70 0034 4321     		mov	r1, #67
  71 0036 201C     		mov	r0, r4
  72 0038 5A42     		neg	r2, r3
  73 003a FFF7FEFF 		bl	chMBPost
  74              	.LVL5:
  75              		.loc 1 90 0
  76 003e 4142     		neg	r1, r0
  77 0040 4141     		adc	r1, r1, r0
  78              	.LVL6:
  79 0042 0220     		mov	r0, #2
  80 0044 FFF7FEFF 		bl	_test_assert
  81              	.LVL7:
  82 0048 0028     		cmp	r0, #0
  83 004a 26D1     		bne	.L1
  84              	.LVL8:
  85              		.loc 1 89 0
  86 004c 0125     		mov	r5, #1
  87 004e 4421     		mov	r1, #68
  88 0050 201C     		mov	r0, r4
  89 0052 6A42     		neg	r2, r5
  90 0054 FFF7FEFF 		bl	chMBPost
  91              	.LVL9:
  92              		.loc 1 90 0
  93 0058 4142     		neg	r1, r0
  94 005a 4141     		adc	r1, r1, r0
  95              	.LVL10:
  96 005c 0220     		mov	r0, #2
  97 005e FFF7FEFF 		bl	_test_assert
  98              	.LVL11:
  99 0062 0028     		cmp	r0, #0
 100 0064 19D1     		bne	.L1
 101              	.LVL12:
 102              		.loc 1 89 0
 103 0066 0126     		mov	r6, #1
 104 0068 4521     		mov	r1, #69
 105 006a 201C     		mov	r0, r4
 106 006c 7242     		neg	r2, r6
 107 006e FFF7FEFF 		bl	chMBPost
 108              	.LVL13:
 109              		.loc 1 90 0
 110 0072 4142     		neg	r1, r0
 111 0074 4141     		adc	r1, r1, r0
 112              	.LVL14:
 113 0076 0220     		mov	r0, #2
 114 0078 FFF7FEFF 		bl	_test_assert
ARM GAS  /tmp/ccDEDhVY.s 			page 3


 115              	.LVL15:
 116 007c 0028     		cmp	r0, #0
 117 007e 0CD1     		bne	.L1
 118              	.LVL16:
 119              		.loc 1 92 0
 120 0080 0122     		mov	r2, #1
 121 0082 4121     		mov	r1, #65
 122 0084 201C     		mov	r0, r4
 123 0086 5242     		neg	r2, r2
 124 0088 FFF7FEFF 		bl	chMBPostAhead
 125              	.LVL17:
 126              		.loc 1 93 0
 127 008c 4142     		neg	r1, r0
 128 008e 4141     		adc	r1, r1, r0
 129              	.LVL18:
 130 0090 0320     		mov	r0, #3
 131 0092 FFF7FEFF 		bl	_test_assert
 132              	.LVL19:
 133 0096 0028     		cmp	r0, #0
 134 0098 01D0     		beq	.L26
 135              	.LVL20:
 136              	.L1:
 137              		.loc 1 220 0
 138 009a 02B0     		add	sp, sp, #8
 139              		@ sp needed for prologue
 140 009c 70BD     		pop	{r4, r5, r6, pc}
 141              	.LVL21:
 142              	.L26:
 143              		.loc 1 98 0
 144 009e 5821     		mov	r1, #88
 145 00a0 201C     		mov	r0, r4
 146 00a2 0122     		mov	r2, #1
 147 00a4 FFF7FEFF 		bl	chMBPost
 148              	.LVL22:
 149              		.loc 1 99 0
 150 00a8 411C     		add	r1, r0, #1
 151 00aa 4B42     		neg	r3, r1
 152 00ac 5941     		adc	r1, r1, r3
 153 00ae 0420     		mov	r0, #4
 154              	.LVL23:
 155 00b0 FFF7FEFF 		bl	_test_assert
 156              	.LVL24:
 157 00b4 0028     		cmp	r0, #0
 158 00b6 F0D1     		bne	.L1
 159              		.loc 1 100 0
 160              	@ 100 "/home/matt/arm_cortex/ChibiOS/test/testmbox.c" 1
 161 00b8 72B6     		cpsid   i
 162              	@ 0 "" 2
 163              		.loc 1 101 0
 164              		.code	16
 165 00ba 5821     		mov	r1, #88
 166 00bc 201C     		mov	r0, r4
 167 00be FFF7FEFF 		bl	chMBPostI
 168              	.LVL25:
 169              		.loc 1 102 0
 170              	@ 102 "/home/matt/arm_cortex/ChibiOS/test/testmbox.c" 1
 171 00c2 62B6     		cpsie   i
ARM GAS  /tmp/ccDEDhVY.s 			page 4


 172              	@ 0 "" 2
 173              		.loc 1 103 0
 174              		.code	16
 175 00c4 411C     		add	r1, r0, #1
 176 00c6 4B42     		neg	r3, r1
 177 00c8 5941     		adc	r1, r1, r3
 178 00ca 0520     		mov	r0, #5
 179              	.LVL26:
 180 00cc FFF7FEFF 		bl	_test_assert
 181              	.LVL27:
 182 00d0 0028     		cmp	r0, #0
 183 00d2 E2D1     		bne	.L1
 184              		.loc 1 104 0
 185 00d4 5821     		mov	r1, #88
 186 00d6 201C     		mov	r0, r4
 187 00d8 0122     		mov	r2, #1
 188 00da FFF7FEFF 		bl	chMBPostAhead
 189              	.LVL28:
 190              		.loc 1 105 0
 191 00de 411C     		add	r1, r0, #1
 192 00e0 4B42     		neg	r3, r1
 193 00e2 5941     		adc	r1, r1, r3
 194 00e4 0620     		mov	r0, #6
 195              	.LVL29:
 196 00e6 FFF7FEFF 		bl	_test_assert
 197              	.LVL30:
 198 00ea 0028     		cmp	r0, #0
 199 00ec D5D1     		bne	.L1
 200              		.loc 1 106 0
 201              	@ 106 "/home/matt/arm_cortex/ChibiOS/test/testmbox.c" 1
 202 00ee 72B6     		cpsid   i
 203              	@ 0 "" 2
 204              		.loc 1 107 0
 205              		.code	16
 206 00f0 5821     		mov	r1, #88
 207 00f2 201C     		mov	r0, r4
 208 00f4 FFF7FEFF 		bl	chMBPostAheadI
 209              	.LVL31:
 210              		.loc 1 108 0
 211              	@ 108 "/home/matt/arm_cortex/ChibiOS/test/testmbox.c" 1
 212 00f8 62B6     		cpsie   i
 213              	@ 0 "" 2
 214              		.loc 1 109 0
 215              		.code	16
 216 00fa 411C     		add	r1, r0, #1
 217 00fc 4B42     		neg	r3, r1
 218 00fe 5941     		adc	r1, r1, r3
 219 0100 0720     		mov	r0, #7
 220              	.LVL32:
 221 0102 FFF7FEFF 		bl	_test_assert
 222              	.LVL33:
 223 0106 0028     		cmp	r0, #0
 224 0108 C7D1     		bne	.L1
 225              		.loc 1 114 0
 226              	@ 114 "/home/matt/arm_cortex/ChibiOS/test/testmbox.c" 1
 227 010a 72B6     		cpsid   i
 228              	@ 0 "" 2
ARM GAS  /tmp/ccDEDhVY.s 			page 5


 229              		.code	16
 230 010c 606A     		ldr	r0, [r4, #36]
 231 010e 4142     		neg	r1, r0
 232 0110 4141     		adc	r1, r1, r0
 233 0112 0820     		mov	r0, #8
 234 0114 FFF7FEFF 		bl	_test_assert
 235              	.LVL34:
 236              	@ 114 "/home/matt/arm_cortex/ChibiOS/test/testmbox.c" 1
 237 0118 62B6     		cpsie   i
 238              	@ 0 "" 2
 239              		.code	16
 240 011a 0028     		cmp	r0, #0
 241 011c BDD1     		bne	.L1
 242              		.loc 1 115 0 discriminator 2
 243              	@ 115 "/home/matt/arm_cortex/ChibiOS/test/testmbox.c" 1
 244 011e 72B6     		cpsid   i
 245              	@ 0 "" 2
 246              		.code	16
 247 0120 A169     		ldr	r1, [r4, #24]
 248 0122 0920     		mov	r0, #9
 249 0124 0539     		sub	r1, r1, #5
 250 0126 4B42     		neg	r3, r1
 251 0128 5941     		adc	r1, r1, r3
 252 012a FFF7FEFF 		bl	_test_assert
 253              	.LVL35:
 254              	@ 115 "/home/matt/arm_cortex/ChibiOS/test/testmbox.c" 1
 255 012e 62B6     		cpsie   i
 256              	@ 0 "" 2
 257              		.code	16
 258 0130 0028     		cmp	r0, #0
 259 0132 B2D1     		bne	.L1
 260              		.loc 1 116 0 discriminator 2
 261              	@ 116 "/home/matt/arm_cortex/ChibiOS/test/testmbox.c" 1
 262 0134 72B6     		cpsid   i
 263              	@ 0 "" 2
 264              		.code	16
 265 0136 A368     		ldr	r3, [r4, #8]
 266 0138 E168     		ldr	r1, [r4, #12]
 267 013a 0A20     		mov	r0, #10
 268 013c C91A     		sub	r1, r1, r3
 269 013e 4B42     		neg	r3, r1
 270 0140 5941     		adc	r1, r1, r3
 271 0142 FFF7FEFF 		bl	_test_assert
 272              	.LVL36:
 273              	@ 116 "/home/matt/arm_cortex/ChibiOS/test/testmbox.c" 1
 274 0146 62B6     		cpsie   i
 275              	@ 0 "" 2
 276              		.code	16
 277 0148 0028     		cmp	r0, #0
 278 014a A6D1     		bne	.L1
 279              	.LVL37:
 280 014c 0525     		mov	r5, #5
 281 014e 06E0     		b	.L7
 282              	.LVL38:
 283              	.L28:
 284              		.loc 1 124 0
 285 0150 6A46     		mov	r2, sp
ARM GAS  /tmp/ccDEDhVY.s 			page 6


 286              	.LVL39:
 287 0152 1079     		ldrb	r0, [r2, #4]
 288 0154 013D     		sub	r5, r5, #1
 289 0156 FFF7FEFF 		bl	test_emit_token
 290              	.LVL40:
 291              		.loc 1 121 0
 292 015a 002D     		cmp	r5, #0
 293 015c 10D0     		beq	.L27
 294              	.L7:
 295              		.loc 1 122 0
 296 015e 0126     		mov	r6, #1
 297 0160 01A9     		add	r1, sp, #4
 298 0162 201C     		mov	r0, r4
 299 0164 7242     		neg	r2, r6
 300 0166 FFF7FEFF 		bl	chMBFetch
 301              	.LVL41:
 302              		.loc 1 123 0
 303 016a 4142     		neg	r1, r0
 304 016c 4141     		adc	r1, r1, r0
 305              	.LVL42:
 306 016e 0B20     		mov	r0, #11
 307 0170 FFF7FEFF 		bl	_test_assert
 308              	.LVL43:
 309 0174 0028     		cmp	r0, #0
 310 0176 EBD0     		beq	.L28
 311 0178 8FE7     		b	.L1
 312              	.L30:
 313 017a C046     		.align	2
 314              	.L29:
 315 017c 00000000 		.word	.LANCHOR0
 316              	.L27:
 317              		.loc 1 126 0
 318 0180 A64D     		ldr	r5, .L31
 319 0182 0C20     		mov	r0, #12
 320 0184 291C     		mov	r1, r5
 321 0186 FFF7FEFF 		bl	_test_assert_sequence
 322              	.LVL44:
 323 018a 0028     		cmp	r0, #0
 324 018c 00D0     		beq	.LCB289
 325 018e 84E7     		b	.L1	@long jump
 326              	.LCB289:
 327              		.loc 1 131 0
 328 0190 0123     		mov	r3, #1
 329 0192 4721     		mov	r1, #71
 330 0194 201C     		mov	r0, r4
 331 0196 5A42     		neg	r2, r3
 332 0198 FFF7FEFF 		bl	chMBPost
 333              	.LVL45:
 334              		.loc 1 132 0
 335 019c 4142     		neg	r1, r0
 336 019e 4141     		adc	r1, r1, r0
 337              	.LVL46:
 338 01a0 0D20     		mov	r0, #13
 339 01a2 FFF7FEFF 		bl	_test_assert
 340              	.LVL47:
 341 01a6 0028     		cmp	r0, #0
 342 01a8 00D0     		beq	.LCB305
ARM GAS  /tmp/ccDEDhVY.s 			page 7


 343 01aa 76E7     		b	.L1	@long jump
 344              	.LCB305:
 345              		.loc 1 133 0
 346 01ac 0126     		mov	r6, #1
 347 01ae 01A9     		add	r1, sp, #4
 348 01b0 201C     		mov	r0, r4
 349 01b2 7242     		neg	r2, r6
 350 01b4 FFF7FEFF 		bl	chMBFetch
 351              	.LVL48:
 352              		.loc 1 134 0
 353 01b8 4142     		neg	r1, r0
 354 01ba 4141     		adc	r1, r1, r0
 355              	.LVL49:
 356 01bc 0E20     		mov	r0, #14
 357 01be FFF7FEFF 		bl	_test_assert
 358              	.LVL50:
 359 01c2 0028     		cmp	r0, #0
 360 01c4 00D0     		beq	.LCB321
 361 01c6 68E7     		b	.L1	@long jump
 362              	.LCB321:
 363              		.loc 1 135 0
 364 01c8 2068     		ldr	r0, [r4]
 365 01ca A168     		ldr	r1, [r4, #8]
 366 01cc 411A     		sub	r1, r0, r1
 367 01ce 4B42     		neg	r3, r1
 368 01d0 5941     		adc	r1, r1, r3
 369 01d2 0F20     		mov	r0, #15
 370 01d4 FFF7FEFF 		bl	_test_assert
 371              	.LVL51:
 372 01d8 0028     		cmp	r0, #0
 373 01da 00D0     		beq	.LCB334
 374 01dc 5DE7     		b	.L1	@long jump
 375              	.LCB334:
 376              		.loc 1 136 0
 377 01de 2368     		ldr	r3, [r4]
 378 01e0 E268     		ldr	r2, [r4, #12]
 379 01e2 1020     		mov	r0, #16
 380 01e4 991A     		sub	r1, r3, r2
 381 01e6 4B42     		neg	r3, r1
 382 01e8 5941     		adc	r1, r1, r3
 383 01ea FFF7FEFF 		bl	_test_assert
 384              	.LVL52:
 385 01ee 0028     		cmp	r0, #0
 386 01f0 00D0     		beq	.LCB347
 387 01f2 52E7     		b	.L1	@long jump
 388              	.LCB347:
 389              		.loc 1 141 0
 390 01f4 01A9     		add	r1, sp, #4
 391 01f6 201C     		mov	r0, r4
 392 01f8 0122     		mov	r2, #1
 393 01fa FFF7FEFF 		bl	chMBFetch
 394              	.LVL53:
 395              		.loc 1 142 0
 396 01fe 411C     		add	r1, r0, #1
 397 0200 4B42     		neg	r3, r1
 398 0202 5941     		adc	r1, r1, r3
 399 0204 1120     		mov	r0, #17
ARM GAS  /tmp/ccDEDhVY.s 			page 8


 400              	.LVL54:
 401 0206 FFF7FEFF 		bl	_test_assert
 402              	.LVL55:
 403 020a 0028     		cmp	r0, #0
 404 020c 00D0     		beq	.LCB363
 405 020e 44E7     		b	.L1	@long jump
 406              	.LCB363:
 407              		.loc 1 143 0
 408              	@ 143 "/home/matt/arm_cortex/ChibiOS/test/testmbox.c" 1
 409 0210 72B6     		cpsid   i
 410              	@ 0 "" 2
 411              		.loc 1 144 0
 412              		.code	16
 413 0212 201C     		mov	r0, r4
 414 0214 01A9     		add	r1, sp, #4
 415 0216 FFF7FEFF 		bl	chMBFetchI
 416              	.LVL56:
 417              		.loc 1 145 0
 418              	@ 145 "/home/matt/arm_cortex/ChibiOS/test/testmbox.c" 1
 419 021a 62B6     		cpsie   i
 420              	@ 0 "" 2
 421              		.loc 1 146 0
 422              		.code	16
 423 021c 411C     		add	r1, r0, #1
 424 021e 4B42     		neg	r3, r1
 425 0220 5941     		adc	r1, r1, r3
 426 0222 1220     		mov	r0, #18
 427              	.LVL57:
 428 0224 FFF7FEFF 		bl	_test_assert
 429              	.LVL58:
 430 0228 0028     		cmp	r0, #0
 431 022a 00D0     		beq	.LCB380
 432 022c 35E7     		b	.L1	@long jump
 433              	.LCB380:
 434              		.loc 1 151 0
 435              	@ 151 "/home/matt/arm_cortex/ChibiOS/test/testmbox.c" 1
 436 022e 72B6     		cpsid   i
 437              	@ 0 "" 2
 438              		.code	16
 439 0230 616A     		ldr	r1, [r4, #36]
 440 0232 1320     		mov	r0, #19
 441 0234 0539     		sub	r1, r1, #5
 442 0236 4B42     		neg	r3, r1
 443 0238 5941     		adc	r1, r1, r3
 444 023a FFF7FEFF 		bl	_test_assert
 445              	.LVL59:
 446              	@ 151 "/home/matt/arm_cortex/ChibiOS/test/testmbox.c" 1
 447 023e 62B6     		cpsie   i
 448              	@ 0 "" 2
 449              		.code	16
 450 0240 0028     		cmp	r0, #0
 451 0242 00D0     		beq	.LCB393
 452 0244 29E7     		b	.L1	@long jump
 453              	.LCB393:
 454              		.loc 1 152 0 discriminator 2
 455              	@ 152 "/home/matt/arm_cortex/ChibiOS/test/testmbox.c" 1
 456 0246 72B6     		cpsid   i
ARM GAS  /tmp/ccDEDhVY.s 			page 9


 457              	@ 0 "" 2
 458              		.code	16
 459 0248 A669     		ldr	r6, [r4, #24]
 460 024a 1420     		mov	r0, #20
 461 024c 7142     		neg	r1, r6
 462 024e 7141     		adc	r1, r1, r6
 463 0250 FFF7FEFF 		bl	_test_assert
 464              	.LVL60:
 465              	@ 152 "/home/matt/arm_cortex/ChibiOS/test/testmbox.c" 1
 466 0254 62B6     		cpsie   i
 467              	@ 0 "" 2
 468              		.code	16
 469 0256 0028     		cmp	r0, #0
 470 0258 00D0     		beq	.LCB405
 471 025a 1EE7     		b	.L1	@long jump
 472              	.LCB405:
 473              		.loc 1 153 0 discriminator 2
 474              	@ 153 "/home/matt/arm_cortex/ChibiOS/test/testmbox.c" 1
 475 025c 72B6     		cpsid   i
 476              	@ 0 "" 2
 477              		.code	16
 478 025e E068     		ldr	r0, [r4, #12]
 479 0260 A168     		ldr	r1, [r4, #8]
 480 0262 411A     		sub	r1, r0, r1
 481 0264 4B42     		neg	r3, r1
 482 0266 5941     		adc	r1, r1, r3
 483 0268 1520     		mov	r0, #21
 484 026a FFF7FEFF 		bl	_test_assert
 485              	.LVL61:
 486              	@ 153 "/home/matt/arm_cortex/ChibiOS/test/testmbox.c" 1
 487 026e 62B6     		cpsie   i
 488              	@ 0 "" 2
 489              		.code	16
 490 0270 0028     		cmp	r0, #0
 491 0272 00D0     		beq	.LCB420
 492 0274 11E7     		b	.L1	@long jump
 493              	.LCB420:
 494              		.loc 1 158 0 discriminator 2
 495              	@ 158 "/home/matt/arm_cortex/ChibiOS/test/testmbox.c" 1
 496 0276 72B6     		cpsid   i
 497              	@ 0 "" 2
 498              		.loc 1 159 0 discriminator 2
 499              		.code	16
 500 0278 4121     		mov	r1, #65
 501 027a 201C     		mov	r0, r4
 502 027c FFF7FEFF 		bl	chMBPostI
 503              	.LVL62:
 504              		.loc 1 160 0 discriminator 2
 505 0280 4142     		neg	r1, r0
 506 0282 4141     		adc	r1, r1, r0
 507              	.LVL63:
 508 0284 1620     		mov	r0, #22
 509 0286 FFF7FEFF 		bl	_test_assert
 510              	.LVL64:
 511 028a 0028     		cmp	r0, #0
 512 028c 00D0     		beq	.LCB435
 513 028e 04E7     		b	.L1	@long jump
ARM GAS  /tmp/ccDEDhVY.s 			page 10


 514              	.LCB435:
 515              		.loc 1 161 0
 516 0290 4221     		mov	r1, #66
 517 0292 201C     		mov	r0, r4
 518 0294 FFF7FEFF 		bl	chMBPostI
 519              	.LVL65:
 520              		.loc 1 162 0
 521 0298 4142     		neg	r1, r0
 522 029a 4141     		adc	r1, r1, r0
 523              	.LVL66:
 524 029c 1720     		mov	r0, #23
 525 029e FFF7FEFF 		bl	_test_assert
 526              	.LVL67:
 527 02a2 0028     		cmp	r0, #0
 528 02a4 00D0     		beq	.LCB449
 529 02a6 F8E6     		b	.L1	@long jump
 530              	.LCB449:
 531              		.loc 1 163 0
 532 02a8 4321     		mov	r1, #67
 533 02aa 201C     		mov	r0, r4
 534 02ac FFF7FEFF 		bl	chMBPostI
 535              	.LVL68:
 536              		.loc 1 164 0
 537 02b0 4142     		neg	r1, r0
 538 02b2 4141     		adc	r1, r1, r0
 539              	.LVL69:
 540 02b4 1820     		mov	r0, #24
 541 02b6 FFF7FEFF 		bl	_test_assert
 542              	.LVL70:
 543 02ba 0028     		cmp	r0, #0
 544 02bc 00D0     		beq	.LCB463
 545 02be ECE6     		b	.L1	@long jump
 546              	.LCB463:
 547              		.loc 1 165 0
 548 02c0 4421     		mov	r1, #68
 549 02c2 201C     		mov	r0, r4
 550 02c4 FFF7FEFF 		bl	chMBPostI
 551              	.LVL71:
 552              		.loc 1 166 0
 553 02c8 4142     		neg	r1, r0
 554 02ca 4141     		adc	r1, r1, r0
 555              	.LVL72:
 556 02cc 1920     		mov	r0, #25
 557 02ce FFF7FEFF 		bl	_test_assert
 558              	.LVL73:
 559 02d2 0028     		cmp	r0, #0
 560 02d4 00D0     		beq	.LCB477
 561 02d6 E0E6     		b	.L1	@long jump
 562              	.LCB477:
 563              		.loc 1 167 0
 564 02d8 201C     		mov	r0, r4
 565 02da 4521     		mov	r1, #69
 566 02dc FFF7FEFF 		bl	chMBPostI
 567              	.LVL74:
 568              		.loc 1 168 0
 569              	@ 168 "/home/matt/arm_cortex/ChibiOS/test/testmbox.c" 1
 570 02e0 62B6     		cpsie   i
ARM GAS  /tmp/ccDEDhVY.s 			page 11


 571              	@ 0 "" 2
 572              		.loc 1 169 0
 573              		.code	16
 574 02e2 4142     		neg	r1, r0
 575 02e4 4141     		adc	r1, r1, r0
 576              	.LVL75:
 577 02e6 1A20     		mov	r0, #26
 578 02e8 FFF7FEFF 		bl	_test_assert
 579              	.LVL76:
 580 02ec 0028     		cmp	r0, #0
 581 02ee 00D0     		beq	.LCB492
 582 02f0 D3E6     		b	.L1	@long jump
 583              	.LCB492:
 584              		.loc 1 170 0
 585 02f2 E368     		ldr	r3, [r4, #12]
 586 02f4 A268     		ldr	r2, [r4, #8]
 587 02f6 1B20     		mov	r0, #27
 588 02f8 991A     		sub	r1, r3, r2
 589 02fa 4B42     		neg	r3, r1
 590 02fc 5941     		adc	r1, r1, r3
 591 02fe FFF7FEFF 		bl	_test_assert
 592              	.LVL77:
 593 0302 0028     		cmp	r0, #0
 594 0304 00D0     		beq	.LCB505
 595 0306 C8E6     		b	.L1	@long jump
 596              	.LCB505:
 597 0308 0526     		mov	r6, #5
 598              	.L11:
 599              		.loc 1 172 0
 600              	@ 172 "/home/matt/arm_cortex/ChibiOS/test/testmbox.c" 1
 601 030a 72B6     		cpsid   i
 602              	@ 0 "" 2
 603              		.loc 1 173 0
 604              		.code	16
 605 030c 201C     		mov	r0, r4
 606 030e 01A9     		add	r1, sp, #4
 607 0310 FFF7FEFF 		bl	chMBFetchI
 608              	.LVL78:
 609              		.loc 1 174 0
 610              	@ 174 "/home/matt/arm_cortex/ChibiOS/test/testmbox.c" 1
 611 0314 62B6     		cpsie   i
 612              	@ 0 "" 2
 613              		.loc 1 175 0
 614              		.code	16
 615 0316 4142     		neg	r1, r0
 616 0318 4141     		adc	r1, r1, r0
 617              	.LVL79:
 618 031a 1C20     		mov	r0, #28
 619 031c FFF7FEFF 		bl	_test_assert
 620              	.LVL80:
 621 0320 0028     		cmp	r0, #0
 622 0322 00D0     		beq	.LCB526
 623 0324 B9E6     		b	.L1	@long jump
 624              	.LCB526:
 625              		.loc 1 176 0
 626 0326 6846     		mov	r0, sp
 627 0328 0079     		ldrb	r0, [r0, #4]
ARM GAS  /tmp/ccDEDhVY.s 			page 12


 628 032a 013E     		sub	r6, r6, #1
 629 032c FFF7FEFF 		bl	test_emit_token
 630              	.LVL81:
 631              		.loc 1 171 0
 632 0330 002E     		cmp	r6, #0
 633 0332 EAD1     		bne	.L11
 634              		.loc 1 178 0
 635 0334 1D20     		mov	r0, #29
 636 0336 291C     		mov	r1, r5
 637 0338 FFF7FEFF 		bl	_test_assert_sequence
 638              	.LVL82:
 639 033c 0028     		cmp	r0, #0
 640 033e 00D0     		beq	.LCB544
 641 0340 ABE6     		b	.L1	@long jump
 642              	.LCB544:
 643              		.loc 1 179 0
 644              	@ 179 "/home/matt/arm_cortex/ChibiOS/test/testmbox.c" 1
 645 0342 72B6     		cpsid   i
 646              	@ 0 "" 2
 647              		.code	16
 648 0344 616A     		ldr	r1, [r4, #36]
 649 0346 1E20     		mov	r0, #30
 650 0348 0539     		sub	r1, r1, #5
 651 034a 4B42     		neg	r3, r1
 652 034c 5941     		adc	r1, r1, r3
 653 034e FFF7FEFF 		bl	_test_assert
 654              	.LVL83:
 655              	@ 179 "/home/matt/arm_cortex/ChibiOS/test/testmbox.c" 1
 656 0352 62B6     		cpsie   i
 657              	@ 0 "" 2
 658              		.code	16
 659 0354 0028     		cmp	r0, #0
 660 0356 00D0     		beq	.LCB557
 661 0358 9FE6     		b	.L1	@long jump
 662              	.LCB557:
 663              		.loc 1 180 0 discriminator 2
 664              	@ 180 "/home/matt/arm_cortex/ChibiOS/test/testmbox.c" 1
 665 035a 72B6     		cpsid   i
 666              	@ 0 "" 2
 667              		.code	16
 668 035c A369     		ldr	r3, [r4, #24]
 669 035e 1F20     		mov	r0, #31
 670 0360 5942     		neg	r1, r3
 671 0362 5941     		adc	r1, r1, r3
 672 0364 FFF7FEFF 		bl	_test_assert
 673              	.LVL84:
 674              	@ 180 "/home/matt/arm_cortex/ChibiOS/test/testmbox.c" 1
 675 0368 62B6     		cpsie   i
 676              	@ 0 "" 2
 677              		.code	16
 678 036a 0028     		cmp	r0, #0
 679 036c 00D0     		beq	.LCB569
 680 036e 94E6     		b	.L1	@long jump
 681              	.LCB569:
 682              		.loc 1 181 0 discriminator 2
 683 0370 E168     		ldr	r1, [r4, #12]
 684 0372 A268     		ldr	r2, [r4, #8]
ARM GAS  /tmp/ccDEDhVY.s 			page 13


 685 0374 2020     		mov	r0, #32
 686 0376 891A     		sub	r1, r1, r2
 687 0378 4B42     		neg	r3, r1
 688 037a 5941     		adc	r1, r1, r3
 689 037c FFF7FEFF 		bl	_test_assert
 690              	.LVL85:
 691 0380 0028     		cmp	r0, #0
 692 0382 00D0     		beq	.LCB582
 693 0384 89E6     		b	.L1	@long jump
 694              	.LCB582:
 695              		.loc 1 183 0
 696              	@ 183 "/home/matt/arm_cortex/ChibiOS/test/testmbox.c" 1
 697 0386 72B6     		cpsid   i
 698              	@ 0 "" 2
 699              		.loc 1 184 0
 700              		.code	16
 701 0388 4521     		mov	r1, #69
 702 038a 201C     		mov	r0, r4
 703 038c FFF7FEFF 		bl	chMBPostAheadI
 704              	.LVL86:
 705              		.loc 1 185 0
 706 0390 4142     		neg	r1, r0
 707 0392 4141     		adc	r1, r1, r0
 708              	.LVL87:
 709 0394 2120     		mov	r0, #33
 710 0396 FFF7FEFF 		bl	_test_assert
 711              	.LVL88:
 712 039a 0028     		cmp	r0, #0
 713 039c 00D0     		beq	.LCB597
 714 039e 7CE6     		b	.L1	@long jump
 715              	.LCB597:
 716              		.loc 1 186 0
 717 03a0 4421     		mov	r1, #68
 718 03a2 201C     		mov	r0, r4
 719 03a4 FFF7FEFF 		bl	chMBPostAheadI
 720              	.LVL89:
 721              		.loc 1 187 0
 722 03a8 4142     		neg	r1, r0
 723 03aa 4141     		adc	r1, r1, r0
 724              	.LVL90:
 725 03ac 2220     		mov	r0, #34
 726 03ae FFF7FEFF 		bl	_test_assert
 727              	.LVL91:
 728 03b2 0028     		cmp	r0, #0
 729 03b4 00D0     		beq	.LCB611
 730 03b6 70E6     		b	.L1	@long jump
 731              	.LCB611:
 732              		.loc 1 188 0
 733 03b8 4321     		mov	r1, #67
 734 03ba 201C     		mov	r0, r4
 735 03bc FFF7FEFF 		bl	chMBPostAheadI
 736              	.LVL92:
 737              		.loc 1 189 0
 738 03c0 4142     		neg	r1, r0
 739 03c2 4141     		adc	r1, r1, r0
 740              	.LVL93:
 741 03c4 2320     		mov	r0, #35
ARM GAS  /tmp/ccDEDhVY.s 			page 14


 742 03c6 FFF7FEFF 		bl	_test_assert
 743              	.LVL94:
 744 03ca 0028     		cmp	r0, #0
 745 03cc 00D0     		beq	.LCB625
 746 03ce 64E6     		b	.L1	@long jump
 747              	.LCB625:
 748              		.loc 1 190 0
 749 03d0 4221     		mov	r1, #66
 750 03d2 201C     		mov	r0, r4
 751 03d4 FFF7FEFF 		bl	chMBPostAheadI
 752              	.LVL95:
 753              		.loc 1 191 0
 754 03d8 4142     		neg	r1, r0
 755 03da 4141     		adc	r1, r1, r0
 756              	.LVL96:
 757 03dc 2420     		mov	r0, #36
 758 03de FFF7FEFF 		bl	_test_assert
 759              	.LVL97:
 760 03e2 0028     		cmp	r0, #0
 761 03e4 00D0     		beq	.LCB639
 762 03e6 58E6     		b	.L1	@long jump
 763              	.LCB639:
 764              		.loc 1 192 0
 765 03e8 201C     		mov	r0, r4
 766 03ea 4121     		mov	r1, #65
 767 03ec FFF7FEFF 		bl	chMBPostAheadI
 768              	.LVL98:
 769              		.loc 1 193 0
 770              	@ 193 "/home/matt/arm_cortex/ChibiOS/test/testmbox.c" 1
 771 03f0 62B6     		cpsie   i
 772              	@ 0 "" 2
 773              		.loc 1 194 0
 774              		.code	16
 775 03f2 4142     		neg	r1, r0
 776 03f4 4141     		adc	r1, r1, r0
 777              	.LVL99:
 778 03f6 2520     		mov	r0, #37
 779 03f8 FFF7FEFF 		bl	_test_assert
 780              	.LVL100:
 781 03fc 0028     		cmp	r0, #0
 782 03fe 00D0     		beq	.LCB654
 783 0400 4BE6     		b	.L1	@long jump
 784              	.LCB654:
 785              		.loc 1 195 0
 786 0402 A068     		ldr	r0, [r4, #8]
 787 0404 E668     		ldr	r6, [r4, #12]
 788 0406 311A     		sub	r1, r6, r0
 789 0408 4B42     		neg	r3, r1
 790 040a 5941     		adc	r1, r1, r3
 791 040c 2620     		mov	r0, #38
 792 040e FFF7FEFF 		bl	_test_assert
 793              	.LVL101:
 794 0412 0028     		cmp	r0, #0
 795 0414 00D0     		beq	.LCB667
 796 0416 40E6     		b	.L1	@long jump
 797              	.LCB667:
 798 0418 0526     		mov	r6, #5
ARM GAS  /tmp/ccDEDhVY.s 			page 15


 799 041a 01E0     		b	.L32
 800              	.L33:
 801              		.align	2
 802              	.L31:
 803 041c 00000000 		.word	.LC1
 804              	.L32:
 805              	.L14:
 806              		.loc 1 197 0
 807              	@ 197 "/home/matt/arm_cortex/ChibiOS/test/testmbox.c" 1
 808 0420 72B6     		cpsid   i
 809              	@ 0 "" 2
 810              		.loc 1 198 0
 811              		.code	16
 812 0422 201C     		mov	r0, r4
 813 0424 01A9     		add	r1, sp, #4
 814 0426 FFF7FEFF 		bl	chMBFetchI
 815              	.LVL102:
 816              		.loc 1 199 0
 817              	@ 199 "/home/matt/arm_cortex/ChibiOS/test/testmbox.c" 1
 818 042a 62B6     		cpsie   i
 819              	@ 0 "" 2
 820              		.loc 1 200 0
 821              		.code	16
 822 042c 4142     		neg	r1, r0
 823 042e 4141     		adc	r1, r1, r0
 824              	.LVL103:
 825 0430 2720     		mov	r0, #39
 826 0432 FFF7FEFF 		bl	_test_assert
 827              	.LVL104:
 828 0436 0028     		cmp	r0, #0
 829 0438 00D0     		beq	.LCB697
 830 043a 2EE6     		b	.L1	@long jump
 831              	.LCB697:
 832              		.loc 1 201 0
 833 043c 6B46     		mov	r3, sp
 834 043e 1879     		ldrb	r0, [r3, #4]
 835 0440 013E     		sub	r6, r6, #1
 836 0442 FFF7FEFF 		bl	test_emit_token
 837              	.LVL105:
 838              		.loc 1 196 0
 839 0446 002E     		cmp	r6, #0
 840 0448 EAD1     		bne	.L14
 841              		.loc 1 203 0
 842 044a 2820     		mov	r0, #40
 843 044c 291C     		mov	r1, r5
 844 044e FFF7FEFF 		bl	_test_assert_sequence
 845              	.LVL106:
 846 0452 0028     		cmp	r0, #0
 847 0454 00D0     		beq	.LCB715
 848 0456 20E6     		b	.L1	@long jump
 849              	.LCB715:
 850              		.loc 1 204 0
 851              	@ 204 "/home/matt/arm_cortex/ChibiOS/test/testmbox.c" 1
 852 0458 72B6     		cpsid   i
 853              	@ 0 "" 2
 854              		.code	16
 855 045a 616A     		ldr	r1, [r4, #36]
ARM GAS  /tmp/ccDEDhVY.s 			page 16


 856 045c 2920     		mov	r0, #41
 857 045e 0539     		sub	r1, r1, #5
 858 0460 4B42     		neg	r3, r1
 859 0462 5941     		adc	r1, r1, r3
 860 0464 FFF7FEFF 		bl	_test_assert
 861              	.LVL107:
 862              	@ 204 "/home/matt/arm_cortex/ChibiOS/test/testmbox.c" 1
 863 0468 62B6     		cpsie   i
 864              	@ 0 "" 2
 865              		.code	16
 866 046a 0028     		cmp	r0, #0
 867 046c 00D0     		beq	.LCB728
 868 046e 14E6     		b	.L1	@long jump
 869              	.LCB728:
 870              		.loc 1 205 0 discriminator 2
 871              	@ 205 "/home/matt/arm_cortex/ChibiOS/test/testmbox.c" 1
 872 0470 72B6     		cpsid   i
 873              	@ 0 "" 2
 874              		.code	16
 875 0472 A569     		ldr	r5, [r4, #24]
 876 0474 2A20     		mov	r0, #42
 877 0476 6942     		neg	r1, r5
 878 0478 6941     		adc	r1, r1, r5
 879 047a FFF7FEFF 		bl	_test_assert
 880              	.LVL108:
 881              	@ 205 "/home/matt/arm_cortex/ChibiOS/test/testmbox.c" 1
 882 047e 62B6     		cpsie   i
 883              	@ 0 "" 2
 884              		.code	16
 885 0480 0028     		cmp	r0, #0
 886 0482 00D0     		beq	.LCB740
 887 0484 09E6     		b	.L1	@long jump
 888              	.LCB740:
 889              		.loc 1 206 0 discriminator 2
 890 0486 E168     		ldr	r1, [r4, #12]
 891 0488 A268     		ldr	r2, [r4, #8]
 892 048a 2B20     		mov	r0, #43
 893 048c 891A     		sub	r1, r1, r2
 894 048e 4B42     		neg	r3, r1
 895 0490 5941     		adc	r1, r1, r3
 896 0492 FFF7FEFF 		bl	_test_assert
 897              	.LVL109:
 898 0496 0028     		cmp	r0, #0
 899 0498 00D0     		beq	.LCB753
 900 049a FEE5     		b	.L1	@long jump
 901              	.LCB753:
 902              		.loc 1 211 0
 903 049c 201C     		mov	r0, r4
 904 049e FFF7FEFF 		bl	chMBReset
 905              	.LVL110:
 906              		.loc 1 216 0
 907              	@ 216 "/home/matt/arm_cortex/ChibiOS/test/testmbox.c" 1
 908 04a2 72B6     		cpsid   i
 909              	@ 0 "" 2
 910              		.code	16
 911 04a4 616A     		ldr	r1, [r4, #36]
 912 04a6 2C20     		mov	r0, #44
ARM GAS  /tmp/ccDEDhVY.s 			page 17


 913 04a8 0539     		sub	r1, r1, #5
 914 04aa 4B42     		neg	r3, r1
 915 04ac 5941     		adc	r1, r1, r3
 916 04ae FFF7FEFF 		bl	_test_assert
 917              	.LVL111:
 918              	@ 216 "/home/matt/arm_cortex/ChibiOS/test/testmbox.c" 1
 919 04b2 62B6     		cpsie   i
 920              	@ 0 "" 2
 921              		.code	16
 922 04b4 0028     		cmp	r0, #0
 923 04b6 00D0     		beq	.LCB769
 924 04b8 EFE5     		b	.L1	@long jump
 925              	.LCB769:
 926              		.loc 1 217 0 discriminator 2
 927              	@ 217 "/home/matt/arm_cortex/ChibiOS/test/testmbox.c" 1
 928 04ba 72B6     		cpsid   i
 929              	@ 0 "" 2
 930              		.code	16
 931 04bc A069     		ldr	r0, [r4, #24]
 932 04be 4142     		neg	r1, r0
 933 04c0 4141     		adc	r1, r1, r0
 934 04c2 2D20     		mov	r0, #45
 935 04c4 FFF7FEFF 		bl	_test_assert
 936              	.LVL112:
 937              	@ 217 "/home/matt/arm_cortex/ChibiOS/test/testmbox.c" 1
 938 04c8 62B6     		cpsie   i
 939              	@ 0 "" 2
 940              		.code	16
 941 04ca 0028     		cmp	r0, #0
 942 04cc 00D0     		beq	.LCB781
 943 04ce E4E5     		b	.L1	@long jump
 944              	.LCB781:
 945              		.loc 1 218 0 discriminator 2
 946              	@ 218 "/home/matt/arm_cortex/ChibiOS/test/testmbox.c" 1
 947 04d0 72B6     		cpsid   i
 948              	@ 0 "" 2
 949              		.code	16
 950 04d2 A368     		ldr	r3, [r4, #8]
 951 04d4 2668     		ldr	r6, [r4]
 952 04d6 2E20     		mov	r0, #46
 953 04d8 F11A     		sub	r1, r6, r3
 954 04da 4B42     		neg	r3, r1
 955 04dc 5941     		adc	r1, r1, r3
 956 04de FFF7FEFF 		bl	_test_assert
 957              	.LVL113:
 958              	@ 218 "/home/matt/arm_cortex/ChibiOS/test/testmbox.c" 1
 959 04e2 62B6     		cpsie   i
 960              	@ 0 "" 2
 961              		.code	16
 962 04e4 0028     		cmp	r0, #0
 963 04e6 00D0     		beq	.LCB796
 964 04e8 D7E5     		b	.L1	@long jump
 965              	.LCB796:
 966              		.loc 1 219 0 discriminator 2
 967              	@ 219 "/home/matt/arm_cortex/ChibiOS/test/testmbox.c" 1
 968 04ea 72B6     		cpsid   i
 969              	@ 0 "" 2
ARM GAS  /tmp/ccDEDhVY.s 			page 18


 970              		.code	16
 971 04ec 2568     		ldr	r5, [r4]
 972 04ee E468     		ldr	r4, [r4, #12]
 973 04f0 2F20     		mov	r0, #47
 974 04f2 291B     		sub	r1, r5, r4
 975 04f4 4B42     		neg	r3, r1
 976 04f6 5941     		adc	r1, r1, r3
 977 04f8 FFF7FEFF 		bl	_test_assert
 978              	.LVL114:
 979              	@ 219 "/home/matt/arm_cortex/ChibiOS/test/testmbox.c" 1
 980 04fc 62B6     		cpsie   i
 981              	@ 0 "" 2
 982              		.code	16
 983 04fe CCE5     		b	.L1
 984              		.cfi_endproc
 985              	.LFE8:
 986              		.size	mbox1_execute, .-mbox1_execute
 987              		.section	.text.mbox1_setup,"ax",%progbits
 988              		.align	2
 989              		.p2align 4,,15
 990              		.code	16
 991              		.thumb_func
 992              		.type	mbox1_setup, %function
 993              	mbox1_setup:
 994              	.LFB7:
 995              		.loc 1 71 0
 996              		.cfi_startproc
 997 0000 08B5     		push	{r3, lr}
 998              	.LCFI2:
 999              		.cfi_def_cfa_offset 8
 1000              		.cfi_offset 3, -8
 1001              		.cfi_offset 14, -4
 1002              		.loc 1 73 0
 1003 0002 0348     		ldr	r0, .L35
 1004 0004 0349     		ldr	r1, .L35+4
 1005 0006 0522     		mov	r2, #5
 1006 0008 FFF7FEFF 		bl	chMBInit
 1007              	.LVL115:
 1008              		.loc 1 74 0
 1009              		@ sp needed for prologue
 1010 000c 08BD     		pop	{r3, pc}
 1011              	.L36:
 1012 000e C046     		.align	2
 1013              	.L35:
 1014 0010 00000000 		.word	.LANCHOR0
 1015 0014 00000000 		.word	test
 1016              		.cfi_endproc
 1017              	.LFE7:
 1018              		.size	mbox1_setup, .-mbox1_setup
 1019              		.global	patternmbox
 1020              		.global	testmbox1
 1021 0018 C046C046 		.section	.data.mb1,"aw",%progbits
 1021      C046C046 
 1022              		.align	2
 1023              		.set	.LANCHOR0,. + 0
 1024              		.type	mb1, %object
 1025              		.size	mb1, 40
ARM GAS  /tmp/ccDEDhVY.s 			page 19


 1026              	mb1:
 1027 0000 00000000 		.word	test
 1028 0004 14000000 		.word	test+20
 1029 0008 00000000 		.word	test
 1030 000c 00000000 		.word	test
 1031 0010 10000000 		.word	mb1+16
 1032 0014 10000000 		.word	mb1+16
 1033 0018 00000000 		.word	0
 1034 001c 1C000000 		.word	mb1+28
 1035 0020 1C000000 		.word	mb1+28
 1036 0024 05000000 		.word	5
 1037              		.section	.rodata.patternmbox,"a",%progbits
 1038              		.align	2
 1039              		.type	patternmbox, %object
 1040              		.size	patternmbox, 8
 1041              	patternmbox:
 1042 0000 00000000 		.word	testmbox1
 1043 0004 00000000 		.word	0
 1044              		.section	.rodata.str1.4,"aMS",%progbits,1
 1045              		.align	2
 1046              	.LC1:
 1047 0000 41424344 		.ascii	"ABCDE\000"
 1047      4500
 1048 0006 0000     		.space	2
 1049              	.LC5:
 1050 0008 4D61696C 		.ascii	"Mailboxes, queuing and timeouts\000"
 1050      626F7865 
 1050      732C2071 
 1050      75657569 
 1050      6E672061 
 1051              		.section	.rodata.testmbox1,"a",%progbits
 1052              		.align	2
 1053              		.type	testmbox1, %object
 1054              		.size	testmbox1, 16
 1055              	testmbox1:
 1056 0000 08000000 		.word	.LC5
 1057 0004 00000000 		.word	mbox1_setup
 1058 0008 00000000 		.word	0
 1059 000c 00000000 		.word	mbox1_execute
 1060              		.text
 1061              	.Letext0:
 1062              		.file 2 "/home/matt/arm_cortex/gcc-arm-none-eabi/bin/../lib/gcc/arm-none-eabi/4.7.4/../../../../ar
 1063              		.file 3 "/home/matt/arm_cortex/ChibiOS/os/ports/GCC/ARMCMx/chtypes.h"
 1064              		.file 4 "/home/matt/arm_cortex/ChibiOS/os/kernel/include/chlists.h"
 1065              		.file 5 "/home/matt/arm_cortex/ChibiOS/os/kernel/include/chthreads.h"
 1066              		.file 6 "/home/matt/arm_cortex/ChibiOS/os/ports/GCC/ARMCMx/chcore_v6m.h"
 1067              		.file 7 "/home/matt/arm_cortex/ChibiOS/os/kernel/include/chsem.h"
 1068              		.file 8 "/home/matt/arm_cortex/ChibiOS/os/kernel/include/chmtx.h"
 1069              		.file 9 "/home/matt/arm_cortex/ChibiOS/os/kernel/include/chmboxes.h"
 1070              		.file 10 "/home/matt/arm_cortex/ChibiOS/test/test.h"