ARM GAS  /tmp/ccnSQ1Im.s 			page 1


   1              		.cpu cortex-m0
   2              		.fpu softvfp
   3              		.eabi_attribute 20, 1
   4              		.eabi_attribute 21, 1
   5              		.eabi_attribute 23, 3
   6              		.eabi_attribute 24, 1
   7              		.eabi_attribute 25, 1
   8              		.eabi_attribute 26, 1
   9              		.eabi_attribute 30, 2
  10              		.eabi_attribute 34, 0
  11              		.eabi_attribute 18, 4
  12              		.code	16
  13              		.file	"testpools.c"
  14              		.text
  15              	.Ltext0:
  16              		.cfi_sections	.debug_frame
  17              		.section	.text.null_provider,"ax",%progbits
  18              		.align	2
  19              		.p2align 4,,15
  20              		.code	16
  21              		.thumb_func
  22              		.type	null_provider, %function
  23              	null_provider:
  24              	.LFB7:
  25              		.file 1 "/home/matt/arm_cortex/ChibiOS/test/testpools.c"
  26              		.loc 1 60 0
  27              		.cfi_startproc
  28              	.LVL0:
  29              		.loc 1 64 0
  30 0000 0020     		mov	r0, #0
  31              	.LVL1:
  32              		@ sp needed for prologue
  33 0002 7047     		bx	lr
  34              		.cfi_endproc
  35              	.LFE7:
  36              		.size	null_provider, .-null_provider
  37 0004 C046C046 		.section	.text.pools1_setup,"ax",%progbits
  37      C046C046 
  37      C046C046 
  38              		.align	2
  39              		.p2align 4,,15
  40              		.code	16
  41              		.thumb_func
  42              		.type	pools1_setup, %function
  43              	pools1_setup:
  44              	.LFB8:
  45              		.loc 1 66 0
  46              		.cfi_startproc
  47 0000 08B5     		push	{r3, lr}
  48              	.LCFI0:
  49              		.cfi_def_cfa_offset 8
  50              		.cfi_offset 3, -8
  51              		.cfi_offset 14, -4
  52              		.loc 1 68 0
  53 0002 9821     		mov	r1, #152
  54 0004 0248     		ldr	r0, .L3
  55 0006 4900     		lsl	r1, r1, #1
ARM GAS  /tmp/ccnSQ1Im.s 			page 2


  56 0008 0022     		mov	r2, #0
  57 000a FFF7FEFF 		bl	chPoolInit
  58              	.LVL2:
  59              		.loc 1 69 0
  60              		@ sp needed for prologue
  61 000e 08BD     		pop	{r3, pc}
  62              	.L4:
  63              		.align	2
  64              	.L3:
  65 0010 00000000 		.word	.LANCHOR0
  66              		.cfi_endproc
  67              	.LFE8:
  68              		.size	pools1_setup, .-pools1_setup
  69 0014 C046C046 		.section	.text.pools1_execute,"ax",%progbits
  69      C046C046 
  69      C046C046 
  70              		.align	2
  71              		.p2align 4,,15
  72              		.code	16
  73              		.thumb_func
  74              		.type	pools1_execute, %function
  75              	pools1_execute:
  76              	.LFB9:
  77              		.loc 1 71 0
  78              		.cfi_startproc
  79 0000 30B5     		push	{r4, r5, lr}
  80              	.LCFI1:
  81              		.cfi_def_cfa_offset 12
  82              		.cfi_offset 4, -12
  83              		.cfi_offset 5, -8
  84              		.cfi_offset 14, -4
  85              		.loc 1 75 0
  86 0002 5C4D     		ldr	r5, .L11
  87 0004 5C4C     		ldr	r4, .L11+4
  88 0006 2B68     		ldr	r3, [r5]
  89              		.loc 1 71 0
  90 0008 83B0     		sub	sp, sp, #12
  91              	.LCFI2:
  92              		.cfi_def_cfa_offset 24
  93              		.loc 1 75 0
  94 000a 191C     		mov	r1, r3
  95 000c 201C     		mov	r0, r4
  96 000e 0522     		mov	r2, #5
  97 0010 0193     		str	r3, [sp, #4]
  98 0012 FFF7FEFF 		bl	chPoolLoadArray
  99              	.LVL3:
 100              		.loc 1 79 0
 101 0016 201C     		mov	r0, r4
 102 0018 FFF7FEFF 		bl	chPoolAlloc
 103              	.LVL4:
 104 001c 011C     		mov	r1, r0
 105 001e 481E     		sub	r0, r1, #1
 106 0020 8141     		sbc	r1, r1, r0
 107 0022 0120     		mov	r0, #1
 108 0024 FFF7FEFF 		bl	_test_assert
 109              	.LVL5:
 110 0028 0028     		cmp	r0, #0
ARM GAS  /tmp/ccnSQ1Im.s 			page 3


 111 002a 00D0     		beq	.LCB74
 112 002c 92E0     		b	.L5	@long jump
 113              	.LCB74:
 114              	.LVL6:
 115 002e 201C     		mov	r0, r4
 116 0030 FFF7FEFF 		bl	chPoolAlloc
 117              	.LVL7:
 118 0034 011C     		mov	r1, r0
 119 0036 481E     		sub	r0, r1, #1
 120 0038 8141     		sbc	r1, r1, r0
 121 003a 0120     		mov	r0, #1
 122 003c FFF7FEFF 		bl	_test_assert
 123              	.LVL8:
 124 0040 0028     		cmp	r0, #0
 125 0042 00D0     		beq	.LCB87
 126 0044 86E0     		b	.L5	@long jump
 127              	.LCB87:
 128              	.LVL9:
 129 0046 201C     		mov	r0, r4
 130 0048 FFF7FEFF 		bl	chPoolAlloc
 131              	.LVL10:
 132 004c 011C     		mov	r1, r0
 133 004e 481E     		sub	r0, r1, #1
 134 0050 8141     		sbc	r1, r1, r0
 135 0052 0120     		mov	r0, #1
 136 0054 FFF7FEFF 		bl	_test_assert
 137              	.LVL11:
 138 0058 0028     		cmp	r0, #0
 139 005a 7BD1     		bne	.L5
 140              	.LVL12:
 141 005c 201C     		mov	r0, r4
 142 005e FFF7FEFF 		bl	chPoolAlloc
 143              	.LVL13:
 144 0062 011C     		mov	r1, r0
 145 0064 481E     		sub	r0, r1, #1
 146 0066 8141     		sbc	r1, r1, r0
 147 0068 0120     		mov	r0, #1
 148 006a FFF7FEFF 		bl	_test_assert
 149              	.LVL14:
 150 006e 0028     		cmp	r0, #0
 151 0070 70D1     		bne	.L5
 152              	.LVL15:
 153 0072 201C     		mov	r0, r4
 154 0074 FFF7FEFF 		bl	chPoolAlloc
 155              	.LVL16:
 156 0078 011C     		mov	r1, r0
 157 007a 481E     		sub	r0, r1, #1
 158 007c 8141     		sbc	r1, r1, r0
 159 007e 0120     		mov	r0, #1
 160 0080 FFF7FEFF 		bl	_test_assert
 161              	.LVL17:
 162 0084 0028     		cmp	r0, #0
 163 0086 65D1     		bne	.L5
 164              	.LVL18:
 165              		.loc 1 82 0
 166 0088 201C     		mov	r0, r4
 167 008a FFF7FEFF 		bl	chPoolAlloc
ARM GAS  /tmp/ccnSQ1Im.s 			page 4


 168              	.LVL19:
 169 008e 4142     		neg	r1, r0
 170 0090 4141     		adc	r1, r1, r0
 171 0092 0220     		mov	r0, #2
 172 0094 FFF7FEFF 		bl	_test_assert
 173              	.LVL20:
 174 0098 0028     		cmp	r0, #0
 175 009a 5BD1     		bne	.L5
 176              	.LBB4:
 177              	.LBB5:
 178              		.loc 1 86 0
 179 009c 201C     		mov	r0, r4
 180 009e 0199     		ldr	r1, [sp, #4]
 181 00a0 FFF7FEFF 		bl	chPoolFree
 182              	.LVL21:
 183 00a4 6968     		ldr	r1, [r5, #4]
 184 00a6 201C     		mov	r0, r4
 185 00a8 0191     		str	r1, [sp, #4]
 186 00aa FFF7FEFF 		bl	chPoolFree
 187              	.LVL22:
 188 00ae AA68     		ldr	r2, [r5, #8]
 189 00b0 201C     		mov	r0, r4
 190 00b2 111C     		mov	r1, r2
 191 00b4 0192     		str	r2, [sp, #4]
 192 00b6 FFF7FEFF 		bl	chPoolFree
 193              	.LVL23:
 194 00ba EB68     		ldr	r3, [r5, #12]
 195 00bc 201C     		mov	r0, r4
 196 00be 191C     		mov	r1, r3
 197 00c0 0193     		str	r3, [sp, #4]
 198 00c2 FFF7FEFF 		bl	chPoolFree
 199              	.LVL24:
 200 00c6 2D69     		ldr	r5, [r5, #16]
 201 00c8 201C     		mov	r0, r4
 202 00ca 291C     		mov	r1, r5
 203 00cc 0195     		str	r5, [sp, #4]
 204 00ce FFF7FEFF 		bl	chPoolFree
 205              	.LVL25:
 206              		.loc 1 90 0
 207 00d2 201C     		mov	r0, r4
 208 00d4 FFF7FEFF 		bl	chPoolAlloc
 209              	.LVL26:
 210 00d8 011C     		mov	r1, r0
 211 00da 481E     		sub	r0, r1, #1
 212 00dc 8141     		sbc	r1, r1, r0
 213 00de 0320     		mov	r0, #3
 214 00e0 FFF7FEFF 		bl	_test_assert
 215              	.LVL27:
 216 00e4 0028     		cmp	r0, #0
 217 00e6 35D1     		bne	.L5
 218              	.LVL28:
 219 00e8 201C     		mov	r0, r4
 220 00ea FFF7FEFF 		bl	chPoolAlloc
 221              	.LVL29:
 222 00ee 011C     		mov	r1, r0
 223 00f0 481E     		sub	r0, r1, #1
 224 00f2 8141     		sbc	r1, r1, r0
ARM GAS  /tmp/ccnSQ1Im.s 			page 5


 225 00f4 0320     		mov	r0, #3
 226 00f6 FFF7FEFF 		bl	_test_assert
 227              	.LVL30:
 228 00fa 0028     		cmp	r0, #0
 229 00fc 2AD1     		bne	.L5
 230              	.LVL31:
 231 00fe 201C     		mov	r0, r4
 232 0100 FFF7FEFF 		bl	chPoolAlloc
 233              	.LVL32:
 234 0104 011C     		mov	r1, r0
 235 0106 481E     		sub	r0, r1, #1
 236 0108 8141     		sbc	r1, r1, r0
 237 010a 0320     		mov	r0, #3
 238 010c FFF7FEFF 		bl	_test_assert
 239              	.LVL33:
 240 0110 0028     		cmp	r0, #0
 241 0112 1FD1     		bne	.L5
 242              	.LVL34:
 243 0114 201C     		mov	r0, r4
 244 0116 FFF7FEFF 		bl	chPoolAlloc
 245              	.LVL35:
 246 011a 011C     		mov	r1, r0
 247 011c 481E     		sub	r0, r1, #1
 248 011e 8141     		sbc	r1, r1, r0
 249 0120 0320     		mov	r0, #3
 250 0122 FFF7FEFF 		bl	_test_assert
 251              	.LVL36:
 252 0126 0028     		cmp	r0, #0
 253 0128 14D1     		bne	.L5
 254              	.LVL37:
 255 012a 201C     		mov	r0, r4
 256 012c FFF7FEFF 		bl	chPoolAlloc
 257              	.LVL38:
 258 0130 011C     		mov	r1, r0
 259 0132 481E     		sub	r0, r1, #1
 260 0134 8141     		sbc	r1, r1, r0
 261 0136 0320     		mov	r0, #3
 262 0138 FFF7FEFF 		bl	_test_assert
 263              	.LVL39:
 264 013c 0028     		cmp	r0, #0
 265 013e 09D1     		bne	.L5
 266              	.LVL40:
 267              		.loc 1 93 0
 268 0140 201C     		mov	r0, r4
 269 0142 FFF7FEFF 		bl	chPoolAlloc
 270              	.LVL41:
 271 0146 4142     		neg	r1, r0
 272 0148 4141     		adc	r1, r1, r0
 273 014a 0420     		mov	r0, #4
 274 014c FFF7FEFF 		bl	_test_assert
 275              	.LVL42:
 276 0150 0028     		cmp	r0, #0
 277 0152 01D0     		beq	.L10
 278              	.LVL43:
 279              	.L5:
 280              	.LBE5:
 281              	.LBE4:
ARM GAS  /tmp/ccnSQ1Im.s 			page 6


 282              		.loc 1 98 0
 283 0154 03B0     		add	sp, sp, #12
 284              		@ sp needed for prologue
 285 0156 30BD     		pop	{r4, r5, pc}
 286              	.LVL44:
 287              	.L10:
 288              	.LBB7:
 289              	.LBB6:
 290              		.loc 1 96 0
 291 0158 201C     		mov	r0, r4
 292 015a 1021     		mov	r1, #16
 293 015c 074A     		ldr	r2, .L11+8
 294 015e FFF7FEFF 		bl	chPoolInit
 295              	.LVL45:
 296              		.loc 1 97 0
 297 0162 201C     		mov	r0, r4
 298 0164 FFF7FEFF 		bl	chPoolAlloc
 299              	.LVL46:
 300 0168 4142     		neg	r1, r0
 301 016a 4141     		adc	r1, r1, r0
 302 016c 0520     		mov	r0, #5
 303 016e FFF7FEFF 		bl	_test_assert
 304              	.LVL47:
 305 0172 EFE7     		b	.L5
 306              	.L12:
 307              		.align	2
 308              	.L11:
 309 0174 00000000 		.word	wa
 310 0178 00000000 		.word	.LANCHOR0
 311 017c 00000000 		.word	null_provider
 312              	.LBE6:
 313              	.LBE7:
 314              		.cfi_endproc
 315              	.LFE9:
 316              		.size	pools1_execute, .-pools1_execute
 317              		.global	patternpools
 318              		.global	testpools1
 319              		.section	.rodata.str1.4,"aMS",%progbits,1
 320              		.align	2
 321              	.LC4:
 322 0000 4D656D6F 		.ascii	"Memory Pools, queue/dequeue\000"
 322      72792050 
 322      6F6F6C73 
 322      2C207175 
 322      6575652F 
 323              		.section	.rodata.patternpools,"a",%progbits
 324              		.align	2
 325              		.type	patternpools, %object
 326              		.size	patternpools, 8
 327              	patternpools:
 328 0000 00000000 		.word	testpools1
 329 0004 00000000 		.word	0
 330              		.section	.data.mp1,"aw",%progbits
 331              		.align	2
 332              		.set	.LANCHOR0,. + 0
 333              		.type	mp1, %object
 334              		.size	mp1, 12
ARM GAS  /tmp/ccnSQ1Im.s 			page 7


 335              	mp1:
 336 0000 00000000 		.word	0
 337 0004 30010000 		.word	304
 338 0008 00000000 		.word	0
 339              		.section	.rodata.testpools1,"a",%progbits
 340              		.align	2
 341              		.type	testpools1, %object
 342              		.size	testpools1, 16
 343              	testpools1:
 344 0000 00000000 		.word	.LC4
 345 0004 00000000 		.word	pools1_setup
 346 0008 00000000 		.word	0
 347 000c 00000000 		.word	pools1_execute
 348              		.text
 349              	.Letext0:
 350              		.file 2 "/home/matt/arm_cortex/gcc-arm-none-eabi/bin/../lib/gcc/arm-none-eabi/4.7.4/include/stddef
 351              		.file 3 "/home/matt/arm_cortex/ChibiOS/os/ports/GCC/ARMCMx/chtypes.h"
 352              		.file 4 "/home/matt/arm_cortex/ChibiOS/os/kernel/include/chmemcore.h"
 353              		.file 5 "/home/matt/arm_cortex/ChibiOS/os/kernel/include/chmempools.h"
 354              		.file 6 "/home/matt/arm_cortex/ChibiOS/test/test.h"